ARM GAS  /tmp/cckqHGfc.s 			page 1


   1              		.cpu cortex-m0plus
   2              		.arch armv6s-m
   3              		.fpu softvfp
   4              		.eabi_attribute 20, 1
   5              		.eabi_attribute 21, 1
   6              		.eabi_attribute 23, 3
   7              		.eabi_attribute 24, 1
   8              		.eabi_attribute 25, 1
   9              		.eabi_attribute 26, 1
  10              		.eabi_attribute 30, 1
  11              		.eabi_attribute 34, 0
  12              		.eabi_attribute 18, 4
  13              		.file	"adc.c"
  14              		.text
  15              	.Ltext0:
  16              		.cfi_sections	.debug_frame
  17              		.file 1 "Core/Src/adc.c"
  18              		.section	.text.MX_ADC1_Init,"ax",%progbits
  19              		.align	1
  20              		.global	MX_ADC1_Init
  21              		.syntax unified
  22              		.code	16
  23              		.thumb_func
  25              	MX_ADC1_Init:
  26              	.LFB457:
   1:Core/Src/adc.c **** /* USER CODE BEGIN Header */
   2:Core/Src/adc.c **** /**
   3:Core/Src/adc.c ****   ******************************************************************************
   4:Core/Src/adc.c ****   * @file    adc.c
   5:Core/Src/adc.c ****   * @brief   This file provides code for the configuration
   6:Core/Src/adc.c ****   *          of the ADC instances.
   7:Core/Src/adc.c ****   ******************************************************************************
   8:Core/Src/adc.c ****   * @attention
   9:Core/Src/adc.c ****   *
  10:Core/Src/adc.c ****   * Copyright (c) 2026 STMicroelectronics.
  11:Core/Src/adc.c ****   * All rights reserved.
  12:Core/Src/adc.c ****   *
  13:Core/Src/adc.c ****   * This software is licensed under terms that can be found in the LICENSE file
  14:Core/Src/adc.c ****   * in the root directory of this software component.
  15:Core/Src/adc.c ****   * If no LICENSE file comes with this software, it is provided AS-IS.
  16:Core/Src/adc.c ****   *
  17:Core/Src/adc.c ****   ******************************************************************************
  18:Core/Src/adc.c ****   */
  19:Core/Src/adc.c **** /* USER CODE END Header */
  20:Core/Src/adc.c **** /* Includes ------------------------------------------------------------------*/
  21:Core/Src/adc.c **** #include "adc.h"
  22:Core/Src/adc.c **** 
  23:Core/Src/adc.c **** /* USER CODE BEGIN 0 */
  24:Core/Src/adc.c **** 
  25:Core/Src/adc.c **** /* USER CODE END 0 */
  26:Core/Src/adc.c **** 
  27:Core/Src/adc.c **** ADC_HandleTypeDef hadc1;
  28:Core/Src/adc.c **** DMA_HandleTypeDef hdma_adc1;
  29:Core/Src/adc.c **** 
  30:Core/Src/adc.c **** /* ADC1 init function */
  31:Core/Src/adc.c **** void MX_ADC1_Init(void)
  32:Core/Src/adc.c **** {
ARM GAS  /tmp/cckqHGfc.s 			page 2


  27              		.loc 1 32 1 view -0
  28              		.cfi_startproc
  29              		@ args = 0, pretend = 0, frame = 16
  30              		@ frame_needed = 0, uses_anonymous_args = 0
  31 0000 00B5     		push	{lr}
  32              		.cfi_def_cfa_offset 4
  33              		.cfi_offset 14, -4
  34 0002 85B0     		sub	sp, sp, #20
  35              		.cfi_def_cfa_offset 24
  33:Core/Src/adc.c **** 
  34:Core/Src/adc.c ****   /* USER CODE BEGIN ADC1_Init 0 */
  35:Core/Src/adc.c **** 
  36:Core/Src/adc.c ****   /* USER CODE END ADC1_Init 0 */
  37:Core/Src/adc.c **** 
  38:Core/Src/adc.c ****   ADC_ChannelConfTypeDef sConfig = {0};
  36              		.loc 1 38 3 view .LVU1
  37              		.loc 1 38 26 is_stmt 0 view .LVU2
  38 0004 0C22     		movs	r2, #12
  39 0006 0021     		movs	r1, #0
  40 0008 01A8     		add	r0, sp, #4
  41 000a FFF7FEFF 		bl	memset
  42              	.LVL0:
  39:Core/Src/adc.c **** 
  40:Core/Src/adc.c ****   /* USER CODE BEGIN ADC1_Init 1 */
  41:Core/Src/adc.c **** 
  42:Core/Src/adc.c ****   /* USER CODE END ADC1_Init 1 */
  43:Core/Src/adc.c **** 
  44:Core/Src/adc.c ****   /** Configure the global features of the ADC (Clock, Resolution, Data Alignment and number of con
  45:Core/Src/adc.c ****   */
  46:Core/Src/adc.c ****   hadc1.Instance = ADC1;
  43              		.loc 1 46 3 is_stmt 1 view .LVU3
  44              		.loc 1 46 18 is_stmt 0 view .LVU4
  45 000e 1948     		ldr	r0, .L6
  46 0010 194B     		ldr	r3, .L6+4
  47 0012 0360     		str	r3, [r0]
  47:Core/Src/adc.c ****   hadc1.Init.ClockPrescaler = ADC_CLOCK_SYNC_PCLK_DIV4;
  48              		.loc 1 47 3 is_stmt 1 view .LVU5
  49              		.loc 1 47 29 is_stmt 0 view .LVU6
  50 0014 8023     		movs	r3, #128
  51 0016 1B06     		lsls	r3, r3, #24
  52 0018 4360     		str	r3, [r0, #4]
  48:Core/Src/adc.c ****   hadc1.Init.Resolution = ADC_RESOLUTION_12B;
  53              		.loc 1 48 3 is_stmt 1 view .LVU7
  54              		.loc 1 48 25 is_stmt 0 view .LVU8
  55 001a 0023     		movs	r3, #0
  56 001c 8360     		str	r3, [r0, #8]
  49:Core/Src/adc.c ****   hadc1.Init.DataAlign = ADC_DATAALIGN_RIGHT;
  57              		.loc 1 49 3 is_stmt 1 view .LVU9
  58              		.loc 1 49 24 is_stmt 0 view .LVU10
  59 001e C360     		str	r3, [r0, #12]
  50:Core/Src/adc.c ****   hadc1.Init.ScanConvMode = ADC_SCAN_DISABLE;
  60              		.loc 1 50 3 is_stmt 1 view .LVU11
  61              		.loc 1 50 27 is_stmt 0 view .LVU12
  62 0020 0361     		str	r3, [r0, #16]
  51:Core/Src/adc.c ****   hadc1.Init.EOCSelection = ADC_EOC_SINGLE_CONV;
  63              		.loc 1 51 3 is_stmt 1 view .LVU13
  64              		.loc 1 51 27 is_stmt 0 view .LVU14
ARM GAS  /tmp/cckqHGfc.s 			page 3


  65 0022 0422     		movs	r2, #4
  66 0024 4261     		str	r2, [r0, #20]
  52:Core/Src/adc.c ****   hadc1.Init.LowPowerAutoWait = DISABLE;
  67              		.loc 1 52 3 is_stmt 1 view .LVU15
  68              		.loc 1 52 31 is_stmt 0 view .LVU16
  69 0026 0376     		strb	r3, [r0, #24]
  53:Core/Src/adc.c ****   hadc1.Init.LowPowerAutoPowerOff = DISABLE;
  70              		.loc 1 53 3 is_stmt 1 view .LVU17
  71              		.loc 1 53 35 is_stmt 0 view .LVU18
  72 0028 4376     		strb	r3, [r0, #25]
  54:Core/Src/adc.c ****   hadc1.Init.ContinuousConvMode = ENABLE;
  73              		.loc 1 54 3 is_stmt 1 view .LVU19
  74              		.loc 1 54 33 is_stmt 0 view .LVU20
  75 002a 033A     		subs	r2, r2, #3
  76 002c 8276     		strb	r2, [r0, #26]
  55:Core/Src/adc.c ****   hadc1.Init.NbrOfConversion = 1;
  77              		.loc 1 55 3 is_stmt 1 view .LVU21
  78              		.loc 1 55 30 is_stmt 0 view .LVU22
  79 002e C261     		str	r2, [r0, #28]
  56:Core/Src/adc.c ****   hadc1.Init.ExternalTrigConv = ADC_SOFTWARE_START;
  80              		.loc 1 56 3 is_stmt 1 view .LVU23
  81              		.loc 1 56 31 is_stmt 0 view .LVU24
  82 0030 4362     		str	r3, [r0, #36]
  57:Core/Src/adc.c ****   hadc1.Init.ExternalTrigConvEdge = ADC_EXTERNALTRIGCONVEDGE_NONE;
  83              		.loc 1 57 3 is_stmt 1 view .LVU25
  84              		.loc 1 57 35 is_stmt 0 view .LVU26
  85 0032 8362     		str	r3, [r0, #40]
  58:Core/Src/adc.c ****   hadc1.Init.DMAContinuousRequests = ENABLE;
  86              		.loc 1 58 3 is_stmt 1 view .LVU27
  87              		.loc 1 58 36 is_stmt 0 view .LVU28
  88 0034 2C21     		movs	r1, #44
  89 0036 4254     		strb	r2, [r0, r1]
  59:Core/Src/adc.c ****   hadc1.Init.Overrun = ADC_OVR_DATA_PRESERVED;
  90              		.loc 1 59 3 is_stmt 1 view .LVU29
  91              		.loc 1 59 22 is_stmt 0 view .LVU30
  92 0038 0363     		str	r3, [r0, #48]
  60:Core/Src/adc.c ****   hadc1.Init.SamplingTimeCommon1 = ADC_SAMPLETIME_12CYCLES_5;
  93              		.loc 1 60 3 is_stmt 1 view .LVU31
  94              		.loc 1 60 34 is_stmt 0 view .LVU32
  95 003a 0232     		adds	r2, r2, #2
  96 003c 4263     		str	r2, [r0, #52]
  61:Core/Src/adc.c ****   hadc1.Init.SamplingTimeCommon2 = ADC_SAMPLETIME_12CYCLES_5;
  97              		.loc 1 61 3 is_stmt 1 view .LVU33
  98              		.loc 1 61 34 is_stmt 0 view .LVU34
  99 003e 8263     		str	r2, [r0, #56]
  62:Core/Src/adc.c ****   hadc1.Init.OversamplingMode = DISABLE;
 100              		.loc 1 62 3 is_stmt 1 view .LVU35
 101              		.loc 1 62 31 is_stmt 0 view .LVU36
 102 0040 3932     		adds	r2, r2, #57
 103 0042 8354     		strb	r3, [r0, r2]
  63:Core/Src/adc.c ****   hadc1.Init.TriggerFrequencyMode = ADC_TRIGGER_FREQ_HIGH;
 104              		.loc 1 63 3 is_stmt 1 view .LVU37
 105              		.loc 1 63 35 is_stmt 0 view .LVU38
 106 0044 C364     		str	r3, [r0, #76]
  64:Core/Src/adc.c ****   if (HAL_ADC_Init(&hadc1) != HAL_OK)
 107              		.loc 1 64 3 is_stmt 1 view .LVU39
 108              		.loc 1 64 7 is_stmt 0 view .LVU40
ARM GAS  /tmp/cckqHGfc.s 			page 4


 109 0046 FFF7FEFF 		bl	HAL_ADC_Init
 110              	.LVL1:
 111              		.loc 1 64 6 discriminator 1 view .LVU41
 112 004a 0028     		cmp	r0, #0
 113 004c 0CD1     		bne	.L4
 114              	.L2:
  65:Core/Src/adc.c ****   {
  66:Core/Src/adc.c ****     Error_Handler();
  67:Core/Src/adc.c ****   }
  68:Core/Src/adc.c **** 
  69:Core/Src/adc.c ****   /** Configure Regular Channel
  70:Core/Src/adc.c ****   */
  71:Core/Src/adc.c ****   sConfig.Channel = ADC_CHANNEL_0;
 115              		.loc 1 71 3 is_stmt 1 view .LVU42
 116              		.loc 1 71 19 is_stmt 0 view .LVU43
 117 004e 01A9     		add	r1, sp, #4
 118 0050 0123     		movs	r3, #1
 119 0052 0193     		str	r3, [sp, #4]
  72:Core/Src/adc.c ****   sConfig.Rank = ADC_REGULAR_RANK_1;
 120              		.loc 1 72 3 is_stmt 1 view .LVU44
 121              		.loc 1 72 16 is_stmt 0 view .LVU45
 122 0054 0023     		movs	r3, #0
 123 0056 4B60     		str	r3, [r1, #4]
  73:Core/Src/adc.c ****   sConfig.SamplingTime = ADC_SAMPLINGTIME_COMMON_1;
 124              		.loc 1 73 3 is_stmt 1 view .LVU46
 125              		.loc 1 73 24 is_stmt 0 view .LVU47
 126 0058 8B60     		str	r3, [r1, #8]
  74:Core/Src/adc.c ****   if (HAL_ADC_ConfigChannel(&hadc1, &sConfig) != HAL_OK)
 127              		.loc 1 74 3 is_stmt 1 view .LVU48
 128              		.loc 1 74 7 is_stmt 0 view .LVU49
 129 005a 0648     		ldr	r0, .L6
 130 005c FFF7FEFF 		bl	HAL_ADC_ConfigChannel
 131              	.LVL2:
 132              		.loc 1 74 6 discriminator 1 view .LVU50
 133 0060 0028     		cmp	r0, #0
 134 0062 04D1     		bne	.L5
 135              	.L1:
  75:Core/Src/adc.c ****   {
  76:Core/Src/adc.c ****     Error_Handler();
  77:Core/Src/adc.c ****   }
  78:Core/Src/adc.c ****   /* USER CODE BEGIN ADC1_Init 2 */
  79:Core/Src/adc.c **** 
  80:Core/Src/adc.c ****   /* USER CODE END ADC1_Init 2 */
  81:Core/Src/adc.c **** 
  82:Core/Src/adc.c **** }
 136              		.loc 1 82 1 view .LVU51
 137 0064 05B0     		add	sp, sp, #20
 138              		@ sp needed
 139 0066 00BD     		pop	{pc}
 140              	.L4:
  66:Core/Src/adc.c ****   }
 141              		.loc 1 66 5 is_stmt 1 view .LVU52
 142 0068 FFF7FEFF 		bl	Error_Handler
 143              	.LVL3:
 144 006c EFE7     		b	.L2
 145              	.L5:
  76:Core/Src/adc.c ****   }
ARM GAS  /tmp/cckqHGfc.s 			page 5


 146              		.loc 1 76 5 view .LVU53
 147 006e FFF7FEFF 		bl	Error_Handler
 148              	.LVL4:
 149              		.loc 1 82 1 is_stmt 0 view .LVU54
 150 0072 F7E7     		b	.L1
 151              	.L7:
 152              		.align	2
 153              	.L6:
 154 0074 00000000 		.word	hadc1
 155 0078 00240140 		.word	1073816576
 156              		.cfi_endproc
 157              	.LFE457:
 159              		.section	.text.HAL_ADC_MspInit,"ax",%progbits
 160              		.align	1
 161              		.global	HAL_ADC_MspInit
 162              		.syntax unified
 163              		.code	16
 164              		.thumb_func
 166              	HAL_ADC_MspInit:
 167              	.LVL5:
 168              	.LFB458:
  83:Core/Src/adc.c **** 
  84:Core/Src/adc.c **** void HAL_ADC_MspInit(ADC_HandleTypeDef* adcHandle)
  85:Core/Src/adc.c **** {
 169              		.loc 1 85 1 is_stmt 1 view -0
 170              		.cfi_startproc
 171              		@ args = 0, pretend = 0, frame = 32
 172              		@ frame_needed = 0, uses_anonymous_args = 0
 173              		.loc 1 85 1 is_stmt 0 view .LVU56
 174 0000 10B5     		push	{r4, lr}
 175              		.cfi_def_cfa_offset 8
 176              		.cfi_offset 4, -8
 177              		.cfi_offset 14, -4
 178 0002 88B0     		sub	sp, sp, #32
 179              		.cfi_def_cfa_offset 40
 180 0004 0400     		movs	r4, r0
  86:Core/Src/adc.c **** 
  87:Core/Src/adc.c ****   GPIO_InitTypeDef GPIO_InitStruct = {0};
 181              		.loc 1 87 3 is_stmt 1 view .LVU57
 182              		.loc 1 87 20 is_stmt 0 view .LVU58
 183 0006 1422     		movs	r2, #20
 184 0008 0021     		movs	r1, #0
 185 000a 03A8     		add	r0, sp, #12
 186              	.LVL6:
 187              		.loc 1 87 20 view .LVU59
 188 000c FFF7FEFF 		bl	memset
 189              	.LVL7:
  88:Core/Src/adc.c ****   if(adcHandle->Instance==ADC1)
 190              		.loc 1 88 3 is_stmt 1 view .LVU60
 191              		.loc 1 88 15 is_stmt 0 view .LVU61
 192 0010 2268     		ldr	r2, [r4]
 193              		.loc 1 88 5 view .LVU62
 194 0012 1D4B     		ldr	r3, .L13
 195 0014 9A42     		cmp	r2, r3
 196 0016 01D0     		beq	.L11
 197              	.L8:
  89:Core/Src/adc.c ****   {
ARM GAS  /tmp/cckqHGfc.s 			page 6


  90:Core/Src/adc.c ****   /* USER CODE BEGIN ADC1_MspInit 0 */
  91:Core/Src/adc.c **** 
  92:Core/Src/adc.c ****   /* USER CODE END ADC1_MspInit 0 */
  93:Core/Src/adc.c ****     /* ADC1 clock enable */
  94:Core/Src/adc.c ****     __HAL_RCC_ADC_CLK_ENABLE();
  95:Core/Src/adc.c **** 
  96:Core/Src/adc.c ****     __HAL_RCC_GPIOA_CLK_ENABLE();
  97:Core/Src/adc.c ****     /**ADC1 GPIO Configuration
  98:Core/Src/adc.c ****     PA0     ------> ADC1_IN0
  99:Core/Src/adc.c ****     */
 100:Core/Src/adc.c ****     GPIO_InitStruct.Pin = GPIO_PIN_0;
 101:Core/Src/adc.c ****     GPIO_InitStruct.Mode = GPIO_MODE_ANALOG;
 102:Core/Src/adc.c ****     GPIO_InitStruct.Pull = GPIO_NOPULL;
 103:Core/Src/adc.c ****     HAL_GPIO_Init(GPIOA, &GPIO_InitStruct);
 104:Core/Src/adc.c **** 
 105:Core/Src/adc.c ****     /* ADC1 DMA Init */
 106:Core/Src/adc.c ****     /* ADC1 Init */
 107:Core/Src/adc.c ****     hdma_adc1.Instance = DMA1_Channel5;
 108:Core/Src/adc.c ****     hdma_adc1.Init.Request = DMA_REQUEST_ADC1;
 109:Core/Src/adc.c ****     hdma_adc1.Init.Direction = DMA_PERIPH_TO_MEMORY;
 110:Core/Src/adc.c ****     hdma_adc1.Init.PeriphInc = DMA_PINC_DISABLE;
 111:Core/Src/adc.c ****     hdma_adc1.Init.MemInc = DMA_MINC_ENABLE;
 112:Core/Src/adc.c ****     hdma_adc1.Init.PeriphDataAlignment = DMA_PDATAALIGN_HALFWORD;
 113:Core/Src/adc.c ****     hdma_adc1.Init.MemDataAlignment = DMA_MDATAALIGN_HALFWORD;
 114:Core/Src/adc.c ****     hdma_adc1.Init.Mode = DMA_NORMAL;
 115:Core/Src/adc.c ****     hdma_adc1.Init.Priority = DMA_PRIORITY_LOW;
 116:Core/Src/adc.c ****     if (HAL_DMA_Init(&hdma_adc1) != HAL_OK)
 117:Core/Src/adc.c ****     {
 118:Core/Src/adc.c ****       Error_Handler();
 119:Core/Src/adc.c ****     }
 120:Core/Src/adc.c **** 
 121:Core/Src/adc.c ****     __HAL_LINKDMA(adcHandle,DMA_Handle,hdma_adc1);
 122:Core/Src/adc.c **** 
 123:Core/Src/adc.c ****   /* USER CODE BEGIN ADC1_MspInit 1 */
 124:Core/Src/adc.c **** 
 125:Core/Src/adc.c ****   /* USER CODE END ADC1_MspInit 1 */
 126:Core/Src/adc.c ****   }
 127:Core/Src/adc.c **** }
 198              		.loc 1 127 1 view .LVU63
 199 0018 08B0     		add	sp, sp, #32
 200              		@ sp needed
 201              	.LVL8:
 202              		.loc 1 127 1 view .LVU64
 203 001a 10BD     		pop	{r4, pc}
 204              	.LVL9:
 205              	.L11:
  94:Core/Src/adc.c **** 
 206              		.loc 1 94 5 is_stmt 1 view .LVU65
 207              	.LBB2:
  94:Core/Src/adc.c **** 
 208              		.loc 1 94 5 view .LVU66
  94:Core/Src/adc.c **** 
 209              		.loc 1 94 5 view .LVU67
 210 001c 1B4B     		ldr	r3, .L13+4
 211 001e 1A6C     		ldr	r2, [r3, #64]
 212 0020 8021     		movs	r1, #128
 213 0022 4903     		lsls	r1, r1, #13
ARM GAS  /tmp/cckqHGfc.s 			page 7


 214 0024 0A43     		orrs	r2, r1
 215 0026 1A64     		str	r2, [r3, #64]
  94:Core/Src/adc.c **** 
 216              		.loc 1 94 5 view .LVU68
 217 0028 1A6C     		ldr	r2, [r3, #64]
 218 002a 0A40     		ands	r2, r1
 219 002c 0192     		str	r2, [sp, #4]
  94:Core/Src/adc.c **** 
 220              		.loc 1 94 5 view .LVU69
 221 002e 019A     		ldr	r2, [sp, #4]
 222              	.LBE2:
  94:Core/Src/adc.c **** 
 223              		.loc 1 94 5 view .LVU70
  96:Core/Src/adc.c ****     /**ADC1 GPIO Configuration
 224              		.loc 1 96 5 view .LVU71
 225              	.LBB3:
  96:Core/Src/adc.c ****     /**ADC1 GPIO Configuration
 226              		.loc 1 96 5 view .LVU72
  96:Core/Src/adc.c ****     /**ADC1 GPIO Configuration
 227              		.loc 1 96 5 view .LVU73
 228 0030 596B     		ldr	r1, [r3, #52]
 229 0032 0122     		movs	r2, #1
 230 0034 1143     		orrs	r1, r2
 231 0036 5963     		str	r1, [r3, #52]
  96:Core/Src/adc.c ****     /**ADC1 GPIO Configuration
 232              		.loc 1 96 5 view .LVU74
 233 0038 5B6B     		ldr	r3, [r3, #52]
 234 003a 1340     		ands	r3, r2
 235 003c 0293     		str	r3, [sp, #8]
  96:Core/Src/adc.c ****     /**ADC1 GPIO Configuration
 236              		.loc 1 96 5 view .LVU75
 237 003e 029B     		ldr	r3, [sp, #8]
 238              	.LBE3:
  96:Core/Src/adc.c ****     /**ADC1 GPIO Configuration
 239              		.loc 1 96 5 view .LVU76
 100:Core/Src/adc.c ****     GPIO_InitStruct.Mode = GPIO_MODE_ANALOG;
 240              		.loc 1 100 5 view .LVU77
 100:Core/Src/adc.c ****     GPIO_InitStruct.Mode = GPIO_MODE_ANALOG;
 241              		.loc 1 100 25 is_stmt 0 view .LVU78
 242 0040 03A9     		add	r1, sp, #12
 243 0042 0392     		str	r2, [sp, #12]
 101:Core/Src/adc.c ****     GPIO_InitStruct.Pull = GPIO_NOPULL;
 244              		.loc 1 101 5 is_stmt 1 view .LVU79
 101:Core/Src/adc.c ****     GPIO_InitStruct.Pull = GPIO_NOPULL;
 245              		.loc 1 101 26 is_stmt 0 view .LVU80
 246 0044 0323     		movs	r3, #3
 247 0046 4B60     		str	r3, [r1, #4]
 102:Core/Src/adc.c ****     HAL_GPIO_Init(GPIOA, &GPIO_InitStruct);
 248              		.loc 1 102 5 is_stmt 1 view .LVU81
 103:Core/Src/adc.c **** 
 249              		.loc 1 103 5 view .LVU82
 250 0048 A020     		movs	r0, #160
 251 004a C005     		lsls	r0, r0, #23
 252 004c FFF7FEFF 		bl	HAL_GPIO_Init
 253              	.LVL10:
 107:Core/Src/adc.c ****     hdma_adc1.Init.Request = DMA_REQUEST_ADC1;
 254              		.loc 1 107 5 view .LVU83
ARM GAS  /tmp/cckqHGfc.s 			page 8


 107:Core/Src/adc.c ****     hdma_adc1.Init.Request = DMA_REQUEST_ADC1;
 255              		.loc 1 107 24 is_stmt 0 view .LVU84
 256 0050 0F48     		ldr	r0, .L13+8
 257 0052 104B     		ldr	r3, .L13+12
 258 0054 0360     		str	r3, [r0]
 108:Core/Src/adc.c ****     hdma_adc1.Init.Direction = DMA_PERIPH_TO_MEMORY;
 259              		.loc 1 108 5 is_stmt 1 view .LVU85
 108:Core/Src/adc.c ****     hdma_adc1.Init.Direction = DMA_PERIPH_TO_MEMORY;
 260              		.loc 1 108 28 is_stmt 0 view .LVU86
 261 0056 0523     		movs	r3, #5
 262 0058 4360     		str	r3, [r0, #4]
 109:Core/Src/adc.c ****     hdma_adc1.Init.PeriphInc = DMA_PINC_DISABLE;
 263              		.loc 1 109 5 is_stmt 1 view .LVU87
 109:Core/Src/adc.c ****     hdma_adc1.Init.PeriphInc = DMA_PINC_DISABLE;
 264              		.loc 1 109 30 is_stmt 0 view .LVU88
 265 005a 0023     		movs	r3, #0
 266 005c 8360     		str	r3, [r0, #8]
 110:Core/Src/adc.c ****     hdma_adc1.Init.MemInc = DMA_MINC_ENABLE;
 267              		.loc 1 110 5 is_stmt 1 view .LVU89
 110:Core/Src/adc.c ****     hdma_adc1.Init.MemInc = DMA_MINC_ENABLE;
 268              		.loc 1 110 30 is_stmt 0 view .LVU90
 269 005e C360     		str	r3, [r0, #12]
 111:Core/Src/adc.c ****     hdma_adc1.Init.PeriphDataAlignment = DMA_PDATAALIGN_HALFWORD;
 270              		.loc 1 111 5 is_stmt 1 view .LVU91
 111:Core/Src/adc.c ****     hdma_adc1.Init.PeriphDataAlignment = DMA_PDATAALIGN_HALFWORD;
 271              		.loc 1 111 27 is_stmt 0 view .LVU92
 272 0060 8022     		movs	r2, #128
 273 0062 0261     		str	r2, [r0, #16]
 112:Core/Src/adc.c ****     hdma_adc1.Init.MemDataAlignment = DMA_MDATAALIGN_HALFWORD;
 274              		.loc 1 112 5 is_stmt 1 view .LVU93
 112:Core/Src/adc.c ****     hdma_adc1.Init.MemDataAlignment = DMA_MDATAALIGN_HALFWORD;
 275              		.loc 1 112 40 is_stmt 0 view .LVU94
 276 0064 8032     		adds	r2, r2, #128
 277 0066 4261     		str	r2, [r0, #20]
 113:Core/Src/adc.c ****     hdma_adc1.Init.Mode = DMA_NORMAL;
 278              		.loc 1 113 5 is_stmt 1 view .LVU95
 113:Core/Src/adc.c ****     hdma_adc1.Init.Mode = DMA_NORMAL;
 279              		.loc 1 113 37 is_stmt 0 view .LVU96
 280 0068 8022     		movs	r2, #128
 281 006a D200     		lsls	r2, r2, #3
 282 006c 8261     		str	r2, [r0, #24]
 114:Core/Src/adc.c ****     hdma_adc1.Init.Priority = DMA_PRIORITY_LOW;
 283              		.loc 1 114 5 is_stmt 1 view .LVU97
 114:Core/Src/adc.c ****     hdma_adc1.Init.Priority = DMA_PRIORITY_LOW;
 284              		.loc 1 114 25 is_stmt 0 view .LVU98
 285 006e C361     		str	r3, [r0, #28]
 115:Core/Src/adc.c ****     if (HAL_DMA_Init(&hdma_adc1) != HAL_OK)
 286              		.loc 1 115 5 is_stmt 1 view .LVU99
 115:Core/Src/adc.c ****     if (HAL_DMA_Init(&hdma_adc1) != HAL_OK)
 287              		.loc 1 115 29 is_stmt 0 view .LVU100
 288 0070 0362     		str	r3, [r0, #32]
 116:Core/Src/adc.c ****     {
 289              		.loc 1 116 5 is_stmt 1 view .LVU101
 116:Core/Src/adc.c ****     {
 290              		.loc 1 116 9 is_stmt 0 view .LVU102
 291 0072 FFF7FEFF 		bl	HAL_DMA_Init
 292              	.LVL11:
ARM GAS  /tmp/cckqHGfc.s 			page 9


 116:Core/Src/adc.c ****     {
 293              		.loc 1 116 8 discriminator 1 view .LVU103
 294 0076 0028     		cmp	r0, #0
 295 0078 03D1     		bne	.L12
 296              	.L10:
 121:Core/Src/adc.c **** 
 297              		.loc 1 121 5 is_stmt 1 view .LVU104
 121:Core/Src/adc.c **** 
 298              		.loc 1 121 5 view .LVU105
 299 007a 054B     		ldr	r3, .L13+8
 300 007c 2365     		str	r3, [r4, #80]
 121:Core/Src/adc.c **** 
 301              		.loc 1 121 5 view .LVU106
 302 007e 9C62     		str	r4, [r3, #40]
 121:Core/Src/adc.c **** 
 303              		.loc 1 121 5 discriminator 1 view .LVU107
 304              		.loc 1 127 1 is_stmt 0 view .LVU108
 305 0080 CAE7     		b	.L8
 306              	.L12:
 118:Core/Src/adc.c ****     }
 307              		.loc 1 118 7 is_stmt 1 view .LVU109
 308 0082 FFF7FEFF 		bl	Error_Handler
 309              	.LVL12:
 310 0086 F8E7     		b	.L10
 311              	.L14:
 312              		.align	2
 313              	.L13:
 314 0088 00240140 		.word	1073816576
 315 008c 00100240 		.word	1073876992
 316 0090 00000000 		.word	hdma_adc1
 317 0094 58000240 		.word	1073872984
 318              		.cfi_endproc
 319              	.LFE458:
 321              		.section	.text.HAL_ADC_MspDeInit,"ax",%progbits
 322              		.align	1
 323              		.global	HAL_ADC_MspDeInit
 324              		.syntax unified
 325              		.code	16
 326              		.thumb_func
 328              	HAL_ADC_MspDeInit:
 329              	.LVL13:
 330              	.LFB459:
 128:Core/Src/adc.c **** 
 129:Core/Src/adc.c **** void HAL_ADC_MspDeInit(ADC_HandleTypeDef* adcHandle)
 130:Core/Src/adc.c **** {
 331              		.loc 1 130 1 view -0
 332              		.cfi_startproc
 333              		@ args = 0, pretend = 0, frame = 0
 334              		@ frame_needed = 0, uses_anonymous_args = 0
 335              		.loc 1 130 1 is_stmt 0 view .LVU111
 336 0000 10B5     		push	{r4, lr}
 337              		.cfi_def_cfa_offset 8
 338              		.cfi_offset 4, -8
 339              		.cfi_offset 14, -4
 340 0002 0400     		movs	r4, r0
 131:Core/Src/adc.c **** 
 132:Core/Src/adc.c ****   if(adcHandle->Instance==ADC1)
ARM GAS  /tmp/cckqHGfc.s 			page 10


 341              		.loc 1 132 3 is_stmt 1 view .LVU112
 342              		.loc 1 132 15 is_stmt 0 view .LVU113
 343 0004 0268     		ldr	r2, [r0]
 344              		.loc 1 132 5 view .LVU114
 345 0006 094B     		ldr	r3, .L18
 346 0008 9A42     		cmp	r2, r3
 347 000a 00D0     		beq	.L17
 348              	.LVL14:
 349              	.L15:
 133:Core/Src/adc.c ****   {
 134:Core/Src/adc.c ****   /* USER CODE BEGIN ADC1_MspDeInit 0 */
 135:Core/Src/adc.c **** 
 136:Core/Src/adc.c ****   /* USER CODE END ADC1_MspDeInit 0 */
 137:Core/Src/adc.c ****     /* Peripheral clock disable */
 138:Core/Src/adc.c ****     __HAL_RCC_ADC_CLK_DISABLE();
 139:Core/Src/adc.c **** 
 140:Core/Src/adc.c ****     /**ADC1 GPIO Configuration
 141:Core/Src/adc.c ****     PA0     ------> ADC1_IN0
 142:Core/Src/adc.c ****     */
 143:Core/Src/adc.c ****     HAL_GPIO_DeInit(GPIOA, GPIO_PIN_0);
 144:Core/Src/adc.c **** 
 145:Core/Src/adc.c ****     /* ADC1 DMA DeInit */
 146:Core/Src/adc.c ****     HAL_DMA_DeInit(adcHandle->DMA_Handle);
 147:Core/Src/adc.c ****   /* USER CODE BEGIN ADC1_MspDeInit 1 */
 148:Core/Src/adc.c **** 
 149:Core/Src/adc.c ****   /* USER CODE END ADC1_MspDeInit 1 */
 150:Core/Src/adc.c ****   }
 151:Core/Src/adc.c **** }
 350              		.loc 1 151 1 view .LVU115
 351              		@ sp needed
 352              	.LVL15:
 353              		.loc 1 151 1 view .LVU116
 354 000c 10BD     		pop	{r4, pc}
 355              	.LVL16:
 356              	.L17:
 138:Core/Src/adc.c **** 
 357              		.loc 1 138 5 is_stmt 1 view .LVU117
 358 000e 084A     		ldr	r2, .L18+4
 359 0010 136C     		ldr	r3, [r2, #64]
 360 0012 0849     		ldr	r1, .L18+8
 361 0014 0B40     		ands	r3, r1
 362 0016 1364     		str	r3, [r2, #64]
 143:Core/Src/adc.c **** 
 363              		.loc 1 143 5 view .LVU118
 364 0018 A020     		movs	r0, #160
 365              	.LVL17:
 143:Core/Src/adc.c **** 
 366              		.loc 1 143 5 is_stmt 0 view .LVU119
 367 001a 0121     		movs	r1, #1
 368 001c C005     		lsls	r0, r0, #23
 369 001e FFF7FEFF 		bl	HAL_GPIO_DeInit
 370              	.LVL18:
 146:Core/Src/adc.c ****   /* USER CODE BEGIN ADC1_MspDeInit 1 */
 371              		.loc 1 146 5 is_stmt 1 view .LVU120
 372 0022 206D     		ldr	r0, [r4, #80]
 373 0024 FFF7FEFF 		bl	HAL_DMA_DeInit
 374              	.LVL19:
ARM GAS  /tmp/cckqHGfc.s 			page 11


 375              		.loc 1 151 1 is_stmt 0 view .LVU121
 376 0028 F0E7     		b	.L15
 377              	.L19:
 378 002a C046     		.align	2
 379              	.L18:
 380 002c 00240140 		.word	1073816576
 381 0030 00100240 		.word	1073876992
 382 0034 FFFFEFFF 		.word	-1048577
 383              		.cfi_endproc
 384              	.LFE459:
 386              		.global	hdma_adc1
 387              		.section	.bss.hdma_adc1,"aw",%nobits
 388              		.align	2
 391              	hdma_adc1:
 392 0000 00000000 		.space	92
 392      00000000 
 392      00000000 
 392      00000000 
 392      00000000 
 393              		.global	hadc1
 394              		.section	.bss.hadc1,"aw",%nobits
 395              		.align	2
 398              	hadc1:
 399 0000 00000000 		.space	100
 399      00000000 
 399      00000000 
 399      00000000 
 399      00000000 
 400              		.text
 401              	.Letext0:
 402              		.file 2 "/opt/arm-gnu-toolchain-14.2/arm-none-eabi/include/machine/_default_types.h"
 403              		.file 3 "/opt/arm-gnu-toolchain-14.2/arm-none-eabi/include/sys/_stdint.h"
 404              		.file 4 "Drivers/CMSIS/Device/ST/STM32G0xx/Include/stm32g071xx.h"
 405              		.file 5 "Drivers/CMSIS/Device/ST/STM32G0xx/Include/stm32g0xx.h"
 406              		.file 6 "Drivers/STM32G0xx_HAL_Driver/Inc/stm32g0xx_hal_def.h"
 407              		.file 7 "Drivers/STM32G0xx_HAL_Driver/Inc/stm32g0xx_hal_gpio.h"
 408              		.file 8 "Drivers/STM32G0xx_HAL_Driver/Inc/stm32g0xx_hal_dma.h"
 409              		.file 9 "Drivers/STM32G0xx_HAL_Driver/Inc/stm32g0xx_hal_adc.h"
 410              		.file 10 "Core/Inc/adc.h"
 411              		.file 11 "Drivers/STM32G0xx_HAL_Driver/Inc/stm32g0xx_ll_dma.h"
 412              		.file 12 "Core/Inc/main.h"
 413              		.file 13 "<built-in>"
ARM GAS  /tmp/cckqHGfc.s 			page 12

