ARM GAS  /tmp/ccQZP5cl.s 			page 1


   1              		.cpu cortex-m0plus
   2              		.arch armv6s-m
   3              		.fpu softvfp
   4              		.eabi_attribute 20, 1
   5              		.eabi_attribute 21, 1
   6              		.eabi_attribute 23, 3
   7              		.eabi_attribute 24, 1
   8              		.eabi_attribute 25, 1
   9              		.eabi_attribute 26, 1
  10              		.eabi_attribute 30, 1
  11              		.eabi_attribute 34, 0
  12              		.eabi_attribute 18, 4
  13              		.file	"avg_filter.cpp"
  14              		.text
  15              	.Ltext0:
  16              		.cfi_sections	.debug_frame
  17              		.file 1 "Lib/compute/filter/avg_filter.cpp"
  18              		.align	1
  19              		.global	_ZN9AvgFilter4initEh
  20              		.syntax unified
  21              		.code	16
  22              		.thumb_func
  24              	_ZN9AvgFilter4initEh:
  25              	.LVL0:
  26              	.LFB978:
   1:Lib/compute/filter/avg_filter.cpp **** #include "ex_math.hpp"
   2:Lib/compute/filter/avg_filter.cpp **** 
   3:Lib/compute/filter/avg_filter.cpp **** #include "FreeRTOS.h"
   4:Lib/compute/filter/avg_filter.cpp **** 
   5:Lib/compute/filter/avg_filter.cpp **** bool AvgFilter::init(uint8_t win_size)
   6:Lib/compute/filter/avg_filter.cpp **** {
  27              		.loc 1 6 1 view -0
  28              		.cfi_startproc
  29              		@ args = 0, pretend = 0, frame = 0
  30              		@ frame_needed = 0, uses_anonymous_args = 0
  31              		.loc 1 6 1 is_stmt 0 view .LVU1
  32 0000 10B5     		push	{r4, lr}
  33              		.cfi_def_cfa_offset 8
  34              		.cfi_offset 4, -8
  35              		.cfi_offset 14, -4
  36 0002 0400     		movs	r4, r0
   7:Lib/compute/filter/avg_filter.cpp ****     if (win_size < 2)
  37              		.loc 1 7 5 is_stmt 1 view .LVU2
  38 0004 0129     		cmp	r1, #1
  39 0006 0DD9     		bls	.L3
   8:Lib/compute/filter/avg_filter.cpp ****         return false;
   9:Lib/compute/filter/avg_filter.cpp **** 
  10:Lib/compute/filter/avg_filter.cpp ****     _sum = 0.f;
  40              		.loc 1 10 5 view .LVU3
  41              		.loc 1 10 10 is_stmt 0 view .LVU4
  42 0008 0023     		movs	r3, #0
  43 000a C360     		str	r3, [r0, #12]
  11:Lib/compute/filter/avg_filter.cpp ****     _size = win_size;
  44              		.loc 1 11 5 is_stmt 1 view .LVU5
  45              		.loc 1 11 11 is_stmt 0 view .LVU6
  46 000c 0170     		strb	r1, [r0]
  12:Lib/compute/filter/avg_filter.cpp ****     _index = 0;
ARM GAS  /tmp/ccQZP5cl.s 			page 2


  47              		.loc 1 12 5 is_stmt 1 view .LVU7
  48              		.loc 1 12 12 is_stmt 0 view .LVU8
  49 000e 0023     		movs	r3, #0
  50 0010 0372     		strb	r3, [r0, #8]
  13:Lib/compute/filter/avg_filter.cpp ****     _count = 0;
  51              		.loc 1 13 5 is_stmt 1 view .LVU9
  52              		.loc 1 13 12 is_stmt 0 view .LVU10
  53 0012 4372     		strb	r3, [r0, #9]
  14:Lib/compute/filter/avg_filter.cpp **** 
  15:Lib/compute/filter/avg_filter.cpp ****     pData = (float *)pvPortMalloc(sizeof(float) * _size);
  54              		.loc 1 15 5 is_stmt 1 view .LVU11
  55              		.loc 1 15 34 is_stmt 0 view .LVU12
  56 0014 8800     		lsls	r0, r1, #2
  57              	.LVL1:
  58              		.loc 1 15 34 view .LVU13
  59 0016 FFF7FEFF 		bl	pvPortMalloc
  60              	.LVL2:
  61              		.loc 1 15 11 discriminator 1 view .LVU14
  62 001a 6060     		str	r0, [r4, #4]
  16:Lib/compute/filter/avg_filter.cpp ****     if (pData == NULL)
  63              		.loc 1 16 5 is_stmt 1 view .LVU15
  64 001c 0028     		cmp	r0, #0
  65 001e 03D0     		beq	.L4
  17:Lib/compute/filter/avg_filter.cpp ****         return false;
  18:Lib/compute/filter/avg_filter.cpp **** 
  19:Lib/compute/filter/avg_filter.cpp ****     return true;
  66              		.loc 1 19 12 is_stmt 0 view .LVU16
  67 0020 0120     		movs	r0, #1
  68              	.L2:
  20:Lib/compute/filter/avg_filter.cpp **** }
  69              		.loc 1 20 1 view .LVU17
  70              		@ sp needed
  71              	.LVL3:
  72              		.loc 1 20 1 view .LVU18
  73 0022 10BD     		pop	{r4, pc}
  74              	.LVL4:
  75              	.L3:
   8:Lib/compute/filter/avg_filter.cpp **** 
  76              		.loc 1 8 16 view .LVU19
  77 0024 0020     		movs	r0, #0
  78              	.LVL5:
   8:Lib/compute/filter/avg_filter.cpp **** 
  79              		.loc 1 8 16 view .LVU20
  80 0026 FCE7     		b	.L2
  81              	.LVL6:
  82              	.L4:
  17:Lib/compute/filter/avg_filter.cpp ****         return false;
  83              		.loc 1 17 16 view .LVU21
  84 0028 0020     		movs	r0, #0
  85 002a FAE7     		b	.L2
  86              		.cfi_endproc
  87              	.LFE978:
  89              		.align	1
  90              		.global	_ZN9AvgFilter6filterEf
  91              		.syntax unified
  92              		.code	16
  93              		.thumb_func
ARM GAS  /tmp/ccQZP5cl.s 			page 3


  95              	_ZN9AvgFilter6filterEf:
  96              	.LVL7:
  97              	.LFB979:
  21:Lib/compute/filter/avg_filter.cpp **** 
  22:Lib/compute/filter/avg_filter.cpp **** float AvgFilter::filter(float value)
  23:Lib/compute/filter/avg_filter.cpp **** {
  98              		.loc 1 23 1 is_stmt 1 view -0
  99              		.cfi_startproc
 100              		@ args = 0, pretend = 0, frame = 0
 101              		@ frame_needed = 0, uses_anonymous_args = 0
 102              		.loc 1 23 1 is_stmt 0 view .LVU23
 103 002c F0B5     		push	{r4, r5, r6, r7, lr}
 104              		.cfi_def_cfa_offset 20
 105              		.cfi_offset 4, -20
 106              		.cfi_offset 5, -16
 107              		.cfi_offset 6, -12
 108              		.cfi_offset 7, -8
 109              		.cfi_offset 14, -4
 110 002e C646     		mov	lr, r8
 111 0030 00B5     		push	{lr}
 112              		.cfi_def_cfa_offset 24
 113              		.cfi_offset 8, -24
 114 0032 0400     		movs	r4, r0
 115 0034 0D1C     		adds	r5, r1, #0
  24:Lib/compute/filter/avg_filter.cpp ****     _count = _count < _size ? _count + 1 : _size;
 116              		.loc 1 24 5 is_stmt 1 view .LVU24
 117              		.loc 1 24 14 is_stmt 0 view .LVU25
 118 0036 427A     		ldrb	r2, [r0, #9]
 119              		.loc 1 24 23 view .LVU26
 120 0038 0378     		ldrb	r3, [r0]
 121              		.loc 1 24 12 view .LVU27
 122 003a 9A42     		cmp	r2, r3
 123 003c 01D2     		bcs	.L6
 124              		.loc 1 24 12 discriminator 1 view .LVU28
 125 003e 0132     		adds	r2, r2, #1
 126 0040 D3B2     		uxtb	r3, r2
 127              	.L6:
 128              		.loc 1 24 12 discriminator 4 view .LVU29
 129 0042 6372     		strb	r3, [r4, #9]
  25:Lib/compute/filter/avg_filter.cpp ****     _sum = _sum - pData[_index] + value;
 130              		.loc 1 25 5 is_stmt 1 view .LVU30
 131              		.loc 1 25 12 is_stmt 0 view .LVU31
 132 0044 E068     		ldr	r0, [r4, #12]
 133              	.LVL8:
 134              		.loc 1 25 19 view .LVU32
 135 0046 6668     		ldr	r6, [r4, #4]
 136              		.loc 1 25 25 view .LVU33
 137 0048 237A     		ldrb	r3, [r4, #8]
 138              		.loc 1 25 31 view .LVU34
 139 004a 9B00     		lsls	r3, r3, #2
 140 004c F618     		adds	r6, r6, r3
 141 004e 3168     		ldr	r1, [r6]
 142              	.LVL9:
 143              		.loc 1 25 17 view .LVU35
 144 0050 FFF7FEFF 		bl	__aeabi_fsub
 145              	.LVL10:
 146              		.loc 1 25 33 view .LVU36
ARM GAS  /tmp/ccQZP5cl.s 			page 4


 147 0054 291C     		adds	r1, r5, #0
 148 0056 FFF7FEFF 		bl	__aeabi_fadd
 149              	.LVL11:
 150              		.loc 1 25 10 view .LVU37
 151 005a E060     		str	r0, [r4, #12]
  26:Lib/compute/filter/avg_filter.cpp **** 
  27:Lib/compute/filter/avg_filter.cpp ****     pData[_index] = value;
 152              		.loc 1 27 5 is_stmt 1 view .LVU38
 153              		.loc 1 27 19 is_stmt 0 view .LVU39
 154 005c 3560     		str	r5, [r6]
  28:Lib/compute/filter/avg_filter.cpp ****     _index = (_index + 1) % _size;
 155              		.loc 1 28 5 is_stmt 1 view .LVU40
 156              		.loc 1 28 15 is_stmt 0 view .LVU41
 157 005e 207A     		ldrb	r0, [r4, #8]
 158              		.loc 1 28 22 view .LVU42
 159 0060 0130     		adds	r0, r0, #1
 160              		.loc 1 28 29 view .LVU43
 161 0062 2778     		ldrb	r7, [r4]
 162              		.loc 1 28 27 view .LVU44
 163 0064 3900     		movs	r1, r7
 164 0066 FFF7FEFF 		bl	__aeabi_idivmod
 165              	.LVL12:
 166              		.loc 1 28 12 view .LVU45
 167 006a 2172     		strb	r1, [r4, #8]
  29:Lib/compute/filter/avg_filter.cpp **** 
  30:Lib/compute/filter/avg_filter.cpp ****     _max = _min = value;
 168              		.loc 1 30 5 is_stmt 1 view .LVU46
 169              		.loc 1 30 17 is_stmt 0 view .LVU47
 170 006c A561     		str	r5, [r4, #24]
 171              		.loc 1 30 10 view .LVU48
 172 006e 6561     		str	r5, [r4, #20]
  31:Lib/compute/filter/avg_filter.cpp **** 
  32:Lib/compute/filter/avg_filter.cpp ****     if (_count == _size)
 173              		.loc 1 32 5 is_stmt 1 view .LVU49
 174              	.LBB2:
 175              		.loc 1 32 9 is_stmt 0 view .LVU50
 176 0070 607A     		ldrb	r0, [r4, #9]
 177              		.loc 1 32 5 view .LVU51
 178 0072 8742     		cmp	r7, r0
 179 0074 24D0     		beq	.L19
  33:Lib/compute/filter/avg_filter.cpp ****     {
  34:Lib/compute/filter/avg_filter.cpp ****         for (int i = 0; i < _size; i++)
  35:Lib/compute/filter/avg_filter.cpp ****         {
  36:Lib/compute/filter/avg_filter.cpp ****             if (pData[i] > _max)
  37:Lib/compute/filter/avg_filter.cpp ****                 _max = pData[i];
  38:Lib/compute/filter/avg_filter.cpp ****             if (pData[i] < _min)
  39:Lib/compute/filter/avg_filter.cpp ****                 _min = pData[i];
  40:Lib/compute/filter/avg_filter.cpp ****         }
  41:Lib/compute/filter/avg_filter.cpp ****         _avg = (_sum - _max - _min) / (_size - 2);
  42:Lib/compute/filter/avg_filter.cpp ****     }
  43:Lib/compute/filter/avg_filter.cpp ****     else
  44:Lib/compute/filter/avg_filter.cpp ****     {
  45:Lib/compute/filter/avg_filter.cpp ****         _avg = _sum / _count;
 180              		.loc 1 45 9 is_stmt 1 view .LVU52
 181              		.loc 1 45 16 is_stmt 0 view .LVU53
 182 0076 E568     		ldr	r5, [r4, #12]
 183              	.LVL13:
ARM GAS  /tmp/ccQZP5cl.s 			page 5


 184              		.loc 1 45 21 view .LVU54
 185 0078 FFF7FEFF 		bl	__aeabi_i2f
 186              	.LVL14:
 187              		.loc 1 45 21 view .LVU55
 188 007c 011C     		adds	r1, r0, #0
 189 007e 281C     		adds	r0, r5, #0
 190 0080 FFF7FEFF 		bl	__aeabi_fdiv
 191              	.LVL15:
 192              		.loc 1 45 14 view .LVU56
 193 0084 2061     		str	r0, [r4, #16]
 194              	.L14:
 195              	.LBE2:
  46:Lib/compute/filter/avg_filter.cpp ****     }
  47:Lib/compute/filter/avg_filter.cpp **** 
  48:Lib/compute/filter/avg_filter.cpp ****     return _avg;
 196              		.loc 1 48 5 is_stmt 1 view .LVU57
 197              		.loc 1 48 12 is_stmt 0 discriminator 1 view .LVU58
 198 0086 2069     		ldr	r0, [r4, #16]
  49:Lib/compute/filter/avg_filter.cpp **** }
 199              		.loc 1 49 1 view .LVU59
 200              		@ sp needed
 201              	.LVL16:
 202              		.loc 1 49 1 view .LVU60
 203 0088 80BC     		pop	{r7}
 204 008a B846     		mov	r8, r7
 205 008c F0BD     		pop	{r4, r5, r6, r7, pc}
 206              	.LVL17:
 207              	.L11:
 208              	.LBB5:
 209              	.LBB3:
 210              	.LBB4:
  34:Lib/compute/filter/avg_filter.cpp ****         {
 211              		.loc 1 34 9 is_stmt 1 discriminator 2 view .LVU61
 212 008e 0136     		adds	r6, r6, #1
 213              	.LVL18:
 214              	.L7:
  34:Lib/compute/filter/avg_filter.cpp ****         {
 215              		.loc 1 34 27 discriminator 1 view .LVU62
 216 0090 B742     		cmp	r7, r6
 217 0092 17DD     		ble	.L20
  36:Lib/compute/filter/avg_filter.cpp ****                 _max = pData[i];
 218              		.loc 1 36 13 view .LVU63
  36:Lib/compute/filter/avg_filter.cpp ****                 _max = pData[i];
 219              		.loc 1 36 17 is_stmt 0 view .LVU64
 220 0094 6568     		ldr	r5, [r4, #4]
  36:Lib/compute/filter/avg_filter.cpp ****                 _max = pData[i];
 221              		.loc 1 36 24 view .LVU65
 222 0096 B300     		lsls	r3, r6, #2
 223 0098 ED18     		adds	r5, r5, r3
 224 009a 2B68     		ldr	r3, [r5]
 225 009c 9846     		mov	r8, r3
  36:Lib/compute/filter/avg_filter.cpp ****                 _max = pData[i];
 226              		.loc 1 36 28 view .LVU66
 227 009e 6169     		ldr	r1, [r4, #20]
  36:Lib/compute/filter/avg_filter.cpp ****                 _max = pData[i];
 228              		.loc 1 36 13 view .LVU67
 229 00a0 181C     		adds	r0, r3, #0
ARM GAS  /tmp/ccQZP5cl.s 			page 6


 230 00a2 FFF7FEFF 		bl	__aeabi_fcmpgt
 231              	.LVL19:
 232 00a6 0028     		cmp	r0, #0
 233 00a8 01D0     		beq	.L9
  37:Lib/compute/filter/avg_filter.cpp ****             if (pData[i] < _min)
 234              		.loc 1 37 17 is_stmt 1 view .LVU68
  37:Lib/compute/filter/avg_filter.cpp ****             if (pData[i] < _min)
 235              		.loc 1 37 22 is_stmt 0 view .LVU69
 236 00aa 4346     		mov	r3, r8
 237 00ac 6361     		str	r3, [r4, #20]
 238              	.L9:
  38:Lib/compute/filter/avg_filter.cpp ****                 _min = pData[i];
 239              		.loc 1 38 13 is_stmt 1 view .LVU70
  38:Lib/compute/filter/avg_filter.cpp ****                 _min = pData[i];
 240              		.loc 1 38 24 is_stmt 0 view .LVU71
 241 00ae 2D68     		ldr	r5, [r5]
  38:Lib/compute/filter/avg_filter.cpp ****                 _min = pData[i];
 242              		.loc 1 38 28 view .LVU72
 243 00b0 A169     		ldr	r1, [r4, #24]
  38:Lib/compute/filter/avg_filter.cpp ****                 _min = pData[i];
 244              		.loc 1 38 13 view .LVU73
 245 00b2 281C     		adds	r0, r5, #0
 246 00b4 FFF7FEFF 		bl	__aeabi_fcmplt
 247              	.LVL20:
 248 00b8 0028     		cmp	r0, #0
 249 00ba E8D0     		beq	.L11
  39:Lib/compute/filter/avg_filter.cpp ****         }
 250              		.loc 1 39 17 is_stmt 1 view .LVU74
  39:Lib/compute/filter/avg_filter.cpp ****         }
 251              		.loc 1 39 22 is_stmt 0 view .LVU75
 252 00bc A561     		str	r5, [r4, #24]
 253 00be E6E7     		b	.L11
 254              	.LVL21:
 255              	.L19:
  34:Lib/compute/filter/avg_filter.cpp ****         {
 256              		.loc 1 34 18 view .LVU76
 257 00c0 0026     		movs	r6, #0
 258 00c2 E5E7     		b	.L7
 259              	.LVL22:
 260              	.L20:
  34:Lib/compute/filter/avg_filter.cpp ****         {
 261              		.loc 1 34 18 view .LVU77
 262              	.LBE4:
  41:Lib/compute/filter/avg_filter.cpp ****     }
 263              		.loc 1 41 9 is_stmt 1 view .LVU78
  41:Lib/compute/filter/avg_filter.cpp ****     }
 264              		.loc 1 41 17 is_stmt 0 view .LVU79
 265 00c4 E068     		ldr	r0, [r4, #12]
  41:Lib/compute/filter/avg_filter.cpp ****     }
 266              		.loc 1 41 24 view .LVU80
 267 00c6 6169     		ldr	r1, [r4, #20]
  41:Lib/compute/filter/avg_filter.cpp ****     }
 268              		.loc 1 41 22 view .LVU81
 269 00c8 FFF7FEFF 		bl	__aeabi_fsub
 270              	.LVL23:
  41:Lib/compute/filter/avg_filter.cpp ****     }
 271              		.loc 1 41 31 view .LVU82
ARM GAS  /tmp/ccQZP5cl.s 			page 7


 272 00cc A169     		ldr	r1, [r4, #24]
  41:Lib/compute/filter/avg_filter.cpp ****     }
 273              		.loc 1 41 29 view .LVU83
 274 00ce FFF7FEFF 		bl	__aeabi_fsub
 275              	.LVL24:
 276 00d2 051C     		adds	r5, r0, #0
  41:Lib/compute/filter/avg_filter.cpp ****     }
 277              		.loc 1 41 46 view .LVU84
 278 00d4 B81E     		subs	r0, r7, #2
  41:Lib/compute/filter/avg_filter.cpp ****     }
 279              		.loc 1 41 37 view .LVU85
 280 00d6 FFF7FEFF 		bl	__aeabi_i2f
 281              	.LVL25:
 282 00da 011C     		adds	r1, r0, #0
 283 00dc 281C     		adds	r0, r5, #0
 284 00de FFF7FEFF 		bl	__aeabi_fdiv
 285              	.LVL26:
  41:Lib/compute/filter/avg_filter.cpp ****     }
 286              		.loc 1 41 14 view .LVU86
 287 00e2 2061     		str	r0, [r4, #16]
 288              	.LBE3:
 289 00e4 CFE7     		b	.L14
 290              	.LBE5:
 291              		.cfi_endproc
 292              	.LFE979:
 294              		.align	1
 295              		.global	_ZN9AvgFilter5clearEv
 296              		.syntax unified
 297              		.code	16
 298              		.thumb_func
 300              	_ZN9AvgFilter5clearEv:
 301              	.LVL27:
 302              	.LFB980:
  50:Lib/compute/filter/avg_filter.cpp **** 
  51:Lib/compute/filter/avg_filter.cpp **** void AvgFilter::clear(void)
  52:Lib/compute/filter/avg_filter.cpp **** {
 303              		.loc 1 52 1 is_stmt 1 view -0
 304              		.cfi_startproc
 305              		@ args = 0, pretend = 0, frame = 0
 306              		@ frame_needed = 0, uses_anonymous_args = 0
 307              		@ link register save eliminated.
  53:Lib/compute/filter/avg_filter.cpp ****     _index = 0;
 308              		.loc 1 53 5 view .LVU88
 309              		.loc 1 53 12 is_stmt 0 view .LVU89
 310 00e6 0023     		movs	r3, #0
 311 00e8 0372     		strb	r3, [r0, #8]
  54:Lib/compute/filter/avg_filter.cpp ****     _count = 0;
 312              		.loc 1 54 5 is_stmt 1 view .LVU90
 313              		.loc 1 54 12 is_stmt 0 view .LVU91
 314 00ea 4372     		strb	r3, [r0, #9]
  55:Lib/compute/filter/avg_filter.cpp ****     _sum = 0.f;
 315              		.loc 1 55 5 is_stmt 1 view .LVU92
 316              		.loc 1 55 10 is_stmt 0 view .LVU93
 317 00ec 0023     		movs	r3, #0
 318 00ee C360     		str	r3, [r0, #12]
  56:Lib/compute/filter/avg_filter.cpp ****     _max = 0.f;
 319              		.loc 1 56 5 is_stmt 1 view .LVU94
ARM GAS  /tmp/ccQZP5cl.s 			page 8


 320              		.loc 1 56 10 is_stmt 0 view .LVU95
 321 00f0 4361     		str	r3, [r0, #20]
  57:Lib/compute/filter/avg_filter.cpp ****     _min = 0.f;
 322              		.loc 1 57 5 is_stmt 1 view .LVU96
 323              		.loc 1 57 10 is_stmt 0 view .LVU97
 324 00f2 8361     		str	r3, [r0, #24]
  58:Lib/compute/filter/avg_filter.cpp **** }
 325              		.loc 1 58 1 view .LVU98
 326              		@ sp needed
 327 00f4 7047     		bx	lr
 328              		.cfi_endproc
 329              	.LFE980:
 331              	.Letext0:
 332              		.file 2 "/opt/arm-gnu-toolchain-14.2/arm-none-eabi/include/machine/_default_types.h"
 333              		.file 3 "/opt/arm-gnu-toolchain-14.2/arm-none-eabi/include/sys/_stdint.h"
 334              		.file 4 "/opt/arm-gnu-toolchain-14.2/arm-none-eabi/include/c++/14.2.1/cmath"
 335              		.file 5 "/opt/arm-gnu-toolchain-14.2/arm-none-eabi/include/c++/14.2.1/type_traits"
 336              		.file 6 "/opt/arm-gnu-toolchain-14.2/arm-none-eabi/include/c++/14.2.1/debug/debug.h"
 337              		.file 7 "/opt/arm-gnu-toolchain-14.2/arm-none-eabi/include/c++/14.2.1/bits/std_abs.h"
 338              		.file 8 "/opt/arm-gnu-toolchain-14.2/arm-none-eabi/include/c++/14.2.1/bits/predefined_ops.h"
 339              		.file 9 "/opt/arm-gnu-toolchain-14.2/lib/gcc/arm-none-eabi/14.2.1/include/stddef.h"
 340              		.file 10 "/opt/arm-gnu-toolchain-14.2/arm-none-eabi/include/math.h"
 341              		.file 11 "/opt/arm-gnu-toolchain-14.2/arm-none-eabi/include/c++/14.2.1/arm-none-eabi/thumb/v6-m/no
 342              		.file 12 "/opt/arm-gnu-toolchain-14.2/arm-none-eabi/include/c++/14.2.1/math.h"
 343              		.file 13 "Lib/compute/ex_math.hpp"
 344              		.file 14 "Middlewares/Third_Party/FreeRTOS/Source/include/portable.h"
ARM GAS  /tmp/ccQZP5cl.s 			page 9


DEFINED SYMBOLS
                            *ABS*:00000000 avg_filter.cpp
     /tmp/ccQZP5cl.s:18     .text:00000000 $t
     /tmp/ccQZP5cl.s:24     .text:00000000 _ZN9AvgFilter4initEh
     /tmp/ccQZP5cl.s:95     .text:0000002c _ZN9AvgFilter6filterEf
     /tmp/ccQZP5cl.s:300    .text:000000e6 _ZN9AvgFilter5clearEv

UNDEFINED SYMBOLS
pvPortMalloc
__aeabi_fsub
__aeabi_fadd
__aeabi_idivmod
__aeabi_i2f
__aeabi_fdiv
__aeabi_fcmpgt
__aeabi_fcmplt
