ARM GAS  /tmp/ccwcOb5D.s 			page 1


   1              		.cpu cortex-m0plus
   2              		.arch armv6s-m
   3              		.fpu softvfp
   4              		.eabi_attribute 20, 1
   5              		.eabi_attribute 21, 1
   6              		.eabi_attribute 23, 3
   7              		.eabi_attribute 24, 1
   8              		.eabi_attribute 25, 1
   9              		.eabi_attribute 26, 1
  10              		.eabi_attribute 30, 1
  11              		.eabi_attribute 34, 0
  12              		.eabi_attribute 18, 4
  13              		.file	"BL24C16F.cpp"
  14              		.text
  15              	.Ltext0:
  16              		.cfi_sections	.debug_frame
  17              		.file 1 "My_Top/System/BL24C16F.cpp"
  18              		.align	1
  19              		.global	_ZN8BL24C16F9_dev_addrEt
  20              		.syntax unified
  21              		.code	16
  22              		.thumb_func
  24              	_ZN8BL24C16F9_dev_addrEt:
  25              	.LVL0:
  26              	.LFB460:
   1:My_Top/System/BL24C16F.cpp **** #include "BL24C16F.hpp"
   2:My_Top/System/BL24C16F.cpp **** 
   3:My_Top/System/BL24C16F.cpp **** I2C_HandleTypeDef* BL24C16F::_hi2c = nullptr;
   4:My_Top/System/BL24C16F.cpp **** 
   5:My_Top/System/BL24C16F.cpp **** // ============================================================
   6:My_Top/System/BL24C16F.cpp **** // еҶ…йғЁиҫ…еҠ©пјҡиҺ·еҸ–еҷЁд»¶ең°еқҖпјҲеҗ« block selectпјү
   7:My_Top/System/BL24C16F.cpp **** // BL24C16F зҡ„ 2048 еӯ—иҠӮеҲҶдёә 8 дёӘ blockпјҢжҜҸдёӘ block 256 еӯ—иҠӮ
   8:My_Top/System/BL24C16F.cpp **** // еҷЁд»¶ең°еқҖ = 0x50 | (addr >> 8)пјҢеҚіз¬¬ 8~10 дҪҚйҖүжӢ© block
   9:My_Top/System/BL24C16F.cpp **** // ============================================================
  10:My_Top/System/BL24C16F.cpp **** uint8_t BL24C16F::_dev_addr(uint16_t addr)
  11:My_Top/System/BL24C16F.cpp **** {
  27              		.loc 1 11 1 view -0
  28              		.cfi_startproc
  29              		@ args = 0, pretend = 0, frame = 0
  30              		@ frame_needed = 0, uses_anonymous_args = 0
  31              		@ link register save eliminated.
  12:My_Top/System/BL24C16F.cpp ****     // addr >> 8 = 0~7пјҢеҸ–дҪҺ 3 дҪҚдҪңдёә block зј–еҸ·
  13:My_Top/System/BL24C16F.cpp ****     // еҷЁд»¶ең°еқҖ = еҹәеқҖ(0x50) + block
  14:My_Top/System/BL24C16F.cpp ****     return DEV_ADDR | ((addr >> 8) & 0x07);
  32              		.loc 1 14 5 view .LVU1
  33              		.loc 1 14 30 is_stmt 0 view .LVU2
  34 0000 030A     		lsrs	r3, r0, #8
  35              		.loc 1 14 36 view .LVU3
  36 0002 0720     		movs	r0, #7
  37              	.LVL1:
  38              		.loc 1 14 36 view .LVU4
  39 0004 1840     		ands	r0, r3
  40              		.loc 1 14 21 view .LVU5
  41 0006 5023     		movs	r3, #80
  42 0008 1843     		orrs	r0, r3
  43 000a 40B2     		sxtb	r0, r0
  44              		.loc 1 14 42 discriminator 1 view .LVU6
ARM GAS  /tmp/ccwcOb5D.s 			page 2


  45 000c C0B2     		uxtb	r0, r0
  15:My_Top/System/BL24C16F.cpp **** }
  46              		.loc 1 15 1 view .LVU7
  47              		@ sp needed
  48 000e 7047     		bx	lr
  49              		.cfi_endproc
  50              	.LFE460:
  52              		.align	1
  53              		.global	_ZN8BL24C16F12_page_offsetEt
  54              		.syntax unified
  55              		.code	16
  56              		.thumb_func
  58              	_ZN8BL24C16F12_page_offsetEt:
  59              	.LVL2:
  60              	.LFB461:
  16:My_Top/System/BL24C16F.cpp **** 
  17:My_Top/System/BL24C16F.cpp **** 
  18:My_Top/System/BL24C16F.cpp **** // ============================================================
  19:My_Top/System/BL24C16F.cpp **** // еҶ…йғЁиҫ…еҠ©пјҡиҺ·еҸ–йЎөеҶ…еҒҸз§»
  20:My_Top/System/BL24C16F.cpp **** // жҜҸдёӘ block 256 еӯ—иҠӮпјҢеҒҸз§» = addr зҡ„дҪҺ 8 дҪҚ
  21:My_Top/System/BL24C16F.cpp **** // ============================================================
  22:My_Top/System/BL24C16F.cpp **** uint8_t BL24C16F::_page_offset(uint16_t addr)
  23:My_Top/System/BL24C16F.cpp **** {
  61              		.loc 1 23 1 is_stmt 1 view -0
  62              		.cfi_startproc
  63              		@ args = 0, pretend = 0, frame = 0
  64              		@ frame_needed = 0, uses_anonymous_args = 0
  65              		@ link register save eliminated.
  24:My_Top/System/BL24C16F.cpp ****     return (uint8_t)(addr & 0xFF);
  66              		.loc 1 24 5 view .LVU9
  67              		.loc 1 24 33 is_stmt 0 discriminator 1 view .LVU10
  68 0010 C0B2     		uxtb	r0, r0
  69              	.LVL3:
  25:My_Top/System/BL24C16F.cpp **** }
  70              		.loc 1 25 1 view .LVU11
  71              		@ sp needed
  72 0012 7047     		bx	lr
  73              		.cfi_endproc
  74              	.LFE461:
  76              		.align	1
  77              		.global	_ZN8BL24C16F4initEv
  78              		.syntax unified
  79              		.code	16
  80              		.thumb_func
  82              	_ZN8BL24C16F4initEv:
  83              	.LFB462:
  26:My_Top/System/BL24C16F.cpp **** 
  27:My_Top/System/BL24C16F.cpp **** 
  28:My_Top/System/BL24C16F.cpp **** // ============================================================
  29:My_Top/System/BL24C16F.cpp **** // еҲқе§ӢеҢ–пјҡжҺўжөӢ EEPROM жҳҜеҗҰеңЁзәҝ
  30:My_Top/System/BL24C16F.cpp **** // еҸ‘йҖҒеҷЁд»¶ең°еқҖе№¶зӯүеҫ… ACKпјҢи¶…ж—¶еҲҷеҲӨе®ҡи®ҫеӨҮдёҚеӯҳеңЁ
  31:My_Top/System/BL24C16F.cpp **** // ============================================================
  32:My_Top/System/BL24C16F.cpp **** bool BL24C16F::init(void)
  33:My_Top/System/BL24C16F.cpp **** {
  84              		.loc 1 33 1 is_stmt 1 view -0
  85              		.cfi_startproc
  86              		@ args = 0, pretend = 0, frame = 0
ARM GAS  /tmp/ccwcOb5D.s 			page 3


  87              		@ frame_needed = 0, uses_anonymous_args = 0
  88 0014 10B5     		push	{r4, lr}
  89              		.cfi_def_cfa_offset 8
  90              		.cfi_offset 4, -8
  91              		.cfi_offset 14, -4
  34:My_Top/System/BL24C16F.cpp ****     // д»ҘеҶҷж–№ејҸжҺўжөӢи®ҫеӨҮпјҡеҸ‘йҖҒиө·е§ӢдҪҚ + еҷЁд»¶ең°еқҖ(еҶҷ) + зӯүеҫ… ACK
  35:My_Top/System/BL24C16F.cpp ****     // HAL_I2C_IsDeviceReady: е°қиҜ• 3 ж¬ЎпјҢжҜҸж¬Ўй—ҙйҡ” 100ms
  36:My_Top/System/BL24C16F.cpp ****     if (HAL_I2C_IsDeviceReady(_hi2c,
  92              		.loc 1 36 5 view .LVU13
  93              		.loc 1 36 30 is_stmt 0 view .LVU14
  94 0016 064B     		ldr	r3, .L6
  95 0018 1868     		ldr	r0, [r3]
  96 001a 6423     		movs	r3, #100
  97 001c 0322     		movs	r2, #3
  98 001e A021     		movs	r1, #160
  99 0020 FFF7FEFF 		bl	HAL_I2C_IsDeviceReady
 100              	.LVL4:
 101              		.loc 1 36 5 view .LVU15
 102 0024 0028     		cmp	r0, #0
 103 0026 01D0     		beq	.L5
  37:My_Top/System/BL24C16F.cpp ****                               DEV_ADDR << 1,    // 8дҪҚең°еқҖ(7дҪҚе·Ұз§»1дҪҚ)
  38:My_Top/System/BL24C16F.cpp ****                               3,                // йҮҚиҜ•ж¬Ўж•°
  39:My_Top/System/BL24C16F.cpp ****                               100) == HAL_OK)   // и¶…ж—¶ж—¶й—ҙ(ms)
  40:My_Top/System/BL24C16F.cpp ****     {
  41:My_Top/System/BL24C16F.cpp ****         return true;    // и®ҫеӨҮеңЁзәҝ
  42:My_Top/System/BL24C16F.cpp ****     }
  43:My_Top/System/BL24C16F.cpp **** 
  44:My_Top/System/BL24C16F.cpp ****     return false;       // и®ҫеӨҮжңӘе“Қеә”
 104              		.loc 1 44 12 view .LVU16
 105 0028 0020     		movs	r0, #0
 106              	.L4:
  45:My_Top/System/BL24C16F.cpp **** }
 107              		.loc 1 45 1 view .LVU17
 108              		@ sp needed
 109 002a 10BD     		pop	{r4, pc}
 110              	.L5:
  41:My_Top/System/BL24C16F.cpp ****     }
 111              		.loc 1 41 16 view .LVU18
 112 002c 0120     		movs	r0, #1
 113 002e FCE7     		b	.L4
 114              	.L7:
 115              		.align	2
 116              	.L6:
 117 0030 00000000 		.word	.LANCHOR0
 118              		.cfi_endproc
 119              	.LFE462:
 121              		.align	1
 122              		.global	_ZN8BL24C16F9read_byteEt
 123              		.syntax unified
 124              		.code	16
 125              		.thumb_func
 127              	_ZN8BL24C16F9read_byteEt:
 128              	.LVL5:
 129              	.LFB463:
  46:My_Top/System/BL24C16F.cpp **** 
  47:My_Top/System/BL24C16F.cpp **** 
  48:My_Top/System/BL24C16F.cpp **** // ============================================================
ARM GAS  /tmp/ccwcOb5D.s 			page 4


  49:My_Top/System/BL24C16F.cpp **** // иҜ»еҸ–дёҖдёӘеӯ—иҠӮ
  50:My_Top/System/BL24C16F.cpp **** // ============================================================
  51:My_Top/System/BL24C16F.cpp **** uint8_t BL24C16F::read_byte(uint16_t addr)
  52:My_Top/System/BL24C16F.cpp **** {
 130              		.loc 1 52 1 is_stmt 1 view -0
 131              		.cfi_startproc
 132              		@ args = 0, pretend = 0, frame = 8
 133              		@ frame_needed = 0, uses_anonymous_args = 0
 134              		.loc 1 52 1 is_stmt 0 view .LVU20
 135 0034 70B5     		push	{r4, r5, r6, lr}
 136              		.cfi_def_cfa_offset 16
 137              		.cfi_offset 4, -16
 138              		.cfi_offset 5, -12
 139              		.cfi_offset 6, -8
 140              		.cfi_offset 14, -4
 141 0036 86B0     		sub	sp, sp, #24
 142              		.cfi_def_cfa_offset 40
 143 0038 0500     		movs	r5, r0
  53:My_Top/System/BL24C16F.cpp ****     uint8_t data = 0xFF;    // й»ҳи®ӨеҖјпјҲиҜ»еҸ–еӨұиҙҘиҝ”еӣһ 0xFFпјү
 144              		.loc 1 53 5 is_stmt 1 view .LVU21
 145              		.loc 1 53 13 is_stmt 0 view .LVU22
 146 003a 1726     		movs	r6, #23
 147 003c 6E44     		add	r6, r6, sp
 148 003e FF23     		movs	r3, #255
 149 0040 3370     		strb	r3, [r6]
  54:My_Top/System/BL24C16F.cpp **** 
  55:My_Top/System/BL24C16F.cpp ****     // иҺ·еҸ–жң¬ең°еқҖеҜ№еә”зҡ„еҷЁд»¶ең°еқҖе’ҢйЎөеҶ…еҒҸз§»
  56:My_Top/System/BL24C16F.cpp ****     uint8_t dev_addr = _dev_addr(addr) << 1;    // 7дҪҚ вҶ’ 8дҪҚ
 150              		.loc 1 56 5 is_stmt 1 view .LVU23
 151              		.loc 1 56 33 is_stmt 0 view .LVU24
 152 0042 FFF7FEFF 		bl	_ZN8BL24C16F9_dev_addrEt
 153              	.LVL6:
 154              		.loc 1 56 43 discriminator 1 view .LVU25
 155 0046 4400     		lsls	r4, r0, #1
 156 0048 E4B2     		uxtb	r4, r4
 157              	.LVL7:
  57:My_Top/System/BL24C16F.cpp ****     uint8_t offset   = _page_offset(addr);
 158              		.loc 1 57 5 is_stmt 1 view .LVU26
 159              		.loc 1 57 36 is_stmt 0 view .LVU27
 160 004a 2800     		movs	r0, r5
 161 004c FFF7FEFF 		bl	_ZN8BL24C16F12_page_offsetEt
 162              	.LVL8:
 163 0050 0200     		movs	r2, r0
 164              	.LVL9:
  58:My_Top/System/BL24C16F.cpp **** 
  59:My_Top/System/BL24C16F.cpp ****     // дҪҝз”Ё HAL_I2C_Mem_Readпјҡе…ҲеҸ‘еҷЁд»¶ең°еқҖ(еҶҷ)еҶҷеҒҸз§»пјҢеҶҚеҸ‘еҷЁд»¶ең°еқҖ(иҜ»)иҜ»ж•°жҚ
  60:My_Top/System/BL24C16F.cpp ****     // MemAddress дёәйЎөеҶ…еҒҸз§» (8дҪҚ)
  61:My_Top/System/BL24C16F.cpp ****     // MemAddSize дёә 8 дҪҚең°еқҖй•ҝеәҰ
  62:My_Top/System/BL24C16F.cpp ****     if (HAL_I2C_Mem_Read(_hi2c, dev_addr, offset,
 165              		.loc 1 62 5 is_stmt 1 view .LVU28
 166              		.loc 1 62 25 is_stmt 0 view .LVU29
 167 0052 084B     		ldr	r3, .L11
 168 0054 1868     		ldr	r0, [r3]
 169 0056 6423     		movs	r3, #100
 170 0058 0293     		str	r3, [sp, #8]
 171 005a 633B     		subs	r3, r3, #99
 172 005c 0193     		str	r3, [sp, #4]
ARM GAS  /tmp/ccwcOb5D.s 			page 5


 173 005e 0096     		str	r6, [sp]
 174 0060 2100     		movs	r1, r4
 175 0062 FFF7FEFF 		bl	HAL_I2C_Mem_Read
 176              	.LVL10:
 177              		.loc 1 62 5 view .LVU30
 178 0066 0028     		cmp	r0, #0
 179 0068 02D1     		bne	.L10
  63:My_Top/System/BL24C16F.cpp ****                          I2C_MEMADD_SIZE_8BIT,
  64:My_Top/System/BL24C16F.cpp ****                          &data, 1,
  65:My_Top/System/BL24C16F.cpp ****                          100) != HAL_OK)
  66:My_Top/System/BL24C16F.cpp ****     {
  67:My_Top/System/BL24C16F.cpp ****         return 0xFF;     // иҜ»еҸ–еӨұиҙҘиҝ”еӣһ 0xFF
  68:My_Top/System/BL24C16F.cpp ****     }
  69:My_Top/System/BL24C16F.cpp **** 
  70:My_Top/System/BL24C16F.cpp ****     return data;
 180              		.loc 1 70 5 is_stmt 1 view .LVU31
 181              		.loc 1 70 12 is_stmt 0 view .LVU32
 182 006a 3078     		ldrb	r0, [r6]
 183              	.L9:
  71:My_Top/System/BL24C16F.cpp **** }
 184              		.loc 1 71 1 view .LVU33
 185 006c 06B0     		add	sp, sp, #24
 186              		@ sp needed
 187              	.LVL11:
 188              	.LVL12:
 189              		.loc 1 71 1 view .LVU34
 190 006e 70BD     		pop	{r4, r5, r6, pc}
 191              	.LVL13:
 192              	.L10:
  67:My_Top/System/BL24C16F.cpp ****     }
 193              		.loc 1 67 16 view .LVU35
 194 0070 FF20     		movs	r0, #255
 195 0072 FBE7     		b	.L9
 196              	.L12:
 197              		.align	2
 198              	.L11:
 199 0074 00000000 		.word	.LANCHOR0
 200              		.cfi_endproc
 201              	.LFE463:
 203              		.align	1
 204              		.global	_ZN8BL24C16F4readEtPht
 205              		.syntax unified
 206              		.code	16
 207              		.thumb_func
 209              	_ZN8BL24C16F4readEtPht:
 210              	.LVL14:
 211              	.LFB465:
  72:My_Top/System/BL24C16F.cpp **** 
  73:My_Top/System/BL24C16F.cpp **** 
  74:My_Top/System/BL24C16F.cpp **** // ============================================================
  75:My_Top/System/BL24C16F.cpp **** // еҶҷе…ҘдёҖдёӘеӯ—иҠӮ
  76:My_Top/System/BL24C16F.cpp **** // ============================================================
  77:My_Top/System/BL24C16F.cpp **** bool BL24C16F::write_byte(uint16_t addr, uint8_t data)
  78:My_Top/System/BL24C16F.cpp **** {
  79:My_Top/System/BL24C16F.cpp ****     // зӣҙжҺҘи°ғз”ЁйЎөеҶҷе…ҘеҮҪж•°еҶҷ 1 дёӘеӯ—иҠӮеҚіеҸҜ
  80:My_Top/System/BL24C16F.cpp ****     uint8_t dev_addr = _dev_addr(addr) << 1;
  81:My_Top/System/BL24C16F.cpp ****     uint8_t offset   = _page_offset(addr);
ARM GAS  /tmp/ccwcOb5D.s 			page 6


  82:My_Top/System/BL24C16F.cpp **** 
  83:My_Top/System/BL24C16F.cpp ****     if (HAL_I2C_Mem_Write(_hi2c, dev_addr, offset,
  84:My_Top/System/BL24C16F.cpp ****                           I2C_MEMADD_SIZE_8BIT,
  85:My_Top/System/BL24C16F.cpp ****                           &data, 1,
  86:My_Top/System/BL24C16F.cpp ****                           100) != HAL_OK)
  87:My_Top/System/BL24C16F.cpp ****     {
  88:My_Top/System/BL24C16F.cpp ****         return false;    // еҶҷе…ҘеӨұиҙҘ
  89:My_Top/System/BL24C16F.cpp ****     }
  90:My_Top/System/BL24C16F.cpp **** 
  91:My_Top/System/BL24C16F.cpp ****     // зӯүеҫ…еҶ…йғЁеҶҷе…Ҙе®ҢжҲҗпјҲ~5ms EEPROM ж“ҰеҶҷж—¶й—ҙпјү
  92:My_Top/System/BL24C16F.cpp ****     _wait_write_complete();
  93:My_Top/System/BL24C16F.cpp **** 
  94:My_Top/System/BL24C16F.cpp ****     return true;
  95:My_Top/System/BL24C16F.cpp **** }
  96:My_Top/System/BL24C16F.cpp **** 
  97:My_Top/System/BL24C16F.cpp **** 
  98:My_Top/System/BL24C16F.cpp **** // ============================================================
  99:My_Top/System/BL24C16F.cpp **** // иҝһз»ӯиҜ»еҸ–еӨҡдёӘеӯ—иҠӮпјҲж— йЎөиҫ№з•ҢйҷҗеҲ¶пјҢEEPROM ж”ҜжҢҒиҝһз»ӯиҜ»пјү
 100:My_Top/System/BL24C16F.cpp **** // ============================================================
 101:My_Top/System/BL24C16F.cpp **** bool BL24C16F::read(uint16_t addr, uint8_t *buf, uint16_t len)
 102:My_Top/System/BL24C16F.cpp **** {
 212              		.loc 1 102 1 is_stmt 1 view -0
 213              		.cfi_startproc
 214              		@ args = 0, pretend = 0, frame = 0
 215              		@ frame_needed = 0, uses_anonymous_args = 0
 216              		.loc 1 102 1 is_stmt 0 view .LVU37
 217 0078 F0B5     		push	{r4, r5, r6, r7, lr}
 218              		.cfi_def_cfa_offset 20
 219              		.cfi_offset 4, -20
 220              		.cfi_offset 5, -16
 221              		.cfi_offset 6, -12
 222              		.cfi_offset 7, -8
 223              		.cfi_offset 14, -4
 224 007a C646     		mov	lr, r8
 225 007c 00B5     		push	{lr}
 226              		.cfi_def_cfa_offset 24
 227              		.cfi_offset 8, -24
 228 007e 84B0     		sub	sp, sp, #16
 229              		.cfi_def_cfa_offset 40
 230 0080 0500     		movs	r5, r0
 231 0082 8846     		mov	r8, r1
 232 0084 1600     		movs	r6, r2
 103:My_Top/System/BL24C16F.cpp ****     // еҸӮж•°жЈҖжҹҘ
 104:My_Top/System/BL24C16F.cpp ****     if (buf == NULL || len == 0)
 233              		.loc 1 104 5 is_stmt 1 view .LVU38
 234 0086 0029     		cmp	r1, #0
 235 0088 37D0     		beq	.L18
 236              		.loc 1 104 21 is_stmt 0 discriminator 1 view .LVU39
 237 008a 002A     		cmp	r2, #0
 238 008c 37D0     		beq	.L19
 105:My_Top/System/BL24C16F.cpp ****         return false;
 106:My_Top/System/BL24C16F.cpp ****     if (addr + len > EEPROM_SIZE)
 239              		.loc 1 106 5 is_stmt 1 view .LVU40
 240              		.loc 1 106 14 is_stmt 0 view .LVU41
 241 008e 8318     		adds	r3, r0, r2
 242              		.loc 1 106 5 view .LVU42
 243 0090 8022     		movs	r2, #128
ARM GAS  /tmp/ccwcOb5D.s 			page 7


 244              	.LVL15:
 245              		.loc 1 106 5 view .LVU43
 246 0092 1201     		lsls	r2, r2, #4
 247 0094 9342     		cmp	r3, r2
 248 0096 37DC     		bgt	.L20
 107:My_Top/System/BL24C16F.cpp ****         return false;
 108:My_Top/System/BL24C16F.cpp **** 
 109:My_Top/System/BL24C16F.cpp ****     uint8_t dev_addr = _dev_addr(addr) << 1;    // иө·е§Ӣең°еқҖзҡ„еҷЁд»¶ең°еқҖ
 249              		.loc 1 109 5 is_stmt 1 view .LVU44
 250              		.loc 1 109 33 is_stmt 0 view .LVU45
 251 0098 FFF7FEFF 		bl	_ZN8BL24C16F9_dev_addrEt
 252              	.LVL16:
 253              		.loc 1 109 43 discriminator 1 view .LVU46
 254 009c 4700     		lsls	r7, r0, #1
 255 009e FFB2     		uxtb	r7, r7
 256              	.LVL17:
 110:My_Top/System/BL24C16F.cpp ****     uint8_t offset   = _page_offset(addr);       // иө·е§Ӣең°еқҖзҡ„йЎөеҶ…еҒҸз§»
 257              		.loc 1 110 5 is_stmt 1 view .LVU47
 258              		.loc 1 110 36 is_stmt 0 view .LVU48
 259 00a0 2800     		movs	r0, r5
 260 00a2 FFF7FEFF 		bl	_ZN8BL24C16F12_page_offsetEt
 261              	.LVL18:
 111:My_Top/System/BL24C16F.cpp **** 
 112:My_Top/System/BL24C16F.cpp ****     // иҝһз»ӯиҜ»пјҡд»Һиө·е§Ӣең°еқҖејҖе§ӢпјҢйҖҗдёӘйҖ’еўһең°еқҖиҜ»еҸ–
 113:My_Top/System/BL24C16F.cpp ****     // BL24C16F еңЁиҜ»еҸ–еҲ°еҪ“еүҚ block жң«е°ҫж—¶дјҡиҮӘеҠЁеӣһеҚ·еҲ°иҜҘ block иө·е§Ӣ
 114:My_Top/System/BL24C16F.cpp ****     // жіЁж„Ҹпјҡи·Ё block ж—¶ (offset + len > 256) йңҖиҰҒеҲҶж®өиҜ»еҸ–
 115:My_Top/System/BL24C16F.cpp ****     while (len > 0)
 262              		.loc 1 115 5 is_stmt 1 view .LVU49
 263 00a6 1BE0     		b	.L15
 264              	.LVL19:
 265              	.L16:
 266              	.LBB2:
 116:My_Top/System/BL24C16F.cpp ****     {
 117:My_Top/System/BL24C16F.cpp ****         // и®Ўз®—еҪ“еүҚ block еҶ…еү©дҪҷеҸҜиҜ»еӯ—иҠӮж•°
 118:My_Top/System/BL24C16F.cpp ****         uint16_t chunk = 256 - offset;
 119:My_Top/System/BL24C16F.cpp ****         if (chunk > len) chunk = len;
 120:My_Top/System/BL24C16F.cpp **** 
 121:My_Top/System/BL24C16F.cpp ****         // д»ҺеҪ“еүҚең°еқҖиҜ»еҸ– chunk дёӘеӯ—иҠӮ
 122:My_Top/System/BL24C16F.cpp ****         if (HAL_I2C_Mem_Read(_hi2c, dev_addr, offset,
 267              		.loc 1 122 9 view .LVU50
 268              		.loc 1 122 29 is_stmt 0 view .LVU51
 269 00a8 1A4B     		ldr	r3, .L25
 270 00aa 1868     		ldr	r0, [r3]
 271              	.LVL20:
 272              		.loc 1 122 29 view .LVU52
 273 00ac 6423     		movs	r3, #100
 274 00ae 0293     		str	r3, [sp, #8]
 275 00b0 0194     		str	r4, [sp, #4]
 276 00b2 4346     		mov	r3, r8
 277 00b4 0093     		str	r3, [sp]
 278 00b6 0123     		movs	r3, #1
 279 00b8 3900     		movs	r1, r7
 280 00ba FFF7FEFF 		bl	HAL_I2C_Mem_Read
 281              	.LVL21:
 282              		.loc 1 122 9 view .LVU53
 283 00be 0028     		cmp	r0, #0
 284 00c0 24D1     		bne	.L22
ARM GAS  /tmp/ccwcOb5D.s 			page 8


 123:My_Top/System/BL24C16F.cpp ****                              I2C_MEMADD_SIZE_8BIT,
 124:My_Top/System/BL24C16F.cpp ****                              buf, chunk,
 125:My_Top/System/BL24C16F.cpp ****                              100) != HAL_OK)
 126:My_Top/System/BL24C16F.cpp ****         {
 127:My_Top/System/BL24C16F.cpp ****             return false;    // иҜ»еҸ–еӨұиҙҘ
 128:My_Top/System/BL24C16F.cpp ****         }
 129:My_Top/System/BL24C16F.cpp **** 
 130:My_Top/System/BL24C16F.cpp ****         // жӣҙж–°жҢҮй’Ҳе’Ңи®Ўж•°еҷЁ
 131:My_Top/System/BL24C16F.cpp ****         addr  += chunk;
 285              		.loc 1 131 9 is_stmt 1 view .LVU54
 286              		.loc 1 131 15 is_stmt 0 view .LVU55
 287 00c2 2D19     		adds	r5, r5, r4
 288              	.LVL22:
 289              		.loc 1 131 15 view .LVU56
 290 00c4 ADB2     		uxth	r5, r5
 291              	.LVL23:
 132:My_Top/System/BL24C16F.cpp ****         buf   += chunk;
 292              		.loc 1 132 9 is_stmt 1 view .LVU57
 293              		.loc 1 132 15 is_stmt 0 view .LVU58
 294 00c6 A044     		add	r8, r8, r4
 295              	.LVL24:
 133:My_Top/System/BL24C16F.cpp ****         len   -= chunk;
 296              		.loc 1 133 9 is_stmt 1 view .LVU59
 297              		.loc 1 133 15 is_stmt 0 view .LVU60
 298 00c8 361B     		subs	r6, r6, r4
 299              	.LVL25:
 300              		.loc 1 133 15 view .LVU61
 301 00ca B6B2     		uxth	r6, r6
 302              	.LVL26:
 134:My_Top/System/BL24C16F.cpp **** 
 135:My_Top/System/BL24C16F.cpp ****         // еҰӮжһңиҝҳжңүеү©дҪҷж•°жҚ®йңҖиҰҒиҜ»еҸ–пјҢеҲҮжҚўеҲ°дёӢдёҖдёӘ block
 136:My_Top/System/BL24C16F.cpp ****         if (len > 0)
 303              		.loc 1 136 9 is_stmt 1 view .LVU62
 304 00cc 002E     		cmp	r6, #0
 305 00ce 1FD0     		beq	.L23
 137:My_Top/System/BL24C16F.cpp ****         {
 138:My_Top/System/BL24C16F.cpp ****             dev_addr = _dev_addr(addr) << 1;    // дёӢдёҖдёӘ block зҡ„еҷЁд»¶ең°еқҖ
 306              		.loc 1 138 13 view .LVU63
 307              		.loc 1 138 33 is_stmt 0 view .LVU64
 308 00d0 2800     		movs	r0, r5
 309 00d2 FFF7FEFF 		bl	_ZN8BL24C16F9_dev_addrEt
 310              	.LVL27:
 311              		.loc 1 138 22 discriminator 1 view .LVU65
 312 00d6 4700     		lsls	r7, r0, #1
 313              	.LVL28:
 314              		.loc 1 138 22 discriminator 1 view .LVU66
 315 00d8 FFB2     		uxtb	r7, r7
 316              	.LVL29:
 139:My_Top/System/BL24C16F.cpp ****             offset   = _page_offset(addr);        // дёӢдёҖдёӘ block зҡ„йЎөеҶ…еҒҸз§»
 317              		.loc 1 139 13 is_stmt 1 view .LVU67
 318              		.loc 1 139 36 is_stmt 0 view .LVU68
 319 00da 2800     		movs	r0, r5
 320 00dc FFF7FEFF 		bl	_ZN8BL24C16F12_page_offsetEt
 321              	.LVL30:
 322              	.L15:
 323              		.loc 1 139 36 view .LVU69
 324              	.LBE2:
ARM GAS  /tmp/ccwcOb5D.s 			page 9


 115:My_Top/System/BL24C16F.cpp ****     {
 325              		.loc 1 115 16 is_stmt 1 view .LVU70
 326 00e0 002E     		cmp	r6, #0
 327 00e2 08D0     		beq	.L24
 328              	.LBB3:
 118:My_Top/System/BL24C16F.cpp ****         if (chunk > len) chunk = len;
 329              		.loc 1 118 9 view .LVU71
 118:My_Top/System/BL24C16F.cpp ****         if (chunk > len) chunk = len;
 330              		.loc 1 118 30 is_stmt 0 view .LVU72
 331 00e4 0200     		movs	r2, r0
 118:My_Top/System/BL24C16F.cpp ****         if (chunk > len) chunk = len;
 332              		.loc 1 118 18 view .LVU73
 333 00e6 8024     		movs	r4, #128
 334 00e8 6400     		lsls	r4, r4, #1
 335 00ea 241A     		subs	r4, r4, r0
 336 00ec A4B2     		uxth	r4, r4
 337              	.LVL31:
 119:My_Top/System/BL24C16F.cpp **** 
 338              		.loc 1 119 9 is_stmt 1 view .LVU74
 339 00ee A642     		cmp	r6, r4
 340 00f0 DAD2     		bcs	.L16
 119:My_Top/System/BL24C16F.cpp **** 
 341              		.loc 1 119 32 is_stmt 0 discriminator 1 view .LVU75
 342 00f2 3400     		movs	r4, r6
 343              	.LVL32:
 119:My_Top/System/BL24C16F.cpp **** 
 344              		.loc 1 119 32 discriminator 1 view .LVU76
 345 00f4 D8E7     		b	.L16
 346              	.LVL33:
 347              	.L24:
 119:My_Top/System/BL24C16F.cpp **** 
 348              		.loc 1 119 32 discriminator 1 view .LVU77
 349              	.LBE3:
 140:My_Top/System/BL24C16F.cpp ****         }
 141:My_Top/System/BL24C16F.cpp ****     }
 142:My_Top/System/BL24C16F.cpp **** 
 143:My_Top/System/BL24C16F.cpp ****     return true;
 350              		.loc 1 143 12 view .LVU78
 351 00f6 0120     		movs	r0, #1
 352              	.LVL34:
 353              		.loc 1 143 12 view .LVU79
 354 00f8 02E0     		b	.L14
 355              	.LVL35:
 356              	.L18:
 105:My_Top/System/BL24C16F.cpp ****     if (addr + len > EEPROM_SIZE)
 357              		.loc 1 105 16 view .LVU80
 358 00fa 0020     		movs	r0, #0
 359              	.LVL36:
 105:My_Top/System/BL24C16F.cpp ****     if (addr + len > EEPROM_SIZE)
 360              		.loc 1 105 16 view .LVU81
 361 00fc 00E0     		b	.L14
 362              	.LVL37:
 363              	.L19:
 105:My_Top/System/BL24C16F.cpp ****     if (addr + len > EEPROM_SIZE)
 364              		.loc 1 105 16 view .LVU82
 365 00fe 0020     		movs	r0, #0
 366              	.LVL38:
ARM GAS  /tmp/ccwcOb5D.s 			page 10


 367              	.L14:
 144:My_Top/System/BL24C16F.cpp **** }
 368              		.loc 1 144 1 view .LVU83
 369 0100 04B0     		add	sp, sp, #16
 370              		@ sp needed
 371 0102 80BC     		pop	{r7}
 372 0104 B846     		mov	r8, r7
 373 0106 F0BD     		pop	{r4, r5, r6, r7, pc}
 374              	.LVL39:
 375              	.L20:
 107:My_Top/System/BL24C16F.cpp **** 
 376              		.loc 1 107 16 view .LVU84
 377 0108 0020     		movs	r0, #0
 378              	.LVL40:
 107:My_Top/System/BL24C16F.cpp **** 
 379              		.loc 1 107 16 view .LVU85
 380 010a F9E7     		b	.L14
 381              	.LVL41:
 382              	.L22:
 383              	.LBB4:
 127:My_Top/System/BL24C16F.cpp ****         }
 384              		.loc 1 127 20 view .LVU86
 385 010c 0020     		movs	r0, #0
 386 010e F7E7     		b	.L14
 387              	.L23:
 127:My_Top/System/BL24C16F.cpp ****         }
 388              		.loc 1 127 20 view .LVU87
 389              	.LBE4:
 143:My_Top/System/BL24C16F.cpp **** }
 390              		.loc 1 143 12 view .LVU88
 391 0110 0120     		movs	r0, #1
 392 0112 F5E7     		b	.L14
 393              	.L26:
 394              		.align	2
 395              	.L25:
 396 0114 00000000 		.word	.LANCHOR0
 397              		.cfi_endproc
 398              	.LFE465:
 400              		.align	1
 401              		.global	_ZN8BL24C16F20_wait_write_completeEv
 402              		.syntax unified
 403              		.code	16
 404              		.thumb_func
 406              	_ZN8BL24C16F20_wait_write_completeEv:
 407              	.LFB467:
 145:My_Top/System/BL24C16F.cpp **** 
 146:My_Top/System/BL24C16F.cpp **** 
 147:My_Top/System/BL24C16F.cpp **** // ============================================================
 148:My_Top/System/BL24C16F.cpp **** // иҝһз»ӯеҶҷе…ҘеӨҡдёӘеӯ—иҠӮпјҲиҮӘеҠЁеӨ„зҗҶйЎөиҫ№з•Ң = 16 еӯ—иҠӮ/йЎөпјү
 149:My_Top/System/BL24C16F.cpp **** // ============================================================
 150:My_Top/System/BL24C16F.cpp **** bool BL24C16F::write(uint16_t addr, const uint8_t *buf, uint16_t len)
 151:My_Top/System/BL24C16F.cpp **** {
 152:My_Top/System/BL24C16F.cpp ****     // еҸӮж•°жЈҖжҹҘ
 153:My_Top/System/BL24C16F.cpp ****     if (buf == NULL || len == 0)
 154:My_Top/System/BL24C16F.cpp ****         return false;
 155:My_Top/System/BL24C16F.cpp ****     if (addr + len > EEPROM_SIZE)
 156:My_Top/System/BL24C16F.cpp ****         return false;
ARM GAS  /tmp/ccwcOb5D.s 			page 11


 157:My_Top/System/BL24C16F.cpp **** 
 158:My_Top/System/BL24C16F.cpp ****     while (len > 0)
 159:My_Top/System/BL24C16F.cpp ****     {
 160:My_Top/System/BL24C16F.cpp ****         // и®Ўз®—еҪ“еүҚйЎөеҶ…зҡ„еҶҷе…ҘдҪҚзҪ®
 161:My_Top/System/BL24C16F.cpp ****         uint8_t dev_addr = _dev_addr(addr) << 1;     // еҪ“еүҚ block зҡ„еҷЁд»¶ең°еқҖ
 162:My_Top/System/BL24C16F.cpp ****         uint8_t offset   = _page_offset(addr);        // еҪ“еүҚйЎөеҶ…еҒҸз§»
 163:My_Top/System/BL24C16F.cpp **** 
 164:My_Top/System/BL24C16F.cpp ****         // и®Ўз®—еҪ“еүҚйЎөеҶ…дёҖж¬ЎжңҖеӨҡиғҪеҶҷе…Ҙзҡ„еӯ—иҠӮж•°
 165:My_Top/System/BL24C16F.cpp ****         // йЎөеӨ§е°Ҹ 16 еӯ—иҠӮпјҢд»ҺйЎөеҶ…еҒҸз§» offset ејҖе§ӢпјҢжңҖеӨҡеҶҷ (16 - offset%16) еӯ—иҠӮ
 166:My_Top/System/BL24C16F.cpp ****         uint8_t page_remain = PAGE_SIZE - (offset % PAGE_SIZE);
 167:My_Top/System/BL24C16F.cpp ****         uint16_t chunk = (len < page_remain) ? len : page_remain;
 168:My_Top/System/BL24C16F.cpp **** 
 169:My_Top/System/BL24C16F.cpp ****         // еҶҷе…ҘеҪ“еүҚйЎөзҡ„ chunk дёӘеӯ—иҠӮ
 170:My_Top/System/BL24C16F.cpp ****         if (HAL_I2C_Mem_Write(_hi2c, dev_addr, offset,
 171:My_Top/System/BL24C16F.cpp ****                               I2C_MEMADD_SIZE_8BIT,
 172:My_Top/System/BL24C16F.cpp ****                               (uint8_t *)buf, chunk,    // const вҶ’ йқһ const иҪ¬жҚў
 173:My_Top/System/BL24C16F.cpp ****                               100) != HAL_OK)
 174:My_Top/System/BL24C16F.cpp ****         {
 175:My_Top/System/BL24C16F.cpp ****             return false;    // еҶҷе…ҘеӨұиҙҘ
 176:My_Top/System/BL24C16F.cpp ****         }
 177:My_Top/System/BL24C16F.cpp **** 
 178:My_Top/System/BL24C16F.cpp ****         // зӯүеҫ…еҶ…йғЁеҶҷе…Ҙе®ҢжҲҗ
 179:My_Top/System/BL24C16F.cpp ****         _wait_write_complete();
 180:My_Top/System/BL24C16F.cpp **** 
 181:My_Top/System/BL24C16F.cpp ****         // жӣҙж–°жҢҮй’Ҳе’Ңи®Ўж•°еҷЁ
 182:My_Top/System/BL24C16F.cpp ****         addr += chunk;
 183:My_Top/System/BL24C16F.cpp ****         buf  += chunk;
 184:My_Top/System/BL24C16F.cpp ****         len  -= chunk;
 185:My_Top/System/BL24C16F.cpp ****     }
 186:My_Top/System/BL24C16F.cpp **** 
 187:My_Top/System/BL24C16F.cpp ****     return true;
 188:My_Top/System/BL24C16F.cpp **** }
 189:My_Top/System/BL24C16F.cpp **** 
 190:My_Top/System/BL24C16F.cpp **** 
 191:My_Top/System/BL24C16F.cpp **** // ============================================================
 192:My_Top/System/BL24C16F.cpp **** // зӯүеҫ… EEPROM еҶ…йғЁеҶҷе…Ҙе®ҢжҲҗпјҲACK иҪ®иҜўпјү
 193:My_Top/System/BL24C16F.cpp **** // EEPROM еңЁеҶ…йғЁж“ҰеҶҷжңҹй—ҙдёҚдјҡе“Қеә” ACK
 194:My_Top/System/BL24C16F.cpp **** // иҪ®иҜўеҷЁд»¶ең°еқҖзӣҙеҲ°ж”¶еҲ° ACKпјҢи¶…ж—¶еҲҷж”ҫејғ
 195:My_Top/System/BL24C16F.cpp **** // ============================================================
 196:My_Top/System/BL24C16F.cpp **** void BL24C16F::_wait_write_complete(void)
 197:My_Top/System/BL24C16F.cpp **** {
 408              		.loc 1 197 1 is_stmt 1 view -0
 409              		.cfi_startproc
 410              		@ args = 0, pretend = 0, frame = 0
 411              		@ frame_needed = 0, uses_anonymous_args = 0
 412 0118 10B5     		push	{r4, lr}
 413              		.cfi_def_cfa_offset 8
 414              		.cfi_offset 4, -8
 415              		.cfi_offset 14, -4
 198:My_Top/System/BL24C16F.cpp ****     // иҪ®иҜўзӯүеҫ…пјҡеҸ‘йҖҒеҷЁд»¶ең°еқҖ(еҶҷ)пјҢеҰӮжһңж”¶еҲ° ACK иЎЁзӨәеҶҷе…Ҙе®ҢжҲҗ
 199:My_Top/System/BL24C16F.cpp ****     // жңҖеӨҡзӯүеҫ… 50msпјҲEEPROM е…ёеһӢеҶҷе…Ҙж—¶й—ҙ 5msпјҢз•ҷи¶ідҪҷйҮҸпјү
 200:My_Top/System/BL24C16F.cpp ****     uint32_t timeout_ms = 50;
 416              		.loc 1 200 5 view .LVU90
 417              	.LVL42:
 201:My_Top/System/BL24C16F.cpp **** 
 202:My_Top/System/BL24C16F.cpp ****     // дҪҝз”Ё HAL_I2C_IsDeviceReady иҝӣиЎҢ ACK иҪ®иҜў
 203:My_Top/System/BL24C16F.cpp ****     // жҜҸ 1ms иҪ®иҜўдёҖж¬Ў
ARM GAS  /tmp/ccwcOb5D.s 			page 12


 204:My_Top/System/BL24C16F.cpp ****     while (HAL_I2C_IsDeviceReady(_hi2c,
 418              		.loc 1 204 5 view .LVU91
 200:My_Top/System/BL24C16F.cpp **** 
 419              		.loc 1 200 14 is_stmt 0 view .LVU92
 420 011a 3224     		movs	r4, #50
 421              		.loc 1 204 5 view .LVU93
 422 011c 00E0     		b	.L28
 423              	.LVL43:
 424              	.L31:
 205:My_Top/System/BL24C16F.cpp ****                                  DEV_ADDR << 1,    // 8дҪҚеҷЁд»¶ең°еқҖ(еҶҷ)
 206:My_Top/System/BL24C16F.cpp ****                                  1,                // жҜҸж¬Ўе°қиҜ• 1 ж¬Ў
 207:My_Top/System/BL24C16F.cpp ****                                  1) != HAL_OK)     // жҜҸж¬Ўи¶…ж—¶ 1ms
 208:My_Top/System/BL24C16F.cpp ****     {
 209:My_Top/System/BL24C16F.cpp ****         // жЈҖжҹҘи¶…ж—¶
 210:My_Top/System/BL24C16F.cpp ****         if (timeout_ms == 0)
 211:My_Top/System/BL24C16F.cpp ****             break;          // и¶…ж—¶пјҢж”ҫејғзӯүеҫ…
 212:My_Top/System/BL24C16F.cpp **** 
 213:My_Top/System/BL24C16F.cpp ****         timeout_ms--;
 425              		.loc 1 213 9 is_stmt 1 view .LVU94
 426              		.loc 1 213 19 is_stmt 0 view .LVU95
 427 011e 013C     		subs	r4, r4, #1
 428              	.LVL44:
 429              	.L28:
 207:My_Top/System/BL24C16F.cpp ****     {
 430              		.loc 1 207 37 is_stmt 1 view .LVU96
 204:My_Top/System/BL24C16F.cpp ****                                  DEV_ADDR << 1,    // 8дҪҚеҷЁд»¶ең°еқҖ(еҶҷ)
 431              		.loc 1 204 33 is_stmt 0 view .LVU97
 432 0120 054B     		ldr	r3, .L32
 433 0122 1868     		ldr	r0, [r3]
 434 0124 0123     		movs	r3, #1
 435 0126 0122     		movs	r2, #1
 436 0128 A021     		movs	r1, #160
 437 012a FFF7FEFF 		bl	HAL_I2C_IsDeviceReady
 438              	.LVL45:
 207:My_Top/System/BL24C16F.cpp ****     {
 439              		.loc 1 207 37 view .LVU98
 440 012e 0028     		cmp	r0, #0
 441 0130 01D0     		beq	.L27
 210:My_Top/System/BL24C16F.cpp ****             break;          // и¶…ж—¶пјҢж”ҫејғзӯүеҫ…
 442              		.loc 1 210 9 is_stmt 1 view .LVU99
 443 0132 002C     		cmp	r4, #0
 444 0134 F3D1     		bne	.L31
 445              	.L27:
 214:My_Top/System/BL24C16F.cpp ****     }
 215:My_Top/System/BL24C16F.cpp **** }
 446              		.loc 1 215 1 is_stmt 0 view .LVU100
 447              		@ sp needed
 448              	.LVL46:
 449              		.loc 1 215 1 view .LVU101
 450 0136 10BD     		pop	{r4, pc}
 451              	.L33:
 452              		.align	2
 453              	.L32:
 454 0138 00000000 		.word	.LANCHOR0
 455              		.cfi_endproc
 456              	.LFE467:
 458              		.align	1
ARM GAS  /tmp/ccwcOb5D.s 			page 13


 459              		.global	_ZN8BL24C16F10write_byteEth
 460              		.syntax unified
 461              		.code	16
 462              		.thumb_func
 464              	_ZN8BL24C16F10write_byteEth:
 465              	.LVL47:
 466              	.LFB464:
  78:My_Top/System/BL24C16F.cpp ****     // зӣҙжҺҘи°ғз”ЁйЎөеҶҷе…ҘеҮҪж•°еҶҷ 1 дёӘеӯ—иҠӮеҚіеҸҜ
 467              		.loc 1 78 1 is_stmt 1 view -0
 468              		.cfi_startproc
 469              		@ args = 0, pretend = 0, frame = 8
 470              		@ frame_needed = 0, uses_anonymous_args = 0
  78:My_Top/System/BL24C16F.cpp ****     // зӣҙжҺҘи°ғз”ЁйЎөеҶҷе…ҘеҮҪж•°еҶҷ 1 дёӘеӯ—иҠӮеҚіеҸҜ
 471              		.loc 1 78 1 is_stmt 0 view .LVU103
 472 013c 70B5     		push	{r4, r5, r6, lr}
 473              		.cfi_def_cfa_offset 16
 474              		.cfi_offset 4, -16
 475              		.cfi_offset 5, -12
 476              		.cfi_offset 6, -8
 477              		.cfi_offset 14, -4
 478 013e 86B0     		sub	sp, sp, #24
 479              		.cfi_def_cfa_offset 40
 480 0140 0500     		movs	r5, r0
 481 0142 1726     		movs	r6, #23
 482 0144 6E44     		add	r6, r6, sp
 483 0146 3170     		strb	r1, [r6]
  80:My_Top/System/BL24C16F.cpp ****     uint8_t offset   = _page_offset(addr);
 484              		.loc 1 80 5 is_stmt 1 view .LVU104
  80:My_Top/System/BL24C16F.cpp ****     uint8_t offset   = _page_offset(addr);
 485              		.loc 1 80 33 is_stmt 0 view .LVU105
 486 0148 FFF7FEFF 		bl	_ZN8BL24C16F9_dev_addrEt
 487              	.LVL48:
  80:My_Top/System/BL24C16F.cpp ****     uint8_t offset   = _page_offset(addr);
 488              		.loc 1 80 43 discriminator 1 view .LVU106
 489 014c 4400     		lsls	r4, r0, #1
 490 014e E4B2     		uxtb	r4, r4
 491              	.LVL49:
  81:My_Top/System/BL24C16F.cpp **** 
 492              		.loc 1 81 5 is_stmt 1 view .LVU107
  81:My_Top/System/BL24C16F.cpp **** 
 493              		.loc 1 81 36 is_stmt 0 view .LVU108
 494 0150 2800     		movs	r0, r5
 495 0152 FFF7FEFF 		bl	_ZN8BL24C16F12_page_offsetEt
 496              	.LVL50:
 497 0156 0200     		movs	r2, r0
 498              	.LVL51:
  83:My_Top/System/BL24C16F.cpp ****                           I2C_MEMADD_SIZE_8BIT,
 499              		.loc 1 83 5 is_stmt 1 view .LVU109
  83:My_Top/System/BL24C16F.cpp ****                           I2C_MEMADD_SIZE_8BIT,
 500              		.loc 1 83 26 is_stmt 0 view .LVU110
 501 0158 094B     		ldr	r3, .L38
 502 015a 1868     		ldr	r0, [r3]
 503 015c 6423     		movs	r3, #100
 504 015e 0293     		str	r3, [sp, #8]
 505 0160 633B     		subs	r3, r3, #99
 506 0162 0193     		str	r3, [sp, #4]
 507 0164 0096     		str	r6, [sp]
ARM GAS  /tmp/ccwcOb5D.s 			page 14


 508 0166 2100     		movs	r1, r4
 509 0168 FFF7FEFF 		bl	HAL_I2C_Mem_Write
 510              	.LVL52:
  83:My_Top/System/BL24C16F.cpp ****                           I2C_MEMADD_SIZE_8BIT,
 511              		.loc 1 83 5 view .LVU111
 512 016c 0028     		cmp	r0, #0
 513 016e 02D0     		beq	.L37
  88:My_Top/System/BL24C16F.cpp ****     }
 514              		.loc 1 88 16 view .LVU112
 515 0170 0020     		movs	r0, #0
 516              	.L35:
  95:My_Top/System/BL24C16F.cpp **** 
 517              		.loc 1 95 1 view .LVU113
 518 0172 06B0     		add	sp, sp, #24
 519              		@ sp needed
 520              	.LVL53:
 521              	.LVL54:
  95:My_Top/System/BL24C16F.cpp **** 
 522              		.loc 1 95 1 view .LVU114
 523 0174 70BD     		pop	{r4, r5, r6, pc}
 524              	.LVL55:
 525              	.L37:
  92:My_Top/System/BL24C16F.cpp **** 
 526              		.loc 1 92 5 is_stmt 1 view .LVU115
  92:My_Top/System/BL24C16F.cpp **** 
 527              		.loc 1 92 25 is_stmt 0 view .LVU116
 528 0176 FFF7FEFF 		bl	_ZN8BL24C16F20_wait_write_completeEv
 529              	.LVL56:
  94:My_Top/System/BL24C16F.cpp **** }
 530              		.loc 1 94 5 is_stmt 1 view .LVU117
  94:My_Top/System/BL24C16F.cpp **** }
 531              		.loc 1 94 12 is_stmt 0 view .LVU118
 532 017a 0120     		movs	r0, #1
 533 017c F9E7     		b	.L35
 534              	.L39:
 535 017e C046     		.align	2
 536              	.L38:
 537 0180 00000000 		.word	.LANCHOR0
 538              		.cfi_endproc
 539              	.LFE464:
 541              		.align	1
 542              		.global	_ZN8BL24C16F5writeEtPKht
 543              		.syntax unified
 544              		.code	16
 545              		.thumb_func
 547              	_ZN8BL24C16F5writeEtPKht:
 548              	.LVL57:
 549              	.LFB466:
 151:My_Top/System/BL24C16F.cpp ****     // еҸӮж•°жЈҖжҹҘ
 550              		.loc 1 151 1 is_stmt 1 view -0
 551              		.cfi_startproc
 552              		@ args = 0, pretend = 0, frame = 0
 553              		@ frame_needed = 0, uses_anonymous_args = 0
 151:My_Top/System/BL24C16F.cpp ****     // еҸӮж•°жЈҖжҹҘ
 554              		.loc 1 151 1 is_stmt 0 view .LVU120
 555 0184 F0B5     		push	{r4, r5, r6, r7, lr}
 556              		.cfi_def_cfa_offset 20
ARM GAS  /tmp/ccwcOb5D.s 			page 15


 557              		.cfi_offset 4, -20
 558              		.cfi_offset 5, -16
 559              		.cfi_offset 6, -12
 560              		.cfi_offset 7, -8
 561              		.cfi_offset 14, -4
 562 0186 C646     		mov	lr, r8
 563 0188 00B5     		push	{lr}
 564              		.cfi_def_cfa_offset 24
 565              		.cfi_offset 8, -24
 566 018a 84B0     		sub	sp, sp, #16
 567              		.cfi_def_cfa_offset 40
 568 018c 0500     		movs	r5, r0
 569 018e 0F1E     		subs	r7, r1, #0
 570 0190 9046     		mov	r8, r2
 153:My_Top/System/BL24C16F.cpp ****         return false;
 571              		.loc 1 153 5 is_stmt 1 view .LVU121
 572 0192 36D0     		beq	.L45
 153:My_Top/System/BL24C16F.cpp ****         return false;
 573              		.loc 1 153 21 is_stmt 0 discriminator 1 view .LVU122
 574 0194 002A     		cmp	r2, #0
 575 0196 36D0     		beq	.L46
 155:My_Top/System/BL24C16F.cpp ****         return false;
 576              		.loc 1 155 5 is_stmt 1 view .LVU123
 155:My_Top/System/BL24C16F.cpp ****         return false;
 577              		.loc 1 155 14 is_stmt 0 view .LVU124
 578 0198 8318     		adds	r3, r0, r2
 155:My_Top/System/BL24C16F.cpp ****         return false;
 579              		.loc 1 155 5 view .LVU125
 580 019a 8022     		movs	r2, #128
 581              	.LVL58:
 155:My_Top/System/BL24C16F.cpp ****         return false;
 582              		.loc 1 155 5 view .LVU126
 583 019c 1201     		lsls	r2, r2, #4
 584 019e 9342     		cmp	r3, r2
 585 01a0 17DD     		ble	.L42
 156:My_Top/System/BL24C16F.cpp **** 
 586              		.loc 1 156 16 view .LVU127
 587 01a2 0020     		movs	r0, #0
 588              	.LVL59:
 156:My_Top/System/BL24C16F.cpp **** 
 589              		.loc 1 156 16 view .LVU128
 590 01a4 30E0     		b	.L41
 591              	.LVL60:
 592              	.L43:
 593              	.LBB5:
 167:My_Top/System/BL24C16F.cpp **** 
 594              		.loc 1 167 18 view .LVU129
 595 01a6 A4B2     		uxth	r4, r4
 596              	.LVL61:
 170:My_Top/System/BL24C16F.cpp ****                               I2C_MEMADD_SIZE_8BIT,
 597              		.loc 1 170 9 is_stmt 1 view .LVU130
 170:My_Top/System/BL24C16F.cpp ****                               I2C_MEMADD_SIZE_8BIT,
 598              		.loc 1 170 30 is_stmt 0 view .LVU131
 599 01a8 1A4B     		ldr	r3, .L50
 600              	.LVL62:
 170:My_Top/System/BL24C16F.cpp ****                               I2C_MEMADD_SIZE_8BIT,
 601              		.loc 1 170 30 view .LVU132
ARM GAS  /tmp/ccwcOb5D.s 			page 16


 602 01aa 1868     		ldr	r0, [r3]
 603              	.LVL63:
 170:My_Top/System/BL24C16F.cpp ****                               I2C_MEMADD_SIZE_8BIT,
 604              		.loc 1 170 30 view .LVU133
 605 01ac 6423     		movs	r3, #100
 606 01ae 0293     		str	r3, [sp, #8]
 607 01b0 0194     		str	r4, [sp, #4]
 608 01b2 0097     		str	r7, [sp]
 609 01b4 633B     		subs	r3, r3, #99
 610 01b6 3100     		movs	r1, r6
 611 01b8 FFF7FEFF 		bl	HAL_I2C_Mem_Write
 612              	.LVL64:
 170:My_Top/System/BL24C16F.cpp ****                               I2C_MEMADD_SIZE_8BIT,
 613              		.loc 1 170 9 view .LVU134
 614 01bc 0028     		cmp	r0, #0
 615 01be 27D1     		bne	.L48
 179:My_Top/System/BL24C16F.cpp **** 
 616              		.loc 1 179 9 is_stmt 1 view .LVU135
 179:My_Top/System/BL24C16F.cpp **** 
 617              		.loc 1 179 29 is_stmt 0 view .LVU136
 618 01c0 FFF7FEFF 		bl	_ZN8BL24C16F20_wait_write_completeEv
 619              	.LVL65:
 182:My_Top/System/BL24C16F.cpp ****         buf  += chunk;
 620              		.loc 1 182 9 is_stmt 1 view .LVU137
 182:My_Top/System/BL24C16F.cpp ****         buf  += chunk;
 621              		.loc 1 182 14 is_stmt 0 view .LVU138
 622 01c4 2D19     		adds	r5, r5, r4
 623              	.LVL66:
 182:My_Top/System/BL24C16F.cpp ****         buf  += chunk;
 624              		.loc 1 182 14 view .LVU139
 625 01c6 ADB2     		uxth	r5, r5
 626              	.LVL67:
 183:My_Top/System/BL24C16F.cpp ****         len  -= chunk;
 627              		.loc 1 183 9 is_stmt 1 view .LVU140
 183:My_Top/System/BL24C16F.cpp ****         len  -= chunk;
 628              		.loc 1 183 14 is_stmt 0 view .LVU141
 629 01c8 3F19     		adds	r7, r7, r4
 630              	.LVL68:
 184:My_Top/System/BL24C16F.cpp ****     }
 631              		.loc 1 184 9 is_stmt 1 view .LVU142
 184:My_Top/System/BL24C16F.cpp ****     }
 632              		.loc 1 184 14 is_stmt 0 view .LVU143
 633 01ca 4346     		mov	r3, r8
 634 01cc 1C1B     		subs	r4, r3, r4
 635              	.LVL69:
 184:My_Top/System/BL24C16F.cpp ****     }
 636              		.loc 1 184 14 view .LVU144
 637 01ce A3B2     		uxth	r3, r4
 638 01d0 9846     		mov	r8, r3
 639              	.LVL70:
 640              	.L42:
 184:My_Top/System/BL24C16F.cpp ****     }
 641              		.loc 1 184 14 view .LVU145
 642              	.LBE5:
 158:My_Top/System/BL24C16F.cpp ****     {
 643              		.loc 1 158 16 is_stmt 1 view .LVU146
 644 01d2 4346     		mov	r3, r8
ARM GAS  /tmp/ccwcOb5D.s 			page 17


 645 01d4 002B     		cmp	r3, #0
 646 01d6 12D0     		beq	.L49
 647              	.LBB6:
 161:My_Top/System/BL24C16F.cpp ****         uint8_t offset   = _page_offset(addr);        // еҪ“еүҚйЎөеҶ…еҒҸз§»
 648              		.loc 1 161 9 view .LVU147
 161:My_Top/System/BL24C16F.cpp ****         uint8_t offset   = _page_offset(addr);        // еҪ“еүҚйЎөеҶ…еҒҸз§»
 649              		.loc 1 161 37 is_stmt 0 view .LVU148
 650 01d8 2800     		movs	r0, r5
 651 01da FFF7FEFF 		bl	_ZN8BL24C16F9_dev_addrEt
 652              	.LVL71:
 161:My_Top/System/BL24C16F.cpp ****         uint8_t offset   = _page_offset(addr);        // еҪ“еүҚйЎөеҶ…еҒҸз§»
 653              		.loc 1 161 47 discriminator 1 view .LVU149
 654 01de 4600     		lsls	r6, r0, #1
 655 01e0 F6B2     		uxtb	r6, r6
 656              	.LVL72:
 162:My_Top/System/BL24C16F.cpp **** 
 657              		.loc 1 162 9 is_stmt 1 view .LVU150
 162:My_Top/System/BL24C16F.cpp **** 
 658              		.loc 1 162 40 is_stmt 0 view .LVU151
 659 01e2 2800     		movs	r0, r5
 660 01e4 FFF7FEFF 		bl	_ZN8BL24C16F12_page_offsetEt
 661              	.LVL73:
 662 01e8 0200     		movs	r2, r0
 663              	.LVL74:
 166:My_Top/System/BL24C16F.cpp ****         uint16_t chunk = (len < page_remain) ? len : page_remain;
 664              		.loc 1 166 9 is_stmt 1 view .LVU152
 166:My_Top/System/BL24C16F.cpp ****         uint16_t chunk = (len < page_remain) ? len : page_remain;
 665              		.loc 1 166 51 is_stmt 0 view .LVU153
 666 01ea 0F21     		movs	r1, #15
 667 01ec 0140     		ands	r1, r0
 166:My_Top/System/BL24C16F.cpp ****         uint16_t chunk = (len < page_remain) ? len : page_remain;
 668              		.loc 1 166 17 view .LVU154
 669 01ee 1023     		movs	r3, #16
 670 01f0 5B1A     		subs	r3, r3, r1
 671 01f2 DBB2     		uxtb	r3, r3
 672              	.LVL75:
 167:My_Top/System/BL24C16F.cpp **** 
 673              		.loc 1 167 9 is_stmt 1 view .LVU155
 167:My_Top/System/BL24C16F.cpp **** 
 674              		.loc 1 167 18 is_stmt 0 view .LVU156
 675 01f4 1C1C     		adds	r4, r3, #0
 676 01f6 4345     		cmp	r3, r8
 677 01f8 D5D9     		bls	.L43
 678 01fa 4446     		mov	r4, r8
 679 01fc D3E7     		b	.L43
 680              	.LVL76:
 681              	.L49:
 167:My_Top/System/BL24C16F.cpp **** 
 682              		.loc 1 167 18 view .LVU157
 683              	.LBE6:
 187:My_Top/System/BL24C16F.cpp **** }
 684              		.loc 1 187 12 view .LVU158
 685 01fe 0120     		movs	r0, #1
 686 0200 02E0     		b	.L41
 687              	.LVL77:
 688              	.L45:
 154:My_Top/System/BL24C16F.cpp ****     if (addr + len > EEPROM_SIZE)
ARM GAS  /tmp/ccwcOb5D.s 			page 18


 689              		.loc 1 154 16 view .LVU159
 690 0202 0020     		movs	r0, #0
 691              	.LVL78:
 154:My_Top/System/BL24C16F.cpp ****     if (addr + len > EEPROM_SIZE)
 692              		.loc 1 154 16 view .LVU160
 693 0204 00E0     		b	.L41
 694              	.LVL79:
 695              	.L46:
 154:My_Top/System/BL24C16F.cpp ****     if (addr + len > EEPROM_SIZE)
 696              		.loc 1 154 16 view .LVU161
 697 0206 0020     		movs	r0, #0
 698              	.LVL80:
 699              	.L41:
 188:My_Top/System/BL24C16F.cpp **** 
 700              		.loc 1 188 1 view .LVU162
 701 0208 04B0     		add	sp, sp, #16
 702              		@ sp needed
 703              	.LVL81:
 188:My_Top/System/BL24C16F.cpp **** 
 704              		.loc 1 188 1 view .LVU163
 705 020a 80BC     		pop	{r7}
 706 020c B846     		mov	r8, r7
 707 020e F0BD     		pop	{r4, r5, r6, r7, pc}
 708              	.LVL82:
 709              	.L48:
 710              	.LBB7:
 175:My_Top/System/BL24C16F.cpp ****         }
 711              		.loc 1 175 20 view .LVU164
 712 0210 0020     		movs	r0, #0
 713 0212 F9E7     		b	.L41
 714              	.L51:
 715              		.align	2
 716              	.L50:
 717 0214 00000000 		.word	.LANCHOR0
 718              	.LBE7:
 719              		.cfi_endproc
 720              	.LFE466:
 722              		.global	_ZN8BL24C16F5_hi2cE
 723              		.bss
 724              		.align	2
 725              		.set	.LANCHOR0,. + 0
 728              	_ZN8BL24C16F5_hi2cE:
 729 0000 00000000 		.space	4
 730              		.text
 731              	.Letext0:
 732              		.file 2 "/opt/arm-gnu-toolchain-14.2/arm-none-eabi/include/machine/_default_types.h"
 733              		.file 3 "/opt/arm-gnu-toolchain-14.2/arm-none-eabi/include/sys/_stdint.h"
 734              		.file 4 "Drivers/CMSIS/Device/ST/STM32G0xx/Include/stm32g071xx.h"
 735              		.file 5 "Drivers/STM32G0xx_HAL_Driver/Inc/stm32g0xx_hal_def.h"
 736              		.file 6 "Drivers/STM32G0xx_HAL_Driver/Inc/stm32g0xx_hal_dma.h"
 737              		.file 7 "Drivers/STM32G0xx_HAL_Driver/Inc/stm32g0xx_hal_i2c.h"
 738              		.file 8 "My_Top/System/BL24C16F.hpp"
 739              		.file 9 "Drivers/STM32G0xx_HAL_Driver/Inc/stm32g0xx_ll_dma.h"
ARM GAS  /tmp/ccwcOb5D.s 			page 19


DEFINED SYMBOLS
                            *ABS*:00000000 BL24C16F.cpp
     /tmp/ccwcOb5D.s:18     .text:00000000 $t
     /tmp/ccwcOb5D.s:24     .text:00000000 _ZN8BL24C16F9_dev_addrEt
     /tmp/ccwcOb5D.s:58     .text:00000010 _ZN8BL24C16F12_page_offsetEt
     /tmp/ccwcOb5D.s:82     .text:00000014 _ZN8BL24C16F4initEv
     /tmp/ccwcOb5D.s:117    .text:00000030 $d
     /tmp/ccwcOb5D.s:121    .text:00000034 $t
     /tmp/ccwcOb5D.s:127    .text:00000034 _ZN8BL24C16F9read_byteEt
     /tmp/ccwcOb5D.s:199    .text:00000074 $d
     /tmp/ccwcOb5D.s:203    .text:00000078 $t
     /tmp/ccwcOb5D.s:209    .text:00000078 _ZN8BL24C16F4readEtPht
     /tmp/ccwcOb5D.s:396    .text:00000114 $d
     /tmp/ccwcOb5D.s:400    .text:00000118 $t
     /tmp/ccwcOb5D.s:406    .text:00000118 _ZN8BL24C16F20_wait_write_completeEv
     /tmp/ccwcOb5D.s:454    .text:00000138 $d
     /tmp/ccwcOb5D.s:458    .text:0000013c $t
     /tmp/ccwcOb5D.s:464    .text:0000013c _ZN8BL24C16F10write_byteEth
     /tmp/ccwcOb5D.s:537    .text:00000180 $d
     /tmp/ccwcOb5D.s:541    .text:00000184 $t
     /tmp/ccwcOb5D.s:547    .text:00000184 _ZN8BL24C16F5writeEtPKht
     /tmp/ccwcOb5D.s:717    .text:00000214 $d
     /tmp/ccwcOb5D.s:728    .bss:00000000 _ZN8BL24C16F5_hi2cE
     /tmp/ccwcOb5D.s:724    .bss:00000000 $d

UNDEFINED SYMBOLS
HAL_I2C_IsDeviceReady
HAL_I2C_Mem_Read
HAL_I2C_Mem_Write
