ARM GAS  /tmp/ccEnsG33.s 			page 1


   1              		.cpu cortex-m0plus
   2              		.arch armv6s-m
   3              		.fpu softvfp
   4              		.eabi_attribute 20, 1
   5              		.eabi_attribute 21, 1
   6              		.eabi_attribute 23, 3
   7              		.eabi_attribute 24, 1
   8              		.eabi_attribute 25, 1
   9              		.eabi_attribute 26, 1
  10              		.eabi_attribute 30, 1
  11              		.eabi_attribute 34, 0
  12              		.eabi_attribute 18, 4
  13              		.file	"CLI_Module.cpp"
  14              		.text
  15              	.Ltext0:
  16              		.cfi_sections	.debug_frame
  17              		.file 1 "My_Top/Modules/CLI_Module.cpp"
  18              		.align	1
  19              		.syntax unified
  20              		.code	16
  21              		.thumb_func
  23              	_ZZN10CLI_Module15bind_write_dataEP6SerialENKUlPhtPvE_clES2_tS3_:
  24              	.LVL0:
  25              	.LFB467:
   1:My_Top/Modules/CLI_Module.cpp **** #include "CLI_Module.hpp"
   2:My_Top/Modules/CLI_Module.cpp **** 
   3:My_Top/Modules/CLI_Module.cpp **** #include <string.h>
   4:My_Top/Modules/CLI_Module.cpp **** #include "printf.h"
   5:My_Top/Modules/CLI_Module.cpp **** 
   6:My_Top/Modules/CLI_Module.cpp **** // йқҷжҖҒжҲҗе‘ҳеҲқе§ӢеҢ–пјҡCLIе®һдҫӢжҢҮй’Ҳж•°з»„пјҢжңҖеӨҡеӯҳ CLI_MODULE_INSTANCE_MAX_NUM дёӘе®һдҫӢ
   7:My_Top/Modules/CLI_Module.cpp **** CLI_Module *CLI_Module::_cli_list[] = {};
   8:My_Top/Modules/CLI_Module.cpp **** // йқҷжҖҒжҲҗе‘ҳеҲқе§ӢеҢ–пјҡеҪ“еүҚе·ІеҲӣе»әзҡ„CLIе®һдҫӢж•°йҮҸпјҢеҲқе§Ӣдёә0
   9:My_Top/Modules/CLI_Module.cpp **** int CLI_Module::_cli_count = 0;
  10:My_Top/Modules/CLI_Module.cpp **** 
  11:My_Top/Modules/CLI_Module.cpp **** // еҲқе§ӢеҢ–дёҖдёӘCLIе®һдҫӢ
  12:My_Top/Modules/CLI_Module.cpp **** // nameпјҡCLIеҗҚз§°еӯ—з¬ҰдёІпјӣinternalпјҡд»»еҠЎиҪ®иҜўй—ҙйҡ”(ms)пјҢжңҖе°Ҹ10ms
  13:My_Top/Modules/CLI_Module.cpp **** bool CLI_Module::init(const char *name, uint16_t internal)
  14:My_Top/Modules/CLI_Module.cpp **** {
  15:My_Top/Modules/CLI_Module.cpp ****     // еҗҚз§°дёҚиғҪдёәз©әпјҢеҗҰеҲҷеҲқе§ӢеҢ–еӨұиҙҘ
  16:My_Top/Modules/CLI_Module.cpp ****     if (name == NULL)
  17:My_Top/Modules/CLI_Module.cpp ****         return false;
  18:My_Top/Modules/CLI_Module.cpp **** 
  19:My_Top/Modules/CLI_Module.cpp ****     // е°ҶnameжӢ·иҙқеҲ°_nameпјҢйў„з•ҷ4еӯ—иҠӮз»ҷеҗҺзјҖ"-CLI"пјҢйҳІжӯўжәўеҮә
  20:My_Top/Modules/CLI_Module.cpp ****     strncpy(_name, name, sizeof(_name) - 1 - 4);
  21:My_Top/Modules/CLI_Module.cpp ****     // еңЁ_nameжң«е°ҫиҝҪеҠ "-CLI"еҗҺзјҖпјҢеҪўеҰӮ "DBG-CLI"
  22:My_Top/Modules/CLI_Module.cpp ****     strcat(_name, "-CLI");
  23:My_Top/Modules/CLI_Module.cpp **** 
  24:My_Top/Modules/CLI_Module.cpp ****     // е°ҶnameжӢ·иҙқеҲ°_invitationпјҢз”ЁдәҺе‘Ҫд»ӨиЎҢжҸҗзӨәз¬ҰеүҚзјҖ
  25:My_Top/Modules/CLI_Module.cpp ****     strncpy(_invitation, name, sizeof(_name) - 1);
  26:My_Top/Modules/CLI_Module.cpp ****     // еңЁ_invitationжң«е°ҫиҝҪеҠ "-CLI > "пјҢеҪўеҰӮ "DBG-CLI > "
  27:My_Top/Modules/CLI_Module.cpp ****     strcat(_invitation, "-CLI > ");
  28:My_Top/Modules/CLI_Module.cpp **** 
  29:My_Top/Modules/CLI_Module.cpp ****     // и®ҫзҪ®д»»еҠЎиҪ®иҜўй—ҙйҡ”пјҢжңҖе°ҸдҝқжҠӨдёә10msпјҢйҒҝе…ҚиҝҮдәҺйў‘з№Ғи°ғеәҰ
  30:My_Top/Modules/CLI_Module.cpp ****     _process_internal = internal < 10 ? 10 : internal;
  31:My_Top/Modules/CLI_Module.cpp **** 
  32:My_Top/Modules/CLI_Module.cpp ****     // й…ҚзҪ® embedded-cli еә“зҡ„еҲқе§ӢеҢ–еҸӮж•°
  33:My_Top/Modules/CLI_Module.cpp ****     EmbeddedCliConfig cli_cfg = {
ARM GAS  /tmp/ccEnsG33.s 			page 2


  34:My_Top/Modules/CLI_Module.cpp ****         .invitation = _invitation,        // е‘Ҫд»ӨиЎҢжҸҗзӨәз¬Ұеӯ—з¬ҰдёІ
  35:My_Top/Modules/CLI_Module.cpp ****         .rxBufferSize = 128,              // жҺҘж”¶зј“еҶІеҢәеӨ§е°Ҹ(еӯ—иҠӮ)
  36:My_Top/Modules/CLI_Module.cpp ****         .cmdBufferSize = 128,             // е‘Ҫд»Өи§Јжһҗзј“еҶІеҢәеӨ§е°Ҹ(еӯ—иҠӮ)
  37:My_Top/Modules/CLI_Module.cpp ****         .historyBufferSize = 256,         // еҺҶеҸІе‘Ҫд»Өзј“еҶІеҢәеӨ§е°Ҹ(еӯ—иҠӮ)
  38:My_Top/Modules/CLI_Module.cpp ****         .maxBindingCount = 32,            // жңҖеӨҡеҸҜз»‘е®ҡзҡ„е‘Ҫд»Өж•°йҮҸ(еҗ«еҶ…зҪ®helpпјҢе®һйҷ…е
  39:My_Top/Modules/CLI_Module.cpp ****         .cliBuffer = NULL,                // дёҚдҪҝз”ЁеӨ–йғЁйқҷжҖҒbufferпјҢи®©еә“иҮӘиЎҢеҠЁжҖҒеҲҶй…Қ
  40:My_Top/Modules/CLI_Module.cpp ****         .cliBufferSize = 0,               // еӨ–йғЁbufferеӨ§е°Ҹдёә0пјҢй…ҚеҗҲдёҠйқўNULLдҪҝз”Ё
  41:My_Top/Modules/CLI_Module.cpp ****         .enableAutoComplete = true};      // еҗҜз”ЁTabиҮӘеҠЁиЎҘе…ЁеҠҹиғҪ
  42:My_Top/Modules/CLI_Module.cpp **** 
  43:My_Top/Modules/CLI_Module.cpp ****     // ж №жҚ®й…ҚзҪ®еҲӣе»әembedded-cliе®һдҫӢпјҢеӨұиҙҘиҝ”еӣһNULL
  44:My_Top/Modules/CLI_Module.cpp ****     _cli = embeddedCliNew(&cli_cfg);
  45:My_Top/Modules/CLI_Module.cpp **** 
  46:My_Top/Modules/CLI_Module.cpp ****     // еҲӣе»әеӨұиҙҘеҲҷиҝ”еӣһfalse
  47:My_Top/Modules/CLI_Module.cpp ****     if (_cli == NULL)
  48:My_Top/Modules/CLI_Module.cpp ****         return false;
  49:My_Top/Modules/CLI_Module.cpp **** 
  50:My_Top/Modules/CLI_Module.cpp ****     // з»‘е®ҡеә•еұӮеҚ•еӯ—з¬Ұиҫ“еҮәеӣһи°ғпјҢembedded-cliеҶ…йғЁиҫ“еҮәеӯ—з¬Ұж—¶и°ғз”ЁжӯӨеҮҪж•°
  51:My_Top/Modules/CLI_Module.cpp ****     _cli->writeChar = _low_level_write_char;
  52:My_Top/Modules/CLI_Module.cpp ****     // з»‘е®ҡеә•еұӮеӯ—з¬ҰдёІиҫ“еҮәеӣһи°ғпјҢembedded-cliеҶ…йғЁиҫ“еҮәеӯ—з¬ҰдёІж—¶и°ғз”ЁжӯӨеҮҪж•°
  53:My_Top/Modules/CLI_Module.cpp ****     _cli->writeString = _low_level_write_string;
  54:My_Top/Modules/CLI_Module.cpp **** 
  55:My_Top/Modules/CLI_Module.cpp ****     // еҲӣе»әFreeRTOSд»»еҠЎпјҢз”ЁдәҺе‘ЁжңҹжҖ§еӨ„зҗҶCLIиҫ“е…Ҙ/е‘Ҫд»Өжү§иЎҢ
  56:My_Top/Modules/CLI_Module.cpp ****     // ж ҲеӨ§е°Ҹ512еӯ—пјҢдјҳе…Ҳзә§osPriorityNormalпјҢд»»еҠЎеҸӮж•°дј е…ҘthisжҢҮй’Ҳ
  57:My_Top/Modules/CLI_Module.cpp ****     if (xTaskCreate(_process_task, _name, 512, this, osPriorityNormal, &_task_handle) != pdPASS)
  58:My_Top/Modules/CLI_Module.cpp ****         return false;   // д»»еҠЎеҲӣе»әеӨұиҙҘпјҢиҝ”еӣһfalse
  59:My_Top/Modules/CLI_Module.cpp ****     // д»»еҠЎеҲӣе»әеҗҺз«ӢеҚіжҢӮиө·пјҢзӯүеҫ… start() и°ғз”ЁеҗҺеҶҚиҝҗиЎҢ
  60:My_Top/Modules/CLI_Module.cpp ****     vTaskSuspend(_task_handle);
  61:My_Top/Modules/CLI_Module.cpp **** 
  62:My_Top/Modules/CLI_Module.cpp ****     // е°ҶеҪ“еүҚе®һдҫӢжіЁеҶҢеҲ°е…ЁеұҖйқҷжҖҒеҲ—иЎЁпјҢдҫӣ get_cli_module зӯүйқҷжҖҒж–№жі•жҹҘжүҫ
  63:My_Top/Modules/CLI_Module.cpp ****     _cli_list[_cli_count++] = this;
  64:My_Top/Modules/CLI_Module.cpp ****     // ж Үи®°еҲқе§ӢеҢ–е®ҢжҲҗ
  65:My_Top/Modules/CLI_Module.cpp ****     _init_ok = true;
  66:My_Top/Modules/CLI_Module.cpp **** 
  67:My_Top/Modules/CLI_Module.cpp ****     return true;
  68:My_Top/Modules/CLI_Module.cpp **** }
  69:My_Top/Modules/CLI_Module.cpp **** 
  70:My_Top/Modules/CLI_Module.cpp **** // еҗҜеҠЁCLIпјҢжҒўеӨҚд№ӢеүҚиў«жҢӮиө·зҡ„FreeRTOSеӨ„зҗҶд»»еҠЎ
  71:My_Top/Modules/CLI_Module.cpp **** bool CLI_Module::start(void)
  72:My_Top/Modules/CLI_Module.cpp **** {
  73:My_Top/Modules/CLI_Module.cpp ****     // жңӘеҲқе§ӢеҢ–еҲҷдёҚе…Ғи®ёеҗҜеҠЁ
  74:My_Top/Modules/CLI_Module.cpp ****     if (!_init_ok)
  75:My_Top/Modules/CLI_Module.cpp ****         return false;
  76:My_Top/Modules/CLI_Module.cpp **** 
  77:My_Top/Modules/CLI_Module.cpp ****     // жҒўеӨҚд»»еҠЎпјҢCLIејҖе§ӢжӯЈеёёиҝҗиЎҢ
  78:My_Top/Modules/CLI_Module.cpp ****     vTaskResume(_task_handle);
  79:My_Top/Modules/CLI_Module.cpp **** 
  80:My_Top/Modules/CLI_Module.cpp ****     return true;
  81:My_Top/Modules/CLI_Module.cpp **** }
  82:My_Top/Modules/CLI_Module.cpp **** 
  83:My_Top/Modules/CLI_Module.cpp **** // з»‘е®ҡеә•еұӮеҶҷж•°жҚ®еӣһи°ғпјҲеҮҪж•°жҢҮй’ҲзүҲжң¬пјү
  84:My_Top/Modules/CLI_Module.cpp **** // write_dataпјҡз”ЁжҲ·жҸҗдҫӣзҡ„ж•°жҚ®еҸ‘йҖҒеҮҪж•°пјӣargsпјҡйҖҸдј з»ҷиҜҘеҮҪж•°зҡ„з”ЁжҲ·еҸӮж•°
  85:My_Top/Modules/CLI_Module.cpp **** bool CLI_Module::bind_write_data(void (*write_data)(uint8_t *data, uint16_t size, void *args), void
  86:My_Top/Modules/CLI_Module.cpp **** {
  87:My_Top/Modules/CLI_Module.cpp ****     // еӣһи°ғеҮҪж•°дёҚиғҪдёәNULL
  88:My_Top/Modules/CLI_Module.cpp ****     if (write_data == NULL)
  89:My_Top/Modules/CLI_Module.cpp ****         return false;
  90:My_Top/Modules/CLI_Module.cpp **** 
ARM GAS  /tmp/ccEnsG33.s 			page 3


  91:My_Top/Modules/CLI_Module.cpp ****     // дҝқеӯҳеҶҷж•°жҚ®еӣһи°ғеҮҪж•°жҢҮй’Ҳ
  92:My_Top/Modules/CLI_Module.cpp ****     _write_data = write_data;
  93:My_Top/Modules/CLI_Module.cpp ****     // дҝқеӯҳйҖҸдј еҸӮж•°
  94:My_Top/Modules/CLI_Module.cpp ****     _write_data_args = args;
  95:My_Top/Modules/CLI_Module.cpp **** 
  96:My_Top/Modules/CLI_Module.cpp ****     return true;
  97:My_Top/Modules/CLI_Module.cpp **** }
  98:My_Top/Modules/CLI_Module.cpp **** 
  99:My_Top/Modules/CLI_Module.cpp **** // з»‘е®ҡеә•еұӮеҶҷж•°жҚ®еӣһи°ғпјҲSerialеҜ№иұЎзүҲжң¬пјҢеҶ…йғЁз”Ёlambdaе°ҒиЈ…serial->send_dataпјү
 100:My_Top/Modules/CLI_Module.cpp **** bool CLI_Module::bind_write_data(Serial *serial)
 101:My_Top/Modules/CLI_Module.cpp **** {
 102:My_Top/Modules/CLI_Module.cpp ****     // serialеҜ№иұЎдёҚиғҪдёәNULL
 103:My_Top/Modules/CLI_Module.cpp ****     if (serial == NULL)
 104:My_Top/Modules/CLI_Module.cpp ****         return false;
 105:My_Top/Modules/CLI_Module.cpp **** 
 106:My_Top/Modules/CLI_Module.cpp ****     // дҝқеӯҳserialжҢҮй’ҲпјҢдҫӣ get_serial() жҹҘиҜўе’Ң get_cli_module(Serial*) еҢ№й…Қ
 107:My_Top/Modules/CLI_Module.cpp ****     _serial = serial;
 108:My_Top/Modules/CLI_Module.cpp ****     // йҖҸдј еҸӮж•°д№ҹжҢҮеҗ‘serialпјҢlambdaеҶ…йҖҡиҝҮжӯӨжҢҮй’Ҳи°ғз”Ёsend_data
 109:My_Top/Modules/CLI_Module.cpp ****     _write_data_args = serial;
 110:My_Top/Modules/CLI_Module.cpp **** 
 111:My_Top/Modules/CLI_Module.cpp ****     //ж”№жҲҗпјҲжңүйҮҚиҜ•пјҢзӯүTXз©әй—ІеҶҚеҸ‘пјү
 112:My_Top/Modules/CLI_Module.cpp ****     _write_data = [](uint8_t *data, uint16_t size, void *args)
  26              		.loc 1 112 19 view -0
  27              		.cfi_startproc
  28              		@ args = 0, pretend = 0, frame = 0
  29              		@ frame_needed = 0, uses_anonymous_args = 0
  30              		.loc 1 112 19 is_stmt 0 view .LVU1
  31 0000 F8B5     		push	{r3, r4, r5, r6, r7, lr}
  32              		.cfi_def_cfa_offset 24
  33              		.cfi_offset 3, -24
  34              		.cfi_offset 4, -20
  35              		.cfi_offset 5, -16
  36              		.cfi_offset 6, -12
  37              		.cfi_offset 7, -8
  38              		.cfi_offset 14, -4
  39 0002 0F00     		movs	r7, r1
  40 0004 1600     		movs	r6, r2
  41 0006 1D00     		movs	r5, r3
  42              	.LBB2:
 113:My_Top/Modules/CLI_Module.cpp ****     {
 114:My_Top/Modules/CLI_Module.cpp ****         Serial *serial = (Serial *)args;
  43              		.loc 1 114 9 is_stmt 1 view .LVU2
  44              	.LVL1:
 115:My_Top/Modules/CLI_Module.cpp ****         // жңҖеӨҡйҮҚиҜ•100ж¬ЎпјҢжҜҸж¬Ўзӯү1msпјҢзӣҙеҲ°TXз©әй—І
 116:My_Top/Modules/CLI_Module.cpp ****         for (uint8_t i = 0; i < 100; i++) {
  45              		.loc 1 116 9 view .LVU3
  46              	.LBB3:
  47              		.loc 1 116 22 is_stmt 0 view .LVU4
  48 0008 0024     		movs	r4, #0
  49              	.LVL2:
  50              	.L2:
  51              		.loc 1 116 31 is_stmt 1 discriminator 1 view .LVU5
  52 000a 632C     		cmp	r4, #99
  53 000c 0DD8     		bhi	.L1
 117:My_Top/Modules/CLI_Module.cpp ****             if (serial->send_data(data, size)) return; // еҸ‘йҖҒжҲҗеҠҹеҲҷиҝ”еӣһ
  54              		.loc 1 117 13 view .LVU6
  55              		.loc 1 117 34 is_stmt 0 view .LVU7
ARM GAS  /tmp/ccEnsG33.s 			page 4


  56 000e 0023     		movs	r3, #0
  57 0010 3200     		movs	r2, r6
  58 0012 3900     		movs	r1, r7
  59 0014 2800     		movs	r0, r5
  60 0016 FFF7FEFF 		bl	_ZN6Serial9send_dataEPhtm
  61              	.LVL3:
  62              		.loc 1 117 13 discriminator 1 view .LVU8
  63 001a 0028     		cmp	r0, #0
  64 001c 05D1     		bne	.L1
 118:My_Top/Modules/CLI_Module.cpp ****             vTaskDelay(pdMS_TO_TICKS(1));
  65              		.loc 1 118 13 is_stmt 1 view .LVU9
  66              		.loc 1 118 23 is_stmt 0 view .LVU10
  67 001e 0130     		adds	r0, r0, #1
  68 0020 FFF7FEFF 		bl	vTaskDelay
  69              	.LVL4:
 116:My_Top/Modules/CLI_Module.cpp ****             if (serial->send_data(data, size)) return; // еҸ‘йҖҒжҲҗеҠҹеҲҷиҝ”еӣһ
  70              		.loc 1 116 9 is_stmt 1 discriminator 2 view .LVU11
  71 0024 0134     		adds	r4, r4, #1
  72              	.LVL5:
 116:My_Top/Modules/CLI_Module.cpp ****             if (serial->send_data(data, size)) return; // еҸ‘йҖҒжҲҗеҠҹеҲҷиҝ”еӣһ
  73              		.loc 1 116 9 is_stmt 0 discriminator 2 view .LVU12
  74 0026 E4B2     		uxtb	r4, r4
  75              	.LVL6:
 116:My_Top/Modules/CLI_Module.cpp ****             if (serial->send_data(data, size)) return; // еҸ‘йҖҒжҲҗеҠҹеҲҷиҝ”еӣһ
  76              		.loc 1 116 9 discriminator 2 view .LVU13
  77 0028 EFE7     		b	.L2
  78              	.LVL7:
  79              	.L1:
 116:My_Top/Modules/CLI_Module.cpp ****             if (serial->send_data(data, size)) return; // еҸ‘йҖҒжҲҗеҠҹеҲҷиҝ”еӣһ
  80              		.loc 1 116 9 discriminator 2 view .LVU14
  81              	.LBE3:
  82              	.LBE2:
 119:My_Top/Modules/CLI_Module.cpp ****         }
 120:My_Top/Modules/CLI_Module.cpp ****     };
  83              		.loc 1 120 5 view .LVU15
  84              		@ sp needed
  85              	.LVL8:
  86              	.LVL9:
  87              	.LVL10:
  88              	.LVL11:
  89              		.loc 1 120 5 view .LVU16
  90 002a F8BD     		pop	{r3, r4, r5, r6, r7, pc}
  91              		.cfi_endproc
  92              	.LFE467:
  94              		.align	1
  95              		.syntax unified
  96              		.code	16
  97              		.thumb_func
  99              	_ZZN10CLI_Module15bind_write_dataEP6SerialENUlPhtPvE_4_FUNES2_tS3_:
 100              	.LFB468:
 112:My_Top/Modules/CLI_Module.cpp ****     {
 101              		.loc 1 112 19 is_stmt 1 view -0
 102              		.cfi_startproc
 103              		@ args = 0, pretend = 0, frame = 0
 104              		@ frame_needed = 0, uses_anonymous_args = 0
 105 002c 10B5     		push	{r4, lr}
 106              		.cfi_def_cfa_offset 8
ARM GAS  /tmp/ccEnsG33.s 			page 5


 107              		.cfi_offset 4, -8
 108              		.cfi_offset 14, -4
 109 002e 1300     		movs	r3, r2
 110              		.loc 1 120 5 is_stmt 0 view .LVU18
 111 0030 0A00     		movs	r2, r1
 112 0032 0100     		movs	r1, r0
 113 0034 0020     		movs	r0, #0
 114 0036 FFF7E3FF 		bl	_ZZN10CLI_Module15bind_write_dataEP6SerialENKUlPhtPvE_clES2_tS3_
 115              	.LVL12:
 116              		@ sp needed
 117 003a 10BD     		pop	{r4, pc}
 118              		.cfi_endproc
 119              	.LFE468:
 121              		.align	1
 122              		.global	_ZN10CLI_Module13_process_taskEPv
 123              		.syntax unified
 124              		.code	16
 125              		.thumb_func
 127              	_ZN10CLI_Module13_process_taskEPv:
 128              	.LVL13:
 129              	.LFB482:
 121:My_Top/Modules/CLI_Module.cpp **** 
 122:My_Top/Modules/CLI_Module.cpp ****     return true;
 123:My_Top/Modules/CLI_Module.cpp **** }
 124:My_Top/Modules/CLI_Module.cpp **** 
 125:My_Top/Modules/CLI_Module.cpp **** // embedded-cliеә•еұӮеҚ•еӯ—з¬Ұиҫ“еҮәеӣһи°ғпјҲйқҷжҖҒеҮҪж•°пјҢиў«еә“еӣһи°ғпјү
 126:My_Top/Modules/CLI_Module.cpp **** // ж №жҚ®embeddedCliжҢҮй’ҲжүҫеҲ°еҜ№еә”зҡ„CLI_Moduleе®һдҫӢпјҢеҶҚи°ғз”Ёе…¶еҶҷж•°жҚ®жҺҘеҸЈ
 127:My_Top/Modules/CLI_Module.cpp **** void CLI_Module::_low_level_write_char(EmbeddedCli *embeddedCli, char c)
 128:My_Top/Modules/CLI_Module.cpp **** {
 129:My_Top/Modules/CLI_Module.cpp ****     // йҖҡиҝҮembeddedCliжҢҮй’ҲеҸҚжҹҘCLI_Moduleе®һдҫӢ
 130:My_Top/Modules/CLI_Module.cpp ****     CLI_Module *mcli = get_cli_module(embeddedCli);
 131:My_Top/Modules/CLI_Module.cpp ****     // жүҫдёҚеҲ°е®һдҫӢеҲҷзӣҙжҺҘиҝ”еӣһ
 132:My_Top/Modules/CLI_Module.cpp ****     if (mcli == NULL)
 133:My_Top/Modules/CLI_Module.cpp ****         return;
 134:My_Top/Modules/CLI_Module.cpp **** 
 135:My_Top/Modules/CLI_Module.cpp ****     // еҸ‘йҖҒеҚ•дёӘеӯ—з¬ҰпјҲеҸ–ең°еқҖиҪ¬дёәuint8_t*пјҢй•ҝеәҰдёә1пјү
 136:My_Top/Modules/CLI_Module.cpp ****     mcli->_write_data((uint8_t *)&c, 1, mcli->_write_data_args);
 137:My_Top/Modules/CLI_Module.cpp **** }
 138:My_Top/Modules/CLI_Module.cpp **** 
 139:My_Top/Modules/CLI_Module.cpp **** // embedded-cliеә•еұӮеӯ—з¬ҰдёІиҫ“еҮәеӣһи°ғпјҲйқҷжҖҒеҮҪж•°пјҢиў«еә“еӣһи°ғпјү
 140:My_Top/Modules/CLI_Module.cpp **** // ж №жҚ®embeddedCliжҢҮй’ҲжүҫеҲ°еҜ№еә”зҡ„CLI_Moduleе®һдҫӢпјҢеҶҚи°ғз”Ёе…¶еҶҷж•°жҚ®жҺҘеҸЈ
 141:My_Top/Modules/CLI_Module.cpp **** void CLI_Module::_low_level_write_string(EmbeddedCli *embeddedCli, const char *str)
 142:My_Top/Modules/CLI_Module.cpp **** {
 143:My_Top/Modules/CLI_Module.cpp ****     // йҖҡиҝҮembeddedCliжҢҮй’ҲеҸҚжҹҘCLI_Moduleе®һдҫӢ
 144:My_Top/Modules/CLI_Module.cpp ****     CLI_Module *mcli = get_cli_module(embeddedCli);
 145:My_Top/Modules/CLI_Module.cpp ****     // жүҫдёҚеҲ°е®һдҫӢеҲҷзӣҙжҺҘиҝ”еӣһ
 146:My_Top/Modules/CLI_Module.cpp ****     if (mcli == NULL)
 147:My_Top/Modules/CLI_Module.cpp ****         return;
 148:My_Top/Modules/CLI_Module.cpp **** 
 149:My_Top/Modules/CLI_Module.cpp ****     // еҸ‘йҖҒеӯ—з¬ҰдёІпјҢй•ҝеәҰз”ЁstrnlenйҷҗеҲ¶жңҖеӨ§дёәCLI_MODULE_PRINT_BUFFER_MAX_SIZEпјҢйҳІжӯўи¶
 150:My_Top/Modules/CLI_Module.cpp ****     mcli->_write_data((uint8_t *)str, strnlen(str, CLI_MODULE_PRINT_BUFFER_MAX_SIZE), mcli->_write_
 151:My_Top/Modules/CLI_Module.cpp **** }
 152:My_Top/Modules/CLI_Module.cpp **** 
 153:My_Top/Modules/CLI_Module.cpp **** // embedded-cliеә•еұӮеҚ•еӯ—з¬ҰжҺҘж”¶еҮҪж•°пјҲйқҷжҖҒеҮҪж•°пјү
 154:My_Top/Modules/CLI_Module.cpp **** // е°ҶеӨ–йғЁжҺҘж”¶еҲ°зҡ„еӯ—з¬Ұе–Ӯз»ҷembedded-cliеә“
 155:My_Top/Modules/CLI_Module.cpp **** void CLI_Module::_low_level_receive_char(EmbeddedCli *embeddedCli, char c)
 156:My_Top/Modules/CLI_Module.cpp **** {
ARM GAS  /tmp/ccEnsG33.s 			page 6


 157:My_Top/Modules/CLI_Module.cpp ****     // embeddedCliдёәNULLеҲҷдёҚеӨ„зҗҶ
 158:My_Top/Modules/CLI_Module.cpp ****     if (embeddedCli == NULL)
 159:My_Top/Modules/CLI_Module.cpp ****         return;
 160:My_Top/Modules/CLI_Module.cpp **** 
 161:My_Top/Modules/CLI_Module.cpp ****     // е°Ҷеӯ—з¬ҰйҖҒе…Ҙembedded-cliзҡ„жҺҘж”¶йҳҹеҲ—пјҢеә“еҶ…йғЁе®ҢжҲҗиЎҢзј–иҫ‘е’Ңе‘Ҫд»Өи§Јжһҗ
 162:My_Top/Modules/CLI_Module.cpp ****     embeddedCliReceiveChar(embeddedCli, c);
 163:My_Top/Modules/CLI_Module.cpp **** }
 164:My_Top/Modules/CLI_Module.cpp **** 
 165:My_Top/Modules/CLI_Module.cpp **** // жҺҘж”¶еӨ–йғЁж•°жҚ®пјҲеҰӮдёІеҸЈDMAж”¶еҲ°зҡ„дёҖеё§пјүпјҢйҖҗеӯ—иҠӮе–Ӯз»ҷembedded-cli
 166:My_Top/Modules/CLI_Module.cpp **** bool CLI_Module::receive_data(uint8_t *data, uint16_t size)
 167:My_Top/Modules/CLI_Module.cpp **** {
 168:My_Top/Modules/CLI_Module.cpp ****     // ж•°жҚ®жҢҮй’ҲжҲ–й•ҝеәҰж— ж•ҲеҲҷиҝ”еӣһfalse
 169:My_Top/Modules/CLI_Module.cpp ****     if (data == NULL || size == 0)
 170:My_Top/Modules/CLI_Module.cpp ****         return false;
 171:My_Top/Modules/CLI_Module.cpp **** 
 172:My_Top/Modules/CLI_Module.cpp ****     // жңӘеҲқе§ӢеҢ–еҲҷдёҚеӨ„зҗҶ
 173:My_Top/Modules/CLI_Module.cpp ****     if (!_init_ok)
 174:My_Top/Modules/CLI_Module.cpp ****         return false;
 175:My_Top/Modules/CLI_Module.cpp **** 
 176:My_Top/Modules/CLI_Module.cpp ****     // йҖҗеӯ—иҠӮе°Ҷж•°жҚ®йҖҒе…Ҙembedded-cliжҺҘж”¶еӨ„зҗҶ
 177:My_Top/Modules/CLI_Module.cpp ****     for (uint16_t i = 0; i < size; i++)
 178:My_Top/Modules/CLI_Module.cpp ****     {
 179:My_Top/Modules/CLI_Module.cpp ****         _low_level_receive_char(_cli, *(char *)(data + i));
 180:My_Top/Modules/CLI_Module.cpp ****     }
 181:My_Top/Modules/CLI_Module.cpp **** 
 182:My_Top/Modules/CLI_Module.cpp ****     return true;
 183:My_Top/Modules/CLI_Module.cpp **** }
 184:My_Top/Modules/CLI_Module.cpp **** 
 185:My_Top/Modules/CLI_Module.cpp **** // жҢүзҙўеј•жҹҘжүҫCLI_Moduleе®һдҫӢпјҲйқҷжҖҒж–№жі•пјү
 186:My_Top/Modules/CLI_Module.cpp **** CLI_Module *CLI_Module::get_cli_module(int index)
 187:My_Top/Modules/CLI_Module.cpp **** {
 188:My_Top/Modules/CLI_Module.cpp ****     // зҙўеј•и¶Ҡз•ҢеҲҷиҝ”еӣһNULL
 189:My_Top/Modules/CLI_Module.cpp ****     if (index < 0 || index >= _cli_count)
 190:My_Top/Modules/CLI_Module.cpp ****         return NULL;
 191:My_Top/Modules/CLI_Module.cpp **** 
 192:My_Top/Modules/CLI_Module.cpp ****     return _cli_list[index];
 193:My_Top/Modules/CLI_Module.cpp **** }
 194:My_Top/Modules/CLI_Module.cpp **** 
 195:My_Top/Modules/CLI_Module.cpp **** // жҢүembeddedCliжҢҮй’ҲжҹҘжүҫеҜ№еә”зҡ„CLI_Moduleе®һдҫӢпјҲйқҷжҖҒж–№жі•пјү
 196:My_Top/Modules/CLI_Module.cpp **** CLI_Module *CLI_Module::get_cli_module(EmbeddedCli *cli)
 197:My_Top/Modules/CLI_Module.cpp **** {
 198:My_Top/Modules/CLI_Module.cpp ****     // cliжҢҮй’ҲдёәNULLеҲҷж— йңҖжҹҘжүҫ
 199:My_Top/Modules/CLI_Module.cpp ****     if (cli == NULL)
 200:My_Top/Modules/CLI_Module.cpp ****         return NULL;
 201:My_Top/Modules/CLI_Module.cpp **** 
 202:My_Top/Modules/CLI_Module.cpp ****     // йҒҚеҺҶжүҖжңүе·ІжіЁеҶҢе®һдҫӢпјҢжүҫеҲ°еҶ…йғЁ_cliжҢҮй’ҲеҢ№й…Қзҡ„йӮЈдёӘ
 203:My_Top/Modules/CLI_Module.cpp ****     for (uint8_t i = 0; i < _cli_count; i++)
 204:My_Top/Modules/CLI_Module.cpp ****     {
 205:My_Top/Modules/CLI_Module.cpp ****         if (_cli_list[i]->_cli == cli)
 206:My_Top/Modules/CLI_Module.cpp ****             return _cli_list[i];
 207:My_Top/Modules/CLI_Module.cpp ****     }
 208:My_Top/Modules/CLI_Module.cpp **** 
 209:My_Top/Modules/CLI_Module.cpp ****     // жңӘжүҫеҲ°еҲҷиҝ”еӣһNULL
 210:My_Top/Modules/CLI_Module.cpp ****     return NULL;
 211:My_Top/Modules/CLI_Module.cpp **** }
 212:My_Top/Modules/CLI_Module.cpp **** 
 213:My_Top/Modules/CLI_Module.cpp **** // жҢүSerialжҢҮй’ҲжҹҘжүҫеҜ№еә”зҡ„CLI_Moduleе®һдҫӢпјҲйқҷжҖҒж–№жі•пјү
ARM GAS  /tmp/ccEnsG33.s 			page 7


 214:My_Top/Modules/CLI_Module.cpp **** // з”ЁдәҺеңЁдёІеҸЈеӣһи°ғдёӯзӣҙжҺҘйҖҡиҝҮserialжүҫеҲ°еҜ№еә”зҡ„CLIе®һдҫӢ
 215:My_Top/Modules/CLI_Module.cpp **** CLI_Module *CLI_Module::get_cli_module(Serial *serial)
 216:My_Top/Modules/CLI_Module.cpp **** {
 217:My_Top/Modules/CLI_Module.cpp ****     // serialжҢҮй’ҲдёәNULLеҲҷж— йңҖжҹҘжүҫ
 218:My_Top/Modules/CLI_Module.cpp ****     if (serial == NULL)
 219:My_Top/Modules/CLI_Module.cpp ****         return NULL;
 220:My_Top/Modules/CLI_Module.cpp **** 
 221:My_Top/Modules/CLI_Module.cpp ****     // йҒҚеҺҶжүҖжңүе·ІжіЁеҶҢе®һдҫӢпјҢжүҫеҲ°з»‘е®ҡдәҶиҜҘserialзҡ„йӮЈдёӘ
 222:My_Top/Modules/CLI_Module.cpp ****     for (uint8_t i = 0; i < _cli_count; i++)
 223:My_Top/Modules/CLI_Module.cpp ****     {
 224:My_Top/Modules/CLI_Module.cpp ****         if (_cli_list[i]->_serial == serial)
 225:My_Top/Modules/CLI_Module.cpp ****             return _cli_list[i];
 226:My_Top/Modules/CLI_Module.cpp ****     }
 227:My_Top/Modules/CLI_Module.cpp **** 
 228:My_Top/Modules/CLI_Module.cpp ****     // жңӘжүҫеҲ°еҲҷиҝ”еӣһNULL
 229:My_Top/Modules/CLI_Module.cpp ****     return NULL;
 230:My_Top/Modules/CLI_Module.cpp **** }
 231:My_Top/Modules/CLI_Module.cpp **** 
 232:My_Top/Modules/CLI_Module.cpp **** // еҗ‘жүҖжңүе·ІжіЁеҶҢзҡ„CLIе®һдҫӢжү№йҮҸж·»еҠ еҗҢдёҖжқЎе‘Ҫд»ӨпјҲйқҷжҖҒж–№жі•пјү
 233:My_Top/Modules/CLI_Module.cpp **** // з”ЁдәҺдёҖж¬ЎжҖ§е°Ҷжҹҗе‘Ҫд»ӨжіЁеҶҢеҲ°жүҖжңүCLIйҖҡйҒ“
 234:My_Top/Modules/CLI_Module.cpp **** bool CLI_Module::add_command_to_all(CliCommandBinding cmd_binding)
 235:My_Top/Modules/CLI_Module.cpp **** {
 236:My_Top/Modules/CLI_Module.cpp ****     bool ret = true;
 237:My_Top/Modules/CLI_Module.cpp **** 
 238:My_Top/Modules/CLI_Module.cpp ****     // йҒҚеҺҶжүҖжңүе®һдҫӢпјҢйҖҗдёӘж·»еҠ е‘Ҫд»Өпјӣд»»ж„ҸдёҖдёӘеӨұиҙҘеҲҷжңҖз»Ҳиҝ”еӣһfalse
 239:My_Top/Modules/CLI_Module.cpp ****     for (uint8_t i = 0; i < _cli_count; i++)
 240:My_Top/Modules/CLI_Module.cpp ****     {
 241:My_Top/Modules/CLI_Module.cpp ****         ret &= _cli_list[i]->add_command(cmd_binding);
 242:My_Top/Modules/CLI_Module.cpp ****     }
 243:My_Top/Modules/CLI_Module.cpp **** 
 244:My_Top/Modules/CLI_Module.cpp ****     return ret;
 245:My_Top/Modules/CLI_Module.cpp **** }
 246:My_Top/Modules/CLI_Module.cpp **** 
 247:My_Top/Modules/CLI_Module.cpp **** // еҗ‘жүҖжңүCLIе®һдҫӢжү№йҮҸж·»еҠ е‘Ҫд»ӨпјҲеҸӮж•°еұ•ејҖзүҲжң¬пјҢеҶ…йғЁжһ„йҖ CliCommandBindingеҗҺиҪ¬е
 248:My_Top/Modules/CLI_Module.cpp **** bool CLI_Module::add_command_to_all(const char *name,
 249:My_Top/Modules/CLI_Module.cpp ****                                     const char *help,
 250:My_Top/Modules/CLI_Module.cpp ****                                     bool tokenizeArgs,
 251:My_Top/Modules/CLI_Module.cpp ****                                     void *context,
 252:My_Top/Modules/CLI_Module.cpp ****                                     void (*binding)(EmbeddedCli *cli, char *args, void *context))
 253:My_Top/Modules/CLI_Module.cpp **** {
 254:My_Top/Modules/CLI_Module.cpp ****     // з”Ёдј е…Ҙзҡ„еҗ„еӯ—ж®өжһ„йҖ embedded-cliжүҖйңҖзҡ„е‘Ҫд»Өз»‘е®ҡз»“жһ„дҪ“
 255:My_Top/Modules/CLI_Module.cpp ****     CliCommandBinding cmd_binding = {.name = name,           // е‘Ҫд»ӨеҗҚз§°еӯ—з¬ҰдёІпјҢеҰӮ"set_spe
 256:My_Top/Modules/CLI_Module.cpp ****                                      .help = help,           // е‘Ҫд»Өеё®еҠ©иҜҙжҳҺпјҢжҳҫзӨәеңЁhelpе
 257:My_Top/Modules/CLI_Module.cpp ****                                      .tokenizeArgs = tokenizeArgs, // жҳҜеҗҰиҮӘеҠЁеҲҶиҜҚпјҢtrueеҲҷa
 258:My_Top/Modules/CLI_Module.cpp ****                                      .context = context,     // йҖҸдј з»ҷbindingеӣһи°ғзҡ„з”ЁжҲ·дёҠд
 259:My_Top/Modules/CLI_Module.cpp ****                                      .binding = binding};    // е‘Ҫд»Өи§ҰеҸ‘ж—¶жү§иЎҢзҡ„еӣһи°ғеҮҪж•
 260:My_Top/Modules/CLI_Module.cpp ****     // иҪ¬еҸ‘з»ҷз»“жһ„дҪ“зүҲжң¬зҡ„add_command_to_all
 261:My_Top/Modules/CLI_Module.cpp ****     return add_command_to_all(cmd_binding);
 262:My_Top/Modules/CLI_Module.cpp **** }
 263:My_Top/Modules/CLI_Module.cpp **** 
 264:My_Top/Modules/CLI_Module.cpp **** // еҗҜеҠЁжүҖжңүе·ІжіЁеҶҢзҡ„CLIе®һдҫӢпјҲйқҷжҖҒж–№жі•пјү
 265:My_Top/Modules/CLI_Module.cpp **** bool CLI_Module::start_all(void)
 266:My_Top/Modules/CLI_Module.cpp **** {
 267:My_Top/Modules/CLI_Module.cpp ****     bool ret = true;
 268:My_Top/Modules/CLI_Module.cpp **** 
 269:My_Top/Modules/CLI_Module.cpp ****     // йҒҚеҺҶжүҖжңүе®һдҫӢпјҢйҖҗдёӘи°ғз”Ёstart()пјӣд»»ж„ҸдёҖдёӘеӨұиҙҘеҲҷжңҖз»Ҳиҝ”еӣһfalse
 270:My_Top/Modules/CLI_Module.cpp ****     for (uint8_t i = 0; i < _cli_count; i++)
ARM GAS  /tmp/ccEnsG33.s 			page 8


 271:My_Top/Modules/CLI_Module.cpp ****     {
 272:My_Top/Modules/CLI_Module.cpp ****         ret &= _cli_list[i]->start();
 273:My_Top/Modules/CLI_Module.cpp ****     }
 274:My_Top/Modules/CLI_Module.cpp **** 
 275:My_Top/Modules/CLI_Module.cpp ****     return ret;
 276:My_Top/Modules/CLI_Module.cpp **** }
 277:My_Top/Modules/CLI_Module.cpp **** 
 278:My_Top/Modules/CLI_Module.cpp **** // еӯҗе‘Ҫд»ӨеҲҶеҸ‘жү§иЎҢпјҲйў„з•ҷжҺҘеҸЈпјҢеҪ“еүҚе®һзҺ°дёәз©әпјү
 279:My_Top/Modules/CLI_Module.cpp **** // еҸҜеңЁжӯӨж №жҚ®argsи§Јжһҗеӯҗе‘Ҫд»ӨеҗҚз§°пјҢжҹҘжүҫsubcmd_cfgиЎЁе№¶и°ғз”ЁеҜ№еә”еӨ„зҗҶеҮҪж•°
 280:My_Top/Modules/CLI_Module.cpp **** void CLI_Module::execute_subcmd(CLI_Module *mcli, const char *args, void *context)
 281:My_Top/Modules/CLI_Module.cpp **** {
 282:My_Top/Modules/CLI_Module.cpp ****     // uint16_t arg_cnt = embeddedCliGetTokenCount(args);   // иҺ·еҸ–еҸӮж•°tokenж•°йҮҸпјҲе·ІжіЁйҮҠп
 283:My_Top/Modules/CLI_Module.cpp ****     // cli_subcmd_cfg_t *subcmd_cfg = (cli_subcmd_cfg_t *)context;  // еӯҗе‘Ҫд»Өй…ҚзҪ®иЎЁпјҲе·ІжіЁй
 284:My_Top/Modules/CLI_Module.cpp **** }
 285:My_Top/Modules/CLI_Module.cpp **** 
 286:My_Top/Modules/CLI_Module.cpp **** // и§Јжһҗе‘Ҫд»ӨеҸӮж•°еҲ—иЎЁпјҢе°Ҷargsеӯ—з¬ҰдёІдёӯзҡ„еҗ„tokenеЎ«е…Ҙarg_listж•°з»„
 287:My_Top/Modules/CLI_Module.cpp **** // arg_list[0]з•ҷз©ә("")пјҢarg_list[1]иө·дҫқж¬Ўеӯҳеҗ„еҸӮж•°пјӣиҝ”еӣһе®һйҷ…еҸӮж•°ж•°йҮҸ
 288:My_Top/Modules/CLI_Module.cpp **** int CLI_Module::init_arg_list(const char **arg_list, const char *args)
 289:My_Top/Modules/CLI_Module.cpp **** {
 290:My_Top/Modules/CLI_Module.cpp ****     // иҺ·еҸ–argsдёӯзҡ„tokenж•°йҮҸпјҲembeddedCliGetTokenCountдёҚеҗ«е‘Ҫд»ӨеҗҚжң¬иә«пјҢеҚіеҸӮж•°дёӘж•
 291:My_Top/Modules/CLI_Module.cpp ****     int arg_count = embeddedCliGetTokenCount(args); // иҝ”еӣһйҷӨз¬¬дёҖдёӘеӯ—з¬ҰдёІзҡ„дёӘж•°
 292:My_Top/Modules/CLI_Module.cpp ****     // arg_list[0]зҪ®з©әеӯ—з¬ҰдёІпјҢеҜ№еә”"е‘Ҫд»ӨеҗҚ"еҚ дҪҚпјҲдёҚдҪҝз”Ёпјү
 293:My_Top/Modules/CLI_Module.cpp ****     arg_list[0] = "";
 294:My_Top/Modules/CLI_Module.cpp ****     // йҷҗеҲ¶еҸӮж•°ж•°йҮҸдёҚи¶…иҝҮCLI_MODULE_MAX_ARGS_NUMпјҢйҳІжӯўж•°з»„и¶Ҡз•Ң
 295:My_Top/Modules/CLI_Module.cpp ****     if (arg_count >= CLI_MODULE_MAX_ARGS_NUM) arg_count = CLI_MODULE_MAX_ARGS_NUM;
 296:My_Top/Modules/CLI_Module.cpp ****     // д»Һзҙўеј•1ејҖе§ӢеЎ«е……еҗ„еҸӮж•°tokenпјҲembeddedCliGetTokenзҙўеј•д»Һ1иө·пјү
 297:My_Top/Modules/CLI_Module.cpp ****     for (int i = 1; i <= arg_count; i++) //
 298:My_Top/Modules/CLI_Module.cpp ****     {
 299:My_Top/Modules/CLI_Module.cpp ****         arg_list[i] = embeddedCliGetToken(args, i);
 300:My_Top/Modules/CLI_Module.cpp ****     }
 301:My_Top/Modules/CLI_Module.cpp ****     return arg_count;
 302:My_Top/Modules/CLI_Module.cpp **** }
 303:My_Top/Modules/CLI_Module.cpp **** 
 304:My_Top/Modules/CLI_Module.cpp **** // FreeRTOSд»»еҠЎеҮҪж•°пјҡе‘ЁжңҹжҖ§и°ғз”ЁembeddedCliProcessеӨ„зҗҶCLIиҫ“е…ҘдёҺе‘Ҫд»Өжү§иЎҢ
 305:My_Top/Modules/CLI_Module.cpp **** void CLI_Module::_process_task(void *argument)
 306:My_Top/Modules/CLI_Module.cpp **** {
 130              		.loc 1 306 1 is_stmt 1 view -0
 131              		.cfi_startproc
 132              		@ args = 0, pretend = 0, frame = 0
 133              		@ frame_needed = 0, uses_anonymous_args = 0
 134              		.loc 1 306 1 is_stmt 0 view .LVU20
 135 003c 10B5     		push	{r4, lr}
 136              		.cfi_def_cfa_offset 8
 137              		.cfi_offset 4, -8
 138              		.cfi_offset 14, -4
 139 003e 0400     		movs	r4, r0
 307:My_Top/Modules/CLI_Module.cpp ****     // е°Ҷvoid*еҸӮж•°иҝҳеҺҹдёәCLI_Moduleе®һдҫӢжҢҮй’Ҳ
 308:My_Top/Modules/CLI_Module.cpp ****     CLI_Module *cli_module = (CLI_Module *)argument;
 140              		.loc 1 308 5 is_stmt 1 view .LVU21
 141              	.LVL14:
 309:My_Top/Modules/CLI_Module.cpp ****     if (cli_module != NULL)
 142              		.loc 1 309 5 view .LVU22
 143              	.L7:
 310:My_Top/Modules/CLI_Module.cpp ****     {
 311:My_Top/Modules/CLI_Module.cpp ****         // д»»еҠЎеҗҜеҠЁж—¶жү“еҚ°ж¬ўиҝҺдҝЎжҒҜпјҢж јејҸеҰӮ "DBG-CLI DBG-CLI Start!"
 312:My_Top/Modules/CLI_Module.cpp ****         // cli_module->print("%s%s Start!\r\n", cli_module->_invitation, cli_module->_name);
 313:My_Top/Modules/CLI_Module.cpp ****     }
ARM GAS  /tmp/ccEnsG33.s 			page 9


 314:My_Top/Modules/CLI_Module.cpp ****     while (1)
 144              		.loc 1 314 5 view .LVU23
 315:My_Top/Modules/CLI_Module.cpp ****     {
 316:My_Top/Modules/CLI_Module.cpp ****         // еӨ„зҗҶCLIеҶ…йғЁзҠ¶жҖҒпјҡеӣһжҳҫиҫ“е…Ҙеӯ—з¬ҰгҖҒжү§иЎҢе·Іе®ҢжҲҗзҡ„е‘Ҫд»ӨгҖҒиҫ“еҮәжҸҗзӨәз¬Ұз
 317:My_Top/Modules/CLI_Module.cpp ****         embeddedCliProcess(cli_module->_cli);
 145              		.loc 1 317 9 view .LVU24
 146              		.loc 1 317 27 is_stmt 0 view .LVU25
 147 0040 E06A     		ldr	r0, [r4, #44]
 148 0042 FFF7FEFF 		bl	embeddedCliProcess
 149              	.LVL15:
 318:My_Top/Modules/CLI_Module.cpp ****         // жҢүй…ҚзҪ®зҡ„й—ҙйҡ”е»¶ж—¶пјҢйҒҝе…ҚCPUж»ЎиҪҪиҪ®иҜў
 319:My_Top/Modules/CLI_Module.cpp ****         vTaskDelay(pdMS_TO_TICKS(cli_module->_process_internal));
 150              		.loc 1 319 9 is_stmt 1 discriminator 1 view .LVU26
 151              		.loc 1 319 20 is_stmt 0 discriminator 1 view .LVU27
 152 0046 A389     		ldrh	r3, [r4, #12]
 153 0048 5801     		lsls	r0, r3, #5
 154 004a C01A     		subs	r0, r0, r3
 155 004c 8000     		lsls	r0, r0, #2
 156 004e C018     		adds	r0, r0, r3
 157 0050 C000     		lsls	r0, r0, #3
 158              		.loc 1 319 19 discriminator 1 view .LVU28
 159 0052 FA21     		movs	r1, #250
 160 0054 8900     		lsls	r1, r1, #2
 161 0056 FFF7FEFF 		bl	__aeabi_uidiv
 162              	.LVL16:
 163 005a FFF7FEFF 		bl	vTaskDelay
 164              	.LVL17:
 314:My_Top/Modules/CLI_Module.cpp ****     {
 165              		.loc 1 314 5 is_stmt 1 view .LVU29
 166 005e EFE7     		b	.L7
 167              		.cfi_endproc
 168              	.LFE482:
 170              		.section	.rodata.str1.4,"aMS",%progbits,1
 171              		.align	2
 172              	.LC0:
 173 0000 2D434C49 		.ascii	"-CLI\000"
 173      00
 174 0005 000000   		.align	2
 175              	.LC2:
 176 0008 2D434C49 		.ascii	"-CLI > \000"
 176      203E2000 
 177              		.text
 178              		.align	1
 179              		.global	_ZN10CLI_Module4initEPKct
 180              		.syntax unified
 181              		.code	16
 182              		.thumb_func
 184              	_ZN10CLI_Module4initEPKct:
 185              	.LVL18:
 186              	.LFB463:
  14:My_Top/Modules/CLI_Module.cpp ****     // еҗҚз§°дёҚиғҪдёәз©әпјҢеҗҰеҲҷеҲқе§ӢеҢ–еӨұиҙҘ
 187              		.loc 1 14 1 view -0
 188              		.cfi_startproc
 189              		@ args = 0, pretend = 0, frame = 32
 190              		@ frame_needed = 0, uses_anonymous_args = 0
  14:My_Top/Modules/CLI_Module.cpp ****     // еҗҚз§°дёҚиғҪдёәз©әпјҢеҗҰеҲҷеҲқе§ӢеҢ–еӨұиҙҘ
 191              		.loc 1 14 1 is_stmt 0 view .LVU31
ARM GAS  /tmp/ccEnsG33.s 			page 10


 192 0060 F0B5     		push	{r4, r5, r6, r7, lr}
 193              		.cfi_def_cfa_offset 20
 194              		.cfi_offset 4, -20
 195              		.cfi_offset 5, -16
 196              		.cfi_offset 6, -12
 197              		.cfi_offset 7, -8
 198              		.cfi_offset 14, -4
 199 0062 8BB0     		sub	sp, sp, #44
 200              		.cfi_def_cfa_offset 64
 201 0064 0400     		movs	r4, r0
 202 0066 0D1E     		subs	r5, r1, #0
 203 0068 0392     		str	r2, [sp, #12]
  16:My_Top/Modules/CLI_Module.cpp ****         return false;
 204              		.loc 1 16 5 is_stmt 1 view .LVU32
 205 006a 5CD0     		beq	.L11
  20:My_Top/Modules/CLI_Module.cpp ****     // еңЁ_nameжң«е°ҫиҝҪеҠ "-CLI"еҗҺзјҖпјҢеҪўеҰӮ "DBG-CLI"
 206              		.loc 1 20 5 view .LVU33
  20:My_Top/Modules/CLI_Module.cpp ****     // еңЁ_nameжң«е°ҫиҝҪеҠ "-CLI"еҗҺзјҖпјҢеҪўеҰӮ "DBG-CLI"
 207              		.loc 1 20 13 is_stmt 0 view .LVU34
 208 006c 0600     		movs	r6, r0
 209 006e 0E36     		adds	r6, r6, #14
  20:My_Top/Modules/CLI_Module.cpp ****     // еңЁ_nameжң«е°ҫиҝҪеҠ "-CLI"еҗҺзјҖпјҢеҪўеҰӮ "DBG-CLI"
 210              		.loc 1 20 12 view .LVU35
 211 0070 0522     		movs	r2, #5
 212              	.LVL19:
  20:My_Top/Modules/CLI_Module.cpp ****     // еңЁ_nameжң«е°ҫиҝҪеҠ "-CLI"еҗҺзјҖпјҢеҪўеҰӮ "DBG-CLI"
 213              		.loc 1 20 12 view .LVU36
 214 0072 3000     		movs	r0, r6
 215              	.LVL20:
  20:My_Top/Modules/CLI_Module.cpp ****     // еңЁ_nameжң«е°ҫиҝҪеҠ "-CLI"еҗҺзјҖпјҢеҪўеҰӮ "DBG-CLI"
 216              		.loc 1 20 12 view .LVU37
 217 0074 FFF7FEFF 		bl	strncpy
 218              	.LVL21:
  22:My_Top/Modules/CLI_Module.cpp **** 
 219              		.loc 1 22 5 is_stmt 1 view .LVU38
  22:My_Top/Modules/CLI_Module.cpp **** 
 220              		.loc 1 22 11 is_stmt 0 view .LVU39
 221 0078 3000     		movs	r0, r6
 222 007a FFF7FEFF 		bl	strlen
 223              	.LVL22:
  22:My_Top/Modules/CLI_Module.cpp **** 
 224              		.loc 1 22 11 discriminator 1 view .LVU40
 225 007e 3018     		adds	r0, r6, r0
 226 0080 2B49     		ldr	r1, .L15
 227 0082 0522     		movs	r2, #5
 228 0084 FFF7FEFF 		bl	memcpy
 229              	.LVL23:
  25:My_Top/Modules/CLI_Module.cpp ****     // еңЁ_invitationжң«е°ҫиҝҪеҠ "-CLI > "пјҢеҪўеҰӮ "DBG-CLI > "
 230              		.loc 1 25 5 is_stmt 1 view .LVU41
  25:My_Top/Modules/CLI_Module.cpp ****     // еңЁ_invitationжң«е°ҫиҝҪеҠ "-CLI > "пјҢеҪўеҰӮ "DBG-CLI > "
 231              		.loc 1 25 13 is_stmt 0 view .LVU42
 232 0088 2700     		movs	r7, r4
 233 008a 1837     		adds	r7, r7, #24
  25:My_Top/Modules/CLI_Module.cpp ****     // еңЁ_invitationжң«е°ҫиҝҪеҠ "-CLI > "пјҢеҪўеҰӮ "DBG-CLI > "
 234              		.loc 1 25 12 view .LVU43
 235 008c 0922     		movs	r2, #9
 236 008e 2900     		movs	r1, r5
ARM GAS  /tmp/ccEnsG33.s 			page 11


 237 0090 3800     		movs	r0, r7
 238 0092 FFF7FEFF 		bl	strncpy
 239              	.LVL24:
  27:My_Top/Modules/CLI_Module.cpp **** 
 240              		.loc 1 27 5 is_stmt 1 view .LVU44
  27:My_Top/Modules/CLI_Module.cpp **** 
 241              		.loc 1 27 11 is_stmt 0 view .LVU45
 242 0096 3800     		movs	r0, r7
 243 0098 FFF7FEFF 		bl	strlen
 244              	.LVL25:
  27:My_Top/Modules/CLI_Module.cpp **** 
 245              		.loc 1 27 11 discriminator 1 view .LVU46
 246 009c 3818     		adds	r0, r7, r0
 247 009e 2549     		ldr	r1, .L15+4
 248 00a0 0822     		movs	r2, #8
 249 00a2 FFF7FEFF 		bl	memcpy
 250              	.LVL26:
  30:My_Top/Modules/CLI_Module.cpp **** 
 251              		.loc 1 30 5 is_stmt 1 view .LVU47
  30:My_Top/Modules/CLI_Module.cpp **** 
 252              		.loc 1 30 39 is_stmt 0 view .LVU48
 253 00a6 039A     		ldr	r2, [sp, #12]
 254 00a8 131C     		adds	r3, r2, #0
 255 00aa 092A     		cmp	r2, #9
 256 00ac 00D8     		bhi	.L10
 257 00ae 0A23     		movs	r3, #10
 258              	.L10:
  30:My_Top/Modules/CLI_Module.cpp **** 
 259              		.loc 1 30 23 view .LVU49
 260 00b0 A381     		strh	r3, [r4, #12]
  33:My_Top/Modules/CLI_Module.cpp ****         .invitation = _invitation,        // е‘Ҫд»ӨиЎҢжҸҗзӨәз¬Ұеӯ—з¬ҰдёІ
 261              		.loc 1 33 5 is_stmt 1 view .LVU50
  33:My_Top/Modules/CLI_Module.cpp ****         .invitation = _invitation,        // е‘Ҫд»ӨиЎҢжҸҗзӨәз¬Ұеӯ—з¬ҰдёІ
 262              		.loc 1 33 23 is_stmt 0 view .LVU51
 263 00b2 05AD     		add	r5, sp, #20
 264              	.LVL27:
  33:My_Top/Modules/CLI_Module.cpp ****         .invitation = _invitation,        // е‘Ҫд»ӨиЎҢжҸҗзӨәз¬Ұеӯ—з¬ҰдёІ
 265              		.loc 1 33 23 view .LVU52
 266 00b4 1422     		movs	r2, #20
 267 00b6 0021     		movs	r1, #0
 268 00b8 2800     		movs	r0, r5
 269 00ba FFF7FEFF 		bl	memset
 270              	.LVL28:
 271 00be 8023     		movs	r3, #128
 272 00c0 AB80     		strh	r3, [r5, #4]
 273 00c2 EB80     		strh	r3, [r5, #6]
 274 00c4 8033     		adds	r3, r3, #128
 275 00c6 2B81     		strh	r3, [r5, #8]
 276 00c8 E03B     		subs	r3, r3, #224
 277 00ca 6B81     		strh	r3, [r5, #10]
 278 00cc 1F3B     		subs	r3, r3, #31
 279 00ce AB74     		strb	r3, [r5, #18]
  41:My_Top/Modules/CLI_Module.cpp **** 
 280              		.loc 1 41 35 view .LVU53
 281 00d0 0597     		str	r7, [sp, #20]
  44:My_Top/Modules/CLI_Module.cpp **** 
 282              		.loc 1 44 5 is_stmt 1 view .LVU54
ARM GAS  /tmp/ccEnsG33.s 			page 12


  44:My_Top/Modules/CLI_Module.cpp **** 
 283              		.loc 1 44 26 is_stmt 0 view .LVU55
 284 00d2 2800     		movs	r0, r5
 285 00d4 FFF7FEFF 		bl	embeddedCliNew
 286              	.LVL29:
  44:My_Top/Modules/CLI_Module.cpp **** 
 287              		.loc 1 44 10 discriminator 1 view .LVU56
 288 00d8 E062     		str	r0, [r4, #44]
  47:My_Top/Modules/CLI_Module.cpp ****         return false;
 289              		.loc 1 47 5 is_stmt 1 view .LVU57
 290 00da 0028     		cmp	r0, #0
 291 00dc 25D0     		beq	.L12
  51:My_Top/Modules/CLI_Module.cpp ****     // з»‘е®ҡеә•еұӮеӯ—з¬ҰдёІиҫ“еҮәеӣһи°ғпјҢembedded-cliеҶ…йғЁиҫ“еҮәеӯ—з¬ҰдёІж—¶и°ғз”ЁжӯӨеҮҪж•°
 292              		.loc 1 51 5 view .LVU58
  51:My_Top/Modules/CLI_Module.cpp ****     // з»‘е®ҡеә•еұӮеӯ—з¬ҰдёІиҫ“еҮәеӣһи°ғпјҢembedded-cliеҶ…йғЁиҫ“еҮәеӯ—з¬ҰдёІж—¶и°ғз”ЁжӯӨеҮҪж•°
 293              		.loc 1 51 21 is_stmt 0 view .LVU59
 294 00de 164B     		ldr	r3, .L15+8
 295 00e0 0360     		str	r3, [r0]
  53:My_Top/Modules/CLI_Module.cpp **** 
 296              		.loc 1 53 5 is_stmt 1 view .LVU60
 297 00e2 E36A     		ldr	r3, [r4, #44]
  53:My_Top/Modules/CLI_Module.cpp **** 
 298              		.loc 1 53 23 is_stmt 0 view .LVU61
 299 00e4 154A     		ldr	r2, .L15+12
 300 00e6 5A60     		str	r2, [r3, #4]
  57:My_Top/Modules/CLI_Module.cpp ****         return false;   // д»»еҠЎеҲӣе»әеӨұиҙҘпјҢиҝ”еӣһfalse
 301              		.loc 1 57 5 is_stmt 1 view .LVU62
  57:My_Top/Modules/CLI_Module.cpp ****         return false;   // д»»еҠЎеҲӣе»әеӨұиҙҘпјҢиҝ”еӣһfalse
 302              		.loc 1 57 20 is_stmt 0 view .LVU63
 303 00e8 8022     		movs	r2, #128
 304 00ea 1548     		ldr	r0, .L15+16
 305 00ec 2300     		movs	r3, r4
 306 00ee 3433     		adds	r3, r3, #52
 307 00f0 0193     		str	r3, [sp, #4]
 308 00f2 1823     		movs	r3, #24
 309 00f4 0093     		str	r3, [sp]
 310 00f6 2300     		movs	r3, r4
 311 00f8 9200     		lsls	r2, r2, #2
 312 00fa 3100     		movs	r1, r6
 313 00fc FFF7FEFF 		bl	xTaskCreate
 314              	.LVL30:
  57:My_Top/Modules/CLI_Module.cpp ****         return false;   // д»»еҠЎеҲӣе»әеӨұиҙҘпјҢиҝ”еӣһfalse
 315              		.loc 1 57 5 discriminator 1 view .LVU64
 316 0100 0128     		cmp	r0, #1
 317 0102 02D0     		beq	.L14
  58:My_Top/Modules/CLI_Module.cpp ****     // д»»еҠЎеҲӣе»әеҗҺз«ӢеҚіжҢӮиө·пјҢзӯүеҫ… start() и°ғз”ЁеҗҺеҶҚиҝҗиЎҢ
 318              		.loc 1 58 16 view .LVU65
 319 0104 0020     		movs	r0, #0
 320              	.L9:
  68:My_Top/Modules/CLI_Module.cpp **** 
 321              		.loc 1 68 1 view .LVU66
 322 0106 0BB0     		add	sp, sp, #44
 323              		@ sp needed
 324              	.LVL31:
  68:My_Top/Modules/CLI_Module.cpp **** 
 325              		.loc 1 68 1 view .LVU67
 326 0108 F0BD     		pop	{r4, r5, r6, r7, pc}
ARM GAS  /tmp/ccEnsG33.s 			page 13


 327              	.LVL32:
 328              	.L14:
  60:My_Top/Modules/CLI_Module.cpp **** 
 329              		.loc 1 60 5 is_stmt 1 view .LVU68
  60:My_Top/Modules/CLI_Module.cpp **** 
 330              		.loc 1 60 17 is_stmt 0 view .LVU69
 331 010a 606B     		ldr	r0, [r4, #52]
 332 010c FFF7FEFF 		bl	vTaskSuspend
 333              	.LVL33:
  63:My_Top/Modules/CLI_Module.cpp ****     // ж Үи®°еҲқе§ӢеҢ–е®ҢжҲҗ
 334              		.loc 1 63 5 is_stmt 1 view .LVU70
  63:My_Top/Modules/CLI_Module.cpp ****     // ж Үи®°еҲқе§ӢеҢ–е®ҢжҲҗ
 335              		.loc 1 63 25 is_stmt 0 view .LVU71
 336 0110 0C4B     		ldr	r3, .L15+20
 337 0112 1A68     		ldr	r2, [r3]
 338 0114 511C     		adds	r1, r2, #1
 339 0116 1960     		str	r1, [r3]
  63:My_Top/Modules/CLI_Module.cpp ****     // ж Үи®°еҲқе§ӢеҢ–е®ҢжҲҗ
 340              		.loc 1 63 29 view .LVU72
 341 0118 9200     		lsls	r2, r2, #2
 342 011a 9B18     		adds	r3, r3, r2
 343 011c 5C60     		str	r4, [r3, #4]
  65:My_Top/Modules/CLI_Module.cpp **** 
 344              		.loc 1 65 5 is_stmt 1 view .LVU73
  65:My_Top/Modules/CLI_Module.cpp **** 
 345              		.loc 1 65 14 is_stmt 0 view .LVU74
 346 011e 0123     		movs	r3, #1
 347 0120 2370     		strb	r3, [r4]
  67:My_Top/Modules/CLI_Module.cpp **** }
 348              		.loc 1 67 5 is_stmt 1 view .LVU75
  67:My_Top/Modules/CLI_Module.cpp **** }
 349              		.loc 1 67 12 is_stmt 0 view .LVU76
 350 0122 0120     		movs	r0, #1
 351 0124 EFE7     		b	.L9
 352              	.LVL34:
 353              	.L11:
  17:My_Top/Modules/CLI_Module.cpp **** 
 354              		.loc 1 17 16 view .LVU77
 355 0126 0020     		movs	r0, #0
 356              	.LVL35:
  17:My_Top/Modules/CLI_Module.cpp **** 
 357              		.loc 1 17 16 view .LVU78
 358 0128 EDE7     		b	.L9
 359              	.LVL36:
 360              	.L12:
  48:My_Top/Modules/CLI_Module.cpp **** 
 361              		.loc 1 48 16 view .LVU79
 362 012a 0020     		movs	r0, #0
 363 012c EBE7     		b	.L9
 364              	.L16:
 365 012e C046     		.align	2
 366              	.L15:
 367 0130 00000000 		.word	.LC0
 368 0134 08000000 		.word	.LC2
 369 0138 00000000 		.word	_ZN10CLI_Module21_low_level_write_charEP11EmbeddedClic
 370 013c 00000000 		.word	_ZN10CLI_Module23_low_level_write_stringEP11EmbeddedCliPKc
 371 0140 00000000 		.word	_ZN10CLI_Module13_process_taskEPv
ARM GAS  /tmp/ccEnsG33.s 			page 14


 372 0144 00000000 		.word	.LANCHOR0
 373              		.cfi_endproc
 374              	.LFE463:
 376              		.align	1
 377              		.global	_ZN10CLI_Module5startEv
 378              		.syntax unified
 379              		.code	16
 380              		.thumb_func
 382              	_ZN10CLI_Module5startEv:
 383              	.LVL37:
 384              	.LFB464:
  72:My_Top/Modules/CLI_Module.cpp ****     // жңӘеҲқе§ӢеҢ–еҲҷдёҚе…Ғи®ёеҗҜеҠЁ
 385              		.loc 1 72 1 is_stmt 1 view -0
 386              		.cfi_startproc
 387              		@ args = 0, pretend = 0, frame = 0
 388              		@ frame_needed = 0, uses_anonymous_args = 0
  72:My_Top/Modules/CLI_Module.cpp ****     // жңӘеҲқе§ӢеҢ–еҲҷдёҚе…Ғи®ёеҗҜеҠЁ
 389              		.loc 1 72 1 is_stmt 0 view .LVU81
 390 0148 10B5     		push	{r4, lr}
 391              		.cfi_def_cfa_offset 8
 392              		.cfi_offset 4, -8
 393              		.cfi_offset 14, -4
  74:My_Top/Modules/CLI_Module.cpp ****         return false;
 394              		.loc 1 74 5 is_stmt 1 view .LVU82
  74:My_Top/Modules/CLI_Module.cpp ****         return false;
 395              		.loc 1 74 10 is_stmt 0 view .LVU83
 396 014a 0478     		ldrb	r4, [r0]
  74:My_Top/Modules/CLI_Module.cpp ****         return false;
 397              		.loc 1 74 5 view .LVU84
 398 014c 002C     		cmp	r4, #0
 399 014e 01D1     		bne	.L19
 400              	.LVL38:
 401              	.L18:
  81:My_Top/Modules/CLI_Module.cpp **** 
 402              		.loc 1 81 1 view .LVU85
 403 0150 2000     		movs	r0, r4
 404              		@ sp needed
 405 0152 10BD     		pop	{r4, pc}
 406              	.LVL39:
 407              	.L19:
  78:My_Top/Modules/CLI_Module.cpp **** 
 408              		.loc 1 78 5 is_stmt 1 view .LVU86
  78:My_Top/Modules/CLI_Module.cpp **** 
 409              		.loc 1 78 16 is_stmt 0 view .LVU87
 410 0154 406B     		ldr	r0, [r0, #52]
 411              	.LVL40:
  78:My_Top/Modules/CLI_Module.cpp **** 
 412              		.loc 1 78 16 view .LVU88
 413 0156 FFF7FEFF 		bl	vTaskResume
 414              	.LVL41:
  80:My_Top/Modules/CLI_Module.cpp **** }
 415              		.loc 1 80 5 is_stmt 1 view .LVU89
  80:My_Top/Modules/CLI_Module.cpp **** }
 416              		.loc 1 80 12 is_stmt 0 view .LVU90
 417 015a F9E7     		b	.L18
 418              		.cfi_endproc
 419              	.LFE464:
ARM GAS  /tmp/ccEnsG33.s 			page 15


 421              		.align	1
 422              		.global	_ZN10CLI_Module15bind_write_dataEPFvPhtPvES1_
 423              		.syntax unified
 424              		.code	16
 425              		.thumb_func
 427              	_ZN10CLI_Module15bind_write_dataEPFvPhtPvES1_:
 428              	.LVL42:
 429              	.LFB465:
  86:My_Top/Modules/CLI_Module.cpp ****     // еӣһи°ғеҮҪж•°дёҚиғҪдёәNULL
 430              		.loc 1 86 1 is_stmt 1 view -0
 431              		.cfi_startproc
 432              		@ args = 0, pretend = 0, frame = 0
 433              		@ frame_needed = 0, uses_anonymous_args = 0
 434              		@ link register save eliminated.
  88:My_Top/Modules/CLI_Module.cpp ****         return false;
 435              		.loc 1 88 5 view .LVU92
 436 015c 0029     		cmp	r1, #0
 437 015e 03D0     		beq	.L22
  92:My_Top/Modules/CLI_Module.cpp ****     // дҝқеӯҳйҖҸдј еҸӮж•°
 438              		.loc 1 92 5 view .LVU93
  92:My_Top/Modules/CLI_Module.cpp ****     // дҝқеӯҳйҖҸдј еҸӮж•°
 439              		.loc 1 92 17 is_stmt 0 view .LVU94
 440 0160 4160     		str	r1, [r0, #4]
  94:My_Top/Modules/CLI_Module.cpp **** 
 441              		.loc 1 94 5 is_stmt 1 view .LVU95
  94:My_Top/Modules/CLI_Module.cpp **** 
 442              		.loc 1 94 22 is_stmt 0 view .LVU96
 443 0162 8260     		str	r2, [r0, #8]
  96:My_Top/Modules/CLI_Module.cpp **** }
 444              		.loc 1 96 5 is_stmt 1 view .LVU97
  96:My_Top/Modules/CLI_Module.cpp **** }
 445              		.loc 1 96 12 is_stmt 0 view .LVU98
 446 0164 0120     		movs	r0, #1
 447              	.LVL43:
 448              	.L21:
  97:My_Top/Modules/CLI_Module.cpp **** 
 449              		.loc 1 97 1 view .LVU99
 450              		@ sp needed
 451 0166 7047     		bx	lr
 452              	.LVL44:
 453              	.L22:
  89:My_Top/Modules/CLI_Module.cpp **** 
 454              		.loc 1 89 16 view .LVU100
 455 0168 0020     		movs	r0, #0
 456              	.LVL45:
  89:My_Top/Modules/CLI_Module.cpp **** 
 457              		.loc 1 89 16 view .LVU101
 458 016a FCE7     		b	.L21
 459              		.cfi_endproc
 460              	.LFE465:
 462              		.align	1
 463              		.global	_ZN10CLI_Module15bind_write_dataEP6Serial
 464              		.syntax unified
 465              		.code	16
 466              		.thumb_func
 468              	_ZN10CLI_Module15bind_write_dataEP6Serial:
 469              	.LVL46:
ARM GAS  /tmp/ccEnsG33.s 			page 16


 470              	.LFB466:
 101:My_Top/Modules/CLI_Module.cpp ****     // serialеҜ№иұЎдёҚиғҪдёәNULL
 471              		.loc 1 101 1 is_stmt 1 view -0
 472              		.cfi_startproc
 473              		@ args = 0, pretend = 0, frame = 0
 474              		@ frame_needed = 0, uses_anonymous_args = 0
 475              		@ link register save eliminated.
 103:My_Top/Modules/CLI_Module.cpp ****         return false;
 476              		.loc 1 103 5 view .LVU103
 477 016c 0029     		cmp	r1, #0
 478 016e 05D0     		beq	.L25
 107:My_Top/Modules/CLI_Module.cpp ****     // йҖҸдј еҸӮж•°д№ҹжҢҮеҗ‘serialпјҢlambdaеҶ…йҖҡиҝҮжӯӨжҢҮй’Ҳи°ғз”Ёsend_data
 479              		.loc 1 107 5 view .LVU104
 107:My_Top/Modules/CLI_Module.cpp ****     // йҖҸдј еҸӮж•°д№ҹжҢҮеҗ‘serialпјҢlambdaеҶ…йҖҡиҝҮжӯӨжҢҮй’Ҳи°ғз”Ёsend_data
 480              		.loc 1 107 13 is_stmt 0 view .LVU105
 481 0170 0163     		str	r1, [r0, #48]
 109:My_Top/Modules/CLI_Module.cpp **** 
 482              		.loc 1 109 5 is_stmt 1 view .LVU106
 109:My_Top/Modules/CLI_Module.cpp **** 
 483              		.loc 1 109 22 is_stmt 0 view .LVU107
 484 0172 8160     		str	r1, [r0, #8]
 112:My_Top/Modules/CLI_Module.cpp ****     {
 485              		.loc 1 112 5 is_stmt 1 view .LVU108
 112:My_Top/Modules/CLI_Module.cpp ****     {
 486              		.loc 1 112 17 is_stmt 0 view .LVU109
 487 0174 024B     		ldr	r3, .L26
 488 0176 4360     		str	r3, [r0, #4]
 122:My_Top/Modules/CLI_Module.cpp **** }
 489              		.loc 1 122 5 is_stmt 1 view .LVU110
 122:My_Top/Modules/CLI_Module.cpp **** }
 490              		.loc 1 122 12 is_stmt 0 view .LVU111
 491 0178 0120     		movs	r0, #1
 492              	.LVL47:
 493              	.L24:
 123:My_Top/Modules/CLI_Module.cpp **** 
 494              		.loc 1 123 1 view .LVU112
 495              		@ sp needed
 496 017a 7047     		bx	lr
 497              	.LVL48:
 498              	.L25:
 104:My_Top/Modules/CLI_Module.cpp **** 
 499              		.loc 1 104 16 view .LVU113
 500 017c 0020     		movs	r0, #0
 501              	.LVL49:
 104:My_Top/Modules/CLI_Module.cpp **** 
 502              		.loc 1 104 16 view .LVU114
 503 017e FCE7     		b	.L24
 504              	.L27:
 505              		.align	2
 506              	.L26:
 507 0180 00000000 		.word	_ZZN10CLI_Module15bind_write_dataEP6SerialENUlPhtPvE_4_FUNES2_tS3_
 508              		.cfi_endproc
 509              	.LFE466:
 511              		.align	1
 512              		.global	_ZN10CLI_Module23_low_level_receive_charEP11EmbeddedClic
 513              		.syntax unified
 514              		.code	16
ARM GAS  /tmp/ccEnsG33.s 			page 17


 515              		.thumb_func
 517              	_ZN10CLI_Module23_low_level_receive_charEP11EmbeddedClic:
 518              	.LVL50:
 519              	.LFB472:
 156:My_Top/Modules/CLI_Module.cpp ****     // embeddedCliдёәNULLеҲҷдёҚеӨ„зҗҶ
 520              		.loc 1 156 1 is_stmt 1 view -0
 521              		.cfi_startproc
 522              		@ args = 0, pretend = 0, frame = 0
 523              		@ frame_needed = 0, uses_anonymous_args = 0
 156:My_Top/Modules/CLI_Module.cpp ****     // embeddedCliдёәNULLеҲҷдёҚеӨ„зҗҶ
 524              		.loc 1 156 1 is_stmt 0 view .LVU116
 525 0184 10B5     		push	{r4, lr}
 526              		.cfi_def_cfa_offset 8
 527              		.cfi_offset 4, -8
 528              		.cfi_offset 14, -4
 158:My_Top/Modules/CLI_Module.cpp ****         return;
 529              		.loc 1 158 5 is_stmt 1 view .LVU117
 530 0186 0028     		cmp	r0, #0
 531 0188 01D0     		beq	.L28
 162:My_Top/Modules/CLI_Module.cpp **** }
 532              		.loc 1 162 5 view .LVU118
 162:My_Top/Modules/CLI_Module.cpp **** }
 533              		.loc 1 162 27 is_stmt 0 view .LVU119
 534 018a FFF7FEFF 		bl	embeddedCliReceiveChar
 535              	.LVL51:
 536              	.L28:
 163:My_Top/Modules/CLI_Module.cpp **** 
 537              		.loc 1 163 1 view .LVU120
 538              		@ sp needed
 539 018e 10BD     		pop	{r4, pc}
 540              		.cfi_endproc
 541              	.LFE472:
 543              		.align	1
 544              		.global	_ZN10CLI_Module12receive_dataEPht
 545              		.syntax unified
 546              		.code	16
 547              		.thumb_func
 549              	_ZN10CLI_Module12receive_dataEPht:
 550              	.LVL52:
 551              	.LFB473:
 167:My_Top/Modules/CLI_Module.cpp ****     // ж•°жҚ®жҢҮй’ҲжҲ–й•ҝеәҰж— ж•ҲеҲҷиҝ”еӣһfalse
 552              		.loc 1 167 1 is_stmt 1 view -0
 553              		.cfi_startproc
 554              		@ args = 0, pretend = 0, frame = 0
 555              		@ frame_needed = 0, uses_anonymous_args = 0
 167:My_Top/Modules/CLI_Module.cpp ****     // ж•°жҚ®жҢҮй’ҲжҲ–й•ҝеәҰж— ж•ҲеҲҷиҝ”еӣһfalse
 556              		.loc 1 167 1 is_stmt 0 view .LVU122
 557 0190 F0B5     		push	{r4, r5, r6, r7, lr}
 558              		.cfi_def_cfa_offset 20
 559              		.cfi_offset 4, -20
 560              		.cfi_offset 5, -16
 561              		.cfi_offset 6, -12
 562              		.cfi_offset 7, -8
 563              		.cfi_offset 14, -4
 564 0192 C646     		mov	lr, r8
 565 0194 00B5     		push	{lr}
 566              		.cfi_def_cfa_offset 24
ARM GAS  /tmp/ccEnsG33.s 			page 18


 567              		.cfi_offset 8, -24
 568 0196 0700     		movs	r7, r0
 569 0198 0E00     		movs	r6, r1
 570 019a 1500     		movs	r5, r2
 169:My_Top/Modules/CLI_Module.cpp ****         return false;
 571              		.loc 1 169 5 is_stmt 1 view .LVU123
 572 019c 0029     		cmp	r1, #0
 573 019e 13D0     		beq	.L34
 169:My_Top/Modules/CLI_Module.cpp ****         return false;
 574              		.loc 1 169 22 is_stmt 0 discriminator 1 view .LVU124
 575 01a0 002A     		cmp	r2, #0
 576 01a2 14D0     		beq	.L35
 173:My_Top/Modules/CLI_Module.cpp ****         return false;
 577              		.loc 1 173 5 is_stmt 1 view .LVU125
 173:My_Top/Modules/CLI_Module.cpp ****         return false;
 578              		.loc 1 173 10 is_stmt 0 view .LVU126
 579 01a4 0378     		ldrb	r3, [r0]
 580 01a6 9846     		mov	r8, r3
 173:My_Top/Modules/CLI_Module.cpp ****         return false;
 581              		.loc 1 173 5 view .LVU127
 582 01a8 002B     		cmp	r3, #0
 583 01aa 09D0     		beq	.L31
 584              	.LBB4:
 177:My_Top/Modules/CLI_Module.cpp ****     {
 585              		.loc 1 177 19 view .LVU128
 586 01ac 0024     		movs	r4, #0
 587 01ae 05E0     		b	.L32
 588              	.LVL53:
 589              	.L33:
 179:My_Top/Modules/CLI_Module.cpp ****     }
 590              		.loc 1 179 9 is_stmt 1 view .LVU129
 179:My_Top/Modules/CLI_Module.cpp ****     }
 591              		.loc 1 179 32 is_stmt 0 view .LVU130
 592 01b0 315D     		ldrb	r1, [r6, r4]
 593 01b2 F86A     		ldr	r0, [r7, #44]
 594 01b4 FFF7FEFF 		bl	_ZN10CLI_Module23_low_level_receive_charEP11EmbeddedClic
 595              	.LVL54:
 177:My_Top/Modules/CLI_Module.cpp ****     {
 596              		.loc 1 177 5 is_stmt 1 discriminator 3 view .LVU131
 597 01b8 0134     		adds	r4, r4, #1
 598              	.LVL55:
 177:My_Top/Modules/CLI_Module.cpp ****     {
 599              		.loc 1 177 5 is_stmt 0 discriminator 3 view .LVU132
 600 01ba A4B2     		uxth	r4, r4
 601              	.LVL56:
 602              	.L32:
 177:My_Top/Modules/CLI_Module.cpp ****     {
 603              		.loc 1 177 28 is_stmt 1 discriminator 1 view .LVU133
 604 01bc AC42     		cmp	r4, r5
 605 01be F7D3     		bcc	.L33
 606              	.LVL57:
 607              	.L31:
 177:My_Top/Modules/CLI_Module.cpp ****     {
 608              		.loc 1 177 28 is_stmt 0 discriminator 1 view .LVU134
 609              	.LBE4:
 183:My_Top/Modules/CLI_Module.cpp **** 
 610              		.loc 1 183 1 view .LVU135
ARM GAS  /tmp/ccEnsG33.s 			page 19


 611 01c0 4046     		mov	r0, r8
 612              		@ sp needed
 613              	.LVL58:
 614              	.LVL59:
 615              	.LVL60:
 183:My_Top/Modules/CLI_Module.cpp **** 
 616              		.loc 1 183 1 view .LVU136
 617 01c2 80BC     		pop	{r7}
 618 01c4 B846     		mov	r8, r7
 619 01c6 F0BD     		pop	{r4, r5, r6, r7, pc}
 620              	.LVL61:
 621              	.L34:
 170:My_Top/Modules/CLI_Module.cpp **** 
 622              		.loc 1 170 16 view .LVU137
 623 01c8 0023     		movs	r3, #0
 624 01ca 9846     		mov	r8, r3
 625 01cc F8E7     		b	.L31
 626              	.L35:
 627 01ce 0023     		movs	r3, #0
 628 01d0 9846     		mov	r8, r3
 629 01d2 F5E7     		b	.L31
 630              		.cfi_endproc
 631              	.LFE473:
 633              		.align	1
 634              		.global	_ZN10CLI_Module14get_cli_moduleEi
 635              		.syntax unified
 636              		.code	16
 637              		.thumb_func
 639              	_ZN10CLI_Module14get_cli_moduleEi:
 640              	.LVL62:
 641              	.LFB474:
 187:My_Top/Modules/CLI_Module.cpp ****     // зҙўеј•и¶Ҡз•ҢеҲҷиҝ”еӣһNULL
 642              		.loc 1 187 1 is_stmt 1 view -0
 643              		.cfi_startproc
 644              		@ args = 0, pretend = 0, frame = 0
 645              		@ frame_needed = 0, uses_anonymous_args = 0
 646              		@ link register save eliminated.
 189:My_Top/Modules/CLI_Module.cpp ****         return NULL;
 647              		.loc 1 189 5 view .LVU139
 648 01d4 0028     		cmp	r0, #0
 649 01d6 08DB     		blt	.L39
 189:My_Top/Modules/CLI_Module.cpp ****         return NULL;
 650              		.loc 1 189 28 is_stmt 0 discriminator 1 view .LVU140
 651 01d8 064B     		ldr	r3, .L41
 652 01da 1B68     		ldr	r3, [r3]
 189:My_Top/Modules/CLI_Module.cpp ****         return NULL;
 653              		.loc 1 189 19 discriminator 1 view .LVU141
 654 01dc 8342     		cmp	r3, r0
 655 01de 06DD     		ble	.L40
 192:My_Top/Modules/CLI_Module.cpp **** }
 656              		.loc 1 192 5 is_stmt 1 view .LVU142
 192:My_Top/Modules/CLI_Module.cpp **** }
 657              		.loc 1 192 27 is_stmt 0 view .LVU143
 658 01e0 044B     		ldr	r3, .L41
 659 01e2 8000     		lsls	r0, r0, #2
 660              	.LVL63:
 192:My_Top/Modules/CLI_Module.cpp **** }
ARM GAS  /tmp/ccEnsG33.s 			page 20


 661              		.loc 1 192 27 view .LVU144
 662 01e4 1B18     		adds	r3, r3, r0
 663 01e6 5868     		ldr	r0, [r3, #4]
 664              	.L37:
 193:My_Top/Modules/CLI_Module.cpp **** 
 665              		.loc 1 193 1 view .LVU145
 666              		@ sp needed
 667 01e8 7047     		bx	lr
 668              	.LVL64:
 669              	.L39:
 190:My_Top/Modules/CLI_Module.cpp **** 
 670              		.loc 1 190 16 view .LVU146
 671 01ea 0020     		movs	r0, #0
 672              	.LVL65:
 190:My_Top/Modules/CLI_Module.cpp **** 
 673              		.loc 1 190 16 view .LVU147
 674 01ec FCE7     		b	.L37
 675              	.LVL66:
 676              	.L40:
 190:My_Top/Modules/CLI_Module.cpp **** 
 677              		.loc 1 190 16 view .LVU148
 678 01ee 0020     		movs	r0, #0
 679              	.LVL67:
 190:My_Top/Modules/CLI_Module.cpp **** 
 680              		.loc 1 190 16 view .LVU149
 681 01f0 FAE7     		b	.L37
 682              	.L42:
 683 01f2 C046     		.align	2
 684              	.L41:
 685 01f4 00000000 		.word	.LANCHOR0
 686              		.cfi_endproc
 687              	.LFE474:
 689              		.align	1
 690              		.global	_ZN10CLI_Module14get_cli_moduleEP11EmbeddedCli
 691              		.syntax unified
 692              		.code	16
 693              		.thumb_func
 695              	_ZN10CLI_Module14get_cli_moduleEP11EmbeddedCli:
 696              	.LVL68:
 697              	.LFB475:
 197:My_Top/Modules/CLI_Module.cpp ****     // cliжҢҮй’ҲдёәNULLеҲҷж— йңҖжҹҘжүҫ
 698              		.loc 1 197 1 is_stmt 1 view -0
 699              		.cfi_startproc
 700              		@ args = 0, pretend = 0, frame = 0
 701              		@ frame_needed = 0, uses_anonymous_args = 0
 197:My_Top/Modules/CLI_Module.cpp ****     // cliжҢҮй’ҲдёәNULLеҲҷж— йңҖжҹҘжүҫ
 702              		.loc 1 197 1 is_stmt 0 view .LVU151
 703 01f8 10B5     		push	{r4, lr}
 704              		.cfi_def_cfa_offset 8
 705              		.cfi_offset 4, -8
 706              		.cfi_offset 14, -4
 707 01fa 041E     		subs	r4, r0, #0
 199:My_Top/Modules/CLI_Module.cpp ****         return NULL;
 708              		.loc 1 199 5 is_stmt 1 view .LVU152
 709 01fc 0FD0     		beq	.L43
 710              	.LBB5:
 203:My_Top/Modules/CLI_Module.cpp ****     {
ARM GAS  /tmp/ccEnsG33.s 			page 21


 711              		.loc 1 203 18 is_stmt 0 view .LVU153
 712 01fe 0022     		movs	r2, #0
 713              	.LVL69:
 714              	.L45:
 203:My_Top/Modules/CLI_Module.cpp ****     {
 715              		.loc 1 203 27 is_stmt 1 discriminator 1 view .LVU154
 716 0200 074B     		ldr	r3, .L49
 717 0202 1B68     		ldr	r3, [r3]
 718 0204 9A42     		cmp	r2, r3
 719 0206 09DA     		bge	.L48
 205:My_Top/Modules/CLI_Module.cpp ****             return _cli_list[i];
 720              		.loc 1 205 9 view .LVU155
 205:My_Top/Modules/CLI_Module.cpp ****             return _cli_list[i];
 721              		.loc 1 205 24 is_stmt 0 view .LVU156
 722 0208 054B     		ldr	r3, .L49
 723 020a 9100     		lsls	r1, r2, #2
 724 020c 5B18     		adds	r3, r3, r1
 725 020e 5868     		ldr	r0, [r3, #4]
 205:My_Top/Modules/CLI_Module.cpp ****             return _cli_list[i];
 726              		.loc 1 205 27 view .LVU157
 727 0210 C36A     		ldr	r3, [r0, #44]
 205:My_Top/Modules/CLI_Module.cpp ****             return _cli_list[i];
 728              		.loc 1 205 9 view .LVU158
 729 0212 A342     		cmp	r3, r4
 730 0214 03D0     		beq	.L43
 203:My_Top/Modules/CLI_Module.cpp ****     {
 731              		.loc 1 203 5 is_stmt 1 discriminator 2 view .LVU159
 732 0216 0132     		adds	r2, r2, #1
 733              	.LVL70:
 203:My_Top/Modules/CLI_Module.cpp ****     {
 734              		.loc 1 203 5 is_stmt 0 discriminator 2 view .LVU160
 735 0218 D2B2     		uxtb	r2, r2
 736              	.LVL71:
 203:My_Top/Modules/CLI_Module.cpp ****     {
 737              		.loc 1 203 5 discriminator 2 view .LVU161
 738 021a F1E7     		b	.L45
 739              	.LVL72:
 740              	.L48:
 203:My_Top/Modules/CLI_Module.cpp ****     {
 741              		.loc 1 203 5 discriminator 2 view .LVU162
 742              	.LBE5:
 210:My_Top/Modules/CLI_Module.cpp **** }
 743              		.loc 1 210 12 view .LVU163
 744 021c 0020     		movs	r0, #0
 745              	.LVL73:
 746              	.L43:
 211:My_Top/Modules/CLI_Module.cpp **** 
 747              		.loc 1 211 1 view .LVU164
 748              		@ sp needed
 749              	.LVL74:
 211:My_Top/Modules/CLI_Module.cpp **** 
 750              		.loc 1 211 1 view .LVU165
 751 021e 10BD     		pop	{r4, pc}
 752              	.L50:
 753              		.align	2
 754              	.L49:
 755 0220 00000000 		.word	.LANCHOR0
ARM GAS  /tmp/ccEnsG33.s 			page 22


 756              		.cfi_endproc
 757              	.LFE475:
 759              		.align	1
 760              		.global	_ZN10CLI_Module21_low_level_write_charEP11EmbeddedClic
 761              		.syntax unified
 762              		.code	16
 763              		.thumb_func
 765              	_ZN10CLI_Module21_low_level_write_charEP11EmbeddedClic:
 766              	.LVL75:
 767              	.LFB470:
 128:My_Top/Modules/CLI_Module.cpp ****     // йҖҡиҝҮembeddedCliжҢҮй’ҲеҸҚжҹҘCLI_Moduleе®һдҫӢ
 768              		.loc 1 128 1 is_stmt 1 view -0
 769              		.cfi_startproc
 770              		@ args = 0, pretend = 0, frame = 8
 771              		@ frame_needed = 0, uses_anonymous_args = 0
 128:My_Top/Modules/CLI_Module.cpp ****     // йҖҡиҝҮembeddedCliжҢҮй’ҲеҸҚжҹҘCLI_Moduleе®һдҫӢ
 772              		.loc 1 128 1 is_stmt 0 view .LVU167
 773 0224 00B5     		push	{lr}
 774              		.cfi_def_cfa_offset 4
 775              		.cfi_offset 14, -4
 776 0226 83B0     		sub	sp, sp, #12
 777              		.cfi_def_cfa_offset 16
 778 0228 6B46     		mov	r3, sp
 779 022a D971     		strb	r1, [r3, #7]
 130:My_Top/Modules/CLI_Module.cpp ****     // жүҫдёҚеҲ°е®һдҫӢеҲҷзӣҙжҺҘиҝ”еӣһ
 780              		.loc 1 130 5 is_stmt 1 view .LVU168
 130:My_Top/Modules/CLI_Module.cpp ****     // жүҫдёҚеҲ°е®һдҫӢеҲҷзӣҙжҺҘиҝ”еӣһ
 781              		.loc 1 130 38 is_stmt 0 view .LVU169
 782 022c FFF7FEFF 		bl	_ZN10CLI_Module14get_cli_moduleEP11EmbeddedCli
 783              	.LVL76:
 132:My_Top/Modules/CLI_Module.cpp ****         return;
 784              		.loc 1 132 5 is_stmt 1 view .LVU170
 785 0230 0028     		cmp	r0, #0
 786 0232 05D0     		beq	.L51
 136:My_Top/Modules/CLI_Module.cpp **** }
 787              		.loc 1 136 5 view .LVU171
 136:My_Top/Modules/CLI_Module.cpp **** }
 788              		.loc 1 136 11 is_stmt 0 view .LVU172
 789 0234 4368     		ldr	r3, [r0, #4]
 136:My_Top/Modules/CLI_Module.cpp **** }
 790              		.loc 1 136 22 view .LVU173
 791 0236 8268     		ldr	r2, [r0, #8]
 792 0238 0121     		movs	r1, #1
 793 023a 6846     		mov	r0, sp
 794              	.LVL77:
 136:My_Top/Modules/CLI_Module.cpp **** }
 795              		.loc 1 136 22 view .LVU174
 796 023c 0730     		adds	r0, r0, #7
 797 023e 9847     		blx	r3
 798              	.LVL78:
 799              	.L51:
 137:My_Top/Modules/CLI_Module.cpp **** 
 800              		.loc 1 137 1 view .LVU175
 801 0240 03B0     		add	sp, sp, #12
 802              		@ sp needed
 803 0242 00BD     		pop	{pc}
 804              		.cfi_endproc
ARM GAS  /tmp/ccEnsG33.s 			page 23


 805              	.LFE470:
 807              		.align	1
 808              		.global	_ZN10CLI_Module23_low_level_write_stringEP11EmbeddedCliPKc
 809              		.syntax unified
 810              		.code	16
 811              		.thumb_func
 813              	_ZN10CLI_Module23_low_level_write_stringEP11EmbeddedCliPKc:
 814              	.LVL79:
 815              	.LFB471:
 142:My_Top/Modules/CLI_Module.cpp ****     // йҖҡиҝҮembeddedCliжҢҮй’ҲеҸҚжҹҘCLI_Moduleе®һдҫӢ
 816              		.loc 1 142 1 is_stmt 1 view -0
 817              		.cfi_startproc
 818              		@ args = 0, pretend = 0, frame = 0
 819              		@ frame_needed = 0, uses_anonymous_args = 0
 142:My_Top/Modules/CLI_Module.cpp ****     // йҖҡиҝҮembeddedCliжҢҮй’ҲеҸҚжҹҘCLI_Moduleе®һдҫӢ
 820              		.loc 1 142 1 is_stmt 0 view .LVU177
 821 0244 70B5     		push	{r4, r5, r6, lr}
 822              		.cfi_def_cfa_offset 16
 823              		.cfi_offset 4, -16
 824              		.cfi_offset 5, -12
 825              		.cfi_offset 6, -8
 826              		.cfi_offset 14, -4
 827 0246 0D00     		movs	r5, r1
 144:My_Top/Modules/CLI_Module.cpp ****     // жүҫдёҚеҲ°е®һдҫӢеҲҷзӣҙжҺҘиҝ”еӣһ
 828              		.loc 1 144 5 is_stmt 1 view .LVU178
 144:My_Top/Modules/CLI_Module.cpp ****     // жүҫдёҚеҲ°е®һдҫӢеҲҷзӣҙжҺҘиҝ”еӣһ
 829              		.loc 1 144 38 is_stmt 0 view .LVU179
 830 0248 FFF7FEFF 		bl	_ZN10CLI_Module14get_cli_moduleEP11EmbeddedCli
 831              	.LVL80:
 144:My_Top/Modules/CLI_Module.cpp ****     // жүҫдёҚеҲ°е®һдҫӢеҲҷзӣҙжҺҘиҝ”еӣһ
 832              		.loc 1 144 38 view .LVU180
 833 024c 041E     		subs	r4, r0, #0
 834              	.LVL81:
 146:My_Top/Modules/CLI_Module.cpp ****         return;
 835              		.loc 1 146 5 is_stmt 1 view .LVU181
 836 024e 08D0     		beq	.L53
 150:My_Top/Modules/CLI_Module.cpp **** }
 837              		.loc 1 150 5 view .LVU182
 150:My_Top/Modules/CLI_Module.cpp **** }
 838              		.loc 1 150 11 is_stmt 0 view .LVU183
 839 0250 4668     		ldr	r6, [r0, #4]
 150:My_Top/Modules/CLI_Module.cpp **** }
 840              		.loc 1 150 46 view .LVU184
 841 0252 C821     		movs	r1, #200
 842 0254 2800     		movs	r0, r5
 843              	.LVL82:
 150:My_Top/Modules/CLI_Module.cpp **** }
 844              		.loc 1 150 46 view .LVU185
 845 0256 FFF7FEFF 		bl	strnlen
 846              	.LVL83:
 150:My_Top/Modules/CLI_Module.cpp **** }
 847              		.loc 1 150 22 discriminator 1 view .LVU186
 848 025a A268     		ldr	r2, [r4, #8]
 849 025c 81B2     		uxth	r1, r0
 850 025e 2800     		movs	r0, r5
 851 0260 B047     		blx	r6
 852              	.LVL84:
ARM GAS  /tmp/ccEnsG33.s 			page 24


 853              	.L53:
 151:My_Top/Modules/CLI_Module.cpp **** 
 854              		.loc 1 151 1 view .LVU187
 855              		@ sp needed
 856              	.LVL85:
 857              	.LVL86:
 151:My_Top/Modules/CLI_Module.cpp **** 
 858              		.loc 1 151 1 view .LVU188
 859 0262 70BD     		pop	{r4, r5, r6, pc}
 860              		.cfi_endproc
 861              	.LFE471:
 863              		.align	1
 864              		.global	_ZN10CLI_Module14get_cli_moduleEP6Serial
 865              		.syntax unified
 866              		.code	16
 867              		.thumb_func
 869              	_ZN10CLI_Module14get_cli_moduleEP6Serial:
 870              	.LVL87:
 871              	.LFB476:
 216:My_Top/Modules/CLI_Module.cpp ****     // serialжҢҮй’ҲдёәNULLеҲҷж— йңҖжҹҘжүҫ
 872              		.loc 1 216 1 is_stmt 1 view -0
 873              		.cfi_startproc
 874              		@ args = 0, pretend = 0, frame = 0
 875              		@ frame_needed = 0, uses_anonymous_args = 0
 216:My_Top/Modules/CLI_Module.cpp ****     // serialжҢҮй’ҲдёәNULLеҲҷж— йңҖжҹҘжүҫ
 876              		.loc 1 216 1 is_stmt 0 view .LVU190
 877 0264 10B5     		push	{r4, lr}
 878              		.cfi_def_cfa_offset 8
 879              		.cfi_offset 4, -8
 880              		.cfi_offset 14, -4
 881 0266 041E     		subs	r4, r0, #0
 218:My_Top/Modules/CLI_Module.cpp ****         return NULL;
 882              		.loc 1 218 5 is_stmt 1 view .LVU191
 883 0268 0FD0     		beq	.L55
 884              	.LBB6:
 222:My_Top/Modules/CLI_Module.cpp ****     {
 885              		.loc 1 222 18 is_stmt 0 view .LVU192
 886 026a 0022     		movs	r2, #0
 887              	.LVL88:
 888              	.L57:
 222:My_Top/Modules/CLI_Module.cpp ****     {
 889              		.loc 1 222 27 is_stmt 1 discriminator 1 view .LVU193
 890 026c 074B     		ldr	r3, .L61
 891 026e 1B68     		ldr	r3, [r3]
 892 0270 9A42     		cmp	r2, r3
 893 0272 09DA     		bge	.L60
 224:My_Top/Modules/CLI_Module.cpp ****             return _cli_list[i];
 894              		.loc 1 224 9 view .LVU194
 224:My_Top/Modules/CLI_Module.cpp ****             return _cli_list[i];
 895              		.loc 1 224 24 is_stmt 0 view .LVU195
 896 0274 054B     		ldr	r3, .L61
 897 0276 9100     		lsls	r1, r2, #2
 898 0278 5B18     		adds	r3, r3, r1
 899 027a 5868     		ldr	r0, [r3, #4]
 224:My_Top/Modules/CLI_Module.cpp ****             return _cli_list[i];
 900              		.loc 1 224 27 view .LVU196
 901 027c 036B     		ldr	r3, [r0, #48]
ARM GAS  /tmp/ccEnsG33.s 			page 25


 224:My_Top/Modules/CLI_Module.cpp ****             return _cli_list[i];
 902              		.loc 1 224 9 view .LVU197
 903 027e A342     		cmp	r3, r4
 904 0280 03D0     		beq	.L55
 222:My_Top/Modules/CLI_Module.cpp ****     {
 905              		.loc 1 222 5 is_stmt 1 discriminator 2 view .LVU198
 906 0282 0132     		adds	r2, r2, #1
 907              	.LVL89:
 222:My_Top/Modules/CLI_Module.cpp ****     {
 908              		.loc 1 222 5 is_stmt 0 discriminator 2 view .LVU199
 909 0284 D2B2     		uxtb	r2, r2
 910              	.LVL90:
 222:My_Top/Modules/CLI_Module.cpp ****     {
 911              		.loc 1 222 5 discriminator 2 view .LVU200
 912 0286 F1E7     		b	.L57
 913              	.LVL91:
 914              	.L60:
 222:My_Top/Modules/CLI_Module.cpp ****     {
 915              		.loc 1 222 5 discriminator 2 view .LVU201
 916              	.LBE6:
 229:My_Top/Modules/CLI_Module.cpp **** }
 917              		.loc 1 229 12 view .LVU202
 918 0288 0020     		movs	r0, #0
 919              	.LVL92:
 920              	.L55:
 230:My_Top/Modules/CLI_Module.cpp **** 
 921              		.loc 1 230 1 view .LVU203
 922              		@ sp needed
 923              	.LVL93:
 230:My_Top/Modules/CLI_Module.cpp **** 
 924              		.loc 1 230 1 view .LVU204
 925 028a 10BD     		pop	{r4, pc}
 926              	.L62:
 927              		.align	2
 928              	.L61:
 929 028c 00000000 		.word	.LANCHOR0
 930              		.cfi_endproc
 931              	.LFE476:
 933              		.align	1
 934              		.global	_ZN10CLI_Module9start_allEv
 935              		.syntax unified
 936              		.code	16
 937              		.thumb_func
 939              	_ZN10CLI_Module9start_allEv:
 940              	.LFB479:
 266:My_Top/Modules/CLI_Module.cpp ****     bool ret = true;
 941              		.loc 1 266 1 is_stmt 1 view -0
 942              		.cfi_startproc
 943              		@ args = 0, pretend = 0, frame = 0
 944              		@ frame_needed = 0, uses_anonymous_args = 0
 945 0290 70B5     		push	{r4, r5, r6, lr}
 946              		.cfi_def_cfa_offset 16
 947              		.cfi_offset 4, -16
 948              		.cfi_offset 5, -12
 949              		.cfi_offset 6, -8
 950              		.cfi_offset 14, -4
 267:My_Top/Modules/CLI_Module.cpp **** 
ARM GAS  /tmp/ccEnsG33.s 			page 26


 951              		.loc 1 267 5 view .LVU206
 952              	.LVL94:
 270:My_Top/Modules/CLI_Module.cpp ****     {
 953              		.loc 1 270 5 view .LVU207
 954              	.LBB7:
 270:My_Top/Modules/CLI_Module.cpp ****     {
 955              		.loc 1 270 18 is_stmt 0 view .LVU208
 956 0292 0024     		movs	r4, #0
 957              	.LBE7:
 267:My_Top/Modules/CLI_Module.cpp **** 
 958              		.loc 1 267 10 view .LVU209
 959 0294 0125     		movs	r5, #1
 960              	.LBB8:
 270:My_Top/Modules/CLI_Module.cpp ****     {
 961              		.loc 1 270 5 view .LVU210
 962 0296 08E0     		b	.L64
 963              	.LVL95:
 964              	.L65:
 272:My_Top/Modules/CLI_Module.cpp ****     }
 965              		.loc 1 272 9 is_stmt 1 view .LVU211
 272:My_Top/Modules/CLI_Module.cpp ****     }
 966              		.loc 1 272 27 is_stmt 0 view .LVU212
 967 0298 074B     		ldr	r3, .L66
 968 029a A200     		lsls	r2, r4, #2
 969 029c 9B18     		adds	r3, r3, r2
 970 029e 5868     		ldr	r0, [r3, #4]
 272:My_Top/Modules/CLI_Module.cpp ****     }
 971              		.loc 1 272 35 view .LVU213
 972 02a0 FFF7FEFF 		bl	_ZN10CLI_Module5startEv
 973              	.LVL96:
 974 02a4 0540     		ands	r5, r0
 975              	.LVL97:
 270:My_Top/Modules/CLI_Module.cpp ****     {
 976              		.loc 1 270 5 is_stmt 1 discriminator 3 view .LVU214
 977 02a6 0134     		adds	r4, r4, #1
 978              	.LVL98:
 270:My_Top/Modules/CLI_Module.cpp ****     {
 979              		.loc 1 270 5 is_stmt 0 discriminator 3 view .LVU215
 980 02a8 E4B2     		uxtb	r4, r4
 981              	.LVL99:
 982              	.L64:
 270:My_Top/Modules/CLI_Module.cpp ****     {
 983              		.loc 1 270 27 is_stmt 1 discriminator 1 view .LVU216
 984 02aa 034B     		ldr	r3, .L66
 985 02ac 1B68     		ldr	r3, [r3]
 986 02ae 9C42     		cmp	r4, r3
 987 02b0 F2DB     		blt	.L65
 988              	.LBE8:
 275:My_Top/Modules/CLI_Module.cpp **** }
 989              		.loc 1 275 5 view .LVU217
 276:My_Top/Modules/CLI_Module.cpp **** 
 990              		.loc 1 276 1 is_stmt 0 view .LVU218
 991 02b2 2800     		movs	r0, r5
 992              		@ sp needed
 993              	.LVL100:
 994              	.LVL101:
 276:My_Top/Modules/CLI_Module.cpp **** 
ARM GAS  /tmp/ccEnsG33.s 			page 27


 995              		.loc 1 276 1 view .LVU219
 996 02b4 70BD     		pop	{r4, r5, r6, pc}
 997              	.L67:
 998 02b6 C046     		.align	2
 999              	.L66:
 1000 02b8 00000000 		.word	.LANCHOR0
 1001              		.cfi_endproc
 1002              	.LFE479:
 1004              		.align	1
 1005              		.global	_ZN10CLI_Module14execute_subcmdEPS_PKcPv
 1006              		.syntax unified
 1007              		.code	16
 1008              		.thumb_func
 1010              	_ZN10CLI_Module14execute_subcmdEPS_PKcPv:
 1011              	.LVL102:
 1012              	.LFB480:
 281:My_Top/Modules/CLI_Module.cpp ****     // uint16_t arg_cnt = embeddedCliGetTokenCount(args);   // иҺ·еҸ–еҸӮж•°tokenж•°йҮҸпјҲе·ІжіЁйҮҠп
 1013              		.loc 1 281 1 is_stmt 1 view -0
 1014              		.cfi_startproc
 1015              		@ args = 0, pretend = 0, frame = 0
 1016              		@ frame_needed = 0, uses_anonymous_args = 0
 1017              		@ link register save eliminated.
 284:My_Top/Modules/CLI_Module.cpp **** 
 1018              		.loc 1 284 1 is_stmt 0 view .LVU221
 1019              		@ sp needed
 1020 02bc 7047     		bx	lr
 1021              		.cfi_endproc
 1022              	.LFE480:
 1024              		.section	.rodata.str1.4
 1025              		.align	2
 1026              	.LC13:
 1027 0010 00       		.ascii	"\000"
 1028              		.text
 1029              		.align	1
 1030              		.global	_ZN10CLI_Module13init_arg_listEPPKcS1_
 1031              		.syntax unified
 1032              		.code	16
 1033              		.thumb_func
 1035              	_ZN10CLI_Module13init_arg_listEPPKcS1_:
 1036              	.LVL103:
 1037              	.LFB481:
 289:My_Top/Modules/CLI_Module.cpp ****     // иҺ·еҸ–argsдёӯзҡ„tokenж•°йҮҸпјҲembeddedCliGetTokenCountдёҚеҗ«е‘Ҫд»ӨеҗҚжң¬иә«пјҢеҚіеҸӮж•°дёӘж•
 1038              		.loc 1 289 1 is_stmt 1 view -0
 1039              		.cfi_startproc
 1040              		@ args = 0, pretend = 0, frame = 0
 1041              		@ frame_needed = 0, uses_anonymous_args = 0
 289:My_Top/Modules/CLI_Module.cpp ****     // иҺ·еҸ–argsдёӯзҡ„tokenж•°йҮҸпјҲembeddedCliGetTokenCountдёҚеҗ«е‘Ҫд»ӨеҗҚжң¬иә«пјҢеҚіеҸӮж•°дёӘж•
 1042              		.loc 1 289 1 is_stmt 0 view .LVU223
 1043 02be F0B5     		push	{r4, r5, r6, r7, lr}
 1044              		.cfi_def_cfa_offset 20
 1045              		.cfi_offset 4, -20
 1046              		.cfi_offset 5, -16
 1047              		.cfi_offset 6, -12
 1048              		.cfi_offset 7, -8
 1049              		.cfi_offset 14, -4
 1050 02c0 C646     		mov	lr, r8
 1051 02c2 00B5     		push	{lr}
ARM GAS  /tmp/ccEnsG33.s 			page 28


 1052              		.cfi_def_cfa_offset 24
 1053              		.cfi_offset 8, -24
 1054 02c4 0700     		movs	r7, r0
 1055 02c6 8846     		mov	r8, r1
 291:My_Top/Modules/CLI_Module.cpp ****     // arg_list[0]зҪ®з©әеӯ—з¬ҰдёІпјҢеҜ№еә”"е‘Ҫд»ӨеҗҚ"еҚ дҪҚпјҲдёҚдҪҝз”Ёпјү
 1056              		.loc 1 291 5 is_stmt 1 view .LVU224
 291:My_Top/Modules/CLI_Module.cpp ****     // arg_list[0]зҪ®з©әеӯ—з¬ҰдёІпјҢеҜ№еә”"е‘Ҫд»ӨеҗҚ"еҚ дҪҚпјҲдёҚдҪҝз”Ёпјү
 1057              		.loc 1 291 45 is_stmt 0 view .LVU225
 1058 02c8 0800     		movs	r0, r1
 1059              	.LVL104:
 291:My_Top/Modules/CLI_Module.cpp ****     // arg_list[0]зҪ®з©әеӯ—з¬ҰдёІпјҢеҜ№еә”"е‘Ҫд»ӨеҗҚ"еҚ дҪҚпјҲдёҚдҪҝз”Ёпјү
 1060              		.loc 1 291 45 view .LVU226
 1061 02ca FFF7FEFF 		bl	embeddedCliGetTokenCount
 1062              	.LVL105:
 291:My_Top/Modules/CLI_Module.cpp ****     // arg_list[0]зҪ®з©әеӯ—з¬ҰдёІпјҢеҜ№еә”"е‘Ҫд»ӨеҗҚ"еҚ дҪҚпјҲдёҚдҪҝз”Ёпјү
 1063              		.loc 1 291 50 discriminator 1 view .LVU227
 1064 02ce 0600     		movs	r6, r0
 1065              	.LVL106:
 293:My_Top/Modules/CLI_Module.cpp ****     // йҷҗеҲ¶еҸӮж•°ж•°йҮҸдёҚи¶…иҝҮCLI_MODULE_MAX_ARGS_NUMпјҢйҳІжӯўж•°з»„и¶Ҡз•Ң
 1066              		.loc 1 293 5 is_stmt 1 view .LVU228
 293:My_Top/Modules/CLI_Module.cpp ****     // йҷҗеҲ¶еҸӮж•°ж•°йҮҸдёҚи¶…иҝҮCLI_MODULE_MAX_ARGS_NUMпјҢйҳІжӯўж•°з»„и¶Ҡз•Ң
 1067              		.loc 1 293 17 is_stmt 0 view .LVU229
 1068 02d0 0A4B     		ldr	r3, .L75
 1069 02d2 3B60     		str	r3, [r7]
 295:My_Top/Modules/CLI_Module.cpp ****     // д»Һзҙўеј•1ејҖе§ӢеЎ«е……еҗ„еҸӮж•°tokenпјҲembeddedCliGetTokenзҙўеј•д»Һ1иө·пјү
 1070              		.loc 1 295 5 is_stmt 1 view .LVU230
 1071 02d4 0928     		cmp	r0, #9
 1072 02d6 01DC     		bgt	.L74
 1073              	.L70:
 1074              	.LVL107:
 297:My_Top/Modules/CLI_Module.cpp ****     {
 1075              		.loc 1 297 5 view .LVU231
 1076              	.LBB9:
 297:My_Top/Modules/CLI_Module.cpp ****     {
 1077              		.loc 1 297 14 is_stmt 0 view .LVU232
 1078 02d8 0124     		movs	r4, #1
 297:My_Top/Modules/CLI_Module.cpp ****     {
 1079              		.loc 1 297 5 view .LVU233
 1080 02da 09E0     		b	.L71
 1081              	.LVL108:
 1082              	.L74:
 297:My_Top/Modules/CLI_Module.cpp ****     {
 1083              		.loc 1 297 5 view .LVU234
 1084              	.LBE9:
 295:My_Top/Modules/CLI_Module.cpp ****     // д»Һзҙўеј•1ејҖе§ӢеЎ«е……еҗ„еҸӮж•°tokenпјҲembeddedCliGetTokenзҙўеј•д»Һ1иө·пјү
 1085              		.loc 1 295 57 discriminator 1 view .LVU235
 1086 02dc 0A26     		movs	r6, #10
 1087 02de FBE7     		b	.L70
 1088              	.LVL109:
 1089              	.L72:
 1090              	.LBB10:
 299:My_Top/Modules/CLI_Module.cpp ****     }
 1091              		.loc 1 299 9 is_stmt 1 view .LVU236
 299:My_Top/Modules/CLI_Module.cpp ****     }
 1092              		.loc 1 299 19 is_stmt 0 view .LVU237
 1093 02e0 A500     		lsls	r5, r4, #2
 1094 02e2 7D19     		adds	r5, r7, r5
ARM GAS  /tmp/ccEnsG33.s 			page 29


 299:My_Top/Modules/CLI_Module.cpp ****     }
 1095              		.loc 1 299 42 view .LVU238
 1096 02e4 A1B2     		uxth	r1, r4
 1097 02e6 4046     		mov	r0, r8
 1098 02e8 FFF7FEFF 		bl	embeddedCliGetToken
 1099              	.LVL110:
 299:My_Top/Modules/CLI_Module.cpp ****     }
 1100              		.loc 1 299 21 discriminator 1 view .LVU239
 1101 02ec 2860     		str	r0, [r5]
 297:My_Top/Modules/CLI_Module.cpp ****     {
 1102              		.loc 1 297 5 is_stmt 1 discriminator 3 view .LVU240
 1103 02ee 0134     		adds	r4, r4, #1
 1104              	.LVL111:
 1105              	.L71:
 297:My_Top/Modules/CLI_Module.cpp ****     {
 1106              		.loc 1 297 23 discriminator 1 view .LVU241
 1107 02f0 A642     		cmp	r6, r4
 1108 02f2 F5DA     		bge	.L72
 1109              	.LBE10:
 301:My_Top/Modules/CLI_Module.cpp **** }
 1110              		.loc 1 301 5 view .LVU242
 302:My_Top/Modules/CLI_Module.cpp **** 
 1111              		.loc 1 302 1 is_stmt 0 view .LVU243
 1112 02f4 3000     		movs	r0, r6
 1113              		@ sp needed
 1114              	.LVL112:
 1115              	.LVL113:
 1116              	.LVL114:
 1117              	.LVL115:
 302:My_Top/Modules/CLI_Module.cpp **** 
 1118              		.loc 1 302 1 view .LVU244
 1119 02f6 80BC     		pop	{r7}
 1120 02f8 B846     		mov	r8, r7
 1121 02fa F0BD     		pop	{r4, r5, r6, r7, pc}
 1122              	.L76:
 1123              		.align	2
 1124              	.L75:
 1125 02fc 10000000 		.word	.LC13
 1126              		.cfi_endproc
 1127              	.LFE481:
 1129              		.align	1
 1130              		.global	_ZN10CLI_Module5printEPKcz
 1131              		.syntax unified
 1132              		.code	16
 1133              		.thumb_func
 1135              	_ZN10CLI_Module5printEPKcz:
 1136              	.LVL116:
 1137              	.LFB483:
 320:My_Top/Modules/CLI_Module.cpp ****     }
 321:My_Top/Modules/CLI_Module.cpp **** }
 322:My_Top/Modules/CLI_Module.cpp **** 
 323:My_Top/Modules/CLI_Module.cpp **** // ж јејҸеҢ–жү“еҚ°иҫ“еҮәеҲ°CLIз»‘е®ҡзҡ„дёІеҸЈпјҲзұ»printfз”Ёжі•пјү
 324:My_Top/Modules/CLI_Module.cpp **** // еҶ…йғЁеҠЁжҖҒз”іиҜ·е ҶеҶ…еӯҳеҒҡж јејҸеҢ–зј“еҶІпјҢе®ҢжҲҗеҗҺз«ӢеҚійҮҠж”ҫ
 325:My_Top/Modules/CLI_Module.cpp **** int CLI_Module::print(const char *format, ...)
 326:My_Top/Modules/CLI_Module.cpp **** {
 1138              		.loc 1 326 1 is_stmt 1 view -0
 1139              		.cfi_startproc
ARM GAS  /tmp/ccEnsG33.s 			page 30


 1140              		@ args = 4, pretend = 12, frame = 8
 1141              		@ frame_needed = 0, uses_anonymous_args = 1
 1142              		.loc 1 326 1 is_stmt 0 view .LVU246
 1143 0300 0EB4     		push	{r1, r2, r3}
 1144              		.cfi_def_cfa_offset 12
 1145 0302 70B5     		push	{r4, r5, r6, lr}
 1146              		.cfi_def_cfa_offset 28
 1147              		.cfi_offset 4, -28
 1148              		.cfi_offset 5, -24
 1149              		.cfi_offset 6, -20
 1150              		.cfi_offset 14, -16
 1151 0304 83B0     		sub	sp, sp, #12
 1152              		.cfi_def_cfa_offset 40
 1153 0306 0500     		movs	r5, r0
 327:My_Top/Modules/CLI_Module.cpp ****     // жңӘз»‘е®ҡеҶҷж•°жҚ®еӣһи°ғеҲҷж— жі•иҫ“еҮәпјҢиҝ”еӣһ-1
 328:My_Top/Modules/CLI_Module.cpp ****     if (_write_data == NULL)
 1154              		.loc 1 328 5 is_stmt 1 view .LVU247
 1155              		.loc 1 328 9 is_stmt 0 view .LVU248
 1156 0308 4368     		ldr	r3, [r0, #4]
 1157              		.loc 1 328 5 view .LVU249
 1158 030a 002B     		cmp	r3, #0
 1159 030c 19D0     		beq	.L79
 329:My_Top/Modules/CLI_Module.cpp ****         return -1;
 330:My_Top/Modules/CLI_Module.cpp **** 
 331:My_Top/Modules/CLI_Module.cpp ****     // д»ҺFreeRTOSе Ҷз”іиҜ·ж јејҸеҢ–зј“еҶІеҢәпјҢеӨ§е°ҸдёәCLI_MODULE_PRINT_BUFFER_MAX_SIZE
 332:My_Top/Modules/CLI_Module.cpp ****     uint8_t *print_buf = (uint8_t *)pvPortMalloc(CLI_MODULE_PRINT_BUFFER_MAX_SIZE);
 1160              		.loc 1 332 5 is_stmt 1 view .LVU250
 1161              		.loc 1 332 49 is_stmt 0 view .LVU251
 1162 030e C820     		movs	r0, #200
 1163              	.LVL117:
 1164              		.loc 1 332 49 view .LVU252
 1165 0310 FFF7FEFF 		bl	pvPortMalloc
 1166              	.LVL118:
 1167 0314 041E     		subs	r4, r0, #0
 1168              	.LVL119:
 333:My_Top/Modules/CLI_Module.cpp **** 
 334:My_Top/Modules/CLI_Module.cpp ****     // з”іиҜ·еӨұиҙҘеҲҷиҝ”еӣһ-1
 335:My_Top/Modules/CLI_Module.cpp ****     if (print_buf == NULL)
 1169              		.loc 1 335 5 is_stmt 1 view .LVU253
 1170 0316 17D0     		beq	.L80
 336:My_Top/Modules/CLI_Module.cpp ****         return -1;
 337:My_Top/Modules/CLI_Module.cpp **** 
 338:My_Top/Modules/CLI_Module.cpp ****     // еҲқе§ӢеҢ–еҸҜеҸҳеҸӮж•°еҲ—иЎЁ
 339:My_Top/Modules/CLI_Module.cpp ****     va_list args;
 1171              		.loc 1 339 5 view .LVU254
 340:My_Top/Modules/CLI_Module.cpp ****     va_start(args, format);
 1172              		.loc 1 340 5 view .LVU255
 1173 0318 08AB     		add	r3, sp, #32
 1174 031a 0193     		str	r3, [sp, #4]
 341:My_Top/Modules/CLI_Module.cpp ****     // е°Ҷж јејҸеҢ–з»“жһңеҶҷе…Ҙprint_bufпјҢжңҖеӨҡеҶҷCLI_MODULE_PRINT_BUFFER_MAX_SIZEеӯ—иҠӮпјҢиҝ”еӣһ
 342:My_Top/Modules/CLI_Module.cpp ****     int len = vsnprintf((char *)print_buf, CLI_MODULE_PRINT_BUFFER_MAX_SIZE, format, args);
 1175              		.loc 1 342 5 view .LVU256
 1176              		.loc 1 342 24 is_stmt 0 view .LVU257
 1177 031c 079A     		ldr	r2, [sp, #28]
 1178 031e C821     		movs	r1, #200
 1179 0320 FFF7FEFF 		bl	vsnprintf_
 1180              	.LVL120:
ARM GAS  /tmp/ccEnsG33.s 			page 31


 1181              		.loc 1 342 24 view .LVU258
 1182 0324 0600     		movs	r6, r0
 1183              	.LVL121:
 343:My_Top/Modules/CLI_Module.cpp ****     // жё…зҗҶеҸҜеҸҳеҸӮж•°еҲ—иЎЁ
 344:My_Top/Modules/CLI_Module.cpp ****     va_end(args);
 1184              		.loc 1 344 5 is_stmt 1 view .LVU259
 345:My_Top/Modules/CLI_Module.cpp **** 
 346:My_Top/Modules/CLI_Module.cpp ****     // и°ғз”Ёеә•еұӮеҶҷж•°жҚ®жҺҘеҸЈе°Ҷж јејҸеҢ–еҗҺзҡ„еҶ…е®№еҸ‘йҖҒеҮәеҺ»
 347:My_Top/Modules/CLI_Module.cpp ****     _write_data(print_buf, len, _write_data_args);
 1185              		.loc 1 347 5 view .LVU260
 1186 0326 6B68     		ldr	r3, [r5, #4]
 1187              		.loc 1 347 16 is_stmt 0 view .LVU261
 1188 0328 AA68     		ldr	r2, [r5, #8]
 1189 032a 81B2     		uxth	r1, r0
 1190 032c 2000     		movs	r0, r4
 1191              	.LVL122:
 1192              		.loc 1 347 16 view .LVU262
 1193 032e 9847     		blx	r3
 1194              	.LVL123:
 348:My_Top/Modules/CLI_Module.cpp **** 
 349:My_Top/Modules/CLI_Module.cpp ****     // йҮҠж”ҫе ҶеҶ…еӯҳпјҢйҳІжӯўеҶ…еӯҳжі„жјҸ
 350:My_Top/Modules/CLI_Module.cpp ****     vPortFree(print_buf);
 1195              		.loc 1 350 5 is_stmt 1 view .LVU263
 1196              		.loc 1 350 14 is_stmt 0 view .LVU264
 1197 0330 2000     		movs	r0, r4
 1198 0332 FFF7FEFF 		bl	vPortFree
 1199              	.LVL124:
 351:My_Top/Modules/CLI_Module.cpp **** 
 352:My_Top/Modules/CLI_Module.cpp ****     // иҝ”еӣһе®һйҷ…ж јејҸеҢ–еҶҷе…Ҙзҡ„еӯ—иҠӮж•°
 353:My_Top/Modules/CLI_Module.cpp ****     return len;
 1200              		.loc 1 353 5 is_stmt 1 view .LVU265
 1201              	.L77:
 354:My_Top/Modules/CLI_Module.cpp **** }
 1202              		.loc 1 354 1 is_stmt 0 view .LVU266
 1203 0336 3000     		movs	r0, r6
 1204 0338 03B0     		add	sp, sp, #12
 1205              		@ sp needed
 1206              	.LVL125:
 1207              		.loc 1 354 1 view .LVU267
 1208 033a 70BC     		pop	{r4, r5, r6}
 1209 033c 08BC     		pop	{r3}
 1210 033e 03B0     		add	sp, sp, #12
 1211 0340 1847     		bx	r3
 1212              	.LVL126:
 1213              	.L79:
 329:My_Top/Modules/CLI_Module.cpp **** 
 1214              		.loc 1 329 17 view .LVU268
 1215 0342 0126     		movs	r6, #1
 1216 0344 7642     		rsbs	r6, r6, #0
 1217 0346 F6E7     		b	.L77
 1218              	.LVL127:
 1219              	.L80:
 336:My_Top/Modules/CLI_Module.cpp **** 
 1220              		.loc 1 336 17 view .LVU269
 1221 0348 0126     		movs	r6, #1
 1222 034a 7642     		rsbs	r6, r6, #0
 1223 034c F3E7     		b	.L77
ARM GAS  /tmp/ccEnsG33.s 			page 32


 1224              		.cfi_endproc
 1225              	.LFE483:
 1227              		.align	1
 1228              		.global	_ZN10CLI_Module11add_commandE17CliCommandBinding
 1229              		.syntax unified
 1230              		.code	16
 1231              		.thumb_func
 1233              	_ZN10CLI_Module11add_commandE17CliCommandBinding:
 1234              	.LVL128:
 1235              	.LFB484:
 355:My_Top/Modules/CLI_Module.cpp **** 
 356:My_Top/Modules/CLI_Module.cpp **** // еҗ‘еҪ“еүҚCLIе®һдҫӢж·»еҠ дёҖжқЎе‘Ҫд»Өз»‘е®ҡ
 357:My_Top/Modules/CLI_Module.cpp **** bool CLI_Module::add_command(CliCommandBinding cmd_binding)
 358:My_Top/Modules/CLI_Module.cpp **** {
 1236              		.loc 1 358 1 is_stmt 1 view -0
 1237              		.cfi_startproc
 1238              		@ args = 24, pretend = 16, frame = 0
 1239              		@ frame_needed = 0, uses_anonymous_args = 0
 1240              		.loc 1 358 1 is_stmt 0 view .LVU271
 1241 034e 84B0     		sub	sp, sp, #16
 1242              		.cfi_def_cfa_offset 16
 1243 0350 30B5     		push	{r4, r5, lr}
 1244              		.cfi_def_cfa_offset 28
 1245              		.cfi_offset 4, -28
 1246              		.cfi_offset 5, -24
 1247              		.cfi_offset 14, -20
 1248 0352 83B0     		sub	sp, sp, #12
 1249              		.cfi_def_cfa_offset 40
 1250 0354 0400     		movs	r4, r0
 1251 0356 0791     		str	r1, [sp, #28]
 1252 0358 0892     		str	r2, [sp, #32]
 1253 035a 0993     		str	r3, [sp, #36]
 359:My_Top/Modules/CLI_Module.cpp ****     // жңӘеҲқе§ӢеҢ–еҲҷдёҚе…Ғи®ёж·»еҠ 
 360:My_Top/Modules/CLI_Module.cpp ****     if (!_init_ok)
 1254              		.loc 1 360 5 is_stmt 1 view .LVU272
 1255              		.loc 1 360 10 is_stmt 0 view .LVU273
 1256 035c 0078     		ldrb	r0, [r0]
 1257              	.LVL129:
 1258              		.loc 1 360 5 view .LVU274
 1259 035e 0028     		cmp	r0, #0
 1260 0360 0ED0     		beq	.L82
 361:My_Top/Modules/CLI_Module.cpp ****         return false;
 362:My_Top/Modules/CLI_Module.cpp **** 
 363:My_Top/Modules/CLI_Module.cpp ****     // е‘Ҫд»ӨеҗҚжҲ–еӣһи°ғеҮҪж•°дёәNULLеҲҷи§Ҷдёәж— ж•Ҳе‘Ҫд»Ө
 364:My_Top/Modules/CLI_Module.cpp ****     if (cmd_binding.name == NULL || cmd_binding.binding == NULL)
 1261              		.loc 1 364 5 is_stmt 1 view .LVU275
 1262 0362 0029     		cmp	r1, #0
 1263 0364 11D0     		beq	.L83
 1264              		.loc 1 364 49 is_stmt 0 discriminator 1 view .LVU276
 1265 0366 0B9B     		ldr	r3, [sp, #44]
 1266              		.loc 1 364 34 discriminator 1 view .LVU277
 1267 0368 002B     		cmp	r3, #0
 1268 036a 10D0     		beq	.L84
 365:My_Top/Modules/CLI_Module.cpp ****         return false;
 366:My_Top/Modules/CLI_Module.cpp **** 
 367:My_Top/Modules/CLI_Module.cpp ****     // и°ғз”Ёembedded-cliеә“жҺҘеҸЈе°Ҷе‘Ҫд»Өз»‘е®ҡжіЁеҶҢеҲ°иҜҘCLIе®һдҫӢ
 368:My_Top/Modules/CLI_Module.cpp ****     // жіЁж„ҸпјҡжҖ»ж•°еҸ— maxBindingCount йҷҗеҲ¶пјҲеҪ“еүҚй…ҚзҪ®дёә16пјҢеҗ«еҶ…зҪ®helpе®һйҷ…еҸҜз”Ё15ж
ARM GAS  /tmp/ccEnsG33.s 			page 33


 369:My_Top/Modules/CLI_Module.cpp ****     return embeddedCliAddBinding(_cli, cmd_binding);
 1269              		.loc 1 369 5 is_stmt 1 view .LVU278
 1270              		.loc 1 369 33 is_stmt 0 view .LVU279
 1271 036c E06A     		ldr	r0, [r4, #44]
 1272 036e 0AAB     		add	r3, sp, #40
 1273 0370 6A46     		mov	r2, sp
 1274 0372 12CB     		ldmia	r3!, {r1, r4}
 1275 0374 12C2     		stmia	r2!, {r1, r4}
 1276              	.LVL130:
 1277              		.loc 1 369 33 view .LVU280
 1278 0376 0799     		ldr	r1, [sp, #28]
 1279 0378 089A     		ldr	r2, [sp, #32]
 1280 037a 099B     		ldr	r3, [sp, #36]
 1281 037c FFF7FEFF 		bl	embeddedCliAddBinding
 1282              	.LVL131:
 1283              	.L82:
 370:My_Top/Modules/CLI_Module.cpp **** }
 1284              		.loc 1 370 1 view .LVU281
 1285 0380 03B0     		add	sp, sp, #12
 1286              		@ sp needed
 1287 0382 30BC     		pop	{r4, r5}
 1288 0384 08BC     		pop	{r3}
 1289 0386 04B0     		add	sp, sp, #16
 1290 0388 1847     		bx	r3
 1291              	.LVL132:
 1292              	.L83:
 365:My_Top/Modules/CLI_Module.cpp ****         return false;
 1293              		.loc 1 365 16 view .LVU282
 1294 038a 0020     		movs	r0, #0
 1295 038c F8E7     		b	.L82
 1296              	.L84:
 1297 038e 0020     		movs	r0, #0
 1298 0390 F6E7     		b	.L82
 1299              		.cfi_endproc
 1300              	.LFE484:
 1302              		.align	1
 1303              		.global	_ZN10CLI_Module18add_command_to_allE17CliCommandBinding
 1304              		.syntax unified
 1305              		.code	16
 1306              		.thumb_func
 1308              	_ZN10CLI_Module18add_command_to_allE17CliCommandBinding:
 1309              	.LFB477:
 235:My_Top/Modules/CLI_Module.cpp ****     bool ret = true;
 1310              		.loc 1 235 1 is_stmt 1 view -0
 1311              		.cfi_startproc
 1312              		@ args = 20, pretend = 16, frame = 0
 1313              		@ frame_needed = 0, uses_anonymous_args = 0
 1314 0392 84B0     		sub	sp, sp, #16
 1315              		.cfi_def_cfa_offset 16
 1316 0394 70B5     		push	{r4, r5, r6, lr}
 1317              		.cfi_def_cfa_offset 32
 1318              		.cfi_offset 4, -32
 1319              		.cfi_offset 5, -28
 1320              		.cfi_offset 6, -24
 1321              		.cfi_offset 14, -20
 1322 0396 82B0     		sub	sp, sp, #8
 1323              		.cfi_def_cfa_offset 40
ARM GAS  /tmp/ccEnsG33.s 			page 34


 1324 0398 0690     		str	r0, [sp, #24]
 1325 039a 0791     		str	r1, [sp, #28]
 1326 039c 0892     		str	r2, [sp, #32]
 1327 039e 0993     		str	r3, [sp, #36]
 236:My_Top/Modules/CLI_Module.cpp **** 
 1328              		.loc 1 236 5 view .LVU284
 1329              	.LVL133:
 239:My_Top/Modules/CLI_Module.cpp ****     {
 1330              		.loc 1 239 5 view .LVU285
 1331              	.LBB11:
 239:My_Top/Modules/CLI_Module.cpp ****     {
 1332              		.loc 1 239 18 is_stmt 0 view .LVU286
 1333 03a0 0024     		movs	r4, #0
 1334              	.LBE11:
 236:My_Top/Modules/CLI_Module.cpp **** 
 1335              		.loc 1 236 10 view .LVU287
 1336 03a2 0125     		movs	r5, #1
 1337              	.LBB12:
 239:My_Top/Modules/CLI_Module.cpp ****     {
 1338              		.loc 1 239 5 view .LVU288
 1339 03a4 0FE0     		b	.L86
 1340              	.LVL134:
 1341              	.L87:
 241:My_Top/Modules/CLI_Module.cpp ****     }
 1342              		.loc 1 241 9 is_stmt 1 view .LVU289
 241:My_Top/Modules/CLI_Module.cpp ****     }
 1343              		.loc 1 241 27 is_stmt 0 view .LVU290
 1344 03a6 0D4B     		ldr	r3, .L88
 1345 03a8 A200     		lsls	r2, r4, #2
 1346 03aa 9B18     		adds	r3, r3, r2
 1347 03ac 5868     		ldr	r0, [r3, #4]
 241:My_Top/Modules/CLI_Module.cpp ****     }
 1348              		.loc 1 241 41 view .LVU291
 1349 03ae 09AB     		add	r3, sp, #36
 1350 03b0 6A46     		mov	r2, sp
 1351 03b2 42CB     		ldmia	r3!, {r1, r6}
 1352 03b4 42C2     		stmia	r2!, {r1, r6}
 1353 03b6 0699     		ldr	r1, [sp, #24]
 1354 03b8 079A     		ldr	r2, [sp, #28]
 1355 03ba 089B     		ldr	r3, [sp, #32]
 1356 03bc FFF7FEFF 		bl	_ZN10CLI_Module11add_commandE17CliCommandBinding
 1357              	.LVL135:
 1358 03c0 0540     		ands	r5, r0
 1359              	.LVL136:
 239:My_Top/Modules/CLI_Module.cpp ****     {
 1360              		.loc 1 239 5 is_stmt 1 discriminator 3 view .LVU292
 1361 03c2 0134     		adds	r4, r4, #1
 1362              	.LVL137:
 239:My_Top/Modules/CLI_Module.cpp ****     {
 1363              		.loc 1 239 5 is_stmt 0 discriminator 3 view .LVU293
 1364 03c4 E4B2     		uxtb	r4, r4
 1365              	.LVL138:
 1366              	.L86:
 239:My_Top/Modules/CLI_Module.cpp ****     {
 1367              		.loc 1 239 27 is_stmt 1 discriminator 1 view .LVU294
 1368 03c6 054B     		ldr	r3, .L88
 1369 03c8 1B68     		ldr	r3, [r3]
ARM GAS  /tmp/ccEnsG33.s 			page 35


 1370 03ca 9C42     		cmp	r4, r3
 1371 03cc EBDB     		blt	.L87
 1372              	.LBE12:
 244:My_Top/Modules/CLI_Module.cpp **** }
 1373              		.loc 1 244 5 view .LVU295
 245:My_Top/Modules/CLI_Module.cpp **** 
 1374              		.loc 1 245 1 is_stmt 0 view .LVU296
 1375 03ce 2800     		movs	r0, r5
 1376 03d0 02B0     		add	sp, sp, #8
 1377              		@ sp needed
 1378              	.LVL139:
 1379              	.LVL140:
 245:My_Top/Modules/CLI_Module.cpp **** 
 1380              		.loc 1 245 1 view .LVU297
 1381 03d2 70BC     		pop	{r4, r5, r6}
 1382 03d4 08BC     		pop	{r3}
 1383 03d6 04B0     		add	sp, sp, #16
 1384 03d8 1847     		bx	r3
 1385              	.L89:
 1386 03da C046     		.align	2
 1387              	.L88:
 1388 03dc 00000000 		.word	.LANCHOR0
 1389              		.cfi_endproc
 1390              	.LFE477:
 1392              		.align	1
 1393              		.global	_ZN10CLI_Module18add_command_to_allEPKcS1_bPvPFvP11EmbeddedCliPcS2_E
 1394              		.syntax unified
 1395              		.code	16
 1396              		.thumb_func
 1398              	_ZN10CLI_Module18add_command_to_allEPKcS1_bPvPFvP11EmbeddedCliPcS2_E:
 1399              	.LVL141:
 1400              	.LFB478:
 253:My_Top/Modules/CLI_Module.cpp ****     // з”Ёдј е…Ҙзҡ„еҗ„еӯ—ж®өжһ„йҖ embedded-cliжүҖйңҖзҡ„е‘Ҫд»Өз»‘е®ҡз»“жһ„дҪ“
 1401              		.loc 1 253 1 is_stmt 1 view -0
 1402              		.cfi_startproc
 1403              		@ args = 4, pretend = 0, frame = 24
 1404              		@ frame_needed = 0, uses_anonymous_args = 0
 253:My_Top/Modules/CLI_Module.cpp ****     // з”Ёдј е…Ҙзҡ„еҗ„еӯ—ж®өжһ„йҖ embedded-cliжүҖйңҖзҡ„е‘Ҫд»Өз»‘е®ҡз»“жһ„дҪ“
 1405              		.loc 1 253 1 is_stmt 0 view .LVU299
 1406 03e0 10B5     		push	{r4, lr}
 1407              		.cfi_def_cfa_offset 8
 1408              		.cfi_offset 4, -8
 1409              		.cfi_offset 14, -4
 1410 03e2 88B0     		sub	sp, sp, #32
 1411              		.cfi_def_cfa_offset 40
 255:My_Top/Modules/CLI_Module.cpp ****                                      .help = help,           // е‘Ҫд»Өеё®еҠ©иҜҙжҳҺпјҢжҳҫзӨәеңЁhelpе
 1412              		.loc 1 255 5 is_stmt 1 view .LVU300
 259:My_Top/Modules/CLI_Module.cpp ****     // иҪ¬еҸ‘з»ҷз»“жһ„дҪ“зүҲжң¬зҡ„add_command_to_all
 1413              		.loc 1 259 56 is_stmt 0 view .LVU301
 1414 03e4 03AC     		add	r4, sp, #12
 1415 03e6 0390     		str	r0, [sp, #12]
 1416 03e8 0491     		str	r1, [sp, #16]
 1417 03ea 2272     		strb	r2, [r4, #8]
 1418 03ec 0693     		str	r3, [sp, #24]
 1419 03ee 0A9A     		ldr	r2, [sp, #40]
 1420              	.LVL142:
 259:My_Top/Modules/CLI_Module.cpp ****     // иҪ¬еҸ‘з»ҷз»“жһ„дҪ“зүҲжң¬зҡ„add_command_to_all
ARM GAS  /tmp/ccEnsG33.s 			page 36


 1421              		.loc 1 259 56 view .LVU302
 1422 03f0 0792     		str	r2, [sp, #28]
 261:My_Top/Modules/CLI_Module.cpp **** }
 1423              		.loc 1 261 5 is_stmt 1 view .LVU303
 261:My_Top/Modules/CLI_Module.cpp **** }
 1424              		.loc 1 261 30 is_stmt 0 view .LVU304
 1425 03f2 0092     		str	r2, [sp]
 1426 03f4 059A     		ldr	r2, [sp, #20]
 1427 03f6 FFF7FEFF 		bl	_ZN10CLI_Module18add_command_to_allE17CliCommandBinding
 1428              	.LVL143:
 262:My_Top/Modules/CLI_Module.cpp **** 
 1429              		.loc 1 262 1 view .LVU305
 1430 03fa 08B0     		add	sp, sp, #32
 1431              		@ sp needed
 1432              	.LVL144:
 262:My_Top/Modules/CLI_Module.cpp **** 
 1433              		.loc 1 262 1 view .LVU306
 1434 03fc 10BD     		pop	{r4, pc}
 1435              		.cfi_endproc
 1436              	.LFE478:
 1438              		.global	_ZN10CLI_Module10_cli_countE
 1439              		.global	_ZN10CLI_Module9_cli_listE
 1440              		.bss
 1441              		.align	2
 1442              		.set	.LANCHOR0,. + 0
 1445              	_ZN10CLI_Module10_cli_countE:
 1446 0000 00000000 		.space	4
 1449              	_ZN10CLI_Module9_cli_listE:
 1450 0004 00000000 		.space	20
 1450      00000000 
 1450      00000000 
 1450      00000000 
 1450      00000000 
 1451              		.text
 1452              	.Letext0:
 1453              		.file 2 "/opt/arm-gnu-toolchain-14.2/arm-none-eabi/include/machine/_default_types.h"
 1454              		.file 3 "/opt/arm-gnu-toolchain-14.2/arm-none-eabi/include/sys/_stdint.h"
 1455              		.file 4 "/opt/arm-gnu-toolchain-14.2/lib/gcc/arm-none-eabi/14.2.1/include/stddef.h"
 1456              		.file 5 "Middlewares/Third_Party/FreeRTOS/Source/CMSIS_RTOS_V2/cmsis_os2.h"
 1457              		.file 6 "Middlewares/Third_Party/FreeRTOS/Source/include/projdefs.h"
 1458              		.file 7 "Middlewares/Third_Party/FreeRTOS/Source/portable/GCC/ARM_CM0/portmacro.h"
 1459              		.file 8 "Middlewares/Third_Party/FreeRTOS/Source/include/task.h"
 1460              		.file 9 "Middlewares/Third_Party/FreeRTOS/Source/include/queue.h"
 1461              		.file 10 "Middlewares/Third_Party/FreeRTOS/Source/include/semphr.h"
 1462              		.file 11 "/opt/arm-gnu-toolchain-14.2/lib/gcc/arm-none-eabi/14.2.1/include/stdarg.h"
 1463              		.file 12 "Drivers/CMSIS/Device/ST/STM32G0xx/Include/stm32g071xx.h"
 1464              		.file 13 "Drivers/STM32G0xx_HAL_Driver/Inc/stm32g0xx_hal_def.h"
 1465              		.file 14 "Drivers/STM32G0xx_HAL_Driver/Inc/stm32g0xx_hal_dma.h"
 1466              		.file 15 "Drivers/STM32G0xx_HAL_Driver/Inc/stm32g0xx_hal_uart.h"
 1467              		.file 16 "Lib/serial/serial.hpp"
 1468              		.file 17 "Lib/embedded-cli/embedded_cli.h"
 1469              		.file 18 "My_Top/Modules/CLI_Module.hpp"
 1470              		.file 19 "Middlewares/Third_Party/FreeRTOS/Source/include/portable.h"
 1471              		.file 20 "Lib/serial/printf.h"
 1472              		.file 21 "/opt/arm-gnu-toolchain-14.2/arm-none-eabi/include/string.h"
 1473              		.file 22 "Drivers/STM32G0xx_HAL_Driver/Inc/stm32g0xx_ll_dma.h"
 1474              		.file 23 "<built-in>"
ARM GAS  /tmp/ccEnsG33.s 			page 37


ARM GAS  /tmp/ccEnsG33.s 			page 38

