ARM GAS  /tmp/ccIUwdHo.s 			page 1


   1              		.cpu cortex-m0plus
   2              		.arch armv6s-m
   3              		.fpu softvfp
   4              		.eabi_attribute 20, 1
   5              		.eabi_attribute 21, 1
   6              		.eabi_attribute 23, 3
   7              		.eabi_attribute 24, 1
   8              		.eabi_attribute 25, 1
   9              		.eabi_attribute 26, 1
  10              		.eabi_attribute 30, 1
  11              		.eabi_attribute 34, 0
  12              		.eabi_attribute 18, 4
  13              		.file	"dynamic_pid.cpp"
  14              		.text
  15              	.Ltext0:
  16              		.cfi_sections	.debug_frame
  17              		.file 1 "Lib/compute/pid/dynamic_pid.cpp"
  18              		.align	1
  19              		.syntax unified
  20              		.code	16
  21              		.thumb_func
  23              	_ZL10polynomialfPft:
  24              	.LVL0:
  25              	.LFB977:
  26              		.file 2 "Lib/compute/ex_math.hpp"
   1:Lib/compute/ex_math.hpp **** #pragma once
   2:Lib/compute/ex_math.hpp **** 
   3:Lib/compute/ex_math.hpp **** #include <stdint.h>
   4:Lib/compute/ex_math.hpp **** 
   5:Lib/compute/ex_math.hpp **** #define M_SQRT3_2 0.86602540378443864676372317075294f   //ŌłÜ3/2
   6:Lib/compute/ex_math.hpp **** #define M_SQRT3_3 0.57735026918962576450914878050196f   //ŌłÜ3/3  
   7:Lib/compute/ex_math.hpp **** #define M_2SQRT3_3 1.1547005383792515290182975610039f   //2*ŌłÜ3/3 
   8:Lib/compute/ex_math.hpp **** #define M_2PI 6.283185307179586476925286766559f   //2*pi
   9:Lib/compute/ex_math.hpp **** 
  10:Lib/compute/ex_math.hpp **** #include <math.h>
  11:Lib/compute/ex_math.hpp **** 
  12:Lib/compute/ex_math.hpp **** #include "fast_sin.h"
  13:Lib/compute/ex_math.hpp **** 
  14:Lib/compute/ex_math.hpp **** #define constraint_value(x, min, max) ((x) < (min) ? (min) : ((x) > (max) ? (max) : (x)))
  15:Lib/compute/ex_math.hpp **** #define min_value(x, y) ((x) < (y) ? (x) : (y))
  16:Lib/compute/ex_math.hpp **** #define max_value(x, y) ((x) > (y) ? (x) : (y))
  17:Lib/compute/ex_math.hpp **** #define deg2rad(x) ((x) * (M_PI / 180.0f)) //0-360Ķ¦ÆÕ║”ĶĮ¼µŹóõĖ║Õ╝¦Õ║”
  18:Lib/compute/ex_math.hpp **** #define rad2deg(x) ((x) * (180.0f / M_PI)) //Õ╝¦Õ║”ĶĮ¼µŹóõĖ║0-360Ķ¦ÆÕ║”
  19:Lib/compute/ex_math.hpp **** #define rad2q31(x) (int32_t)((x) * (float)(2147483648.0f / M_PI))
  20:Lib/compute/ex_math.hpp **** #define q31_2rad(x) (float)((x) * (float)(M_PI / 2147483648.0f))
  21:Lib/compute/ex_math.hpp **** #define UTILS_NAN_ZERO(x)   if (isnan(x) || isinf(x)) { x = 0.0; } //Õ”éµ×£µś»ķØ×µĢ░ÕŁŚ(NaN)µł¢µŚĀń
  22:Lib/compute/ex_math.hpp **** 
  23:Lib/compute/ex_math.hpp **** // ĶĪ©ĶŠŠÕ╝ÅĶ»ŁÕÅźńÜäÕĆ╝ = µ£ĆÕÉÄõĖĆµØĪĶ»ŁÕÅźńÜäÕĆ╝
  24:Lib/compute/ex_math.hpp **** #define My_normalizeAngle(angle) ({ \
  25:Lib/compute/ex_math.hpp ****     float a__ = fmodf((angle), M_TWOPI); \
  26:Lib/compute/ex_math.hpp ****     a__ >= 0 ? a__ : (a__ + M_TWOPI); \
  27:Lib/compute/ex_math.hpp **** }) //Õ░åĶŠōÕģźńÜäĶ¦ÆÕ║”ķÖÉÕłČÕ£©0Õł░2ŽĆĶīāÕø┤Õåģ 
  28:Lib/compute/ex_math.hpp **** 
  29:Lib/compute/ex_math.hpp **** #define wrap_to_PI(a) ({ \
  30:Lib/compute/ex_math.hpp ****     float r__ = fmodf((a) + M_PI, M_2PI); \
  31:Lib/compute/ex_math.hpp ****     if (r__ < 0) r__ += M_2PI; \
  32:Lib/compute/ex_math.hpp ****     r__ - M_PI; \
ARM GAS  /tmp/ccIUwdHo.s 			page 2


  33:Lib/compute/ex_math.hpp **** }) //Õ░åĶŠōÕģźńÜäĶ¦ÆÕ║”ķÖÉÕłČÕ£©-ŽĆÕł░ŽĆĶīāÕø┤Õåģ
  34:Lib/compute/ex_math.hpp **** 
  35:Lib/compute/ex_math.hpp **** 
  36:Lib/compute/ex_math.hpp **** 
  37:Lib/compute/ex_math.hpp **** 
  38:Lib/compute/ex_math.hpp **** enum class FilterType : uint8_t
  39:Lib/compute/ex_math.hpp **** {
  40:Lib/compute/ex_math.hpp ****     None,
  41:Lib/compute/ex_math.hpp ****     Window,
  42:Lib/compute/ex_math.hpp ****     Lowpass,
  43:Lib/compute/ex_math.hpp ****     Average
  44:Lib/compute/ex_math.hpp **** };
  45:Lib/compute/ex_math.hpp **** 
  46:Lib/compute/ex_math.hpp **** class WindowFilter
  47:Lib/compute/ex_math.hpp **** {
  48:Lib/compute/ex_math.hpp **** public:
  49:Lib/compute/ex_math.hpp ****     bool init(uint8_t win_size);
  50:Lib/compute/ex_math.hpp ****     float filter(float value);
  51:Lib/compute/ex_math.hpp ****     void clear(void);
  52:Lib/compute/ex_math.hpp **** 
  53:Lib/compute/ex_math.hpp ****     inline uint8_t get_count(void) { return count; }
  54:Lib/compute/ex_math.hpp ****     inline float get_sum(void) { return sum; }
  55:Lib/compute/ex_math.hpp ****     inline float get_avg(void) { return avg; }
  56:Lib/compute/ex_math.hpp **** 
  57:Lib/compute/ex_math.hpp **** private:
  58:Lib/compute/ex_math.hpp ****     uint8_t win_size;
  59:Lib/compute/ex_math.hpp ****     float *pData;
  60:Lib/compute/ex_math.hpp ****     uint8_t index;
  61:Lib/compute/ex_math.hpp ****     uint8_t count;
  62:Lib/compute/ex_math.hpp ****     float sum;
  63:Lib/compute/ex_math.hpp ****     float avg;
  64:Lib/compute/ex_math.hpp **** };
  65:Lib/compute/ex_math.hpp **** 
  66:Lib/compute/ex_math.hpp **** class LowpassFilter
  67:Lib/compute/ex_math.hpp **** {
  68:Lib/compute/ex_math.hpp **** public:
  69:Lib/compute/ex_math.hpp ****     void init(float alpha = 0.2f);
  70:Lib/compute/ex_math.hpp ****     float filter(float value);
  71:Lib/compute/ex_math.hpp ****     float filter_with_alpha(float value, float alpha);
  72:Lib/compute/ex_math.hpp ****     void clear(void);
  73:Lib/compute/ex_math.hpp ****     void set_alpha(float alpha) { _alpha = alpha; }
  74:Lib/compute/ex_math.hpp **** 
  75:Lib/compute/ex_math.hpp **** private:
  76:Lib/compute/ex_math.hpp ****     float _alpha;
  77:Lib/compute/ex_math.hpp ****     float _prev_value;
  78:Lib/compute/ex_math.hpp **** };
  79:Lib/compute/ex_math.hpp **** 
  80:Lib/compute/ex_math.hpp **** class AvgFilter
  81:Lib/compute/ex_math.hpp **** {
  82:Lib/compute/ex_math.hpp **** public:
  83:Lib/compute/ex_math.hpp ****     bool init(uint8_t win_size);
  84:Lib/compute/ex_math.hpp ****     float filter(float value);
  85:Lib/compute/ex_math.hpp ****     void clear(void);
  86:Lib/compute/ex_math.hpp **** 
  87:Lib/compute/ex_math.hpp ****     inline uint8_t get_count(void) { return _count; }
  88:Lib/compute/ex_math.hpp ****     inline float get_sum(void) { return _sum; }
  89:Lib/compute/ex_math.hpp ****     inline float get_avg(void) { return _avg; }
ARM GAS  /tmp/ccIUwdHo.s 			page 3


  90:Lib/compute/ex_math.hpp **** 
  91:Lib/compute/ex_math.hpp **** private:
  92:Lib/compute/ex_math.hpp ****     uint8_t _size;
  93:Lib/compute/ex_math.hpp ****     float *pData;
  94:Lib/compute/ex_math.hpp ****     uint8_t _index;
  95:Lib/compute/ex_math.hpp ****     uint8_t _count;
  96:Lib/compute/ex_math.hpp ****     float _sum;
  97:Lib/compute/ex_math.hpp ****     float _avg;
  98:Lib/compute/ex_math.hpp ****     float _max;
  99:Lib/compute/ex_math.hpp ****     float _min;
 100:Lib/compute/ex_math.hpp **** };
 101:Lib/compute/ex_math.hpp **** 
 102:Lib/compute/ex_math.hpp **** static inline float polynomial(float x, float *coeff, uint16_t degree)
 103:Lib/compute/ex_math.hpp **** {
  27              		.loc 2 103 1 view -0
  28              		.cfi_startproc
  29              		@ args = 0, pretend = 0, frame = 0
  30              		@ frame_needed = 0, uses_anonymous_args = 0
  31              		.loc 2 103 1 is_stmt 0 view .LVU1
  32 0000 70B5     		push	{r4, r5, r6, lr}
  33              		.cfi_def_cfa_offset 16
  34              		.cfi_offset 4, -16
  35              		.cfi_offset 5, -12
  36              		.cfi_offset 6, -8
  37              		.cfi_offset 14, -4
  38 0002 061C     		adds	r6, r0, #0
  39 0004 0D1E     		subs	r5, r1, #0
 104:Lib/compute/ex_math.hpp ****     if (coeff == NULL || degree == 0)
  40              		.loc 2 104 5 is_stmt 1 view .LVU2
  41 0006 11D0     		beq	.L5
  42              		.loc 2 104 23 is_stmt 0 discriminator 1 view .LVU3
  43 0008 002A     		cmp	r2, #0
  44 000a 11D0     		beq	.L6
 105:Lib/compute/ex_math.hpp ****         return 0.f;
 106:Lib/compute/ex_math.hpp **** 
 107:Lib/compute/ex_math.hpp ****     // µīēńģ¦ķ£Źń║│µ│ĢÕłÖ’╝īõ╗Äµ£Ćķ½śµ¼ĪķĪ╣Õ╝ĆÕ¦ŗķĆÉµŁźĶ«Īń«Ś
 108:Lib/compute/ex_math.hpp ****     float result = coeff[degree - 1];
  45              		.loc 2 108 5 is_stmt 1 view .LVU4
  46              		.loc 2 108 36 is_stmt 0 view .LVU5
  47 000c 094B     		ldr	r3, .L7
  48 000e D318     		adds	r3, r2, r3
  49 0010 9B00     		lsls	r3, r3, #2
  50              		.loc 2 108 11 view .LVU6
  51 0012 C858     		ldr	r0, [r1, r3]
  52              	.LVL1:
 109:Lib/compute/ex_math.hpp ****     for (int i = degree - 2; i >= 0; i--)
  53              		.loc 2 109 5 is_stmt 1 view .LVU7
  54              	.LBB2:
  55              		.loc 2 109 14 is_stmt 0 view .LVU8
  56 0014 941E     		subs	r4, r2, #2
  57              	.LVL2:
  58              	.L3:
  59              		.loc 2 109 32 is_stmt 1 discriminator 1 view .LVU9
  60 0016 002C     		cmp	r4, #0
  61 0018 0BDB     		blt	.L1
 110:Lib/compute/ex_math.hpp ****     {
 111:Lib/compute/ex_math.hpp ****         result = result * x + coeff[i];
ARM GAS  /tmp/ccIUwdHo.s 			page 4


  62              		.loc 2 111 9 view .LVU10
  63              		.loc 2 111 25 is_stmt 0 view .LVU11
  64 001a 311C     		adds	r1, r6, #0
  65 001c FFF7FEFF 		bl	__aeabi_fmul
  66              	.LVL3:
  67              		.loc 2 111 38 view .LVU12
  68 0020 A300     		lsls	r3, r4, #2
  69 0022 5959     		ldr	r1, [r3, r5]
  70              		.loc 2 111 16 view .LVU13
  71 0024 FFF7FEFF 		bl	__aeabi_fadd
  72              	.LVL4:
 109:Lib/compute/ex_math.hpp ****     for (int i = degree - 2; i >= 0; i--)
  73              		.loc 2 109 5 is_stmt 1 discriminator 3 view .LVU14
  74 0028 013C     		subs	r4, r4, #1
  75              	.LVL5:
 109:Lib/compute/ex_math.hpp ****     for (int i = degree - 2; i >= 0; i--)
  76              		.loc 2 109 5 is_stmt 0 discriminator 3 view .LVU15
  77 002a F4E7     		b	.L3
  78              	.LVL6:
  79              	.L5:
 109:Lib/compute/ex_math.hpp ****     for (int i = degree - 2; i >= 0; i--)
  80              		.loc 2 109 5 discriminator 3 view .LVU16
  81              	.LBE2:
 105:Lib/compute/ex_math.hpp **** 
  82              		.loc 2 105 16 view .LVU17
  83 002c 0020     		movs	r0, #0
  84              	.LVL7:
 105:Lib/compute/ex_math.hpp **** 
  85              		.loc 2 105 16 view .LVU18
  86 002e 00E0     		b	.L1
  87              	.LVL8:
  88              	.L6:
 105:Lib/compute/ex_math.hpp **** 
  89              		.loc 2 105 16 view .LVU19
  90 0030 0020     		movs	r0, #0
  91              	.LVL9:
  92              	.L1:
 112:Lib/compute/ex_math.hpp ****     }
 113:Lib/compute/ex_math.hpp **** 
 114:Lib/compute/ex_math.hpp ****     return result;
 115:Lib/compute/ex_math.hpp **** }
  93              		.loc 2 115 1 view .LVU20
  94              		@ sp needed
  95              	.LVL10:
  96              	.LVL11:
  97              		.loc 2 115 1 view .LVU21
  98 0032 70BD     		pop	{r4, r5, r6, pc}
  99              	.L8:
 100              		.align	2
 101              	.L7:
 102 0034 FFFFFF3F 		.word	1073741823
 103              		.cfi_endproc
 104              	.LFE977:
 106              		.align	1
 107              		.global	_ZN10DynamicPID18config_common_funcEPK20dpid_common_config_t
 108              		.syntax unified
 109              		.code	16
ARM GAS  /tmp/ccIUwdHo.s 			page 5


 110              		.thumb_func
 112              	_ZN10DynamicPID18config_common_funcEPK20dpid_common_config_t:
 113              	.LVL12:
 114              	.LFB1027:
   1:Lib/compute/pid/dynamic_pid.cpp **** #include "dynamic_pid.hpp"
   2:Lib/compute/pid/dynamic_pid.cpp **** 
   3:Lib/compute/pid/dynamic_pid.cpp **** #include <string.h>
   4:Lib/compute/pid/dynamic_pid.cpp **** 
   5:Lib/compute/pid/dynamic_pid.cpp **** void DynamicPID::init(DPID_FuncType type)
   6:Lib/compute/pid/dynamic_pid.cpp **** {
   7:Lib/compute/pid/dynamic_pid.cpp ****     _func_type = type;
   8:Lib/compute/pid/dynamic_pid.cpp **** 
   9:Lib/compute/pid/dynamic_pid.cpp ****     reset();
  10:Lib/compute/pid/dynamic_pid.cpp **** }
  11:Lib/compute/pid/dynamic_pid.cpp **** 
  12:Lib/compute/pid/dynamic_pid.cpp **** bool DynamicPID::config_common_func(const dpid_common_config_t *cfg)
  13:Lib/compute/pid/dynamic_pid.cpp **** {
 115              		.loc 1 13 1 is_stmt 1 view -0
 116              		.cfi_startproc
 117              		@ args = 0, pretend = 0, frame = 0
 118              		@ frame_needed = 0, uses_anonymous_args = 0
 119              		.loc 1 13 1 is_stmt 0 view .LVU23
 120 0038 10B5     		push	{r4, lr}
 121              		.cfi_def_cfa_offset 8
 122              		.cfi_offset 4, -8
 123              		.cfi_offset 14, -4
  14:Lib/compute/pid/dynamic_pid.cpp ****     if (cfg == NULL)
 124              		.loc 1 14 5 is_stmt 1 view .LVU24
 125 003a 0029     		cmp	r1, #0
 126 003c 08D0     		beq	.L11
  15:Lib/compute/pid/dynamic_pid.cpp ****         return false;
  16:Lib/compute/pid/dynamic_pid.cpp **** 
  17:Lib/compute/pid/dynamic_pid.cpp ****     _common_cfg = *cfg;
 127              		.loc 1 17 5 view .LVU25
 128              		.loc 1 17 17 is_stmt 0 view .LVU26
 129 003e 0C30     		adds	r0, r0, #12
 130              	.LVL13:
 131              		.loc 1 17 17 view .LVU27
 132 0040 1CC9     		ldmia	r1!, {r2, r3, r4}
 133 0042 1CC0     		stmia	r0!, {r2, r3, r4}
 134              	.LVL14:
 135              		.loc 1 17 17 view .LVU28
 136 0044 1CC9     		ldmia	r1!, {r2, r3, r4}
 137 0046 1CC0     		stmia	r0!, {r2, r3, r4}
 138              	.LVL15:
 139              		.loc 1 17 17 view .LVU29
 140 0048 0B68     		ldr	r3, [r1]
 141 004a 0360     		str	r3, [r0]
  18:Lib/compute/pid/dynamic_pid.cpp **** 
  19:Lib/compute/pid/dynamic_pid.cpp ****     return true;
 142              		.loc 1 19 5 is_stmt 1 view .LVU30
 143              		.loc 1 19 12 is_stmt 0 view .LVU31
 144 004c 0120     		movs	r0, #1
 145              	.LVL16:
 146              	.L10:
  20:Lib/compute/pid/dynamic_pid.cpp **** }
 147              		.loc 1 20 1 view .LVU32
ARM GAS  /tmp/ccIUwdHo.s 			page 6


 148              		@ sp needed
 149 004e 10BD     		pop	{r4, pc}
 150              	.LVL17:
 151              	.L11:
  15:Lib/compute/pid/dynamic_pid.cpp ****         return false;
 152              		.loc 1 15 16 view .LVU33
 153 0050 0020     		movs	r0, #0
 154              	.LVL18:
  15:Lib/compute/pid/dynamic_pid.cpp ****         return false;
 155              		.loc 1 15 16 view .LVU34
 156 0052 FCE7     		b	.L10
 157              		.cfi_endproc
 158              	.LFE1027:
 160              		.align	1
 161              		.global	_ZN10DynamicPID16config_step_funcEPK18dpid_step_config_tPfb
 162              		.syntax unified
 163              		.code	16
 164              		.thumb_func
 166              	_ZN10DynamicPID16config_step_funcEPK18dpid_step_config_tPfb:
 167              	.LVL19:
 168              	.LFB1028:
  21:Lib/compute/pid/dynamic_pid.cpp **** 
  22:Lib/compute/pid/dynamic_pid.cpp **** bool DynamicPID::config_step_func(const dpid_step_config_t *cfg, float *determinant, bool absolute)
  23:Lib/compute/pid/dynamic_pid.cpp **** {
 169              		.loc 1 23 1 is_stmt 1 view -0
 170              		.cfi_startproc
 171              		@ args = 0, pretend = 0, frame = 0
 172              		@ frame_needed = 0, uses_anonymous_args = 0
 173              		.loc 1 23 1 is_stmt 0 view .LVU36
 174 0054 70B5     		push	{r4, r5, r6, lr}
 175              		.cfi_def_cfa_offset 16
 176              		.cfi_offset 4, -16
 177              		.cfi_offset 5, -12
 178              		.cfi_offset 6, -8
 179              		.cfi_offset 14, -4
 180 0056 0400     		movs	r4, r0
 181 0058 1600     		movs	r6, r2
 182 005a 1D00     		movs	r5, r3
  24:Lib/compute/pid/dynamic_pid.cpp ****     if (cfg == NULL)
 183              		.loc 1 24 5 is_stmt 1 view .LVU37
 184 005c 0029     		cmp	r1, #0
 185 005e 07D0     		beq	.L14
  25:Lib/compute/pid/dynamic_pid.cpp ****         return false;
  26:Lib/compute/pid/dynamic_pid.cpp **** 
  27:Lib/compute/pid/dynamic_pid.cpp ****     _step_cfg = *cfg;
 186              		.loc 1 27 5 view .LVU38
 187              		.loc 1 27 15 is_stmt 0 view .LVU39
 188 0060 2830     		adds	r0, r0, #40
 189              	.LVL20:
 190              		.loc 1 27 15 view .LVU40
 191 0062 8C22     		movs	r2, #140
 192              	.LVL21:
 193              		.loc 1 27 15 view .LVU41
 194 0064 FFF7FEFF 		bl	memcpy
 195              	.LVL22:
  28:Lib/compute/pid/dynamic_pid.cpp ****     _determinant = determinant;
 196              		.loc 1 28 5 is_stmt 1 view .LVU42
ARM GAS  /tmp/ccIUwdHo.s 			page 7


 197              		.loc 1 28 18 is_stmt 0 view .LVU43
 198 0068 6660     		str	r6, [r4, #4]
  29:Lib/compute/pid/dynamic_pid.cpp ****     _absolute = absolute;
 199              		.loc 1 29 5 is_stmt 1 view .LVU44
 200              		.loc 1 29 15 is_stmt 0 view .LVU45
 201 006a 2572     		strb	r5, [r4, #8]
  30:Lib/compute/pid/dynamic_pid.cpp **** 
  31:Lib/compute/pid/dynamic_pid.cpp ****     return true;
 202              		.loc 1 31 5 is_stmt 1 view .LVU46
 203              		.loc 1 31 12 is_stmt 0 view .LVU47
 204 006c 0120     		movs	r0, #1
 205              	.L13:
  32:Lib/compute/pid/dynamic_pid.cpp **** }
 206              		.loc 1 32 1 view .LVU48
 207              		@ sp needed
 208              	.LVL23:
 209              	.LVL24:
 210              	.LVL25:
 211              		.loc 1 32 1 view .LVU49
 212 006e 70BD     		pop	{r4, r5, r6, pc}
 213              	.LVL26:
 214              	.L14:
  25:Lib/compute/pid/dynamic_pid.cpp **** 
 215              		.loc 1 25 16 view .LVU50
 216 0070 0020     		movs	r0, #0
 217              	.LVL27:
  25:Lib/compute/pid/dynamic_pid.cpp **** 
 218              		.loc 1 25 16 view .LVU51
 219 0072 FCE7     		b	.L13
 220              		.cfi_endproc
 221              	.LFE1028:
 223              		.align	1
 224              		.global	_ZN10DynamicPID17config_slope_funcEPK19dpid_slope_config_t
 225              		.syntax unified
 226              		.code	16
 227              		.thumb_func
 229              	_ZN10DynamicPID17config_slope_funcEPK19dpid_slope_config_t:
 230              	.LVL28:
 231              	.LFB1029:
  33:Lib/compute/pid/dynamic_pid.cpp **** 
  34:Lib/compute/pid/dynamic_pid.cpp **** bool DynamicPID::config_slope_func(const dpid_slope_config_t *cfg)
  35:Lib/compute/pid/dynamic_pid.cpp **** {
 232              		.loc 1 35 1 is_stmt 1 view -0
 233              		.cfi_startproc
 234              		@ args = 0, pretend = 0, frame = 0
 235              		@ frame_needed = 0, uses_anonymous_args = 0
 236              		@ link register save eliminated.
  36:Lib/compute/pid/dynamic_pid.cpp ****     if (cfg == NULL)
 237              		.loc 1 36 5 view .LVU53
 238 0074 0029     		cmp	r1, #0
 239 0076 01D0     		beq	.L17
  37:Lib/compute/pid/dynamic_pid.cpp ****         return false;
  38:Lib/compute/pid/dynamic_pid.cpp **** 
  39:Lib/compute/pid/dynamic_pid.cpp ****     _slope_cfg = *cfg;
  40:Lib/compute/pid/dynamic_pid.cpp **** 
  41:Lib/compute/pid/dynamic_pid.cpp ****     return true;
 240              		.loc 1 41 12 is_stmt 0 view .LVU54
ARM GAS  /tmp/ccIUwdHo.s 			page 8


 241 0078 0120     		movs	r0, #1
 242              	.LVL29:
 243              	.L16:
  42:Lib/compute/pid/dynamic_pid.cpp **** }
 244              		.loc 1 42 1 view .LVU55
 245              		@ sp needed
 246 007a 7047     		bx	lr
 247              	.LVL30:
 248              	.L17:
  37:Lib/compute/pid/dynamic_pid.cpp ****         return false;
 249              		.loc 1 37 16 view .LVU56
 250 007c 0020     		movs	r0, #0
 251              	.LVL31:
  37:Lib/compute/pid/dynamic_pid.cpp ****         return false;
 252              		.loc 1 37 16 view .LVU57
 253 007e FCE7     		b	.L16
 254              		.cfi_endproc
 255              	.LFE1029:
 257              		.align	1
 258              		.global	_ZN10DynamicPID16config_poly_funcEPK18dpid_poly_config_t
 259              		.syntax unified
 260              		.code	16
 261              		.thumb_func
 263              	_ZN10DynamicPID16config_poly_funcEPK18dpid_poly_config_t:
 264              	.LVL32:
 265              	.LFB1030:
  43:Lib/compute/pid/dynamic_pid.cpp **** 
  44:Lib/compute/pid/dynamic_pid.cpp **** bool DynamicPID::config_poly_func(const dpid_poly_config_t *cfg)
  45:Lib/compute/pid/dynamic_pid.cpp **** {
 266              		.loc 1 45 1 is_stmt 1 view -0
 267              		.cfi_startproc
 268              		@ args = 0, pretend = 0, frame = 0
 269              		@ frame_needed = 0, uses_anonymous_args = 0
 270              		.loc 1 45 1 is_stmt 0 view .LVU59
 271 0080 10B5     		push	{r4, lr}
 272              		.cfi_def_cfa_offset 8
 273              		.cfi_offset 4, -8
 274              		.cfi_offset 14, -4
  46:Lib/compute/pid/dynamic_pid.cpp ****     if (cfg == NULL)
 275              		.loc 1 46 5 is_stmt 1 view .LVU60
 276 0082 0029     		cmp	r1, #0
 277 0084 05D0     		beq	.L20
  47:Lib/compute/pid/dynamic_pid.cpp ****         return false;
  48:Lib/compute/pid/dynamic_pid.cpp **** 
  49:Lib/compute/pid/dynamic_pid.cpp ****     _poly_cfg = *cfg;
 278              		.loc 1 49 5 view .LVU61
 279              		.loc 1 49 15 is_stmt 0 view .LVU62
 280 0086 B830     		adds	r0, r0, #184
 281              	.LVL33:
 282              		.loc 1 49 15 view .LVU63
 283 0088 5822     		movs	r2, #88
 284 008a FFF7FEFF 		bl	memcpy
 285              	.LVL34:
  50:Lib/compute/pid/dynamic_pid.cpp **** 
  51:Lib/compute/pid/dynamic_pid.cpp ****     return true;
 286              		.loc 1 51 5 is_stmt 1 view .LVU64
 287              		.loc 1 51 12 is_stmt 0 view .LVU65
ARM GAS  /tmp/ccIUwdHo.s 			page 9


 288 008e 0120     		movs	r0, #1
 289              	.L19:
  52:Lib/compute/pid/dynamic_pid.cpp **** }
 290              		.loc 1 52 1 view .LVU66
 291              		@ sp needed
 292 0090 10BD     		pop	{r4, pc}
 293              	.LVL35:
 294              	.L20:
  47:Lib/compute/pid/dynamic_pid.cpp ****         return false;
 295              		.loc 1 47 16 view .LVU67
 296 0092 0020     		movs	r0, #0
 297              	.LVL36:
  47:Lib/compute/pid/dynamic_pid.cpp ****         return false;
 298              		.loc 1 47 16 view .LVU68
 299 0094 FCE7     		b	.L19
 300              		.cfi_endproc
 301              	.LFE1030:
 303              		.align	1
 304              		.global	_ZN10DynamicPID5resetEv
 305              		.syntax unified
 306              		.code	16
 307              		.thumb_func
 309              	_ZN10DynamicPID5resetEv:
 310              	.LVL37:
 311              	.LFB1033:
  53:Lib/compute/pid/dynamic_pid.cpp **** 
  54:Lib/compute/pid/dynamic_pid.cpp **** void DynamicPID::change_func_type(DPID_FuncType type)
  55:Lib/compute/pid/dynamic_pid.cpp **** {
  56:Lib/compute/pid/dynamic_pid.cpp ****     _func_type = type;
  57:Lib/compute/pid/dynamic_pid.cpp ****     reset();
  58:Lib/compute/pid/dynamic_pid.cpp **** }
  59:Lib/compute/pid/dynamic_pid.cpp **** 
  60:Lib/compute/pid/dynamic_pid.cpp **** float DynamicPID::update(float error, float nudge)
  61:Lib/compute/pid/dynamic_pid.cpp **** {
  62:Lib/compute/pid/dynamic_pid.cpp ****     _info.error = error;
  63:Lib/compute/pid/dynamic_pid.cpp ****     _info.nudge = nudge;
  64:Lib/compute/pid/dynamic_pid.cpp **** 
  65:Lib/compute/pid/dynamic_pid.cpp ****     _update_params();
  66:Lib/compute/pid/dynamic_pid.cpp **** 
  67:Lib/compute/pid/dynamic_pid.cpp ****     // Proportional term
  68:Lib/compute/pid/dynamic_pid.cpp ****     _info.P = _param.kp * error;
  69:Lib/compute/pid/dynamic_pid.cpp **** 
  70:Lib/compute/pid/dynamic_pid.cpp ****     // Integral term
  71:Lib/compute/pid/dynamic_pid.cpp ****     // _integral += error * _dt;
  72:Lib/compute/pid/dynamic_pid.cpp ****     _update_I();
  73:Lib/compute/pid/dynamic_pid.cpp **** 
  74:Lib/compute/pid/dynamic_pid.cpp ****     // Derivative term
  75:Lib/compute/pid/dynamic_pid.cpp ****     float derivative = (error - _info.prev_error) / _param.dt;
  76:Lib/compute/pid/dynamic_pid.cpp ****     _info.D = _param.kd * derivative;
  77:Lib/compute/pid/dynamic_pid.cpp **** 
  78:Lib/compute/pid/dynamic_pid.cpp ****     // Feedforward term
  79:Lib/compute/pid/dynamic_pid.cpp ****     _info.FF = _param.kff * (derivative + error);
  80:Lib/compute/pid/dynamic_pid.cpp **** 
  81:Lib/compute/pid/dynamic_pid.cpp ****     // Calculate output
  82:Lib/compute/pid/dynamic_pid.cpp ****     _info.output = _info.P + _info.I - _info.D + nudge;
  83:Lib/compute/pid/dynamic_pid.cpp **** 
  84:Lib/compute/pid/dynamic_pid.cpp ****     // Clamp output
ARM GAS  /tmp/ccIUwdHo.s 			page 10


  85:Lib/compute/pid/dynamic_pid.cpp ****     if (_info.output > _param.max)
  86:Lib/compute/pid/dynamic_pid.cpp ****         _info.output = _param.max;
  87:Lib/compute/pid/dynamic_pid.cpp ****     else if (_info.output < _param.min)
  88:Lib/compute/pid/dynamic_pid.cpp ****         _info.output = _param.min;
  89:Lib/compute/pid/dynamic_pid.cpp **** 
  90:Lib/compute/pid/dynamic_pid.cpp ****     // Save error to previous error
  91:Lib/compute/pid/dynamic_pid.cpp ****     _info.prev_error = error;
  92:Lib/compute/pid/dynamic_pid.cpp **** 
  93:Lib/compute/pid/dynamic_pid.cpp ****     return _info.output;
  94:Lib/compute/pid/dynamic_pid.cpp **** }
  95:Lib/compute/pid/dynamic_pid.cpp **** 
  96:Lib/compute/pid/dynamic_pid.cpp **** void DynamicPID::reset(void)
  97:Lib/compute/pid/dynamic_pid.cpp **** {
 312              		.loc 1 97 1 is_stmt 1 view -0
 313              		.cfi_startproc
 314              		@ args = 0, pretend = 0, frame = 0
 315              		@ frame_needed = 0, uses_anonymous_args = 0
 316              		.loc 1 97 1 is_stmt 0 view .LVU70
 317 0096 10B5     		push	{r4, lr}
 318              		.cfi_def_cfa_offset 8
 319              		.cfi_offset 4, -8
 320              		.cfi_offset 14, -4
  98:Lib/compute/pid/dynamic_pid.cpp ****     memset(&_info, 0, sizeof(_info));
 321              		.loc 1 98 5 is_stmt 1 view .LVU71
 322              		.loc 1 98 12 is_stmt 0 view .LVU72
 323 0098 3130     		adds	r0, r0, #49
 324              	.LVL38:
 325              		.loc 1 98 12 view .LVU73
 326 009a FF30     		adds	r0, r0, #255
 327              	.LVL39:
 328              		.loc 1 98 11 view .LVU74
 329 009c 2022     		movs	r2, #32
 330 009e 0021     		movs	r1, #0
 331 00a0 FFF7FEFF 		bl	memset
 332              	.LVL40:
  99:Lib/compute/pid/dynamic_pid.cpp ****     // _reset_I();
 100:Lib/compute/pid/dynamic_pid.cpp ****     // _info.prev_error = 0;
 101:Lib/compute/pid/dynamic_pid.cpp ****     // _info.P = _info.I = _info.D = _info.error = _info.nudge = _info.output = 0.0f;
 102:Lib/compute/pid/dynamic_pid.cpp **** }
 333              		.loc 1 102 1 view .LVU75
 334              		@ sp needed
 335 00a4 10BD     		pop	{r4, pc}
 336              		.cfi_endproc
 337              	.LFE1033:
 339              		.align	1
 340              		.global	_ZN10DynamicPID4initE13DPID_FuncType
 341              		.syntax unified
 342              		.code	16
 343              		.thumb_func
 345              	_ZN10DynamicPID4initE13DPID_FuncType:
 346              	.LVL41:
 347              	.LFB1026:
   6:Lib/compute/pid/dynamic_pid.cpp ****     _func_type = type;
 348              		.loc 1 6 1 is_stmt 1 view -0
 349              		.cfi_startproc
 350              		@ args = 0, pretend = 0, frame = 0
 351              		@ frame_needed = 0, uses_anonymous_args = 0
ARM GAS  /tmp/ccIUwdHo.s 			page 11


   6:Lib/compute/pid/dynamic_pid.cpp ****     _func_type = type;
 352              		.loc 1 6 1 is_stmt 0 view .LVU77
 353 00a6 10B5     		push	{r4, lr}
 354              		.cfi_def_cfa_offset 8
 355              		.cfi_offset 4, -8
 356              		.cfi_offset 14, -4
   7:Lib/compute/pid/dynamic_pid.cpp **** 
 357              		.loc 1 7 5 is_stmt 1 view .LVU78
   7:Lib/compute/pid/dynamic_pid.cpp **** 
 358              		.loc 1 7 16 is_stmt 0 view .LVU79
 359 00a8 0170     		strb	r1, [r0]
   9:Lib/compute/pid/dynamic_pid.cpp **** }
 360              		.loc 1 9 5 is_stmt 1 view .LVU80
   9:Lib/compute/pid/dynamic_pid.cpp **** }
 361              		.loc 1 9 10 is_stmt 0 view .LVU81
 362 00aa FFF7FEFF 		bl	_ZN10DynamicPID5resetEv
 363              	.LVL42:
  10:Lib/compute/pid/dynamic_pid.cpp **** 
 364              		.loc 1 10 1 view .LVU82
 365              		@ sp needed
 366 00ae 10BD     		pop	{r4, pc}
 367              		.cfi_endproc
 368              	.LFE1026:
 370              		.align	1
 371              		.global	_ZN10DynamicPID16change_func_typeE13DPID_FuncType
 372              		.syntax unified
 373              		.code	16
 374              		.thumb_func
 376              	_ZN10DynamicPID16change_func_typeE13DPID_FuncType:
 377              	.LVL43:
 378              	.LFB1031:
  55:Lib/compute/pid/dynamic_pid.cpp ****     _func_type = type;
 379              		.loc 1 55 1 is_stmt 1 view -0
 380              		.cfi_startproc
 381              		@ args = 0, pretend = 0, frame = 0
 382              		@ frame_needed = 0, uses_anonymous_args = 0
  55:Lib/compute/pid/dynamic_pid.cpp ****     _func_type = type;
 383              		.loc 1 55 1 is_stmt 0 view .LVU84
 384 00b0 10B5     		push	{r4, lr}
 385              		.cfi_def_cfa_offset 8
 386              		.cfi_offset 4, -8
 387              		.cfi_offset 14, -4
  56:Lib/compute/pid/dynamic_pid.cpp ****     reset();
 388              		.loc 1 56 5 is_stmt 1 view .LVU85
  56:Lib/compute/pid/dynamic_pid.cpp ****     reset();
 389              		.loc 1 56 16 is_stmt 0 view .LVU86
 390 00b2 0170     		strb	r1, [r0]
  57:Lib/compute/pid/dynamic_pid.cpp **** }
 391              		.loc 1 57 5 is_stmt 1 view .LVU87
  57:Lib/compute/pid/dynamic_pid.cpp **** }
 392              		.loc 1 57 10 is_stmt 0 view .LVU88
 393 00b4 FFF7FEFF 		bl	_ZN10DynamicPID5resetEv
 394              	.LVL44:
  58:Lib/compute/pid/dynamic_pid.cpp **** 
 395              		.loc 1 58 1 view .LVU89
 396              		@ sp needed
 397 00b8 10BD     		pop	{r4, pc}
ARM GAS  /tmp/ccIUwdHo.s 			page 12


 398              		.cfi_endproc
 399              	.LFE1031:
 401              		.align	1
 402              		.global	_ZN10DynamicPID9_update_IEv
 403              		.syntax unified
 404              		.code	16
 405              		.thumb_func
 407              	_ZN10DynamicPID9_update_IEv:
 408              	.LVL45:
 409              	.LFB1034:
 103:Lib/compute/pid/dynamic_pid.cpp **** 
 104:Lib/compute/pid/dynamic_pid.cpp **** void DynamicPID::_update_I(void)
 105:Lib/compute/pid/dynamic_pid.cpp **** {
 410              		.loc 1 105 1 is_stmt 1 view -0
 411              		.cfi_startproc
 412              		@ args = 0, pretend = 0, frame = 0
 413              		@ frame_needed = 0, uses_anonymous_args = 0
 414              		.loc 1 105 1 is_stmt 0 view .LVU91
 415 00ba F8B5     		push	{r3, r4, r5, r6, r7, lr}
 416              		.cfi_def_cfa_offset 24
 417              		.cfi_offset 3, -24
 418              		.cfi_offset 4, -20
 419              		.cfi_offset 5, -16
 420              		.cfi_offset 6, -12
 421              		.cfi_offset 7, -8
 422              		.cfi_offset 14, -4
 423 00bc 0400     		movs	r4, r0
 106:Lib/compute/pid/dynamic_pid.cpp ****     if ((_info.I > 0.0f && _info.error < 0.0f) ||
 424              		.loc 1 106 5 is_stmt 1 view .LVU92
 425              		.loc 1 106 16 is_stmt 0 view .LVU93
 426 00be A223     		movs	r3, #162
 427 00c0 5B00     		lsls	r3, r3, #1
 428 00c2 C558     		ldr	r5, [r0, r3]
 429              		.loc 1 106 5 view .LVU94
 430 00c4 0021     		movs	r1, #0
 431 00c6 281C     		adds	r0, r5, #0
 432              	.LVL46:
 433              		.loc 1 106 5 view .LVU95
 434 00c8 FFF7FEFF 		bl	__aeabi_fcmpgt
 435              	.LVL47:
 436 00cc 0028     		cmp	r0, #0
 437 00ce 07D0     		beq	.L25
 438              		.loc 1 106 34 discriminator 1 view .LVU96
 439 00d0 9A23     		movs	r3, #154
 440 00d2 5B00     		lsls	r3, r3, #1
 441 00d4 E058     		ldr	r0, [r4, r3]
 442              		.loc 1 106 25 discriminator 1 view .LVU97
 443 00d6 0021     		movs	r1, #0
 444 00d8 FFF7FEFF 		bl	__aeabi_fcmplt
 445              	.LVL48:
 446 00dc 0028     		cmp	r0, #0
 447 00de 39D1     		bne	.L27
 448              	.L25:
 107:Lib/compute/pid/dynamic_pid.cpp ****         (_info.error > 0.0f && _info.I < 0.0f))
 449              		.loc 1 107 16 view .LVU98
 450 00e0 9A23     		movs	r3, #154
 451 00e2 5B00     		lsls	r3, r3, #1
ARM GAS  /tmp/ccIUwdHo.s 			page 13


 452 00e4 E658     		ldr	r6, [r4, r3]
 106:Lib/compute/pid/dynamic_pid.cpp ****     if ((_info.I > 0.0f && _info.error < 0.0f) ||
 453              		.loc 1 106 48 discriminator 3 view .LVU99
 454 00e6 0021     		movs	r1, #0
 455 00e8 301C     		adds	r0, r6, #0
 456 00ea FFF7FEFF 		bl	__aeabi_fcmpgt
 457              	.LVL49:
 458 00ee 0028     		cmp	r0, #0
 459 00f0 05D0     		beq	.L28
 460              		.loc 1 107 29 view .LVU100
 461 00f2 0021     		movs	r1, #0
 462 00f4 281C     		adds	r0, r5, #0
 463 00f6 FFF7FEFF 		bl	__aeabi_fcmplt
 464              	.LVL50:
 465 00fa 0028     		cmp	r0, #0
 466 00fc 2AD1     		bne	.L27
 467              	.L28:
 108:Lib/compute/pid/dynamic_pid.cpp ****     {
 109:Lib/compute/pid/dynamic_pid.cpp ****         _info.I += _param.ki * _info.error * _param.dt * 1.4f;
 110:Lib/compute/pid/dynamic_pid.cpp ****     }
 111:Lib/compute/pid/dynamic_pid.cpp ****     else
 112:Lib/compute/pid/dynamic_pid.cpp ****     {
 113:Lib/compute/pid/dynamic_pid.cpp ****         _info.I += _param.ki * _info.error * _param.dt;
 468              		.loc 1 113 9 is_stmt 1 view .LVU101
 469              		.loc 1 113 27 is_stmt 0 view .LVU102
 470 00fe 8A23     		movs	r3, #138
 471 0100 5B00     		lsls	r3, r3, #1
 472 0102 E158     		ldr	r1, [r4, r3]
 473              		.loc 1 113 30 view .LVU103
 474 0104 301C     		adds	r0, r6, #0
 475 0106 FFF7FEFF 		bl	__aeabi_fmul
 476              	.LVL51:
 477              		.loc 1 113 53 view .LVU104
 478 010a 8E23     		movs	r3, #142
 479 010c 5B00     		lsls	r3, r3, #1
 480 010e E158     		ldr	r1, [r4, r3]
 481              		.loc 1 113 44 view .LVU105
 482 0110 FFF7FEFF 		bl	__aeabi_fmul
 483              	.LVL52:
 484 0114 011C     		adds	r1, r0, #0
 485              		.loc 1 113 17 view .LVU106
 486 0116 281C     		adds	r0, r5, #0
 487 0118 FFF7FEFF 		bl	__aeabi_fadd
 488              	.LVL53:
 489 011c A223     		movs	r3, #162
 490 011e 5B00     		lsls	r3, r3, #1
 491 0120 E050     		str	r0, [r4, r3]
 492              	.L31:
 114:Lib/compute/pid/dynamic_pid.cpp ****     }
 115:Lib/compute/pid/dynamic_pid.cpp ****     _info.I = constraint_value(_info.I, -_param.i_max, _param.i_max);
 493              		.loc 1 115 5 is_stmt 1 view .LVU107
 494              		.loc 1 115 15 is_stmt 0 view .LVU108
 495 0122 A223     		movs	r3, #162
 496 0124 5B00     		lsls	r3, r3, #1
 497 0126 E658     		ldr	r6, [r4, r3]
 498 0128 1C3B     		subs	r3, r3, #28
 499 012a E758     		ldr	r7, [r4, r3]
ARM GAS  /tmp/ccIUwdHo.s 			page 14


 500 012c 8023     		movs	r3, #128
 501 012e 1B06     		lsls	r3, r3, #24
 502 0130 FD18     		adds	r5, r7, r3
 503 0132 291C     		adds	r1, r5, #0
 504 0134 301C     		adds	r0, r6, #0
 505 0136 FFF7FEFF 		bl	__aeabi_fcmplt
 506              	.LVL54:
 507 013a 0028     		cmp	r0, #0
 508 013c 06D1     		bne	.L32
 509              		.loc 1 115 15 discriminator 2 view .LVU109
 510 013e 391C     		adds	r1, r7, #0
 511 0140 301C     		adds	r0, r6, #0
 512 0142 FFF7FEFF 		bl	__aeabi_fcmpgt
 513              	.LVL55:
 514 0146 0028     		cmp	r0, #0
 515 0148 1BD0     		beq	.L38
 516              		.loc 1 115 15 discriminator 4 view .LVU110
 517 014a 3D1C     		adds	r5, r7, #0
 518              	.L32:
 519              		.loc 1 115 13 discriminator 8 view .LVU111
 520 014c A223     		movs	r3, #162
 521 014e 5B00     		lsls	r3, r3, #1
 522 0150 E550     		str	r5, [r4, r3]
 116:Lib/compute/pid/dynamic_pid.cpp **** }
 523              		.loc 1 116 1 view .LVU112
 524              		@ sp needed
 525              	.LVL56:
 526              		.loc 1 116 1 view .LVU113
 527 0152 F8BD     		pop	{r3, r4, r5, r6, r7, pc}
 528              	.LVL57:
 529              	.L27:
 109:Lib/compute/pid/dynamic_pid.cpp ****     }
 530              		.loc 1 109 9 is_stmt 1 view .LVU114
 109:Lib/compute/pid/dynamic_pid.cpp ****     }
 531              		.loc 1 109 27 is_stmt 0 view .LVU115
 532 0154 8A23     		movs	r3, #138
 533 0156 5B00     		lsls	r3, r3, #1
 534 0158 E058     		ldr	r0, [r4, r3]
 109:Lib/compute/pid/dynamic_pid.cpp ****     }
 535              		.loc 1 109 38 view .LVU116
 536 015a 2033     		adds	r3, r3, #32
 537 015c E158     		ldr	r1, [r4, r3]
 109:Lib/compute/pid/dynamic_pid.cpp ****     }
 538              		.loc 1 109 30 view .LVU117
 539 015e FFF7FEFF 		bl	__aeabi_fmul
 540              	.LVL58:
 109:Lib/compute/pid/dynamic_pid.cpp ****     }
 541              		.loc 1 109 53 view .LVU118
 542 0162 8E23     		movs	r3, #142
 543 0164 5B00     		lsls	r3, r3, #1
 544 0166 E158     		ldr	r1, [r4, r3]
 109:Lib/compute/pid/dynamic_pid.cpp ****     }
 545              		.loc 1 109 44 view .LVU119
 546 0168 FFF7FEFF 		bl	__aeabi_fmul
 547              	.LVL59:
 109:Lib/compute/pid/dynamic_pid.cpp ****     }
 548              		.loc 1 109 56 view .LVU120
ARM GAS  /tmp/ccIUwdHo.s 			page 15


 549 016c 0649     		ldr	r1, .L39
 550 016e FFF7FEFF 		bl	__aeabi_fmul
 551              	.LVL60:
 552 0172 011C     		adds	r1, r0, #0
 109:Lib/compute/pid/dynamic_pid.cpp ****     }
 553              		.loc 1 109 17 view .LVU121
 554 0174 281C     		adds	r0, r5, #0
 555 0176 FFF7FEFF 		bl	__aeabi_fadd
 556              	.LVL61:
 557 017a A223     		movs	r3, #162
 558 017c 5B00     		lsls	r3, r3, #1
 559 017e E050     		str	r0, [r4, r3]
 560 0180 CFE7     		b	.L31
 561              	.L38:
 115:Lib/compute/pid/dynamic_pid.cpp **** }
 562              		.loc 1 115 15 discriminator 5 view .LVU122
 563 0182 351C     		adds	r5, r6, #0
 564 0184 E2E7     		b	.L32
 565              	.L40:
 566 0186 C046     		.align	2
 567              	.L39:
 568 0188 3333B33F 		.word	1068708659
 569              		.cfi_endproc
 570              	.LFE1034:
 572              		.align	1
 573              		.global	_ZN10DynamicPID8_reset_IEv
 574              		.syntax unified
 575              		.code	16
 576              		.thumb_func
 578              	_ZN10DynamicPID8_reset_IEv:
 579              	.LVL62:
 580              	.LFB1035:
 117:Lib/compute/pid/dynamic_pid.cpp **** 
 118:Lib/compute/pid/dynamic_pid.cpp **** void DynamicPID::_reset_I(void)
 119:Lib/compute/pid/dynamic_pid.cpp **** {
 581              		.loc 1 119 1 is_stmt 1 view -0
 582              		.cfi_startproc
 583              		@ args = 0, pretend = 0, frame = 0
 584              		@ frame_needed = 0, uses_anonymous_args = 0
 585              		@ link register save eliminated.
 120:Lib/compute/pid/dynamic_pid.cpp ****     _info.I = 0.0f;
 586              		.loc 1 120 5 view .LVU124
 587              		.loc 1 120 13 is_stmt 0 view .LVU125
 588 018c A223     		movs	r3, #162
 589 018e 5B00     		lsls	r3, r3, #1
 590 0190 0022     		movs	r2, #0
 591 0192 C250     		str	r2, [r0, r3]
 121:Lib/compute/pid/dynamic_pid.cpp **** }
 592              		.loc 1 121 1 view .LVU126
 593              		@ sp needed
 594 0194 7047     		bx	lr
 595              		.cfi_endproc
 596              	.LFE1035:
 598              		.align	1
 599              		.global	_ZN10DynamicPID29_update_params_by_common_funcEv
 600              		.syntax unified
 601              		.code	16
ARM GAS  /tmp/ccIUwdHo.s 			page 16


 602              		.thumb_func
 604              	_ZN10DynamicPID29_update_params_by_common_funcEv:
 605              	.LVL63:
 606              	.LFB1037:
 122:Lib/compute/pid/dynamic_pid.cpp **** 
 123:Lib/compute/pid/dynamic_pid.cpp **** void DynamicPID::_update_params(void)
 124:Lib/compute/pid/dynamic_pid.cpp **** {
 125:Lib/compute/pid/dynamic_pid.cpp ****     switch (_func_type)
 126:Lib/compute/pid/dynamic_pid.cpp ****     {
 127:Lib/compute/pid/dynamic_pid.cpp ****     case DPID_FuncType::COMMON:
 128:Lib/compute/pid/dynamic_pid.cpp ****         _update_params_by_common_func();
 129:Lib/compute/pid/dynamic_pid.cpp ****         break;
 130:Lib/compute/pid/dynamic_pid.cpp ****     case DPID_FuncType::STEP:
 131:Lib/compute/pid/dynamic_pid.cpp ****         _update_params_by_step_func();
 132:Lib/compute/pid/dynamic_pid.cpp ****         break;
 133:Lib/compute/pid/dynamic_pid.cpp ****     case DPID_FuncType::SLOPE:
 134:Lib/compute/pid/dynamic_pid.cpp ****         _update_params_by_slope_func();
 135:Lib/compute/pid/dynamic_pid.cpp ****         break;
 136:Lib/compute/pid/dynamic_pid.cpp ****     case DPID_FuncType::POLY:
 137:Lib/compute/pid/dynamic_pid.cpp ****         _update_params_by_poly_func();
 138:Lib/compute/pid/dynamic_pid.cpp ****         break;
 139:Lib/compute/pid/dynamic_pid.cpp ****     default:
 140:Lib/compute/pid/dynamic_pid.cpp ****         break;
 141:Lib/compute/pid/dynamic_pid.cpp ****     }
 142:Lib/compute/pid/dynamic_pid.cpp **** }
 143:Lib/compute/pid/dynamic_pid.cpp **** 
 144:Lib/compute/pid/dynamic_pid.cpp **** void DynamicPID::_update_params_by_common_func(void)
 145:Lib/compute/pid/dynamic_pid.cpp **** {
 607              		.loc 1 145 1 is_stmt 1 view -0
 608              		.cfi_startproc
 609              		@ args = 0, pretend = 0, frame = 0
 610              		@ frame_needed = 0, uses_anonymous_args = 0
 611              		@ link register save eliminated.
 146:Lib/compute/pid/dynamic_pid.cpp ****     _param.kp = _common_cfg.param.kp;
 612              		.loc 1 146 5 view .LVU128
 613              		.loc 1 146 35 is_stmt 0 view .LVU129
 614 0196 C268     		ldr	r2, [r0, #12]
 615              		.loc 1 146 15 view .LVU130
 616 0198 8823     		movs	r3, #136
 617 019a 5B00     		lsls	r3, r3, #1
 618 019c C250     		str	r2, [r0, r3]
 147:Lib/compute/pid/dynamic_pid.cpp ****     _param.ki = _common_cfg.param.ki;
 619              		.loc 1 147 5 is_stmt 1 view .LVU131
 620              		.loc 1 147 35 is_stmt 0 view .LVU132
 621 019e 0269     		ldr	r2, [r0, #16]
 622              		.loc 1 147 15 view .LVU133
 623 01a0 0433     		adds	r3, r3, #4
 624 01a2 C250     		str	r2, [r0, r3]
 148:Lib/compute/pid/dynamic_pid.cpp ****     _param.kd = _common_cfg.param.kd;
 625              		.loc 1 148 5 is_stmt 1 view .LVU134
 626              		.loc 1 148 35 is_stmt 0 view .LVU135
 627 01a4 4269     		ldr	r2, [r0, #20]
 628              		.loc 1 148 15 view .LVU136
 629 01a6 0433     		adds	r3, r3, #4
 630 01a8 C250     		str	r2, [r0, r3]
 149:Lib/compute/pid/dynamic_pid.cpp **** }
 631              		.loc 1 149 1 view .LVU137
ARM GAS  /tmp/ccIUwdHo.s 			page 17


 632              		@ sp needed
 633 01aa 7047     		bx	lr
 634              		.cfi_endproc
 635              	.LFE1037:
 637              		.align	1
 638              		.global	_ZN10DynamicPID27_update_params_by_step_funcEv
 639              		.syntax unified
 640              		.code	16
 641              		.thumb_func
 643              	_ZN10DynamicPID27_update_params_by_step_funcEv:
 644              	.LVL64:
 645              	.LFB1038:
 150:Lib/compute/pid/dynamic_pid.cpp **** 
 151:Lib/compute/pid/dynamic_pid.cpp **** void DynamicPID::_update_params_by_step_func(void)
 152:Lib/compute/pid/dynamic_pid.cpp **** {
 646              		.loc 1 152 1 is_stmt 1 view -0
 647              		.cfi_startproc
 648              		@ args = 0, pretend = 0, frame = 0
 649              		@ frame_needed = 0, uses_anonymous_args = 0
 650              		.loc 1 152 1 is_stmt 0 view .LVU139
 651 01ac 70B5     		push	{r4, r5, r6, lr}
 652              		.cfi_def_cfa_offset 16
 653              		.cfi_offset 4, -16
 654              		.cfi_offset 5, -12
 655              		.cfi_offset 6, -8
 656              		.cfi_offset 14, -4
 657 01ae 0500     		movs	r5, r0
 153:Lib/compute/pid/dynamic_pid.cpp ****     float deter_val;
 658              		.loc 1 153 5 is_stmt 1 view .LVU140
 154:Lib/compute/pid/dynamic_pid.cpp **** 
 155:Lib/compute/pid/dynamic_pid.cpp ****     _param.dt = _step_cfg.dt;
 659              		.loc 1 155 5 view .LVU141
 660              		.loc 1 155 27 is_stmt 0 view .LVU142
 661 01b0 A423     		movs	r3, #164
 662 01b2 C258     		ldr	r2, [r0, r3]
 663              		.loc 1 155 15 view .LVU143
 664 01b4 7833     		adds	r3, r3, #120
 665 01b6 C250     		str	r2, [r0, r3]
 156:Lib/compute/pid/dynamic_pid.cpp ****     _param.max = _step_cfg.max;
 666              		.loc 1 156 5 is_stmt 1 view .LVU144
 667              		.loc 1 156 28 is_stmt 0 view .LVU145
 668 01b8 703B     		subs	r3, r3, #112
 669 01ba C258     		ldr	r2, [r0, r3]
 670              		.loc 1 156 16 view .LVU146
 671 01bc 7433     		adds	r3, r3, #116
 672 01be C250     		str	r2, [r0, r3]
 157:Lib/compute/pid/dynamic_pid.cpp ****     _param.min = _step_cfg.min;
 673              		.loc 1 157 5 is_stmt 1 view .LVU147
 674              		.loc 1 157 28 is_stmt 0 view .LVU148
 675 01c0 783B     		subs	r3, r3, #120
 676 01c2 C258     		ldr	r2, [r0, r3]
 677              		.loc 1 157 16 view .LVU149
 678 01c4 7C33     		adds	r3, r3, #124
 679 01c6 C250     		str	r2, [r0, r3]
 158:Lib/compute/pid/dynamic_pid.cpp ****     _param.i_max = _step_cfg.i_max;
 680              		.loc 1 158 5 is_stmt 1 view .LVU150
 681              		.loc 1 158 30 is_stmt 0 view .LVU151
ARM GAS  /tmp/ccIUwdHo.s 			page 18


 682 01c8 743B     		subs	r3, r3, #116
 683 01ca C258     		ldr	r2, [r0, r3]
 684              		.loc 1 158 18 view .LVU152
 685 01cc 7833     		adds	r3, r3, #120
 686 01ce C250     		str	r2, [r0, r3]
 159:Lib/compute/pid/dynamic_pid.cpp **** 
 160:Lib/compute/pid/dynamic_pid.cpp ****     deter_val = (_determinant == NULL) ? (_info.error) : (*_determinant);
 687              		.loc 1 160 5 is_stmt 1 view .LVU153
 688              		.loc 1 160 18 is_stmt 0 view .LVU154
 689 01d0 4368     		ldr	r3, [r0, #4]
 690              		.loc 1 160 40 view .LVU155
 691 01d2 002B     		cmp	r3, #0
 692 01d4 0BD0     		beq	.L55
 693              		.loc 1 160 40 discriminator 2 view .LVU156
 694 01d6 1E68     		ldr	r6, [r3]
 695              	.L45:
 696              	.LVL65:
 161:Lib/compute/pid/dynamic_pid.cpp **** 
 162:Lib/compute/pid/dynamic_pid.cpp ****     if (_absolute)
 697              		.loc 1 162 5 is_stmt 1 view .LVU157
 698              		.loc 1 162 9 is_stmt 0 view .LVU158
 699 01d8 2B7A     		ldrb	r3, [r5, #8]
 700              		.loc 1 162 5 view .LVU159
 701 01da 002B     		cmp	r3, #0
 702 01dc 05D0     		beq	.L46
 163:Lib/compute/pid/dynamic_pid.cpp ****     {
 164:Lib/compute/pid/dynamic_pid.cpp ****         deter_val = (deter_val >= 0.0f) ? (deter_val) : (-deter_val);
 703              		.loc 1 164 9 is_stmt 1 view .LVU160
 704              		.loc 1 164 41 is_stmt 0 view .LVU161
 705 01de 0021     		movs	r1, #0
 706 01e0 301C     		adds	r0, r6, #0
 707              	.LVL66:
 708              		.loc 1 164 41 view .LVU162
 709 01e2 FFF7FEFF 		bl	__aeabi_fcmpge
 710              	.LVL67:
 711 01e6 0028     		cmp	r0, #0
 712 01e8 05D0     		beq	.L56
 713              	.LVL68:
 714              	.L46:
 165:Lib/compute/pid/dynamic_pid.cpp ****     }
 166:Lib/compute/pid/dynamic_pid.cpp **** 
 167:Lib/compute/pid/dynamic_pid.cpp ****     for (int i = 0; i < _step_cfg.param_num; i++)
 715              		.loc 1 167 5 is_stmt 1 view .LVU163
 716              	.LBB3:
 717              		.loc 1 167 14 is_stmt 0 view .LVU164
 718 01ea 0024     		movs	r4, #0
 719              		.loc 1 167 5 view .LVU165
 720 01ec 09E0     		b	.L47
 721              	.LVL69:
 722              	.L55:
 723              		.loc 1 167 5 view .LVU166
 724              	.LBE3:
 160:Lib/compute/pid/dynamic_pid.cpp **** 
 725              		.loc 1 160 40 discriminator 1 view .LVU167
 726 01ee 3533     		adds	r3, r3, #53
 727 01f0 FF33     		adds	r3, r3, #255
 728 01f2 C658     		ldr	r6, [r0, r3]
ARM GAS  /tmp/ccIUwdHo.s 			page 19


 729 01f4 F0E7     		b	.L45
 730              	.LVL70:
 731              	.L56:
 164:Lib/compute/pid/dynamic_pid.cpp ****     }
 732              		.loc 1 164 41 discriminator 2 view .LVU168
 733 01f6 8023     		movs	r3, #128
 734 01f8 1B06     		lsls	r3, r3, #24
 735 01fa 9C46     		mov	ip, r3
 736 01fc 6644     		add	r6, r6, ip
 737              	.LVL71:
 164:Lib/compute/pid/dynamic_pid.cpp ****     }
 738              		.loc 1 164 41 discriminator 2 view .LVU169
 739 01fe F4E7     		b	.L46
 740              	.LVL72:
 741              	.L48:
 742              	.LBB4:
 743              		.loc 1 167 5 is_stmt 1 discriminator 2 view .LVU170
 744 0200 0134     		adds	r4, r4, #1
 745              	.LVL73:
 746              	.L47:
 747              		.loc 1 167 23 discriminator 1 view .LVU171
 748              		.loc 1 167 35 is_stmt 0 discriminator 1 view .LVU172
 749 0202 A023     		movs	r3, #160
 750 0204 EB58     		ldr	r3, [r5, r3]
 751              		.loc 1 167 23 discriminator 1 view .LVU173
 752 0206 A342     		cmp	r3, r4
 753 0208 27DD     		ble	.L57
 168:Lib/compute/pid/dynamic_pid.cpp ****     {
 169:Lib/compute/pid/dynamic_pid.cpp ****         if ((deter_val >= _step_cfg.param[i].min_error) &&
 754              		.loc 1 169 9 is_stmt 1 view .LVU174
 755              		.loc 1 169 46 is_stmt 0 view .LVU175
 756 020a A300     		lsls	r3, r4, #2
 757 020c 1B19     		adds	r3, r3, r4
 758 020e 9B00     		lsls	r3, r3, #2
 759 0210 EB18     		adds	r3, r5, r3
 760 0212 D86B     		ldr	r0, [r3, #60]
 761              		.loc 1 169 9 view .LVU176
 762 0214 311C     		adds	r1, r6, #0
 763 0216 FFF7FEFF 		bl	__aeabi_fcmple
 764              	.LVL74:
 765 021a 0028     		cmp	r0, #0
 766 021c F0D0     		beq	.L48
 170:Lib/compute/pid/dynamic_pid.cpp ****             (deter_val < _step_cfg.param[i].max_error))
 767              		.loc 1 170 45 view .LVU177
 768 021e A300     		lsls	r3, r4, #2
 769 0220 1B19     		adds	r3, r3, r4
 770 0222 9B00     		lsls	r3, r3, #2
 771 0224 EB18     		adds	r3, r5, r3
 772 0226 186C     		ldr	r0, [r3, #64]
 169:Lib/compute/pid/dynamic_pid.cpp ****             (deter_val < _step_cfg.param[i].max_error))
 773              		.loc 1 169 57 discriminator 1 view .LVU178
 774 0228 311C     		adds	r1, r6, #0
 775 022a FFF7FEFF 		bl	__aeabi_fcmpgt
 776              	.LVL75:
 777 022e 0028     		cmp	r0, #0
 778 0230 E6D0     		beq	.L48
 171:Lib/compute/pid/dynamic_pid.cpp ****         {
ARM GAS  /tmp/ccIUwdHo.s 			page 20


 172:Lib/compute/pid/dynamic_pid.cpp ****             _param.kp = _step_cfg.param[i].kp;
 779              		.loc 1 172 13 is_stmt 1 view .LVU179
 780              		.loc 1 172 44 is_stmt 0 view .LVU180
 781 0232 A300     		lsls	r3, r4, #2
 782 0234 1A19     		adds	r2, r3, r4
 783 0236 9200     		lsls	r2, r2, #2
 784 0238 AA18     		adds	r2, r5, r2
 785 023a 506C     		ldr	r0, [r2, #68]
 786              		.loc 1 172 23 view .LVU181
 787 023c 8821     		movs	r1, #136
 788 023e 4900     		lsls	r1, r1, #1
 789 0240 6850     		str	r0, [r5, r1]
 173:Lib/compute/pid/dynamic_pid.cpp ****             _param.ki = _step_cfg.param[i].ki;
 790              		.loc 1 173 13 is_stmt 1 view .LVU182
 791              		.loc 1 173 44 is_stmt 0 view .LVU183
 792 0242 916C     		ldr	r1, [r2, #72]
 793              		.loc 1 173 23 view .LVU184
 794 0244 8A22     		movs	r2, #138
 795 0246 5200     		lsls	r2, r2, #1
 796 0248 A950     		str	r1, [r5, r2]
 174:Lib/compute/pid/dynamic_pid.cpp ****             _param.kd = _step_cfg.param[i].kd;
 797              		.loc 1 174 13 is_stmt 1 view .LVU185
 798              		.loc 1 174 44 is_stmt 0 view .LVU186
 799 024a 1B19     		adds	r3, r3, r4
 800 024c 9B00     		lsls	r3, r3, #2
 801 024e EB18     		adds	r3, r5, r3
 802 0250 DA6C     		ldr	r2, [r3, #76]
 803              		.loc 1 174 23 view .LVU187
 804 0252 8C23     		movs	r3, #140
 805 0254 5B00     		lsls	r3, r3, #1
 806 0256 EA50     		str	r2, [r5, r3]
 175:Lib/compute/pid/dynamic_pid.cpp ****             return;
 807              		.loc 1 175 13 is_stmt 1 view .LVU188
 808 0258 09E0     		b	.L43
 809              	.L57:
 810              		.loc 1 175 13 is_stmt 0 view .LVU189
 811              	.LBE4:
 176:Lib/compute/pid/dynamic_pid.cpp ****         }
 177:Lib/compute/pid/dynamic_pid.cpp ****     }
 178:Lib/compute/pid/dynamic_pid.cpp **** 
 179:Lib/compute/pid/dynamic_pid.cpp ****     _param.kp = _step_cfg.default_param.kp;
 812              		.loc 1 179 5 is_stmt 1 view .LVU190
 813              		.loc 1 179 41 is_stmt 0 view .LVU191
 814 025a 2A6B     		ldr	r2, [r5, #48]
 815              		.loc 1 179 15 view .LVU192
 816 025c 8823     		movs	r3, #136
 817 025e 5B00     		lsls	r3, r3, #1
 818 0260 EA50     		str	r2, [r5, r3]
 180:Lib/compute/pid/dynamic_pid.cpp ****     _param.ki = _step_cfg.default_param.ki;
 819              		.loc 1 180 5 is_stmt 1 view .LVU193
 820              		.loc 1 180 41 is_stmt 0 view .LVU194
 821 0262 6A6B     		ldr	r2, [r5, #52]
 822              		.loc 1 180 15 view .LVU195
 823 0264 0433     		adds	r3, r3, #4
 824 0266 EA50     		str	r2, [r5, r3]
 181:Lib/compute/pid/dynamic_pid.cpp ****     _param.kd = _step_cfg.default_param.kd;
 825              		.loc 1 181 5 is_stmt 1 view .LVU196
ARM GAS  /tmp/ccIUwdHo.s 			page 21


 826              		.loc 1 181 41 is_stmt 0 view .LVU197
 827 0268 AA6B     		ldr	r2, [r5, #56]
 828              		.loc 1 181 15 view .LVU198
 829 026a 0433     		adds	r3, r3, #4
 830 026c EA50     		str	r2, [r5, r3]
 831              	.L43:
 182:Lib/compute/pid/dynamic_pid.cpp **** }
 832              		.loc 1 182 1 view .LVU199
 833              		@ sp needed
 834              	.LVL76:
 835              	.LVL77:
 836              	.LVL78:
 837              		.loc 1 182 1 view .LVU200
 838 026e 70BD     		pop	{r4, r5, r6, pc}
 839              		.cfi_endproc
 840              	.LFE1038:
 842              		.align	1
 843              		.global	_ZN10DynamicPID28_update_params_by_slope_funcEv
 844              		.syntax unified
 845              		.code	16
 846              		.thumb_func
 848              	_ZN10DynamicPID28_update_params_by_slope_funcEv:
 849              	.LVL79:
 850              	.LFB1039:
 183:Lib/compute/pid/dynamic_pid.cpp **** 
 184:Lib/compute/pid/dynamic_pid.cpp **** void DynamicPID::_update_params_by_slope_func(void)
 185:Lib/compute/pid/dynamic_pid.cpp **** {
 851              		.loc 1 185 1 is_stmt 1 view -0
 852              		.cfi_startproc
 853              		@ args = 0, pretend = 0, frame = 0
 854              		@ frame_needed = 0, uses_anonymous_args = 0
 855              		@ link register save eliminated.
 186:Lib/compute/pid/dynamic_pid.cpp **** }
 856              		.loc 1 186 1 is_stmt 0 view .LVU202
 857              		@ sp needed
 858 0270 7047     		bx	lr
 859              		.cfi_endproc
 860              	.LFE1039:
 862              		.align	1
 863              		.global	_ZN10DynamicPID27_update_params_by_poly_funcEv
 864              		.syntax unified
 865              		.code	16
 866              		.thumb_func
 868              	_ZN10DynamicPID27_update_params_by_poly_funcEv:
 869              	.LVL80:
 870              	.LFB1040:
 187:Lib/compute/pid/dynamic_pid.cpp **** 
 188:Lib/compute/pid/dynamic_pid.cpp **** void DynamicPID::_update_params_by_poly_func(void)
 189:Lib/compute/pid/dynamic_pid.cpp **** {
 871              		.loc 1 189 1 is_stmt 1 view -0
 872              		.cfi_startproc
 873              		@ args = 0, pretend = 0, frame = 0
 874              		@ frame_needed = 0, uses_anonymous_args = 0
 875              		.loc 1 189 1 is_stmt 0 view .LVU204
 876 0272 70B5     		push	{r4, r5, r6, lr}
 877              		.cfi_def_cfa_offset 16
 878              		.cfi_offset 4, -16
ARM GAS  /tmp/ccIUwdHo.s 			page 22


 879              		.cfi_offset 5, -12
 880              		.cfi_offset 6, -8
 881              		.cfi_offset 14, -4
 882 0274 0400     		movs	r4, r0
 190:Lib/compute/pid/dynamic_pid.cpp ****     // _param.kp = polynomial(_info.error, _poly_coef[0], _poly_n[0]);
 191:Lib/compute/pid/dynamic_pid.cpp ****     // _param.ki = polynomial(_info.error, _poly_coef[1], _poly_n[1]);
 192:Lib/compute/pid/dynamic_pid.cpp ****     // _param.kd = polynomial(_info.error, _poly_coef[2], _poly_n[2]);
 193:Lib/compute/pid/dynamic_pid.cpp ****     _param.kp = polynomial(_info.error, _poly_cfg.coef_kp.coef, _poly_cfg.coef_kp.num);
 883              		.loc 1 193 5 is_stmt 1 view .LVU205
 884              		.loc 1 193 27 is_stmt 0 view .LVU206
 885 0276 9A23     		movs	r3, #154
 886 0278 5B00     		lsls	r3, r3, #1
 887 027a C558     		ldr	r5, [r0, r3]
 888              		.loc 1 193 59 view .LVU207
 889 027c 0100     		movs	r1, r0
 890 027e B831     		adds	r1, r1, #184
 891              		.loc 1 193 83 view .LVU208
 892 0280 683B     		subs	r3, r3, #104
 893 0282 C25C     		ldrb	r2, [r0, r3]
 894              		.loc 1 193 27 view .LVU209
 895 0284 281C     		adds	r0, r5, #0
 896              	.LVL81:
 897              		.loc 1 193 27 view .LVU210
 898 0286 FFF7BBFE 		bl	_ZL10polynomialfPft
 899              	.LVL82:
 900              		.loc 1 193 15 discriminator 1 view .LVU211
 901 028a 8823     		movs	r3, #136
 902 028c 5B00     		lsls	r3, r3, #1
 903 028e E050     		str	r0, [r4, r3]
 194:Lib/compute/pid/dynamic_pid.cpp ****     _param.ki = polynomial(_info.error, _poly_cfg.coef_ki.coef, _poly_cfg.coef_ki.num);
 904              		.loc 1 194 5 is_stmt 1 view .LVU212
 905              		.loc 1 194 59 is_stmt 0 view .LVU213
 906 0290 2100     		movs	r1, r4
 907 0292 D031     		adds	r1, r1, #208
 908              		.loc 1 194 83 view .LVU214
 909 0294 2C3B     		subs	r3, r3, #44
 910 0296 E25C     		ldrb	r2, [r4, r3]
 911              		.loc 1 194 27 view .LVU215
 912 0298 281C     		adds	r0, r5, #0
 913 029a FFF7B1FE 		bl	_ZL10polynomialfPft
 914              	.LVL83:
 915              		.loc 1 194 15 discriminator 1 view .LVU216
 916 029e 8A23     		movs	r3, #138
 917 02a0 5B00     		lsls	r3, r3, #1
 918 02a2 E050     		str	r0, [r4, r3]
 195:Lib/compute/pid/dynamic_pid.cpp ****     _param.kd = polynomial(_info.error, _poly_cfg.coef_kd.coef, _poly_cfg.coef_kd.num);
 919              		.loc 1 195 5 is_stmt 1 view .LVU217
 920              		.loc 1 195 59 is_stmt 0 view .LVU218
 921 02a4 2100     		movs	r1, r4
 922 02a6 E831     		adds	r1, r1, #232
 923              		.loc 1 195 83 view .LVU219
 924 02a8 183B     		subs	r3, r3, #24
 925 02aa E25C     		ldrb	r2, [r4, r3]
 926              		.loc 1 195 27 view .LVU220
 927 02ac 281C     		adds	r0, r5, #0
 928 02ae FFF7A7FE 		bl	_ZL10polynomialfPft
 929              	.LVL84:
ARM GAS  /tmp/ccIUwdHo.s 			page 23


 930              		.loc 1 195 15 discriminator 1 view .LVU221
 931 02b2 8C23     		movs	r3, #140
 932 02b4 5B00     		lsls	r3, r3, #1
 933 02b6 E050     		str	r0, [r4, r3]
 196:Lib/compute/pid/dynamic_pid.cpp **** }
 934              		.loc 1 196 1 view .LVU222
 935              		@ sp needed
 936              	.LVL85:
 937              		.loc 1 196 1 view .LVU223
 938 02b8 70BD     		pop	{r4, r5, r6, pc}
 939              		.cfi_endproc
 940              	.LFE1040:
 942              		.align	1
 943              		.global	_ZN10DynamicPID14_update_paramsEv
 944              		.syntax unified
 945              		.code	16
 946              		.thumb_func
 948              	_ZN10DynamicPID14_update_paramsEv:
 949              	.LVL86:
 950              	.LFB1036:
 124:Lib/compute/pid/dynamic_pid.cpp ****     switch (_func_type)
 951              		.loc 1 124 1 is_stmt 1 view -0
 952              		.cfi_startproc
 953              		@ args = 0, pretend = 0, frame = 0
 954              		@ frame_needed = 0, uses_anonymous_args = 0
 124:Lib/compute/pid/dynamic_pid.cpp ****     switch (_func_type)
 955              		.loc 1 124 1 is_stmt 0 view .LVU225
 956 02ba 10B5     		push	{r4, lr}
 957              		.cfi_def_cfa_offset 8
 958              		.cfi_offset 4, -8
 959              		.cfi_offset 14, -4
 125:Lib/compute/pid/dynamic_pid.cpp ****     {
 960              		.loc 1 125 5 is_stmt 1 view .LVU226
 125:Lib/compute/pid/dynamic_pid.cpp ****     {
 961              		.loc 1 125 13 is_stmt 0 view .LVU227
 962 02bc 0378     		ldrb	r3, [r0]
 125:Lib/compute/pid/dynamic_pid.cpp ****     {
 963              		.loc 1 125 5 view .LVU228
 964 02be 012B     		cmp	r3, #1
 965 02c0 09D0     		beq	.L61
 966 02c2 022B     		cmp	r3, #2
 967 02c4 04D0     		beq	.L62
 968 02c6 002B     		cmp	r3, #0
 969 02c8 01D1     		bne	.L60
 127:Lib/compute/pid/dynamic_pid.cpp ****         _update_params_by_common_func();
 970              		.loc 1 127 5 is_stmt 1 view .LVU229
 128:Lib/compute/pid/dynamic_pid.cpp ****         break;
 971              		.loc 1 128 9 view .LVU230
 128:Lib/compute/pid/dynamic_pid.cpp ****         break;
 972              		.loc 1 128 38 is_stmt 0 view .LVU231
 973 02ca FFF7FEFF 		bl	_ZN10DynamicPID29_update_params_by_common_funcEv
 974              	.LVL87:
 129:Lib/compute/pid/dynamic_pid.cpp ****     case DPID_FuncType::STEP:
 975              		.loc 1 129 9 is_stmt 1 view .LVU232
 976              	.L60:
 142:Lib/compute/pid/dynamic_pid.cpp **** 
 977              		.loc 1 142 1 is_stmt 0 view .LVU233
ARM GAS  /tmp/ccIUwdHo.s 			page 24


 978              		@ sp needed
 979 02ce 10BD     		pop	{r4, pc}
 980              	.LVL88:
 981              	.L62:
 130:Lib/compute/pid/dynamic_pid.cpp ****         _update_params_by_step_func();
 982              		.loc 1 130 5 is_stmt 1 view .LVU234
 131:Lib/compute/pid/dynamic_pid.cpp ****         break;
 983              		.loc 1 131 9 view .LVU235
 131:Lib/compute/pid/dynamic_pid.cpp ****         break;
 984              		.loc 1 131 36 is_stmt 0 view .LVU236
 985 02d0 FFF7FEFF 		bl	_ZN10DynamicPID27_update_params_by_step_funcEv
 986              	.LVL89:
 132:Lib/compute/pid/dynamic_pid.cpp ****     case DPID_FuncType::SLOPE:
 987              		.loc 1 132 9 is_stmt 1 view .LVU237
 988 02d4 FBE7     		b	.L60
 989              	.LVL90:
 990              	.L61:
 136:Lib/compute/pid/dynamic_pid.cpp ****         _update_params_by_poly_func();
 991              		.loc 1 136 5 view .LVU238
 137:Lib/compute/pid/dynamic_pid.cpp ****         break;
 992              		.loc 1 137 9 view .LVU239
 137:Lib/compute/pid/dynamic_pid.cpp ****         break;
 993              		.loc 1 137 36 is_stmt 0 view .LVU240
 994 02d6 FFF7FEFF 		bl	_ZN10DynamicPID27_update_params_by_poly_funcEv
 995              	.LVL91:
 138:Lib/compute/pid/dynamic_pid.cpp ****     default:
 996              		.loc 1 138 9 is_stmt 1 view .LVU241
 142:Lib/compute/pid/dynamic_pid.cpp **** 
 997              		.loc 1 142 1 is_stmt 0 view .LVU242
 998 02da F8E7     		b	.L60
 999              		.cfi_endproc
 1000              	.LFE1036:
 1002              		.align	1
 1003              		.global	_ZN10DynamicPID6updateEff
 1004              		.syntax unified
 1005              		.code	16
 1006              		.thumb_func
 1008              	_ZN10DynamicPID6updateEff:
 1009              	.LVL92:
 1010              	.LFB1032:
  61:Lib/compute/pid/dynamic_pid.cpp ****     _info.error = error;
 1011              		.loc 1 61 1 is_stmt 1 view -0
 1012              		.cfi_startproc
 1013              		@ args = 0, pretend = 0, frame = 0
 1014              		@ frame_needed = 0, uses_anonymous_args = 0
  61:Lib/compute/pid/dynamic_pid.cpp ****     _info.error = error;
 1015              		.loc 1 61 1 is_stmt 0 view .LVU244
 1016 02dc F0B5     		push	{r4, r5, r6, r7, lr}
 1017              		.cfi_def_cfa_offset 20
 1018              		.cfi_offset 4, -20
 1019              		.cfi_offset 5, -16
 1020              		.cfi_offset 6, -12
 1021              		.cfi_offset 7, -8
 1022              		.cfi_offset 14, -4
 1023 02de D646     		mov	lr, r10
 1024 02e0 4F46     		mov	r7, r9
 1025 02e2 4646     		mov	r6, r8
ARM GAS  /tmp/ccIUwdHo.s 			page 25


 1026 02e4 C0B5     		push	{r6, r7, lr}
 1027              		.cfi_def_cfa_offset 32
 1028              		.cfi_offset 8, -32
 1029              		.cfi_offset 9, -28
 1030              		.cfi_offset 10, -24
 1031 02e6 0400     		movs	r4, r0
 1032 02e8 0D1C     		adds	r5, r1, #0
 1033 02ea 161C     		adds	r6, r2, #0
  62:Lib/compute/pid/dynamic_pid.cpp ****     _info.nudge = nudge;
 1034              		.loc 1 62 5 is_stmt 1 view .LVU245
  62:Lib/compute/pid/dynamic_pid.cpp ****     _info.nudge = nudge;
 1035              		.loc 1 62 17 is_stmt 0 view .LVU246
 1036 02ec 9A23     		movs	r3, #154
 1037 02ee 5B00     		lsls	r3, r3, #1
 1038 02f0 C150     		str	r1, [r0, r3]
  63:Lib/compute/pid/dynamic_pid.cpp **** 
 1039              		.loc 1 63 5 is_stmt 1 view .LVU247
  63:Lib/compute/pid/dynamic_pid.cpp **** 
 1040              		.loc 1 63 17 is_stmt 0 view .LVU248
 1041 02f2 0433     		adds	r3, r3, #4
 1042 02f4 C250     		str	r2, [r0, r3]
  65:Lib/compute/pid/dynamic_pid.cpp **** 
 1043              		.loc 1 65 5 is_stmt 1 view .LVU249
  65:Lib/compute/pid/dynamic_pid.cpp **** 
 1044              		.loc 1 65 19 is_stmt 0 view .LVU250
 1045 02f6 FFF7FEFF 		bl	_ZN10DynamicPID14_update_paramsEv
 1046              	.LVL93:
  68:Lib/compute/pid/dynamic_pid.cpp **** 
 1047              		.loc 1 68 5 is_stmt 1 view .LVU251
  68:Lib/compute/pid/dynamic_pid.cpp **** 
 1048              		.loc 1 68 22 is_stmt 0 view .LVU252
 1049 02fa 8823     		movs	r3, #136
 1050 02fc 5B00     		lsls	r3, r3, #1
 1051 02fe E058     		ldr	r0, [r4, r3]
  68:Lib/compute/pid/dynamic_pid.cpp **** 
 1052              		.loc 1 68 25 view .LVU253
 1053 0300 291C     		adds	r1, r5, #0
 1054 0302 FFF7FEFF 		bl	__aeabi_fmul
 1055              	.LVL94:
  68:Lib/compute/pid/dynamic_pid.cpp **** 
 1056              		.loc 1 68 13 view .LVU254
 1057 0306 A023     		movs	r3, #160
 1058 0308 5B00     		lsls	r3, r3, #1
 1059 030a 9846     		mov	r8, r3
 1060 030c E050     		str	r0, [r4, r3]
  72:Lib/compute/pid/dynamic_pid.cpp **** 
 1061              		.loc 1 72 5 is_stmt 1 view .LVU255
  72:Lib/compute/pid/dynamic_pid.cpp **** 
 1062              		.loc 1 72 14 is_stmt 0 view .LVU256
 1063 030e 2000     		movs	r0, r4
 1064 0310 FFF7FEFF 		bl	_ZN10DynamicPID9_update_IEv
 1065              	.LVL95:
  75:Lib/compute/pid/dynamic_pid.cpp ****     _info.D = _param.kd * derivative;
 1066              		.loc 1 75 5 is_stmt 1 view .LVU257
  75:Lib/compute/pid/dynamic_pid.cpp ****     _info.D = _param.kd * derivative;
 1067              		.loc 1 75 39 is_stmt 0 view .LVU258
 1068 0314 9823     		movs	r3, #152
ARM GAS  /tmp/ccIUwdHo.s 			page 26


 1069 0316 5B00     		lsls	r3, r3, #1
 1070 0318 E158     		ldr	r1, [r4, r3]
  75:Lib/compute/pid/dynamic_pid.cpp ****     _info.D = _param.kd * derivative;
 1071              		.loc 1 75 31 view .LVU259
 1072 031a 281C     		adds	r0, r5, #0
 1073 031c FFF7FEFF 		bl	__aeabi_fsub
 1074              	.LVL96:
  75:Lib/compute/pid/dynamic_pid.cpp ****     _info.D = _param.kd * derivative;
 1075              		.loc 1 75 60 view .LVU260
 1076 0320 8E23     		movs	r3, #142
 1077 0322 5B00     		lsls	r3, r3, #1
 1078 0324 E158     		ldr	r1, [r4, r3]
  75:Lib/compute/pid/dynamic_pid.cpp ****     _info.D = _param.kd * derivative;
 1079              		.loc 1 75 11 view .LVU261
 1080 0326 FFF7FEFF 		bl	__aeabi_fdiv
 1081              	.LVL97:
 1082 032a 8246     		mov	r10, r0
 1083              	.LVL98:
  76:Lib/compute/pid/dynamic_pid.cpp **** 
 1084              		.loc 1 76 5 is_stmt 1 view .LVU262
  76:Lib/compute/pid/dynamic_pid.cpp **** 
 1085              		.loc 1 76 22 is_stmt 0 view .LVU263
 1086 032c 8C23     		movs	r3, #140
 1087 032e 5B00     		lsls	r3, r3, #1
 1088 0330 E058     		ldr	r0, [r4, r3]
 1089              	.LVL99:
  76:Lib/compute/pid/dynamic_pid.cpp **** 
 1090              		.loc 1 76 25 view .LVU264
 1091 0332 5146     		mov	r1, r10
 1092 0334 FFF7FEFF 		bl	__aeabi_fmul
 1093              	.LVL100:
 1094 0338 071C     		adds	r7, r0, #0
  76:Lib/compute/pid/dynamic_pid.cpp **** 
 1095              		.loc 1 76 13 view .LVU265
 1096 033a A423     		movs	r3, #164
 1097 033c 5B00     		lsls	r3, r3, #1
 1098 033e E050     		str	r0, [r4, r3]
  79:Lib/compute/pid/dynamic_pid.cpp **** 
 1099              		.loc 1 79 5 is_stmt 1 view .LVU266
  79:Lib/compute/pid/dynamic_pid.cpp **** 
 1100              		.loc 1 79 23 is_stmt 0 view .LVU267
 1101 0340 1C3B     		subs	r3, r3, #28
 1102 0342 E358     		ldr	r3, [r4, r3]
 1103 0344 9946     		mov	r9, r3
  79:Lib/compute/pid/dynamic_pid.cpp **** 
 1104              		.loc 1 79 41 view .LVU268
 1105 0346 5146     		mov	r1, r10
 1106 0348 281C     		adds	r0, r5, #0
 1107 034a FFF7FEFF 		bl	__aeabi_fadd
 1108              	.LVL101:
 1109 034e 011C     		adds	r1, r0, #0
  79:Lib/compute/pid/dynamic_pid.cpp **** 
 1110              		.loc 1 79 27 view .LVU269
 1111 0350 4846     		mov	r0, r9
 1112 0352 FFF7FEFF 		bl	__aeabi_fmul
 1113              	.LVL102:
  79:Lib/compute/pid/dynamic_pid.cpp **** 
ARM GAS  /tmp/ccIUwdHo.s 			page 27


 1114              		.loc 1 79 14 view .LVU270
 1115 0356 A623     		movs	r3, #166
 1116 0358 5B00     		lsls	r3, r3, #1
 1117 035a E050     		str	r0, [r4, r3]
  82:Lib/compute/pid/dynamic_pid.cpp **** 
 1118              		.loc 1 82 5 is_stmt 1 view .LVU271
  82:Lib/compute/pid/dynamic_pid.cpp **** 
 1119              		.loc 1 82 26 is_stmt 0 view .LVU272
 1120 035c 4346     		mov	r3, r8
 1121 035e E058     		ldr	r0, [r4, r3]
  82:Lib/compute/pid/dynamic_pid.cpp **** 
 1122              		.loc 1 82 36 view .LVU273
 1123 0360 0433     		adds	r3, r3, #4
 1124 0362 E158     		ldr	r1, [r4, r3]
  82:Lib/compute/pid/dynamic_pid.cpp **** 
 1125              		.loc 1 82 28 view .LVU274
 1126 0364 FFF7FEFF 		bl	__aeabi_fadd
 1127              	.LVL103:
  82:Lib/compute/pid/dynamic_pid.cpp **** 
 1128              		.loc 1 82 38 view .LVU275
 1129 0368 391C     		adds	r1, r7, #0
 1130 036a FFF7FEFF 		bl	__aeabi_fsub
 1131              	.LVL104:
  82:Lib/compute/pid/dynamic_pid.cpp **** 
 1132              		.loc 1 82 48 view .LVU276
 1133 036e 311C     		adds	r1, r6, #0
 1134 0370 FFF7FEFF 		bl	__aeabi_fadd
 1135              	.LVL105:
 1136 0374 061C     		adds	r6, r0, #0
 1137              	.LVL106:
  82:Lib/compute/pid/dynamic_pid.cpp **** 
 1138              		.loc 1 82 18 view .LVU277
 1139 0376 9E23     		movs	r3, #158
 1140 0378 5B00     		lsls	r3, r3, #1
 1141 037a E050     		str	r0, [r4, r3]
  85:Lib/compute/pid/dynamic_pid.cpp ****         _info.output = _param.max;
 1142              		.loc 1 85 5 is_stmt 1 view .LVU278
  85:Lib/compute/pid/dynamic_pid.cpp ****         _info.output = _param.max;
 1143              		.loc 1 85 31 is_stmt 0 view .LVU279
 1144 037c 1C3B     		subs	r3, r3, #28
 1145 037e E758     		ldr	r7, [r4, r3]
  85:Lib/compute/pid/dynamic_pid.cpp ****         _info.output = _param.max;
 1146              		.loc 1 85 5 view .LVU280
 1147 0380 391C     		adds	r1, r7, #0
 1148 0382 FFF7FEFF 		bl	__aeabi_fcmpgt
 1149              	.LVL107:
 1150 0386 0028     		cmp	r0, #0
 1151 0388 0CD0     		beq	.L71
  86:Lib/compute/pid/dynamic_pid.cpp ****     else if (_info.output < _param.min)
 1152              		.loc 1 86 9 is_stmt 1 view .LVU281
  86:Lib/compute/pid/dynamic_pid.cpp ****     else if (_info.output < _param.min)
 1153              		.loc 1 86 22 is_stmt 0 view .LVU282
 1154 038a 9E23     		movs	r3, #158
 1155 038c 5B00     		lsls	r3, r3, #1
 1156 038e E750     		str	r7, [r4, r3]
 1157              	.L67:
  91:Lib/compute/pid/dynamic_pid.cpp **** 
ARM GAS  /tmp/ccIUwdHo.s 			page 28


 1158              		.loc 1 91 5 is_stmt 1 view .LVU283
  91:Lib/compute/pid/dynamic_pid.cpp **** 
 1159              		.loc 1 91 22 is_stmt 0 view .LVU284
 1160 0390 9823     		movs	r3, #152
 1161 0392 5B00     		lsls	r3, r3, #1
 1162 0394 E550     		str	r5, [r4, r3]
  93:Lib/compute/pid/dynamic_pid.cpp **** }
 1163              		.loc 1 93 5 is_stmt 1 view .LVU285
  93:Lib/compute/pid/dynamic_pid.cpp **** }
 1164              		.loc 1 93 18 is_stmt 0 view .LVU286
 1165 0396 0C33     		adds	r3, r3, #12
  93:Lib/compute/pid/dynamic_pid.cpp **** }
 1166              		.loc 1 93 18 discriminator 1 view .LVU287
 1167 0398 E058     		ldr	r0, [r4, r3]
  94:Lib/compute/pid/dynamic_pid.cpp **** 
 1168              		.loc 1 94 1 view .LVU288
 1169              		@ sp needed
 1170              	.LVL108:
 1171              	.LVL109:
 1172              	.LVL110:
  94:Lib/compute/pid/dynamic_pid.cpp **** 
 1173              		.loc 1 94 1 view .LVU289
 1174 039a E0BC     		pop	{r5, r6, r7}
 1175 039c BA46     		mov	r10, r7
 1176 039e B146     		mov	r9, r6
 1177 03a0 A846     		mov	r8, r5
 1178 03a2 F0BD     		pop	{r4, r5, r6, r7, pc}
 1179              	.LVL111:
 1180              	.L71:
  87:Lib/compute/pid/dynamic_pid.cpp ****         _info.output = _param.min;
 1181              		.loc 1 87 10 is_stmt 1 view .LVU290
  87:Lib/compute/pid/dynamic_pid.cpp ****         _info.output = _param.min;
 1182              		.loc 1 87 36 is_stmt 0 view .LVU291
 1183 03a4 9223     		movs	r3, #146
 1184 03a6 5B00     		lsls	r3, r3, #1
 1185 03a8 E758     		ldr	r7, [r4, r3]
  87:Lib/compute/pid/dynamic_pid.cpp ****         _info.output = _param.min;
 1186              		.loc 1 87 10 view .LVU292
 1187 03aa 391C     		adds	r1, r7, #0
 1188 03ac 301C     		adds	r0, r6, #0
 1189 03ae FFF7FEFF 		bl	__aeabi_fcmplt
 1190              	.LVL112:
 1191 03b2 0028     		cmp	r0, #0
 1192 03b4 ECD0     		beq	.L67
  88:Lib/compute/pid/dynamic_pid.cpp **** 
 1193              		.loc 1 88 9 is_stmt 1 view .LVU293
  88:Lib/compute/pid/dynamic_pid.cpp **** 
 1194              		.loc 1 88 22 is_stmt 0 view .LVU294
 1195 03b6 9E23     		movs	r3, #158
 1196 03b8 5B00     		lsls	r3, r3, #1
 1197 03ba E750     		str	r7, [r4, r3]
 1198 03bc E8E7     		b	.L67
 1199              		.cfi_endproc
 1200              	.LFE1032:
 1202              	.Letext0:
 1203              		.file 3 "/opt/arm-gnu-toolchain-14.2/arm-none-eabi/include/machine/_default_types.h"
 1204              		.file 4 "/opt/arm-gnu-toolchain-14.2/arm-none-eabi/include/sys/_stdint.h"
ARM GAS  /tmp/ccIUwdHo.s 			page 29


 1205              		.file 5 "/opt/arm-gnu-toolchain-14.2/arm-none-eabi/include/c++/14.2.1/cmath"
 1206              		.file 6 "/opt/arm-gnu-toolchain-14.2/arm-none-eabi/include/c++/14.2.1/type_traits"
 1207              		.file 7 "/opt/arm-gnu-toolchain-14.2/arm-none-eabi/include/c++/14.2.1/debug/debug.h"
 1208              		.file 8 "/opt/arm-gnu-toolchain-14.2/arm-none-eabi/include/c++/14.2.1/bits/std_abs.h"
 1209              		.file 9 "/opt/arm-gnu-toolchain-14.2/arm-none-eabi/include/c++/14.2.1/bits/predefined_ops.h"
 1210              		.file 10 "/opt/arm-gnu-toolchain-14.2/lib/gcc/arm-none-eabi/14.2.1/include/stddef.h"
 1211              		.file 11 "/opt/arm-gnu-toolchain-14.2/arm-none-eabi/include/math.h"
 1212              		.file 12 "/opt/arm-gnu-toolchain-14.2/arm-none-eabi/include/c++/14.2.1/arm-none-eabi/thumb/v6-m/no
 1213              		.file 13 "/opt/arm-gnu-toolchain-14.2/arm-none-eabi/include/c++/14.2.1/math.h"
 1214              		.file 14 "Lib/compute/pid/dynamic_pid.hpp"
 1215              		.file 15 "/opt/arm-gnu-toolchain-14.2/arm-none-eabi/include/string.h"
ARM GAS  /tmp/ccIUwdHo.s 			page 30

