ARM GAS  /tmp/ccXUP92o.s 			page 1


   1              		.cpu cortex-m0plus
   2              		.arch armv6s-m
   3              		.fpu softvfp
   4              		.eabi_attribute 20, 1
   5              		.eabi_attribute 21, 1
   6              		.eabi_attribute 23, 3
   7              		.eabi_attribute 24, 1
   8              		.eabi_attribute 25, 1
   9              		.eabi_attribute 26, 1
  10              		.eabi_attribute 30, 1
  11              		.eabi_attribute 34, 0
  12              		.eabi_attribute 18, 4
  13              		.file	"ex_math.cpp"
  14              		.text
  15              	.Ltext0:
  16              		.cfi_sections	.debug_frame
  17              		.file 1 "Lib/compute/ex_math.cpp"
  18              		.align	1
  19              		.global	_Z9is_numberPKc
  20              		.syntax unified
  21              		.code	16
  22              		.thumb_func
  24              	_Z9is_numberPKc:
  25              	.LVL0:
  26              	.LFB978:
   1:Lib/compute/ex_math.cpp **** #include "ex_math.hpp"
   2:Lib/compute/ex_math.cpp **** 
   3:Lib/compute/ex_math.cpp **** #include <ctype.h>
   4:Lib/compute/ex_math.cpp **** 
   5:Lib/compute/ex_math.cpp **** bool is_number(const char *str)
   6:Lib/compute/ex_math.cpp **** {
  27              		.loc 1 6 1 view -0
  28              		.cfi_startproc
  29              		@ args = 0, pretend = 0, frame = 0
  30              		@ frame_needed = 0, uses_anonymous_args = 0
  31              		.loc 1 6 1 is_stmt 0 view .LVU1
  32 0000 10B5     		push	{r4, lr}
  33              		.cfi_def_cfa_offset 8
  34              		.cfi_offset 4, -8
  35              		.cfi_offset 14, -4
  36 0002 0200     		movs	r2, r0
   7:Lib/compute/ex_math.cpp ****     if (*str == '-' || *str == '+')
  37              		.loc 1 7 5 is_stmt 1 view .LVU2
  38              		.loc 1 7 9 is_stmt 0 view .LVU3
  39 0004 0378     		ldrb	r3, [r0]
  40              		.loc 1 7 5 view .LVU4
  41 0006 2D2B     		cmp	r3, #45
  42 0008 01D0     		beq	.L2
  43              		.loc 1 7 21 discriminator 1 view .LVU5
  44 000a 2B2B     		cmp	r3, #43
  45 000c 00D1     		bne	.L3
  46              	.L2:
   8:Lib/compute/ex_math.cpp ****     {
   9:Lib/compute/ex_math.cpp ****         str++;
  47              		.loc 1 9 9 is_stmt 1 view .LVU6
  48              		.loc 1 9 12 is_stmt 0 view .LVU7
  49 000e 0132     		adds	r2, r2, #1
ARM GAS  /tmp/ccXUP92o.s 			page 2


  50              	.LVL1:
  51              	.L3:
  10:Lib/compute/ex_math.cpp ****     }
  11:Lib/compute/ex_math.cpp **** 
  12:Lib/compute/ex_math.cpp ****     bool has_digit = false;
  13:Lib/compute/ex_math.cpp ****     bool has_dot = false;
  14:Lib/compute/ex_math.cpp **** 
  15:Lib/compute/ex_math.cpp ****     while (*str)
  16:Lib/compute/ex_math.cpp ****     {
  17:Lib/compute/ex_math.cpp ****         if (isdigit(*str))
  18:Lib/compute/ex_math.cpp ****         {
  19:Lib/compute/ex_math.cpp ****             has_digit = true;
  20:Lib/compute/ex_math.cpp ****         }
  21:Lib/compute/ex_math.cpp ****         else if (*str == '.' && !has_dot)
  22:Lib/compute/ex_math.cpp ****         {
  23:Lib/compute/ex_math.cpp ****             has_dot = true;
  52              		.loc 1 23 21 view .LVU8
  53 0010 0024     		movs	r4, #0
  54 0012 0020     		movs	r0, #0
  55 0014 01E0     		b	.L6
  56              	.LVL2:
  57              	.L8:
  19:Lib/compute/ex_math.cpp ****         }
  58              		.loc 1 19 23 view .LVU9
  59 0016 0120     		movs	r0, #1
  60              	.LVL3:
  61              	.L4:
  24:Lib/compute/ex_math.cpp ****         }
  25:Lib/compute/ex_math.cpp ****         else
  26:Lib/compute/ex_math.cpp ****         {
  27:Lib/compute/ex_math.cpp ****             return false;
  28:Lib/compute/ex_math.cpp ****         }
  29:Lib/compute/ex_math.cpp ****         str++;
  62              		.loc 1 29 9 is_stmt 1 view .LVU10
  63              		.loc 1 29 12 is_stmt 0 view .LVU11
  64 0018 0132     		adds	r2, r2, #1
  65              	.LVL4:
  66              	.L6:
  15:Lib/compute/ex_math.cpp ****     {
  67              		.loc 1 15 12 is_stmt 1 view .LVU12
  68 001a 1378     		ldrb	r3, [r2]
  69 001c 002B     		cmp	r3, #0
  70 001e 0AD0     		beq	.L5
  17:Lib/compute/ex_math.cpp ****         {
  71              		.loc 1 17 9 view .LVU13
  17:Lib/compute/ex_math.cpp ****         {
  72              		.loc 1 17 20 is_stmt 0 view .LVU14
  73 0020 1900     		movs	r1, r3
  74 0022 3039     		subs	r1, r1, #48
  17:Lib/compute/ex_math.cpp ****         {
  75              		.loc 1 17 9 view .LVU15
  76 0024 0929     		cmp	r1, #9
  77 0026 F6D9     		bls	.L8
  21:Lib/compute/ex_math.cpp ****         {
  78              		.loc 1 21 14 is_stmt 1 view .LVU16
  79 0028 2E2B     		cmp	r3, #46
  80 002a 03D1     		bne	.L9
ARM GAS  /tmp/ccXUP92o.s 			page 3


  21:Lib/compute/ex_math.cpp ****         {
  81              		.loc 1 21 30 is_stmt 0 discriminator 1 view .LVU17
  82 002c 002C     		cmp	r4, #0
  83 002e 03D1     		bne	.L10
  23:Lib/compute/ex_math.cpp ****         }
  84              		.loc 1 23 21 view .LVU18
  85 0030 0134     		adds	r4, r4, #1
  86              	.LVL5:
  23:Lib/compute/ex_math.cpp ****         }
  87              		.loc 1 23 21 view .LVU19
  88 0032 F1E7     		b	.L4
  89              	.LVL6:
  90              	.L9:
  27:Lib/compute/ex_math.cpp ****         }
  91              		.loc 1 27 20 view .LVU20
  92 0034 0020     		movs	r0, #0
  93              	.LVL7:
  94              	.L5:
  30:Lib/compute/ex_math.cpp ****     }
  31:Lib/compute/ex_math.cpp **** 
  32:Lib/compute/ex_math.cpp ****     return has_digit;
  33:Lib/compute/ex_math.cpp **** }
  95              		.loc 1 33 1 view .LVU21
  96              		@ sp needed
  97              	.LVL8:
  98              		.loc 1 33 1 view .LVU22
  99 0036 10BD     		pop	{r4, pc}
 100              	.LVL9:
 101              	.L10:
  27:Lib/compute/ex_math.cpp ****         }
 102              		.loc 1 27 20 view .LVU23
 103 0038 0020     		movs	r0, #0
 104              	.LVL10:
  27:Lib/compute/ex_math.cpp ****         }
 105              		.loc 1 27 20 view .LVU24
 106 003a FCE7     		b	.L5
 107              		.cfi_endproc
 108              	.LFE978:
 110              		.align	1
 111              		.global	_Z10is_integerPKc
 112              		.syntax unified
 113              		.code	16
 114              		.thumb_func
 116              	_Z10is_integerPKc:
 117              	.LVL11:
 118              	.LFB979:
  34:Lib/compute/ex_math.cpp **** 
  35:Lib/compute/ex_math.cpp **** bool is_integer(const char *str)
  36:Lib/compute/ex_math.cpp **** {
 119              		.loc 1 36 1 is_stmt 1 view -0
 120              		.cfi_startproc
 121              		@ args = 0, pretend = 0, frame = 0
 122              		@ frame_needed = 0, uses_anonymous_args = 0
 123              		@ link register save eliminated.
 124              		.loc 1 36 1 is_stmt 0 view .LVU26
 125 003c 0200     		movs	r2, r0
  37:Lib/compute/ex_math.cpp ****     if (*str == '-' || *str == '+')
ARM GAS  /tmp/ccXUP92o.s 			page 4


 126              		.loc 1 37 5 is_stmt 1 view .LVU27
 127              		.loc 1 37 9 is_stmt 0 view .LVU28
 128 003e 0378     		ldrb	r3, [r0]
 129              		.loc 1 37 5 view .LVU29
 130 0040 2D2B     		cmp	r3, #45
 131 0042 01D0     		beq	.L12
 132              		.loc 1 37 21 discriminator 1 view .LVU30
 133 0044 2B2B     		cmp	r3, #43
 134 0046 00D1     		bne	.L13
 135              	.L12:
  38:Lib/compute/ex_math.cpp ****     {
  39:Lib/compute/ex_math.cpp ****         str++;
 136              		.loc 1 39 9 is_stmt 1 view .LVU31
 137              		.loc 1 39 12 is_stmt 0 view .LVU32
 138 0048 0132     		adds	r2, r2, #1
 139              	.LVL12:
 140              	.L13:
  36:Lib/compute/ex_math.cpp ****     if (*str == '-' || *str == '+')
 141              		.loc 1 36 1 view .LVU33
 142 004a 0020     		movs	r0, #0
 143              	.L15:
 144              	.LVL13:
  40:Lib/compute/ex_math.cpp ****     }
  41:Lib/compute/ex_math.cpp **** 
  42:Lib/compute/ex_math.cpp ****     bool has_digit = false;
  43:Lib/compute/ex_math.cpp **** 
  44:Lib/compute/ex_math.cpp ****     while (*str)
 145              		.loc 1 44 12 is_stmt 1 view .LVU34
 146 004c 1378     		ldrb	r3, [r2]
 147 004e 002B     		cmp	r3, #0
 148 0050 06D0     		beq	.L14
  45:Lib/compute/ex_math.cpp ****     {
  46:Lib/compute/ex_math.cpp ****         if (isdigit(*str))
 149              		.loc 1 46 9 view .LVU35
 150              		.loc 1 46 20 is_stmt 0 view .LVU36
 151 0052 303B     		subs	r3, r3, #48
 152              		.loc 1 46 9 view .LVU37
 153 0054 092B     		cmp	r3, #9
 154 0056 02D8     		bhi	.L17
  47:Lib/compute/ex_math.cpp ****         {
  48:Lib/compute/ex_math.cpp ****             has_digit = true;
 155              		.loc 1 48 13 is_stmt 1 view .LVU38
 156              	.LVL14:
  49:Lib/compute/ex_math.cpp ****         }
  50:Lib/compute/ex_math.cpp ****         else
  51:Lib/compute/ex_math.cpp ****         {
  52:Lib/compute/ex_math.cpp ****             return false;
  53:Lib/compute/ex_math.cpp ****         }
  54:Lib/compute/ex_math.cpp ****         str++;
 157              		.loc 1 54 9 view .LVU39
 158              		.loc 1 54 12 is_stmt 0 view .LVU40
 159 0058 0132     		adds	r2, r2, #1
 160              	.LVL15:
  48:Lib/compute/ex_math.cpp ****         }
 161              		.loc 1 48 23 view .LVU41
 162 005a 0120     		movs	r0, #1
 163 005c F6E7     		b	.L15
ARM GAS  /tmp/ccXUP92o.s 			page 5


 164              	.LVL16:
 165              	.L17:
  52:Lib/compute/ex_math.cpp ****         }
 166              		.loc 1 52 20 view .LVU42
 167 005e 0020     		movs	r0, #0
 168              	.LVL17:
 169              	.L14:
  55:Lib/compute/ex_math.cpp ****     }
  56:Lib/compute/ex_math.cpp **** 
  57:Lib/compute/ex_math.cpp ****     return has_digit;
  58:Lib/compute/ex_math.cpp **** }
 170              		.loc 1 58 1 view .LVU43
 171              		@ sp needed
 172 0060 7047     		bx	lr
 173              		.cfi_endproc
 174              	.LFE979:
 176              		.align	1
 177              		.global	_Z8is_floatPKc
 178              		.syntax unified
 179              		.code	16
 180              		.thumb_func
 182              	_Z8is_floatPKc:
 183              	.LVL18:
 184              	.LFB980:
  59:Lib/compute/ex_math.cpp **** 
  60:Lib/compute/ex_math.cpp **** bool is_float(const char *str)
  61:Lib/compute/ex_math.cpp **** {
 185              		.loc 1 61 1 is_stmt 1 view -0
 186              		.cfi_startproc
 187              		@ args = 0, pretend = 0, frame = 0
 188              		@ frame_needed = 0, uses_anonymous_args = 0
 189              		.loc 1 61 1 is_stmt 0 view .LVU45
 190 0062 10B5     		push	{r4, lr}
 191              		.cfi_def_cfa_offset 8
 192              		.cfi_offset 4, -8
 193              		.cfi_offset 14, -4
 194 0064 031E     		subs	r3, r0, #0
  62:Lib/compute/ex_math.cpp ****     if (str == NULL || *str == '\0')
 195              		.loc 1 62 5 is_stmt 1 view .LVU46
 196 0066 19D0     		beq	.L25
 197              		.loc 1 62 24 is_stmt 0 discriminator 1 view .LVU47
 198 0068 0278     		ldrb	r2, [r0]
 199              		.loc 1 62 21 discriminator 1 view .LVU48
 200 006a 002A     		cmp	r2, #0
 201 006c 18D0     		beq	.L26
  63:Lib/compute/ex_math.cpp ****     {
  64:Lib/compute/ex_math.cpp ****         return false;
  65:Lib/compute/ex_math.cpp ****     }
  66:Lib/compute/ex_math.cpp **** 
  67:Lib/compute/ex_math.cpp ****     if (*str == '-' || *str == '+')
 202              		.loc 1 67 5 is_stmt 1 view .LVU49
 203 006e 2D2A     		cmp	r2, #45
 204 0070 01D0     		beq	.L20
 205              		.loc 1 67 21 is_stmt 0 discriminator 1 view .LVU50
 206 0072 2B2A     		cmp	r2, #43
 207 0074 00D1     		bne	.L21
 208              	.L20:
ARM GAS  /tmp/ccXUP92o.s 			page 6


  68:Lib/compute/ex_math.cpp ****     {
  69:Lib/compute/ex_math.cpp ****         str++;
 209              		.loc 1 69 9 is_stmt 1 view .LVU51
 210              		.loc 1 69 12 is_stmt 0 view .LVU52
 211 0076 0133     		adds	r3, r3, #1
 212              	.LVL19:
 213              	.L21:
  70:Lib/compute/ex_math.cpp ****     }
  71:Lib/compute/ex_math.cpp **** 
  72:Lib/compute/ex_math.cpp ****     bool has_digit = false;
  73:Lib/compute/ex_math.cpp ****     bool has_dot = false;
  74:Lib/compute/ex_math.cpp **** 
  75:Lib/compute/ex_math.cpp ****     while (*str)
  76:Lib/compute/ex_math.cpp ****     {
  77:Lib/compute/ex_math.cpp ****         if (isdigit((unsigned char)*str))
  78:Lib/compute/ex_math.cpp ****         {
  79:Lib/compute/ex_math.cpp ****             has_digit = true;
  80:Lib/compute/ex_math.cpp ****         }
  81:Lib/compute/ex_math.cpp ****         else if (*str == '.')
  82:Lib/compute/ex_math.cpp ****         {
  83:Lib/compute/ex_math.cpp ****             if (has_dot)
  84:Lib/compute/ex_math.cpp ****             {
  85:Lib/compute/ex_math.cpp ****                 return false;
  86:Lib/compute/ex_math.cpp ****             }
  87:Lib/compute/ex_math.cpp ****             has_dot = true;
 214              		.loc 1 87 21 view .LVU53
 215 0078 0024     		movs	r4, #0
 216 007a 0020     		movs	r0, #0
 217 007c 01E0     		b	.L23
 218              	.LVL20:
 219              	.L27:
  79:Lib/compute/ex_math.cpp ****         }
 220              		.loc 1 79 23 view .LVU54
 221 007e 0120     		movs	r0, #1
 222              	.LVL21:
 223              	.L22:
  88:Lib/compute/ex_math.cpp ****         }
  89:Lib/compute/ex_math.cpp ****         else
  90:Lib/compute/ex_math.cpp ****         {
  91:Lib/compute/ex_math.cpp ****             return false;
  92:Lib/compute/ex_math.cpp ****         }
  93:Lib/compute/ex_math.cpp ****         str++;
 224              		.loc 1 93 9 is_stmt 1 view .LVU55
 225              		.loc 1 93 12 is_stmt 0 view .LVU56
 226 0080 0133     		adds	r3, r3, #1
 227              	.LVL22:
 228              	.L23:
  75:Lib/compute/ex_math.cpp ****     {
 229              		.loc 1 75 12 is_stmt 1 view .LVU57
 230 0082 1A78     		ldrb	r2, [r3]
 231 0084 002A     		cmp	r2, #0
 232 0086 0CD0     		beq	.L19
  77:Lib/compute/ex_math.cpp ****         {
 233              		.loc 1 77 9 view .LVU58
  77:Lib/compute/ex_math.cpp ****         {
 234              		.loc 1 77 20 is_stmt 0 view .LVU59
 235 0088 1100     		movs	r1, r2
ARM GAS  /tmp/ccXUP92o.s 			page 7


 236 008a 3039     		subs	r1, r1, #48
  77:Lib/compute/ex_math.cpp ****         {
 237              		.loc 1 77 9 view .LVU60
 238 008c 0929     		cmp	r1, #9
 239 008e F6D9     		bls	.L27
  81:Lib/compute/ex_math.cpp ****         {
 240              		.loc 1 81 14 is_stmt 1 view .LVU61
 241 0090 2E2A     		cmp	r2, #46
 242 0092 07D1     		bne	.L28
  83:Lib/compute/ex_math.cpp ****             {
 243              		.loc 1 83 13 view .LVU62
 244 0094 002C     		cmp	r4, #0
 245 0096 07D1     		bne	.L29
  87:Lib/compute/ex_math.cpp ****         }
 246              		.loc 1 87 21 is_stmt 0 view .LVU63
 247 0098 0134     		adds	r4, r4, #1
 248              	.LVL23:
  87:Lib/compute/ex_math.cpp ****         }
 249              		.loc 1 87 21 view .LVU64
 250 009a F1E7     		b	.L22
 251              	.LVL24:
 252              	.L25:
  64:Lib/compute/ex_math.cpp ****     }
 253              		.loc 1 64 16 view .LVU65
 254 009c 0020     		movs	r0, #0
 255              	.LVL25:
  64:Lib/compute/ex_math.cpp ****     }
 256              		.loc 1 64 16 view .LVU66
 257 009e 00E0     		b	.L19
 258              	.LVL26:
 259              	.L26:
  64:Lib/compute/ex_math.cpp ****     }
 260              		.loc 1 64 16 view .LVU67
 261 00a0 0020     		movs	r0, #0
 262              	.LVL27:
 263              	.L19:
  94:Lib/compute/ex_math.cpp ****     }
  95:Lib/compute/ex_math.cpp **** 
  96:Lib/compute/ex_math.cpp ****     return has_digit;
  97:Lib/compute/ex_math.cpp **** }...
 264              		.loc 1 97 1 view .LVU68
 265              		@ sp needed
 266 00a2 10BD     		pop	{r4, pc}
 267              	.LVL28:
 268              	.L28:
  91:Lib/compute/ex_math.cpp ****             return false;
 269              		.loc 1 91 20 view .LVU69
 270 00a4 0020     		movs	r0, #0
 271              	.LVL29:
  91:Lib/compute/ex_math.cpp ****             return false;
 272              		.loc 1 91 20 view .LVU70
 273 00a6 FCE7     		b	.L19
 274              	.LVL30:
 275              	.L29:
  85:Lib/compute/ex_math.cpp ****                 return false;
 276              		.loc 1 85 24 view .LVU71
 277 00a8 0020     		movs	r0, #0
ARM GAS  /tmp/ccXUP92o.s 			page 8


 278              	.LVL31:
  85:Lib/compute/ex_math.cpp ****                 return false;
 279              		.loc 1 85 24 view .LVU72
 280 00aa FAE7     		b	.L19
 281              		.cfi_endproc
 282              	.LFE980:
 284              	.Letext0:
 285              		.file 2 "/opt/arm-gnu-toolchain-14.2/arm-none-eabi/include/c++/14.2.1/cmath"
 286              		.file 3 "/opt/arm-gnu-toolchain-14.2/arm-none-eabi/include/c++/14.2.1/type_traits"
 287              		.file 4 "/opt/arm-gnu-toolchain-14.2/arm-none-eabi/include/c++/14.2.1/debug/debug.h"
 288              		.file 5 "/opt/arm-gnu-toolchain-14.2/arm-none-eabi/include/c++/14.2.1/bits/std_abs.h"
 289              		.file 6 "/opt/arm-gnu-toolchain-14.2/arm-none-eabi/include/c++/14.2.1/bits/predefined_ops.h"
 290              		.file 7 "/opt/arm-gnu-toolchain-14.2/arm-none-eabi/include/math.h"
 291              		.file 8 "/opt/arm-gnu-toolchain-14.2/arm-none-eabi/include/c++/14.2.1/arm-none-eabi/thumb/v6-m/nof
 292              		.file 9 "/opt/arm-gnu-toolchain-14.2/arm-none-eabi/include/c++/14.2.1/math.h"
ARM GAS  /tmp/ccXUP92o.s 			page 9


DEFINED SYMBOLS
                            *ABS*:00000000 ex_math.cpp
     /tmp/ccXUP92o.s:18     .text:00000000 $t
     /tmp/ccXUP92o.s:24     .text:00000000 _Z9is_numberPKc
     /tmp/ccXUP92o.s:116    .text:0000003c _Z10is_integerPKc
     /tmp/ccXUP92o.s:182    .text:00000062 _Z8is_floatPKc

NO UNDEFINED SYMBOLS
