ARM GAS  /tmp/cc5qDhQe.s 			page 1


   1              		.cpu cortex-m0plus
   2              		.arch armv6s-m
   3              		.fpu softvfp
   4              		.eabi_attribute 20, 1
   5              		.eabi_attribute 21, 1
   6              		.eabi_attribute 23, 3
   7              		.eabi_attribute 24, 1
   8              		.eabi_attribute 25, 1
   9              		.eabi_attribute 26, 1
  10              		.eabi_attribute 30, 1
  11              		.eabi_attribute 34, 0
  12              		.eabi_attribute 18, 4
  13              		.file	"kth_read.cpp"
  14              		.text
  15              	.Ltext0:
  16              		.cfi_sections	.debug_frame
  17              		.file 1 "My_Top/System/kth_read.cpp"
  18              		.align	1
  19              		.global	_ZN7KTH711112KTH_CS_EnbleEb
  20              		.syntax unified
  21              		.code	16
  22              		.thumb_func
  24              	_ZN7KTH711112KTH_CS_EnbleEb:
  25              	.LVL0:
  26              	.LFB1439:
   1:My_Top/System/kth_read.cpp **** #include "kth_read.hpp"
   2:My_Top/System/kth_read.cpp **** 
   3:My_Top/System/kth_read.cpp **** 
   4:My_Top/System/kth_read.cpp **** bool KTH7111::KTH7111_Init(bool fx)
   5:My_Top/System/kth_read.cpp **** {
   6:My_Top/System/kth_read.cpp ****     bool write_ok = false;
   7:My_Top/System/kth_read.cpp ****     uint16_t angle_zero = 0;
   8:My_Top/System/kth_read.cpp ****     encoder_dir = fx;
   9:My_Top/System/kth_read.cpp ****     write_ok =KTH7111_RotationDirection(fx); //ÕåÖÕģźń╝¢ńĀüÕÖ©Ķ¦ÆÕ║”µ¢╣ÕÉæ
  10:My_Top/System/kth_read.cpp ****     // KTH7111_WriteReg(0x00, 0x00); //Ķ«ŠńĮ«ķøČńé╣
  11:My_Top/System/kth_read.cpp ****     // KTH7111_WriteReg(0x01, 0x00); //Ķ«ŠńĮ«ķøČńé╣ 32786
  12:My_Top/System/kth_read.cpp ****     KTH7111_WriteReg(0x0d, 0x88); //Ķ«ŠńĮ«µ╗żµ│óµĘ▒Õ║”
  13:My_Top/System/kth_read.cpp **** 
  14:My_Top/System/kth_read.cpp ****     KTH7111_BurnMTP(); //ÕåÖÕģźMTP 
  15:My_Top/System/kth_read.cpp ****     return write_ok;
  16:My_Top/System/kth_read.cpp **** }
  17:My_Top/System/kth_read.cpp **** 
  18:My_Top/System/kth_read.cpp **** void KTH7111::KTH_CS_Enble(bool status)
  19:My_Top/System/kth_read.cpp **** {
  27              		.loc 1 19 1 view -0
  28              		.cfi_startproc
  29              		@ args = 0, pretend = 0, frame = 0
  30              		@ frame_needed = 0, uses_anonymous_args = 0
  31              		.loc 1 19 1 is_stmt 0 view .LVU1
  32 0000 10B5     		push	{r4, lr}
  33              		.cfi_def_cfa_offset 8
  34              		.cfi_offset 4, -8
  35              		.cfi_offset 14, -4
  36 0002 0300     		movs	r3, r0
  20:My_Top/System/kth_read.cpp ****     HAL_GPIO_WritePin(_cs_port, _cs_pin, status ? GPIO_PIN_SET : GPIO_PIN_RESET);
  37              		.loc 1 20 5 is_stmt 1 view .LVU2
  38              		.loc 1 20 22 is_stmt 0 view .LVU3
ARM GAS  /tmp/cc5qDhQe.s 			page 2


  39 0004 4069     		ldr	r0, [r0, #20]
  40              	.LVL1:
  41              		.loc 1 20 22 view .LVU4
  42 0006 1B8B     		ldrh	r3, [r3, #24]
  43              	.LVL2:
  44              		.loc 1 20 22 view .LVU5
  45 0008 0029     		cmp	r1, #0
  46 000a 04D0     		beq	.L3
  47              		.loc 1 20 22 discriminator 1 view .LVU6
  48 000c 0122     		movs	r2, #1
  49              	.L2:
  50              		.loc 1 20 22 discriminator 4 view .LVU7
  51 000e 1900     		movs	r1, r3
  52              	.LVL3:
  53              		.loc 1 20 22 discriminator 4 view .LVU8
  54 0010 FFF7FEFF 		bl	HAL_GPIO_WritePin
  55              	.LVL4:
  21:My_Top/System/kth_read.cpp **** }
  56              		.loc 1 21 1 view .LVU9
  57              		@ sp needed
  58 0014 10BD     		pop	{r4, pc}
  59              	.LVL5:
  60              	.L3:
  20:My_Top/System/kth_read.cpp ****     HAL_GPIO_WritePin(_cs_port, _cs_pin, status ? GPIO_PIN_SET : GPIO_PIN_RESET);
  61              		.loc 1 20 22 discriminator 2 view .LVU10
  62 0016 0022     		movs	r2, #0
  63 0018 F9E7     		b	.L2
  64              		.cfi_endproc
  65              	.LFE1439:
  67              		.align	1
  68              		.global	_ZN7KTH711119SPI_Set_MOSI_OutputEv
  69              		.syntax unified
  70              		.code	16
  71              		.thumb_func
  73              	_ZN7KTH711119SPI_Set_MOSI_OutputEv:
  74              	.LVL6:
  75              	.LFB1440:
  22:My_Top/System/kth_read.cpp **** 
  23:My_Top/System/kth_read.cpp **** void KTH7111::SPI_Set_MOSI_Output()
  24:My_Top/System/kth_read.cpp **** {
  76              		.loc 1 24 1 is_stmt 1 view -0
  77              		.cfi_startproc
  78              		@ args = 0, pretend = 0, frame = 0
  79              		@ frame_needed = 0, uses_anonymous_args = 0
  80              		.loc 1 24 1 is_stmt 0 view .LVU12
  81 001a 10B5     		push	{r4, lr}
  82              		.cfi_def_cfa_offset 8
  83              		.cfi_offset 4, -8
  84              		.cfi_offset 14, -4
  25:My_Top/System/kth_read.cpp ****     __HAL_SPI_DISABLE(_hspi);
  85              		.loc 1 25 5 is_stmt 1 view .LVU13
  86 001c 0369     		ldr	r3, [r0, #16]
  87 001e 1A68     		ldr	r2, [r3]
  88 0020 1368     		ldr	r3, [r2]
  89 0022 4021     		movs	r1, #64
  90 0024 8B43     		bics	r3, r1
  91 0026 1360     		str	r3, [r2]
ARM GAS  /tmp/cc5qDhQe.s 			page 3


  26:My_Top/System/kth_read.cpp ****     SET_BIT(_hspi->Instance->CR1, SPI_CR1_BIDIOE);  // MOSI ĶŠōÕć║’╝łõĖ╗µ£║ÕÅæķĆü’╝ē
  92              		.loc 1 26 5 view .LVU14
  93 0028 0369     		ldr	r3, [r0, #16]
  94 002a 1A68     		ldr	r2, [r3]
  95 002c 1468     		ldr	r4, [r2]
  96 002e 8023     		movs	r3, #128
  97 0030 DB01     		lsls	r3, r3, #7
  98 0032 2343     		orrs	r3, r4
  99 0034 1360     		str	r3, [r2]
  27:My_Top/System/kth_read.cpp ****     __HAL_SPI_ENABLE(_hspi);
 100              		.loc 1 27 5 view .LVU15
 101 0036 0369     		ldr	r3, [r0, #16]
 102 0038 1A68     		ldr	r2, [r3]
 103 003a 1368     		ldr	r3, [r2]
 104 003c 0B43     		orrs	r3, r1
 105 003e 1360     		str	r3, [r2]
  28:My_Top/System/kth_read.cpp **** }
 106              		.loc 1 28 1 is_stmt 0 view .LVU16
 107              		@ sp needed
 108 0040 10BD     		pop	{r4, pc}
 109              		.cfi_endproc
 110              	.LFE1440:
 112              		.align	1
 113              		.global	_ZN7KTH711118SPI_Set_MOSI_InputEv
 114              		.syntax unified
 115              		.code	16
 116              		.thumb_func
 118              	_ZN7KTH711118SPI_Set_MOSI_InputEv:
 119              	.LVL7:
 120              	.LFB1441:
  29:My_Top/System/kth_read.cpp **** 
  30:My_Top/System/kth_read.cpp **** void KTH7111::SPI_Set_MOSI_Input()
  31:My_Top/System/kth_read.cpp **** {
 121              		.loc 1 31 1 is_stmt 1 view -0
 122              		.cfi_startproc
 123              		@ args = 0, pretend = 0, frame = 0
 124              		@ frame_needed = 0, uses_anonymous_args = 0
 125              		.loc 1 31 1 is_stmt 0 view .LVU18
 126 0042 10B5     		push	{r4, lr}
 127              		.cfi_def_cfa_offset 8
 128              		.cfi_offset 4, -8
 129              		.cfi_offset 14, -4
  32:My_Top/System/kth_read.cpp ****     __HAL_SPI_DISABLE(_hspi);
 130              		.loc 1 32 5 is_stmt 1 view .LVU19
 131 0044 0369     		ldr	r3, [r0, #16]
 132 0046 1A68     		ldr	r2, [r3]
 133 0048 1368     		ldr	r3, [r2]
 134 004a 4021     		movs	r1, #64
 135 004c 8B43     		bics	r3, r1
 136 004e 1360     		str	r3, [r2]
  33:My_Top/System/kth_read.cpp ****     CLEAR_BIT(_hspi->Instance->CR1, SPI_CR1_BIDIOE);// MOSI ĶŠōÕģź’╝łõĖ╗µ£║µÄźµöČ’╝ē
 137              		.loc 1 33 5 view .LVU20
 138 0050 0369     		ldr	r3, [r0, #16]
 139 0052 1A68     		ldr	r2, [r3]
 140 0054 1368     		ldr	r3, [r2]
 141 0056 044C     		ldr	r4, .L6
 142 0058 2340     		ands	r3, r4
ARM GAS  /tmp/cc5qDhQe.s 			page 4


 143 005a 1360     		str	r3, [r2]
  34:My_Top/System/kth_read.cpp ****     __HAL_SPI_ENABLE(_hspi); 
 144              		.loc 1 34 5 view .LVU21
 145 005c 0369     		ldr	r3, [r0, #16]
 146 005e 1A68     		ldr	r2, [r3]
 147 0060 1368     		ldr	r3, [r2]
 148 0062 0B43     		orrs	r3, r1
 149 0064 1360     		str	r3, [r2]
  35:My_Top/System/kth_read.cpp **** }
 150              		.loc 1 35 1 is_stmt 0 view .LVU22
 151              		@ sp needed
 152 0066 10BD     		pop	{r4, pc}
 153              	.L7:
 154              		.align	2
 155              	.L6:
 156 0068 FFBFFFFF 		.word	-16385
 157              		.cfi_endproc
 158              	.LFE1441:
 160              		.align	1
 161              		.global	_ZN7KTH71118CRC8_ITUEPKhh
 162              		.syntax unified
 163              		.code	16
 164              		.thumb_func
 166              	_ZN7KTH71118CRC8_ITUEPKhh:
 167              	.LVL8:
 168              	.LFB1442:
  36:My_Top/System/kth_read.cpp **** 
  37:My_Top/System/kth_read.cpp **** 
  38:My_Top/System/kth_read.cpp **** 
  39:My_Top/System/kth_read.cpp **** /**
  40:My_Top/System/kth_read.cpp ****  * @brief CRC8/ITU µĀĪķ¬ī
  41:My_Top/System/kth_read.cpp ****  * ÕżÜķĪ╣Õ╝Å’╝Üx8+x2+x+1 (0x07)
  42:My_Top/System/kth_read.cpp ****  * ÕłØÕ¦ŗÕĆ╝’╝Ü0x00
  43:My_Top/System/kth_read.cpp ****  * Õ╝éµł¢ÕĆ╝’╝Ü0x55
  44:My_Top/System/kth_read.cpp ****  */
  45:My_Top/System/kth_read.cpp **** uint8_t KTH7111::CRC8_ITU(const uint8_t *data, uint8_t len)
  46:My_Top/System/kth_read.cpp **** {
 169              		.loc 1 46 1 is_stmt 1 view -0
 170              		.cfi_startproc
 171              		@ args = 0, pretend = 0, frame = 0
 172              		@ frame_needed = 0, uses_anonymous_args = 0
 173              		.loc 1 46 1 is_stmt 0 view .LVU24
 174 006c 30B5     		push	{r4, r5, lr}
 175              		.cfi_def_cfa_offset 12
 176              		.cfi_offset 4, -12
 177              		.cfi_offset 5, -8
 178              		.cfi_offset 14, -4
 179 006e 0D00     		movs	r5, r1
  47:My_Top/System/kth_read.cpp ****     uint8_t crc = 0x00;  /* ÕłØÕ¦ŗÕĆ╝ */
 180              		.loc 1 47 5 is_stmt 1 view .LVU25
 181              	.LVL9:
  48:My_Top/System/kth_read.cpp ****     for (uint8_t i = 0; i < len; i++)
 182              		.loc 1 48 5 view .LVU26
 183              	.LBB2:
 184              		.loc 1 48 18 is_stmt 0 view .LVU27
 185 0070 0024     		movs	r4, #0
 186              	.LBE2:
ARM GAS  /tmp/cc5qDhQe.s 			page 5


  47:My_Top/System/kth_read.cpp ****     uint8_t crc = 0x00;  /* ÕłØÕ¦ŗÕĆ╝ */
 187              		.loc 1 47 13 view .LVU28
 188 0072 0020     		movs	r0, #0
 189              	.LVL10:
 190              	.LBB7:
 191              		.loc 1 48 5 view .LVU29
 192 0074 0FE0     		b	.L9
 193              	.LVL11:
 194              	.L16:
 195              	.LBB3:
 196              	.LBB4:
  49:My_Top/System/kth_read.cpp ****     {
  50:My_Top/System/kth_read.cpp ****         crc ^= data[i];
  51:My_Top/System/kth_read.cpp ****         for (uint8_t j = 0; j < 8; j++)
  52:My_Top/System/kth_read.cpp ****         {
  53:My_Top/System/kth_read.cpp ****             if (crc & 0x80)
  54:My_Top/System/kth_read.cpp ****                 crc = (crc << 1) ^ 0x07;  /* ÕżÜķĪ╣Õ╝Å */
 197              		.loc 1 54 17 is_stmt 1 view .LVU30
 198              		.loc 1 54 34 is_stmt 0 view .LVU31
 199 0076 4900     		lsls	r1, r1, #1
 200 0078 0720     		movs	r0, #7
 201              	.LVL12:
 202              		.loc 1 54 34 view .LVU32
 203 007a 4840     		eors	r0, r1
 204              		.loc 1 54 21 view .LVU33
 205 007c C0B2     		uxtb	r0, r0
 206              	.LVL13:
 207              	.L12:
  51:My_Top/System/kth_read.cpp ****         {
 208              		.loc 1 51 9 is_stmt 1 discriminator 2 view .LVU34
 209 007e 0133     		adds	r3, r3, #1
 210              	.LVL14:
  51:My_Top/System/kth_read.cpp ****         {
 211              		.loc 1 51 9 is_stmt 0 discriminator 2 view .LVU35
 212 0080 DBB2     		uxtb	r3, r3
 213              	.LVL15:
 214              	.L10:
  51:My_Top/System/kth_read.cpp ****         {
 215              		.loc 1 51 31 is_stmt 1 discriminator 1 view .LVU36
 216 0082 072B     		cmp	r3, #7
 217 0084 05D8     		bhi	.L15
  53:My_Top/System/kth_read.cpp ****                 crc = (crc << 1) ^ 0x07;  /* ÕżÜķĪ╣Õ╝Å */
 218              		.loc 1 53 13 view .LVU37
  53:My_Top/System/kth_read.cpp ****                 crc = (crc << 1) ^ 0x07;  /* ÕżÜķĪ╣Õ╝Å */
 219              		.loc 1 53 21 is_stmt 0 view .LVU38
 220 0086 41B2     		sxtb	r1, r0
  53:My_Top/System/kth_read.cpp ****                 crc = (crc << 1) ^ 0x07;  /* ÕżÜķĪ╣Õ╝Å */
 221              		.loc 1 53 13 view .LVU39
 222 0088 0029     		cmp	r1, #0
 223 008a F4DB     		blt	.L16
  55:My_Top/System/kth_read.cpp ****             else
  56:My_Top/System/kth_read.cpp ****                 crc = crc << 1;
 224              		.loc 1 56 17 is_stmt 1 view .LVU40
 225              		.loc 1 56 21 is_stmt 0 view .LVU41
 226 008c 4000     		lsls	r0, r0, #1
 227              	.LVL16:
 228              		.loc 1 56 21 view .LVU42
ARM GAS  /tmp/cc5qDhQe.s 			page 6


 229 008e C0B2     		uxtb	r0, r0
 230 0090 F5E7     		b	.L12
 231              	.LVL17:
 232              	.L15:
 233              		.loc 1 56 21 view .LVU43
 234              	.LBE4:
 235              	.LBE3:
  48:My_Top/System/kth_read.cpp ****     {
 236              		.loc 1 48 5 is_stmt 1 discriminator 2 view .LVU44
 237 0092 0134     		adds	r4, r4, #1
 238              	.LVL18:
  48:My_Top/System/kth_read.cpp ****     {
 239              		.loc 1 48 5 is_stmt 0 discriminator 2 view .LVU45
 240 0094 E4B2     		uxtb	r4, r4
 241              	.LVL19:
 242              	.L9:
  48:My_Top/System/kth_read.cpp ****     {
 243              		.loc 1 48 27 is_stmt 1 discriminator 1 view .LVU46
 244 0096 9442     		cmp	r4, r2
 245 0098 03D2     		bcs	.L17
 246              	.LBB6:
  50:My_Top/System/kth_read.cpp ****         for (uint8_t j = 0; j < 8; j++)
 247              		.loc 1 50 9 view .LVU47
  50:My_Top/System/kth_read.cpp ****         for (uint8_t j = 0; j < 8; j++)
 248              		.loc 1 50 22 is_stmt 0 view .LVU48
 249 009a 2B5D     		ldrb	r3, [r5, r4]
  50:My_Top/System/kth_read.cpp ****         for (uint8_t j = 0; j < 8; j++)
 250              		.loc 1 50 13 view .LVU49
 251 009c 5840     		eors	r0, r3
 252              	.LVL20:
  51:My_Top/System/kth_read.cpp ****         {
 253              		.loc 1 51 9 is_stmt 1 view .LVU50
 254              	.LBB5:
  51:My_Top/System/kth_read.cpp ****         {
 255              		.loc 1 51 22 is_stmt 0 view .LVU51
 256 009e 0023     		movs	r3, #0
  51:My_Top/System/kth_read.cpp ****         {
 257              		.loc 1 51 9 view .LVU52
 258 00a0 EFE7     		b	.L10
 259              	.LVL21:
 260              	.L17:
  51:My_Top/System/kth_read.cpp ****         {
 261              		.loc 1 51 9 view .LVU53
 262              	.LBE5:
 263              	.LBE6:
 264              	.LBE7:
  57:My_Top/System/kth_read.cpp ****         }
  58:My_Top/System/kth_read.cpp ****     }
  59:My_Top/System/kth_read.cpp ****     crc ^= 0x55;
 265              		.loc 1 59 5 is_stmt 1 view .LVU54
 266              		.loc 1 59 9 is_stmt 0 view .LVU55
 267 00a2 5523     		movs	r3, #85
 268 00a4 5840     		eors	r0, r3
 269              	.LVL22:
 270              		.loc 1 59 9 view .LVU56
 271 00a6 C0B2     		uxtb	r0, r0
 272              	.LVL23:
ARM GAS  /tmp/cc5qDhQe.s 			page 7


  60:My_Top/System/kth_read.cpp ****     return crc;
 273              		.loc 1 60 5 is_stmt 1 view .LVU57
  61:My_Top/System/kth_read.cpp **** }
 274              		.loc 1 61 1 is_stmt 0 view .LVU58
 275              		@ sp needed
 276              	.LVL24:
 277              	.LVL25:
 278              		.loc 1 61 1 view .LVU59
 279 00a8 30BD     		pop	{r4, r5, pc}
 280              		.cfi_endproc
 281              	.LFE1442:
 283              		.align	1
 284              		.global	_ZN7KTH711121KTH7111_Send_JIAO_CMDEv
 285              		.syntax unified
 286              		.code	16
 287              		.thumb_func
 289              	_ZN7KTH711121KTH7111_Send_JIAO_CMDEv:
 290              	.LVL26:
 291              	.LFB1443:
  62:My_Top/System/kth_read.cpp **** 
  63:My_Top/System/kth_read.cpp **** 
  64:My_Top/System/kth_read.cpp **** void KTH7111::KTH7111_Send_JIAO_CMD() //Ķ»╗ÕÅ¢Ķ¦ÆÕ║”
  65:My_Top/System/kth_read.cpp **** {
 292              		.loc 1 65 1 is_stmt 1 view -0
 293              		.cfi_startproc
 294              		@ args = 0, pretend = 0, frame = 8
 295              		@ frame_needed = 0, uses_anonymous_args = 0
 296              		.loc 1 65 1 is_stmt 0 view .LVU61
 297 00aa 30B5     		push	{r4, r5, lr}
 298              		.cfi_def_cfa_offset 12
 299              		.cfi_offset 4, -12
 300              		.cfi_offset 5, -8
 301              		.cfi_offset 14, -4
 302 00ac 83B0     		sub	sp, sp, #12
 303              		.cfi_def_cfa_offset 24
 304 00ae 0400     		movs	r4, r0
  66:My_Top/System/kth_read.cpp ****     HAL_StatusTypeDef status = HAL_ERROR;
 305              		.loc 1 66 5 is_stmt 1 view .LVU62
 306              	.LVL27:
  67:My_Top/System/kth_read.cpp ****     uint8_t cmd = 0x00;   //ÕÅæķĆüÕæĮõ╗ż’╝Ü8bit’╝ł0x00’╝ē
 307              		.loc 1 67 5 view .LVU63
 308              		.loc 1 67 13 is_stmt 0 view .LVU64
 309 00b0 6B46     		mov	r3, sp
 310 00b2 DD1D     		adds	r5, r3, #7
 311 00b4 0023     		movs	r3, #0
 312 00b6 2B70     		strb	r3, [r5]
  68:My_Top/System/kth_read.cpp ****     uint8_t rx_buff[3] = {0}; /* µöČ 2ÕŁŚĶŖéĶ¦ÆÕ║” + 1ÕŁŚĶŖéCRC */
 313              		.loc 1 68 5 is_stmt 1 view .LVU65
 314              		.loc 1 68 13 is_stmt 0 view .LVU66
 315 00b8 0322     		movs	r2, #3
 316 00ba 0021     		movs	r1, #0
 317 00bc 01A8     		add	r0, sp, #4
 318              	.LVL28:
 319              		.loc 1 68 13 view .LVU67
 320 00be FFF7FEFF 		bl	memset
 321              	.LVL29:
  69:My_Top/System/kth_read.cpp ****     uint8_t crc = 0;
ARM GAS  /tmp/cc5qDhQe.s 			page 8


 322              		.loc 1 69 5 is_stmt 1 view .LVU68
  70:My_Top/System/kth_read.cpp ****     
  71:My_Top/System/kth_read.cpp ****     KTH_CS_Enble(false);/* ńēćķĆēµŗēõĮÄ */
 323              		.loc 1 71 5 view .LVU69
 324              		.loc 1 71 17 is_stmt 0 view .LVU70
 325 00c2 0021     		movs	r1, #0
 326 00c4 2000     		movs	r0, r4
 327 00c6 FFF7FEFF 		bl	_ZN7KTH711112KTH_CS_EnbleEb
 328              	.LVL30:
  72:My_Top/System/kth_read.cpp ****     status = HAL_SPI_Transmit(_hspi,&cmd, 1, 1);//ÕÅæķĆüÕæĮõ╗ż’╝Ü8bit’╝ł0x00’╝ē
 329              		.loc 1 72 5 is_stmt 1 view .LVU71
 330              		.loc 1 72 30 is_stmt 0 view .LVU72
 331 00ca 2069     		ldr	r0, [r4, #16]
 332 00cc 0123     		movs	r3, #1
 333 00ce 0122     		movs	r2, #1
 334 00d0 2900     		movs	r1, r5
 335 00d2 FFF7FEFF 		bl	HAL_SPI_Transmit
 336              	.LVL31:
  73:My_Top/System/kth_read.cpp ****     if(status != HAL_OK) return;
 337              		.loc 1 73 5 is_stmt 1 view .LVU73
 338 00d6 0028     		cmp	r0, #0
 339 00d8 01D0     		beq	.L22
 340              	.LVL32:
 341              	.L18:
  74:My_Top/System/kth_read.cpp **** 
  75:My_Top/System/kth_read.cpp ****     SPI_Set_MOSI_Input();//MOSIÕÅśõĖ║MISO
  76:My_Top/System/kth_read.cpp **** 
  77:My_Top/System/kth_read.cpp ****     status = HAL_SPI_Receive(_hspi,rx_buff, 3, 1); //µÄźµöČµĢ░µŹ«’╝Ü2ÕŁŚĶŖéĶ¦ÆÕ║” + 1ÕŁŚĶŖéCRC
  78:My_Top/System/kth_read.cpp ****     if(status != HAL_OK) return;
  79:My_Top/System/kth_read.cpp **** 
  80:My_Top/System/kth_read.cpp ****     SPI_Set_MOSI_Output();//MISO ÕÅśõĖ║MOSI
  81:My_Top/System/kth_read.cpp **** 
  82:My_Top/System/kth_read.cpp ****     KTH_CS_Enble(true);/* ńēćķĆēµŗēķ½ś */
  83:My_Top/System/kth_read.cpp ****     crc = CRC8_ITU(rx_buff, 2); //µĀĪķ¬īCRC
  84:My_Top/System/kth_read.cpp ****     if(crc != rx_buff[2]) return; //CRCµĀĪķ¬īµ£¬ķĆÜĶ┐ć
  85:My_Top/System/kth_read.cpp ****     single_turn = (uint16_t)(rx_buff[0] << 8) | (uint16_t)rx_buff[1]; //ĶĮ¼µłÉ16õĮŹµĢ░µŹ«
  86:My_Top/System/kth_read.cpp ****     if(encoder_dir == false) single_turn = KTH7111_PRECISION - single_turn; //Ķ¦ÆÕ║”µ¢╣ÕÉæÕÅ¢ÕÅŹ
  87:My_Top/System/kth_read.cpp ****     theta = single_turn*RAW_TO_RAD;//ĶĮ¼µłÉÕ╝¦Õ║”
  88:My_Top/System/kth_read.cpp ****     angle = theta*RAD_TO_DEG;//ĶĮ¼µłÉĶ¦ÆÕ║”
  89:My_Top/System/kth_read.cpp **** }
 342              		.loc 1 89 1 is_stmt 0 view .LVU74
 343 00da 03B0     		add	sp, sp, #12
 344              		@ sp needed
 345              	.LVL33:
 346              		.loc 1 89 1 view .LVU75
 347 00dc 30BD     		pop	{r4, r5, pc}
 348              	.LVL34:
 349              	.L22:
  75:My_Top/System/kth_read.cpp **** 
 350              		.loc 1 75 5 is_stmt 1 view .LVU76
  75:My_Top/System/kth_read.cpp **** 
 351              		.loc 1 75 23 is_stmt 0 view .LVU77
 352 00de 2000     		movs	r0, r4
 353              	.LVL35:
  75:My_Top/System/kth_read.cpp **** 
 354              		.loc 1 75 23 view .LVU78
 355 00e0 FFF7FEFF 		bl	_ZN7KTH711118SPI_Set_MOSI_InputEv
ARM GAS  /tmp/cc5qDhQe.s 			page 9


 356              	.LVL36:
  77:My_Top/System/kth_read.cpp ****     if(status != HAL_OK) return;
 357              		.loc 1 77 5 is_stmt 1 view .LVU79
  77:My_Top/System/kth_read.cpp ****     if(status != HAL_OK) return;
 358              		.loc 1 77 29 is_stmt 0 view .LVU80
 359 00e4 2069     		ldr	r0, [r4, #16]
 360 00e6 0123     		movs	r3, #1
 361 00e8 0322     		movs	r2, #3
 362 00ea 01A9     		add	r1, sp, #4
 363 00ec FFF7FEFF 		bl	HAL_SPI_Receive
 364              	.LVL37:
  78:My_Top/System/kth_read.cpp **** 
 365              		.loc 1 78 5 is_stmt 1 view .LVU81
 366 00f0 0028     		cmp	r0, #0
 367 00f2 F2D1     		bne	.L18
  80:My_Top/System/kth_read.cpp **** 
 368              		.loc 1 80 5 view .LVU82
  80:My_Top/System/kth_read.cpp **** 
 369              		.loc 1 80 24 is_stmt 0 view .LVU83
 370 00f4 2000     		movs	r0, r4
 371              	.LVL38:
  80:My_Top/System/kth_read.cpp **** 
 372              		.loc 1 80 24 view .LVU84
 373 00f6 FFF7FEFF 		bl	_ZN7KTH711119SPI_Set_MOSI_OutputEv
 374              	.LVL39:
  82:My_Top/System/kth_read.cpp ****     crc = CRC8_ITU(rx_buff, 2); //µĀĪķ¬īCRC
 375              		.loc 1 82 5 is_stmt 1 view .LVU85
  82:My_Top/System/kth_read.cpp ****     crc = CRC8_ITU(rx_buff, 2); //µĀĪķ¬īCRC
 376              		.loc 1 82 17 is_stmt 0 view .LVU86
 377 00fa 0121     		movs	r1, #1
 378 00fc 2000     		movs	r0, r4
 379 00fe FFF7FEFF 		bl	_ZN7KTH711112KTH_CS_EnbleEb
 380              	.LVL40:
  83:My_Top/System/kth_read.cpp ****     if(crc != rx_buff[2]) return; //CRCµĀĪķ¬īµ£¬ķĆÜĶ┐ć
 381              		.loc 1 83 5 is_stmt 1 view .LVU87
  83:My_Top/System/kth_read.cpp ****     if(crc != rx_buff[2]) return; //CRCµĀĪķ¬īµ£¬ķĆÜĶ┐ć
 382              		.loc 1 83 19 is_stmt 0 view .LVU88
 383 0102 01AD     		add	r5, sp, #4
 384 0104 0222     		movs	r2, #2
 385 0106 2900     		movs	r1, r5
 386 0108 2000     		movs	r0, r4
 387 010a FFF7FEFF 		bl	_ZN7KTH71118CRC8_ITUEPKhh
 388              	.LVL41:
  84:My_Top/System/kth_read.cpp ****     single_turn = (uint16_t)(rx_buff[0] << 8) | (uint16_t)rx_buff[1]; //ĶĮ¼µłÉ16õĮŹµĢ░µŹ«
 389              		.loc 1 84 5 is_stmt 1 view .LVU89
  84:My_Top/System/kth_read.cpp ****     single_turn = (uint16_t)(rx_buff[0] << 8) | (uint16_t)rx_buff[1]; //ĶĮ¼µłÉ16õĮŹµĢ░µŹ«
 390              		.loc 1 84 24 is_stmt 0 view .LVU90
 391 010e AB78     		ldrb	r3, [r5, #2]
  84:My_Top/System/kth_read.cpp ****     single_turn = (uint16_t)(rx_buff[0] << 8) | (uint16_t)rx_buff[1]; //ĶĮ¼µłÉ16õĮŹµĢ░µŹ«
 392              		.loc 1 84 5 view .LVU91
 393 0110 8342     		cmp	r3, r0
 394 0112 E2D1     		bne	.L18
  85:My_Top/System/kth_read.cpp ****     if(encoder_dir == false) single_turn = KTH7111_PRECISION - single_turn; //Ķ¦ÆÕ║”µ¢╣ÕÉæÕÅ¢ÕÅŹ
 395              		.loc 1 85 5 is_stmt 1 view .LVU92
  85:My_Top/System/kth_read.cpp ****     if(encoder_dir == false) single_turn = KTH7111_PRECISION - single_turn; //Ķ¦ÆÕ║”µ¢╣ÕÉæÕÅ¢ÕÅŹ
 396              		.loc 1 85 39 is_stmt 0 view .LVU93
 397 0114 2878     		ldrb	r0, [r5]
ARM GAS  /tmp/cc5qDhQe.s 			page 10


 398              	.LVL42:
  85:My_Top/System/kth_read.cpp ****     if(encoder_dir == false) single_turn = KTH7111_PRECISION - single_turn; //Ķ¦ÆÕ║”µ¢╣ÕÉæÕÅ¢ÕÅŹ
 399              		.loc 1 85 41 view .LVU94
 400 0116 0002     		lsls	r0, r0, #8
  85:My_Top/System/kth_read.cpp ****     if(encoder_dir == false) single_turn = KTH7111_PRECISION - single_turn; //Ķ¦ÆÕ║”µ¢╣ÕÉæÕÅ¢ÕÅŹ
 401              		.loc 1 85 68 view .LVU95
 402 0118 6B78     		ldrb	r3, [r5, #1]
  85:My_Top/System/kth_read.cpp ****     if(encoder_dir == false) single_turn = KTH7111_PRECISION - single_turn; //Ķ¦ÆÕ║”µ¢╣ÕÉæÕÅ¢ÕÅŹ
 403              		.loc 1 85 47 view .LVU96
 404 011a 1843     		orrs	r0, r3
  85:My_Top/System/kth_read.cpp ****     if(encoder_dir == false) single_turn = KTH7111_PRECISION - single_turn; //Ķ¦ÆÕ║”µ¢╣ÕÉæÕÅ¢ÕÅŹ
 405              		.loc 1 85 17 view .LVU97
 406 011c 2080     		strh	r0, [r4]
  86:My_Top/System/kth_read.cpp ****     theta = single_turn*RAW_TO_RAD;//ĶĮ¼µłÉÕ╝¦Õ║”
 407              		.loc 1 86 5 is_stmt 1 view .LVU98
  86:My_Top/System/kth_read.cpp ****     theta = single_turn*RAW_TO_RAD;//ĶĮ¼µłÉÕ╝¦Õ║”
 408              		.loc 1 86 8 is_stmt 0 view .LVU99
 409 011e 237B     		ldrb	r3, [r4, #12]
  86:My_Top/System/kth_read.cpp ****     theta = single_turn*RAW_TO_RAD;//ĶĮ¼µłÉÕ╝¦Õ║”
 410              		.loc 1 86 5 view .LVU100
 411 0120 002B     		cmp	r3, #0
 412 0122 08D1     		bne	.L20
  86:My_Top/System/kth_read.cpp ****     theta = single_turn*RAW_TO_RAD;//ĶĮ¼µłÉÕ╝¦Õ║”
 413              		.loc 1 86 30 is_stmt 1 discriminator 1 view .LVU101
  86:My_Top/System/kth_read.cpp ****     theta = single_turn*RAW_TO_RAD;//ĶĮ¼µłÉÕ╝¦Õ║”
 414              		.loc 1 86 62 is_stmt 0 discriminator 1 view .LVU102
 415 0124 FFF7FEFF 		bl	__aeabi_i2f
 416              	.LVL43:
 417 0128 011C     		adds	r1, r0, #0
 418 012a 0948     		ldr	r0, .L23
 419 012c FFF7FEFF 		bl	__aeabi_fsub
 420              	.LVL44:
  86:My_Top/System/kth_read.cpp ****     theta = single_turn*RAW_TO_RAD;//ĶĮ¼µłÉÕ╝¦Õ║”
 421              		.loc 1 86 42 discriminator 1 view .LVU103
 422 0130 FFF7FEFF 		bl	__aeabi_f2uiz
 423              	.LVL45:
 424 0134 2080     		strh	r0, [r4]
 425              	.L20:
  87:My_Top/System/kth_read.cpp ****     angle = theta*RAD_TO_DEG;//ĶĮ¼µłÉĶ¦ÆÕ║”
 426              		.loc 1 87 5 is_stmt 1 view .LVU104
  87:My_Top/System/kth_read.cpp ****     angle = theta*RAD_TO_DEG;//ĶĮ¼µłÉĶ¦ÆÕ║”
 427              		.loc 1 87 13 is_stmt 0 view .LVU105
 428 0136 2088     		ldrh	r0, [r4]
  87:My_Top/System/kth_read.cpp ****     angle = theta*RAD_TO_DEG;//ĶĮ¼µłÉĶ¦ÆÕ║”
 429              		.loc 1 87 24 view .LVU106
 430 0138 FFF7FEFF 		bl	__aeabi_i2f
 431              	.LVL46:
 432 013c 0549     		ldr	r1, .L23+4
 433 013e FFF7FEFF 		bl	__aeabi_fmul
 434              	.LVL47:
  87:My_Top/System/kth_read.cpp ****     angle = theta*RAD_TO_DEG;//ĶĮ¼µłÉĶ¦ÆÕ║”
 435              		.loc 1 87 11 view .LVU107
 436 0142 6060     		str	r0, [r4, #4]
  88:My_Top/System/kth_read.cpp **** }
 437              		.loc 1 88 5 is_stmt 1 view .LVU108
  88:My_Top/System/kth_read.cpp **** }
 438              		.loc 1 88 18 is_stmt 0 view .LVU109
ARM GAS  /tmp/cc5qDhQe.s 			page 11


 439 0144 0449     		ldr	r1, .L23+8
 440 0146 FFF7FEFF 		bl	__aeabi_fmul
 441              	.LVL48:
  88:My_Top/System/kth_read.cpp **** }
 442              		.loc 1 88 11 view .LVU110
 443 014a A060     		str	r0, [r4, #8]
 444 014c C5E7     		b	.L18
 445              	.L24:
 446 014e C046     		.align	2
 447              	.L23:
 448 0150 00FF7F47 		.word	1199570688
 449 0154 A410C938 		.word	952701092
 450 0158 E02E6542 		.word	1113927392
 451              		.cfi_endproc
 452              	.LFE1443:
 454              		.align	1
 455              		.global	_ZN7KTH711118Get_KTH7111_RadianEv
 456              		.syntax unified
 457              		.code	16
 458              		.thumb_func
 460              	_ZN7KTH711118Get_KTH7111_RadianEv:
 461              	.LVL49:
 462              	.LFB1444:
  90:My_Top/System/kth_read.cpp **** 
  91:My_Top/System/kth_read.cpp **** 
  92:My_Top/System/kth_read.cpp **** /**
  93:My_Top/System/kth_read.cpp ****  * @brief ĶÄĘÕÅ¢KTH7111õ╝Āµä¤ÕÖ©ńÜäÕ╝¦Õ║”ÕĆ╝
  94:My_Top/System/kth_read.cpp ****  * @return float Ķ┐öÕø×ÕĮōÕēŹÕŁśÕé©ńÜäÕ╝¦Õ║”ÕĆ╝theta
  95:My_Top/System/kth_read.cpp ****  */
  96:My_Top/System/kth_read.cpp **** float KTH7111::Get_KTH7111_Radian(void) //ĶÄĘÕÅ¢Õ╝¦Õ║”
  97:My_Top/System/kth_read.cpp **** {
 463              		.loc 1 97 1 is_stmt 1 view -0
 464              		.cfi_startproc
 465              		@ args = 0, pretend = 0, frame = 0
 466              		@ frame_needed = 0, uses_anonymous_args = 0
 467              		@ link register save eliminated.
  98:My_Top/System/kth_read.cpp ****     return theta;  // Ķ┐öÕø×µłÉÕæśÕÅśķćÅthetańÜäÕĆ╝’╝īĶ»źÕĆ╝ÕŁśÕé©õ║åõ╝Āµä¤ÕÖ©ńÜäÕ╝¦Õ║”µĄŗķćÅÕĆ╝
 468              		.loc 1 98 5 view .LVU112
 469              		.loc 1 98 12 is_stmt 0 discriminator 1 view .LVU113
 470 015c 4068     		ldr	r0, [r0, #4]
 471              	.LVL50:
  99:My_Top/System/kth_read.cpp **** }
 472              		.loc 1 99 1 view .LVU114
 473              		@ sp needed
 474 015e 7047     		bx	lr
 475              		.cfi_endproc
 476              	.LFE1444:
 478              		.align	1
 479              		.global	_ZN7KTH711118Get_KTH7111_DegreeEv
 480              		.syntax unified
 481              		.code	16
 482              		.thumb_func
 484              	_ZN7KTH711118Get_KTH7111_DegreeEv:
 485              	.LVL51:
 486              	.LFB1445:
 100:My_Top/System/kth_read.cpp **** 
 101:My_Top/System/kth_read.cpp **** float KTH7111::Get_KTH7111_Degree(void) //ĶÄĘÕÅ¢Ķ¦ÆÕ║”
ARM GAS  /tmp/cc5qDhQe.s 			page 12


 102:My_Top/System/kth_read.cpp **** {
 487              		.loc 1 102 1 is_stmt 1 view -0
 488              		.cfi_startproc
 489              		@ args = 0, pretend = 0, frame = 0
 490              		@ frame_needed = 0, uses_anonymous_args = 0
 491              		@ link register save eliminated.
 103:My_Top/System/kth_read.cpp ****     return angle;
 492              		.loc 1 103 5 view .LVU116
 493              		.loc 1 103 12 is_stmt 0 discriminator 1 view .LVU117
 494 0160 8068     		ldr	r0, [r0, #8]
 495              	.LVL52:
 104:My_Top/System/kth_read.cpp **** }
 496              		.loc 1 104 1 view .LVU118
 497              		@ sp needed
 498 0162 7047     		bx	lr
 499              		.cfi_endproc
 500              	.LFE1445:
 502              		.align	1
 503              		.global	_ZN7KTH711115KTH7111_ReadRegEh
 504              		.syntax unified
 505              		.code	16
 506              		.thumb_func
 508              	_ZN7KTH711115KTH7111_ReadRegEh:
 509              	.LVL53:
 510              	.LFB1446:
 105:My_Top/System/kth_read.cpp **** 
 106:My_Top/System/kth_read.cpp **** /* ---------------------- Ķ»╗Õ»äÕŁśÕÖ© ---------------------- */
 107:My_Top/System/kth_read.cpp **** uint8_t KTH7111::KTH7111_ReadReg(uint8_t addr)
 108:My_Top/System/kth_read.cpp **** {
 511              		.loc 1 108 1 is_stmt 1 view -0
 512              		.cfi_startproc
 513              		@ args = 0, pretend = 0, frame = 16
 514              		@ frame_needed = 0, uses_anonymous_args = 0
 515              		.loc 1 108 1 is_stmt 0 view .LVU120
 516 0164 70B5     		push	{r4, r5, r6, lr}
 517              		.cfi_def_cfa_offset 16
 518              		.cfi_offset 4, -16
 519              		.cfi_offset 5, -12
 520              		.cfi_offset 6, -8
 521              		.cfi_offset 14, -4
 522 0166 84B0     		sub	sp, sp, #16
 523              		.cfi_def_cfa_offset 32
 524 0168 0400     		movs	r4, r0
 109:My_Top/System/kth_read.cpp ****     uint8_t cmd[2] = {0x11, addr};  /*ÕÅæķĆüÕæĮõ╗ż’╝Ü8bit 0x11 + 8bit Õ»äÕŁśÕÖ©Õ£░ÕØĆ*/
 525              		.loc 1 109 5 is_stmt 1 view .LVU121
 526              		.loc 1 109 13 is_stmt 0 view .LVU122
 527 016a 03AD     		add	r5, sp, #12
 528 016c 0023     		movs	r3, #0
 529 016e 2B80     		strh	r3, [r5]
 530 0170 1122     		movs	r2, #17
 531 0172 2A70     		strb	r2, [r5]
 532              		.loc 1 109 33 view .LVU123
 533 0174 6970     		strb	r1, [r5, #1]
 110:My_Top/System/kth_read.cpp ****     uint8_t rx_buff[2] = {0}; /* µöČ 8bit Õ»äÕŁśÕÖ©ÕĆ╝ + 8bitCRC */
 534              		.loc 1 110 5 is_stmt 1 view .LVU124
 535              		.loc 1 110 13 is_stmt 0 view .LVU125
 536 0176 02AA     		add	r2, sp, #8
ARM GAS  /tmp/cc5qDhQe.s 			page 13


 537 0178 1380     		strh	r3, [r2]
 111:My_Top/System/kth_read.cpp ****     uint8_t crc = 0; 
 538              		.loc 1 111 5 is_stmt 1 view .LVU126
 539              	.LVL54:
 112:My_Top/System/kth_read.cpp ****     HAL_StatusTypeDef status = HAL_ERROR;
 540              		.loc 1 112 5 view .LVU127
 113:My_Top/System/kth_read.cpp **** 
 114:My_Top/System/kth_read.cpp ****     KTH_CS_Enble(false);
 541              		.loc 1 114 5 view .LVU128
 542              		.loc 1 114 17 is_stmt 0 view .LVU129
 543 017a 0021     		movs	r1, #0
 544              	.LVL55:
 545              		.loc 1 114 17 view .LVU130
 546 017c FFF7FEFF 		bl	_ZN7KTH711112KTH_CS_EnbleEb
 547              	.LVL56:
 115:My_Top/System/kth_read.cpp ****     status = HAL_SPI_Transmit(_hspi,cmd, 2, 10);//ÕÅæķĆüÕæĮõ╗ż’╝Ü8bit 0x11 + 8bit Õ»äÕŁśÕÖ©Õ£░ÕØĆ
 548              		.loc 1 115 5 is_stmt 1 view .LVU131
 549              		.loc 1 115 30 is_stmt 0 view .LVU132
 550 0180 2069     		ldr	r0, [r4, #16]
 551 0182 0A23     		movs	r3, #10
 552 0184 0222     		movs	r2, #2
 553 0186 2900     		movs	r1, r5
 554 0188 FFF7FEFF 		bl	HAL_SPI_Transmit
 555              	.LVL57:
 556 018c 061E     		subs	r6, r0, #0
 557              	.LVL58:
 116:My_Top/System/kth_read.cpp ****     if(status != HAL_OK) 
 558              		.loc 1 116 5 is_stmt 1 view .LVU133
 559 018e 05D1     		bne	.L35
 117:My_Top/System/kth_read.cpp ****     {
 118:My_Top/System/kth_read.cpp ****         KTH_CS_Enble(true);
 119:My_Top/System/kth_read.cpp ****         return 0;
 120:My_Top/System/kth_read.cpp ****     }
 121:My_Top/System/kth_read.cpp **** 
 122:My_Top/System/kth_read.cpp ****     SPI_Set_MOSI_Input();//MOSIÕÅśõĖ║MISO
 560              		.loc 1 122 5 view .LVU134
 561              		.loc 1 122 23 is_stmt 0 view .LVU135
 562 0190 2000     		movs	r0, r4
 563              	.LVL59:
 564              		.loc 1 122 23 view .LVU136
 565 0192 FFF7FEFF 		bl	_ZN7KTH711118SPI_Set_MOSI_InputEv
 566              	.LVL60:
 123:My_Top/System/kth_read.cpp **** 
 124:My_Top/System/kth_read.cpp ****     for(volatile uint32_t i = 0; i < 28; i++) { __NOP(); } //Õ╗ČµŚČ1us
 567              		.loc 1 124 5 is_stmt 1 view .LVU137
 568              	.LBB8:
 569              		.loc 1 124 27 is_stmt 0 view .LVU138
 570 0196 0023     		movs	r3, #0
 571 0198 0093     		str	r3, [sp]
 572              		.loc 1 124 5 view .LVU139
 573 019a 0BE0     		b	.L30
 574              	.LVL61:
 575              	.L35:
 576              		.loc 1 124 5 view .LVU140
 577              	.LBE8:
 118:My_Top/System/kth_read.cpp ****         return 0;
 578              		.loc 1 118 9 is_stmt 1 view .LVU141
ARM GAS  /tmp/cc5qDhQe.s 			page 14


 118:My_Top/System/kth_read.cpp ****         return 0;
 579              		.loc 1 118 21 is_stmt 0 view .LVU142
 580 019c 0121     		movs	r1, #1
 581 019e 2000     		movs	r0, r4
 582              	.LVL62:
 118:My_Top/System/kth_read.cpp ****         return 0;
 583              		.loc 1 118 21 view .LVU143
 584 01a0 FFF7FEFF 		bl	_ZN7KTH711112KTH_CS_EnbleEb
 585              	.LVL63:
 119:My_Top/System/kth_read.cpp ****     }
 586              		.loc 1 119 9 is_stmt 1 view .LVU144
 119:My_Top/System/kth_read.cpp ****     }
 587              		.loc 1 119 16 is_stmt 0 view .LVU145
 588 01a4 0025     		movs	r5, #0
 589              	.LVL64:
 590              	.L29:
 125:My_Top/System/kth_read.cpp ****     status = HAL_SPI_Receive(_hspi,rx_buff, 2, 10); //µÄźµöČµĢ░µŹ«’╝Ü8bit Õ»äÕŁśÕÖ©ÕĆ╝ + 8bitCRC
 126:My_Top/System/kth_read.cpp ****     if(status != HAL_OK)
 127:My_Top/System/kth_read.cpp ****     {
 128:My_Top/System/kth_read.cpp ****         KTH_CS_Enble(true);
 129:My_Top/System/kth_read.cpp ****         SPI_Set_MOSI_Output();//MISO ÕÅśõĖ║MOSI
 130:My_Top/System/kth_read.cpp ****         return 0;
 131:My_Top/System/kth_read.cpp ****     }
 132:My_Top/System/kth_read.cpp ****     for(volatile uint32_t i = 0; i < 28; i++) { __NOP(); } //Õ╗ČµŚČ1us
 133:My_Top/System/kth_read.cpp ****     SPI_Set_MOSI_Output();//MISO ÕÅśõĖ║MOSI
 134:My_Top/System/kth_read.cpp ****     KTH_CS_Enble(true);
 135:My_Top/System/kth_read.cpp **** 
 136:My_Top/System/kth_read.cpp ****     
 137:My_Top/System/kth_read.cpp **** 
 138:My_Top/System/kth_read.cpp ****     crc = CRC8_ITU(rx_buff, 1); //µĀĪķ¬īCRC
 139:My_Top/System/kth_read.cpp ****     if(crc != rx_buff[1]) return 0; //CRCµĀĪķ¬īµ£¬ķĆÜĶ┐ć 
 140:My_Top/System/kth_read.cpp ****     return rx_buff[0]; //Ķ┐öÕø×Õ»äÕŁśÕÖ©ÕĆ╝ 
 141:My_Top/System/kth_read.cpp **** }
 591              		.loc 1 141 1 view .LVU146
 592 01a6 2800     		movs	r0, r5
 593 01a8 04B0     		add	sp, sp, #16
 594              		@ sp needed
 595              	.LVL65:
 596              		.loc 1 141 1 view .LVU147
 597 01aa 70BD     		pop	{r4, r5, r6, pc}
 598              	.LVL66:
 599              	.L31:
 600              	.LBB9:
 124:My_Top/System/kth_read.cpp ****     status = HAL_SPI_Receive(_hspi,rx_buff, 2, 10); //µÄźµöČµĢ░µŹ«’╝Ü8bit Õ»äÕŁśÕÖ©ÕĆ╝ + 8bitCRC
 601              		.loc 1 124 49 is_stmt 1 discriminator 3 view .LVU148
 602              		.syntax divided
 603              	@ 124 "My_Top/System/kth_read.cpp" 1
 604 01ac C046     		nop
 605              	@ 0 "" 2
 124:My_Top/System/kth_read.cpp ****     status = HAL_SPI_Receive(_hspi,rx_buff, 2, 10); //µÄźµöČµĢ░µŹ«’╝Ü8bit Õ»äÕŁśÕÖ©ÕĆ╝ + 8bitCRC
 606              		.loc 1 124 5 discriminator 3 view .LVU149
 607              		.thumb
 608              		.syntax unified
 609 01ae 009B     		ldr	r3, [sp]
 610 01b0 0133     		adds	r3, r3, #1
 611 01b2 0093     		str	r3, [sp]
 612              	.L30:
ARM GAS  /tmp/cc5qDhQe.s 			page 15


 124:My_Top/System/kth_read.cpp ****     status = HAL_SPI_Receive(_hspi,rx_buff, 2, 10); //µÄźµöČµĢ░µŹ«’╝Ü8bit Õ»äÕŁśÕÖ©ÕĆ╝ + 8bitCRC
 613              		.loc 1 124 36 discriminator 1 view .LVU150
 614 01b4 009B     		ldr	r3, [sp]
 615 01b6 1B2B     		cmp	r3, #27
 616 01b8 F8D9     		bls	.L31
 617              	.LBE9:
 125:My_Top/System/kth_read.cpp ****     status = HAL_SPI_Receive(_hspi,rx_buff, 2, 10); //µÄźµöČµĢ░µŹ«’╝Ü8bit Õ»äÕŁśÕÖ©ÕĆ╝ + 8bitCRC
 618              		.loc 1 125 5 view .LVU151
 125:My_Top/System/kth_read.cpp ****     status = HAL_SPI_Receive(_hspi,rx_buff, 2, 10); //µÄźµöČµĢ░µŹ«’╝Ü8bit Õ»äÕŁśÕÖ©ÕĆ╝ + 8bitCRC
 619              		.loc 1 125 29 is_stmt 0 view .LVU152
 620 01ba 2069     		ldr	r0, [r4, #16]
 621 01bc 0A23     		movs	r3, #10
 622 01be 0222     		movs	r2, #2
 623 01c0 02A9     		add	r1, sp, #8
 624 01c2 FFF7FEFF 		bl	HAL_SPI_Receive
 625              	.LVL67:
 626 01c6 051E     		subs	r5, r0, #0
 627              	.LVL68:
 126:My_Top/System/kth_read.cpp ****     {
 628              		.loc 1 126 5 is_stmt 1 view .LVU153
 629 01c8 02D1     		bne	.L36
 132:My_Top/System/kth_read.cpp ****     SPI_Set_MOSI_Output();//MISO ÕÅśõĖ║MOSI
 630              		.loc 1 132 5 view .LVU154
 631              	.LBB10:
 132:My_Top/System/kth_read.cpp ****     SPI_Set_MOSI_Output();//MISO ÕÅśõĖ║MOSI
 632              		.loc 1 132 27 is_stmt 0 view .LVU155
 633 01ca 0023     		movs	r3, #0
 634 01cc 0193     		str	r3, [sp, #4]
 132:My_Top/System/kth_read.cpp ****     SPI_Set_MOSI_Output();//MISO ÕÅśõĖ║MOSI
 635              		.loc 1 132 5 view .LVU156
 636 01ce 0CE0     		b	.L33
 637              	.L36:
 638              	.LBE10:
 128:My_Top/System/kth_read.cpp ****         SPI_Set_MOSI_Output();//MISO ÕÅśõĖ║MOSI
 639              		.loc 1 128 9 is_stmt 1 view .LVU157
 128:My_Top/System/kth_read.cpp ****         SPI_Set_MOSI_Output();//MISO ÕÅśõĖ║MOSI
 640              		.loc 1 128 21 is_stmt 0 view .LVU158
 641 01d0 0121     		movs	r1, #1
 642 01d2 2000     		movs	r0, r4
 643              	.LVL69:
 128:My_Top/System/kth_read.cpp ****         SPI_Set_MOSI_Output();//MISO ÕÅśõĖ║MOSI
 644              		.loc 1 128 21 view .LVU159
 645 01d4 FFF7FEFF 		bl	_ZN7KTH711112KTH_CS_EnbleEb
 646              	.LVL70:
 129:My_Top/System/kth_read.cpp ****         return 0;
 647              		.loc 1 129 9 is_stmt 1 view .LVU160
 129:My_Top/System/kth_read.cpp ****         return 0;
 648              		.loc 1 129 28 is_stmt 0 view .LVU161
 649 01d8 2000     		movs	r0, r4
 650 01da FFF7FEFF 		bl	_ZN7KTH711119SPI_Set_MOSI_OutputEv
 651              	.LVL71:
 130:My_Top/System/kth_read.cpp ****     }
 652              		.loc 1 130 9 is_stmt 1 view .LVU162
 130:My_Top/System/kth_read.cpp ****     }
 653              		.loc 1 130 16 is_stmt 0 view .LVU163
 654 01de 3500     		movs	r5, r6
 655              	.LVL72:
ARM GAS  /tmp/cc5qDhQe.s 			page 16


 130:My_Top/System/kth_read.cpp ****     }
 656              		.loc 1 130 16 view .LVU164
 657 01e0 E1E7     		b	.L29
 658              	.LVL73:
 659              	.L34:
 660              	.LBB11:
 132:My_Top/System/kth_read.cpp ****     SPI_Set_MOSI_Output();//MISO ÕÅśõĖ║MOSI
 661              		.loc 1 132 49 is_stmt 1 discriminator 3 view .LVU165
 662              		.syntax divided
 663              	@ 132 "My_Top/System/kth_read.cpp" 1
 664 01e2 C046     		nop
 665              	@ 0 "" 2
 132:My_Top/System/kth_read.cpp ****     SPI_Set_MOSI_Output();//MISO ÕÅśõĖ║MOSI
 666              		.loc 1 132 5 discriminator 3 view .LVU166
 667              		.thumb
 668              		.syntax unified
 669 01e4 019B     		ldr	r3, [sp, #4]
 670 01e6 0133     		adds	r3, r3, #1
 671 01e8 0193     		str	r3, [sp, #4]
 672              	.L33:
 132:My_Top/System/kth_read.cpp ****     SPI_Set_MOSI_Output();//MISO ÕÅśõĖ║MOSI
 673              		.loc 1 132 36 discriminator 1 view .LVU167
 674 01ea 019B     		ldr	r3, [sp, #4]
 675 01ec 1B2B     		cmp	r3, #27
 676 01ee F8D9     		bls	.L34
 677              	.LBE11:
 133:My_Top/System/kth_read.cpp ****     KTH_CS_Enble(true);
 678              		.loc 1 133 5 view .LVU168
 133:My_Top/System/kth_read.cpp ****     KTH_CS_Enble(true);
 679              		.loc 1 133 24 is_stmt 0 view .LVU169
 680 01f0 2000     		movs	r0, r4
 681              	.LVL74:
 133:My_Top/System/kth_read.cpp ****     KTH_CS_Enble(true);
 682              		.loc 1 133 24 view .LVU170
 683 01f2 FFF7FEFF 		bl	_ZN7KTH711119SPI_Set_MOSI_OutputEv
 684              	.LVL75:
 134:My_Top/System/kth_read.cpp **** 
 685              		.loc 1 134 5 is_stmt 1 view .LVU171
 134:My_Top/System/kth_read.cpp **** 
 686              		.loc 1 134 17 is_stmt 0 view .LVU172
 687 01f6 0121     		movs	r1, #1
 688 01f8 2000     		movs	r0, r4
 689 01fa FFF7FEFF 		bl	_ZN7KTH711112KTH_CS_EnbleEb
 690              	.LVL76:
 138:My_Top/System/kth_read.cpp ****     if(crc != rx_buff[1]) return 0; //CRCµĀĪķ¬īµ£¬ķĆÜĶ┐ć 
 691              		.loc 1 138 5 is_stmt 1 view .LVU173
 138:My_Top/System/kth_read.cpp ****     if(crc != rx_buff[1]) return 0; //CRCµĀĪķ¬īµ£¬ķĆÜĶ┐ć 
 692              		.loc 1 138 19 is_stmt 0 view .LVU174
 693 01fe 02AE     		add	r6, sp, #8
 694 0200 0122     		movs	r2, #1
 695 0202 3100     		movs	r1, r6
 696 0204 2000     		movs	r0, r4
 697 0206 FFF7FEFF 		bl	_ZN7KTH71118CRC8_ITUEPKhh
 698              	.LVL77:
 139:My_Top/System/kth_read.cpp ****     return rx_buff[0]; //Ķ┐öÕø×Õ»äÕŁśÕÖ©ÕĆ╝ 
 699              		.loc 1 139 5 is_stmt 1 view .LVU175
 139:My_Top/System/kth_read.cpp ****     return rx_buff[0]; //Ķ┐öÕø×Õ»äÕŁśÕÖ©ÕĆ╝ 
ARM GAS  /tmp/cc5qDhQe.s 			page 17


 700              		.loc 1 139 24 is_stmt 0 view .LVU176
 701 020a 7378     		ldrb	r3, [r6, #1]
 139:My_Top/System/kth_read.cpp ****     return rx_buff[0]; //Ķ┐öÕø×Õ»äÕŁśÕÖ©ÕĆ╝ 
 702              		.loc 1 139 5 view .LVU177
 703 020c 8342     		cmp	r3, r0
 704 020e CAD1     		bne	.L29
 140:My_Top/System/kth_read.cpp **** }
 705              		.loc 1 140 5 is_stmt 1 view .LVU178
 140:My_Top/System/kth_read.cpp **** }
 706              		.loc 1 140 21 is_stmt 0 view .LVU179
 707 0210 3578     		ldrb	r5, [r6]
 708              	.LVL78:
 140:My_Top/System/kth_read.cpp **** }
 709              		.loc 1 140 21 view .LVU180
 710 0212 C8E7     		b	.L29
 711              		.cfi_endproc
 712              	.LFE1446:
 714              		.align	1
 715              		.global	_ZN7KTH711116KTH7111_WriteRegEhh
 716              		.syntax unified
 717              		.code	16
 718              		.thumb_func
 720              	_ZN7KTH711116KTH7111_WriteRegEhh:
 721              	.LVL79:
 722              	.LFB1447:
 142:My_Top/System/kth_read.cpp **** 
 143:My_Top/System/kth_read.cpp **** 
 144:My_Top/System/kth_read.cpp **** 
 145:My_Top/System/kth_read.cpp **** /* ---------------------- ÕåÖÕ»äÕŁśÕÖ© ---------------------- */
 146:My_Top/System/kth_read.cpp **** bool KTH7111::KTH7111_WriteReg(uint8_t addr, uint8_t data)
 147:My_Top/System/kth_read.cpp **** {
 723              		.loc 1 147 1 is_stmt 1 view -0
 724              		.cfi_startproc
 725              		@ args = 0, pretend = 0, frame = 24
 726              		@ frame_needed = 0, uses_anonymous_args = 0
 727              		.loc 1 147 1 is_stmt 0 view .LVU182
 728 0214 F0B5     		push	{r4, r5, r6, r7, lr}
 729              		.cfi_def_cfa_offset 20
 730              		.cfi_offset 4, -20
 731              		.cfi_offset 5, -16
 732              		.cfi_offset 6, -12
 733              		.cfi_offset 7, -8
 734              		.cfi_offset 14, -4
 735 0216 87B0     		sub	sp, sp, #28
 736              		.cfi_def_cfa_offset 48
 737 0218 0400     		movs	r4, r0
 738 021a 0F00     		movs	r7, r1
 739 021c 1500     		movs	r5, r2
 148:My_Top/System/kth_read.cpp ****     uint8_t unlock[4] = {0x20, 0x24, 0x01, 0x01};  /* Ķ¦ŻķöüÕ»åńĀü 0x20240101 */
 740              		.loc 1 148 5 is_stmt 1 view .LVU183
 741              		.loc 1 148 13 is_stmt 0 view .LVU184
 742 021e 2F4B     		ldr	r3, .L44
 743 0220 0593     		str	r3, [sp, #20]
 149:My_Top/System/kth_read.cpp ****     uint8_t cmd[3] = {0x33, addr, data};            /* ÕæĮõ╗ż’╝Ü0x33 + addr + data */
 744              		.loc 1 149 5 is_stmt 1 view .LVU185
 745              		.loc 1 149 13 is_stmt 0 view .LVU186
 746 0222 04AE     		add	r6, sp, #16
ARM GAS  /tmp/cc5qDhQe.s 			page 18


 747 0224 0322     		movs	r2, #3
 748              	.LVL80:
 749              		.loc 1 149 13 view .LVU187
 750 0226 0021     		movs	r1, #0
 751              	.LVL81:
 752              		.loc 1 149 13 view .LVU188
 753 0228 3000     		movs	r0, r6
 754              	.LVL82:
 755              		.loc 1 149 13 view .LVU189
 756 022a FFF7FEFF 		bl	memset
 757              	.LVL83:
 758 022e 3323     		movs	r3, #51
 759 0230 3370     		strb	r3, [r6]
 760              		.loc 1 149 39 view .LVU190
 761 0232 7770     		strb	r7, [r6, #1]
 762 0234 B570     		strb	r5, [r6, #2]
 150:My_Top/System/kth_read.cpp ****     uint8_t rx = 0;
 763              		.loc 1 150 5 is_stmt 1 view .LVU191
 764              		.loc 1 150 13 is_stmt 0 view .LVU192
 765 0236 0026     		movs	r6, #0
 766 0238 243B     		subs	r3, r3, #36
 767 023a 6B44     		add	r3, r3, sp
 768 023c 1E70     		strb	r6, [r3]
 151:My_Top/System/kth_read.cpp **** 
 152:My_Top/System/kth_read.cpp ****     KTH_CS_Enble(false);
 769              		.loc 1 152 5 is_stmt 1 view .LVU193
 770              		.loc 1 152 17 is_stmt 0 view .LVU194
 771 023e 0021     		movs	r1, #0
 772 0240 2000     		movs	r0, r4
 773 0242 FFF7FEFF 		bl	_ZN7KTH711112KTH_CS_EnbleEb
 774              	.LVL84:
 153:My_Top/System/kth_read.cpp ****     /* ń¼¼õĖĆÕĖ¦’╝ÜĶ¦Żķöü */
 154:My_Top/System/kth_read.cpp ****     HAL_SPI_Transmit(_hspi, unlock, 4, 10);
 775              		.loc 1 154 5 is_stmt 1 view .LVU195
 776              		.loc 1 154 21 is_stmt 0 view .LVU196
 777 0246 2069     		ldr	r0, [r4, #16]
 778 0248 0A23     		movs	r3, #10
 779 024a 0422     		movs	r2, #4
 780 024c 05A9     		add	r1, sp, #20
 781 024e FFF7FEFF 		bl	HAL_SPI_Transmit
 782              	.LVL85:
 155:My_Top/System/kth_read.cpp ****     KTH_CS_Enble(true);
 783              		.loc 1 155 5 is_stmt 1 view .LVU197
 784              		.loc 1 155 17 is_stmt 0 view .LVU198
 785 0252 0121     		movs	r1, #1
 786 0254 2000     		movs	r0, r4
 787 0256 FFF7FEFF 		bl	_ZN7KTH711112KTH_CS_EnbleEb
 788              	.LVL86:
 156:My_Top/System/kth_read.cpp **** 
 157:My_Top/System/kth_read.cpp ****     KTH_CS_Enble(false);
 789              		.loc 1 157 5 is_stmt 1 view .LVU199
 790              		.loc 1 157 17 is_stmt 0 view .LVU200
 791 025a 0021     		movs	r1, #0
 792 025c 2000     		movs	r0, r4
 793 025e FFF7FEFF 		bl	_ZN7KTH711112KTH_CS_EnbleEb
 794              	.LVL87:
 158:My_Top/System/kth_read.cpp ****     for(volatile uint32_t i = 0; i < 28; i++) { __NOP(); } //Õ╗ČµŚČ1us
ARM GAS  /tmp/cc5qDhQe.s 			page 19


 795              		.loc 1 158 5 is_stmt 1 view .LVU201
 796              	.LBB12:
 797              		.loc 1 158 27 is_stmt 0 view .LVU202
 798 0262 0096     		str	r6, [sp]
 799              		.loc 1 158 5 view .LVU203
 800 0264 03E0     		b	.L38
 801              	.L39:
 802              		.loc 1 158 49 is_stmt 1 discriminator 3 view .LVU204
 803              		.syntax divided
 804              	@ 158 "My_Top/System/kth_read.cpp" 1
 805 0266 C046     		nop
 806              	@ 0 "" 2
 807              		.loc 1 158 5 discriminator 3 view .LVU205
 808              		.thumb
 809              		.syntax unified
 810 0268 009B     		ldr	r3, [sp]
 811 026a 0133     		adds	r3, r3, #1
 812 026c 0093     		str	r3, [sp]
 813              	.L38:
 814              		.loc 1 158 36 discriminator 1 view .LVU206
 815 026e 009B     		ldr	r3, [sp]
 816 0270 1B2B     		cmp	r3, #27
 817 0272 F8D9     		bls	.L39
 818              	.LBE12:
 159:My_Top/System/kth_read.cpp ****     /* ń¼¼õ║īÕĖ¦’╝ÜÕÅæÕåÖÕæĮõ╗ż */
 160:My_Top/System/kth_read.cpp ****     HAL_SPI_Transmit(_hspi, cmd, 3, 10);
 819              		.loc 1 160 5 view .LVU207
 820              		.loc 1 160 21 is_stmt 0 view .LVU208
 821 0274 2069     		ldr	r0, [r4, #16]
 822 0276 0A23     		movs	r3, #10
 823 0278 0322     		movs	r2, #3
 824 027a 04A9     		add	r1, sp, #16
 825 027c FFF7FEFF 		bl	HAL_SPI_Transmit
 826              	.LVL88:
 161:My_Top/System/kth_read.cpp ****     for(volatile uint32_t i = 0; i < 28; i++) { __NOP(); } //Õ╗ČµŚČ1us
 827              		.loc 1 161 5 is_stmt 1 view .LVU209
 828              	.LBB13:
 829              		.loc 1 161 27 is_stmt 0 view .LVU210
 830 0280 0023     		movs	r3, #0
 831 0282 0193     		str	r3, [sp, #4]
 832              		.loc 1 161 5 view .LVU211
 833 0284 03E0     		b	.L40
 834              	.L41:
 835              		.loc 1 161 49 is_stmt 1 discriminator 3 view .LVU212
 836              		.syntax divided
 837              	@ 161 "My_Top/System/kth_read.cpp" 1
 838 0286 C046     		nop
 839              	@ 0 "" 2
 840              		.loc 1 161 5 discriminator 3 view .LVU213
 841              		.thumb
 842              		.syntax unified
 843 0288 019B     		ldr	r3, [sp, #4]
 844 028a 0133     		adds	r3, r3, #1
 845 028c 0193     		str	r3, [sp, #4]
 846              	.L40:
 847              		.loc 1 161 36 discriminator 1 view .LVU214
 848 028e 019B     		ldr	r3, [sp, #4]
ARM GAS  /tmp/cc5qDhQe.s 			page 20


 849 0290 1B2B     		cmp	r3, #27
 850 0292 F8D9     		bls	.L41
 851              	.LBE13:
 162:My_Top/System/kth_read.cpp **** 
 163:My_Top/System/kth_read.cpp ****     SPI_Set_MOSI_Input();//MOSIÕÅśõĖ║MISO
 852              		.loc 1 163 5 view .LVU215
 853              		.loc 1 163 23 is_stmt 0 view .LVU216
 854 0294 2000     		movs	r0, r4
 855 0296 FFF7FEFF 		bl	_ZN7KTH711118SPI_Set_MOSI_InputEv
 856              	.LVL89:
 164:My_Top/System/kth_read.cpp ****     /* ń¼¼õĖēÕĖ¦’╝ÜµöČńĪ«Ķ«ż’╝łÕÉīõĖĆÕĖ¦Ķ┐öÕø×ńÜäÕ»äÕŁśÕÖ©ÕĆ╝’╝ē */
 165:My_Top/System/kth_read.cpp ****     HAL_SPI_Receive(_hspi, &rx, 1, 10);
 857              		.loc 1 165 5 is_stmt 1 view .LVU217
 858              		.loc 1 165 20 is_stmt 0 view .LVU218
 859 029a 2069     		ldr	r0, [r4, #16]
 860 029c 0A23     		movs	r3, #10
 861 029e 0122     		movs	r2, #1
 862 02a0 0F21     		movs	r1, #15
 863 02a2 6944     		add	r1, r1, sp
 864 02a4 FFF7FEFF 		bl	HAL_SPI_Receive
 865              	.LVL90:
 166:My_Top/System/kth_read.cpp ****     KTH_CS_Enble(true);
 866              		.loc 1 166 5 is_stmt 1 view .LVU219
 867              		.loc 1 166 17 is_stmt 0 view .LVU220
 868 02a8 0121     		movs	r1, #1
 869 02aa 2000     		movs	r0, r4
 870 02ac FFF7FEFF 		bl	_ZN7KTH711112KTH_CS_EnbleEb
 871              	.LVL91:
 167:My_Top/System/kth_read.cpp ****     for(volatile uint32_t i = 0; i < 28; i++) { __NOP(); } //Õ╗ČµŚČ1us
 872              		.loc 1 167 5 is_stmt 1 view .LVU221
 873              	.LBB14:
 874              		.loc 1 167 27 is_stmt 0 view .LVU222
 875 02b0 0023     		movs	r3, #0
 876 02b2 0293     		str	r3, [sp, #8]
 877              		.loc 1 167 5 view .LVU223
 878 02b4 03E0     		b	.L42
 879              	.L43:
 880              		.loc 1 167 49 is_stmt 1 discriminator 3 view .LVU224
 881              		.syntax divided
 882              	@ 167 "My_Top/System/kth_read.cpp" 1
 883 02b6 C046     		nop
 884              	@ 0 "" 2
 885              		.loc 1 167 5 discriminator 3 view .LVU225
 886              		.thumb
 887              		.syntax unified
 888 02b8 029B     		ldr	r3, [sp, #8]
 889 02ba 0133     		adds	r3, r3, #1
 890 02bc 0293     		str	r3, [sp, #8]
 891              	.L42:
 892              		.loc 1 167 36 discriminator 1 view .LVU226
 893 02be 029B     		ldr	r3, [sp, #8]
 894 02c0 1B2B     		cmp	r3, #27
 895 02c2 F8D9     		bls	.L43
 896              	.LBE14:
 168:My_Top/System/kth_read.cpp ****     SPI_Set_MOSI_Output();//MISO ÕÅśõĖ║MOSI
 897              		.loc 1 168 5 view .LVU227
 898              		.loc 1 168 24 is_stmt 0 view .LVU228
ARM GAS  /tmp/cc5qDhQe.s 			page 21


 899 02c4 2000     		movs	r0, r4
 900 02c6 FFF7FEFF 		bl	_ZN7KTH711119SPI_Set_MOSI_OutputEv
 901              	.LVL92:
 169:My_Top/System/kth_read.cpp ****     
 170:My_Top/System/kth_read.cpp ****     
 171:My_Top/System/kth_read.cpp ****     return rx == data;
 902              		.loc 1 171 5 is_stmt 1 view .LVU229
 903              		.loc 1 171 15 is_stmt 0 view .LVU230
 904 02ca 0F23     		movs	r3, #15
 905 02cc 6B44     		add	r3, r3, sp
 906 02ce 1878     		ldrb	r0, [r3]
 907              		.loc 1 171 18 view .LVU231
 908 02d0 401B     		subs	r0, r0, r5
 909 02d2 4342     		rsbs	r3, r0, #0
 910 02d4 5841     		adcs	r0, r0, r3
 911 02d6 C0B2     		uxtb	r0, r0
 172:My_Top/System/kth_read.cpp **** }
 912              		.loc 1 172 1 view .LVU232
 913 02d8 07B0     		add	sp, sp, #28
 914              		@ sp needed
 915              	.LVL93:
 916              	.LVL94:
 917              	.LVL95:
 918              		.loc 1 172 1 view .LVU233
 919 02da F0BD     		pop	{r4, r5, r6, r7, pc}
 920              	.L45:
 921              		.align	2
 922              	.L44:
 923 02dc 20240101 		.word	16852000
 924              		.cfi_endproc
 925              	.LFE1447:
 927              		.align	1
 928              		.global	_ZN7KTH711125KTH7111_RotationDirectionEb
 929              		.syntax unified
 930              		.code	16
 931              		.thumb_func
 933              	_ZN7KTH711125KTH7111_RotationDirectionEb:
 934              	.LVL96:
 935              	.LFB1448:
 173:My_Top/System/kth_read.cpp **** 
 174:My_Top/System/kth_read.cpp **** 
 175:My_Top/System/kth_read.cpp **** 
 176:My_Top/System/kth_read.cpp **** /**
 177:My_Top/System/kth_read.cpp ****  * @brief µÄ¦ÕłČń╝¢ńĀüÕÖ©µŚŗĶĮ¼µ¢╣ÕÉæ
 178:My_Top/System/kth_read.cpp ****  * @param RD µŚŗĶĮ¼µ¢╣ÕÉæÕÅéµĢ░’╝ītrueõĖ║ķĪ║µŚČķÆł’╝īfalseõĖ║ķĆåµŚČķÆł
 179:My_Top/System/kth_read.cpp ****  */
 180:My_Top/System/kth_read.cpp **** bool KTH7111::KTH7111_RotationDirection(bool RD)  //µÄ¦ÕłČń╝¢ńĀüÕÖ©µŚŗĶĮ¼µ¢╣ÕÉæ Ķ┐öÕø×µś»ÕÉ”õ┐«µö╣µ
 181:My_Top/System/kth_read.cpp **** {
 936              		.loc 1 181 1 is_stmt 1 view -0
 937              		.cfi_startproc
 938              		@ args = 0, pretend = 0, frame = 0
 939              		@ frame_needed = 0, uses_anonymous_args = 0
 940              		.loc 1 181 1 is_stmt 0 view .LVU235
 941 02e0 70B5     		push	{r4, r5, r6, lr}
 942              		.cfi_def_cfa_offset 16
 943              		.cfi_offset 4, -16
 944              		.cfi_offset 5, -12
ARM GAS  /tmp/cc5qDhQe.s 			page 22


 945              		.cfi_offset 6, -8
 946              		.cfi_offset 14, -4
 947 02e2 0500     		movs	r5, r0
 948 02e4 0C1E     		subs	r4, r1, #0
 182:My_Top/System/kth_read.cpp ****     uint8_t rx_temp = 0;
 949              		.loc 1 182 5 is_stmt 1 view .LVU236
 950              	.LVL97:
 183:My_Top/System/kth_read.cpp ****     uint8_t rx_new = 0;    
 951              		.loc 1 183 5 view .LVU237
 184:My_Top/System/kth_read.cpp ****     uint8_t tx = 0;
 952              		.loc 1 184 5 view .LVU238
 185:My_Top/System/kth_read.cpp ****     if(RD == true)  //Õ”éµ×£RDõĖ║1’╝īĶ«ŠńĮ«õĖ║ķĪ║µŚČķÆłµ¢╣ÕÉæ
 953              		.loc 1 185 5 view .LVU239
 954 02e6 15D0     		beq	.L47
 186:My_Top/System/kth_read.cpp ****     {
 187:My_Top/System/kth_read.cpp ****         rx_temp = KTH7111_ReadReg(0x02); //µ£Ćķ½śõĮŹńĮ«1
 955              		.loc 1 187 9 view .LVU240
 956              		.loc 1 187 34 is_stmt 0 view .LVU241
 957 02e8 0221     		movs	r1, #2
 958              	.LVL98:
 959              		.loc 1 187 34 view .LVU242
 960 02ea FFF7FEFF 		bl	_ZN7KTH711115KTH7111_ReadRegEh
 961              	.LVL99:
 188:My_Top/System/kth_read.cpp ****         tx = rx_temp|0x80;
 962              		.loc 1 188 9 is_stmt 1 view .LVU243
 963              		.loc 1 188 12 is_stmt 0 view .LVU244
 964 02ee 8022     		movs	r2, #128
 965 02f0 5242     		rsbs	r2, r2, #0
 966 02f2 0243     		orrs	r2, r0
 967 02f4 D2B2     		uxtb	r2, r2
 968              	.LVL100:
 189:My_Top/System/kth_read.cpp ****         KTH7111_WriteReg(0x02,tx);
 969              		.loc 1 189 9 is_stmt 1 view .LVU245
 970              		.loc 1 189 25 is_stmt 0 view .LVU246
 971 02f6 0221     		movs	r1, #2
 972 02f8 2800     		movs	r0, r5
 973              	.LVL101:
 974              		.loc 1 189 25 view .LVU247
 975 02fa FFF7FEFF 		bl	_ZN7KTH711116KTH7111_WriteRegEhh
 976              	.LVL102:
 190:My_Top/System/kth_read.cpp ****         rx_new = KTH7111_ReadReg(0x02);
 977              		.loc 1 190 9 is_stmt 1 view .LVU248
 978              		.loc 1 190 33 is_stmt 0 view .LVU249
 979 02fe 0221     		movs	r1, #2
 980 0300 2800     		movs	r0, r5
 981 0302 FFF7FEFF 		bl	_ZN7KTH711115KTH7111_ReadRegEh
 982              	.LVL103:
 191:My_Top/System/kth_read.cpp ****         if(rx_new&0x80) return true;
 983              		.loc 1 191 9 is_stmt 1 view .LVU250
 984              		.loc 1 191 18 is_stmt 0 view .LVU251
 985 0306 40B2     		sxtb	r0, r0
 986              		.loc 1 191 9 view .LVU252
 987 0308 0028     		cmp	r0, #0
 988 030a 01DB     		blt	.L51
 192:My_Top/System/kth_read.cpp ****         else return false;
 989              		.loc 1 192 21 view .LVU253
 990 030c 0020     		movs	r0, #0
ARM GAS  /tmp/cc5qDhQe.s 			page 23


 991              	.LVL104:
 992              	.L48:
 193:My_Top/System/kth_read.cpp ****     }else
 194:My_Top/System/kth_read.cpp ****     {
 195:My_Top/System/kth_read.cpp ****         rx_temp = KTH7111_ReadReg(0x02);
 196:My_Top/System/kth_read.cpp ****         tx = rx_temp&(~0x80);//µ£Ćķ½śõĮŹµĖģķøČ
 197:My_Top/System/kth_read.cpp ****         KTH7111_WriteReg(0x02,tx);
 198:My_Top/System/kth_read.cpp ****         rx_new = KTH7111_ReadReg(0x02);
 199:My_Top/System/kth_read.cpp ****         if(rx_new&0x80) return false;
 200:My_Top/System/kth_read.cpp ****         else return true;
 201:My_Top/System/kth_read.cpp ****     }
 202:My_Top/System/kth_read.cpp **** }
 993              		.loc 1 202 1 view .LVU254
 994              		@ sp needed
 995              	.LVL105:
 996              	.LVL106:
 997              		.loc 1 202 1 view .LVU255
 998 030e 70BD     		pop	{r4, r5, r6, pc}
 999              	.LVL107:
 1000              	.L51:
 191:My_Top/System/kth_read.cpp ****         else return false;
 1001              		.loc 1 191 32 discriminator 1 view .LVU256
 1002 0310 2000     		movs	r0, r4
 1003              	.LVL108:
 191:My_Top/System/kth_read.cpp ****         else return false;
 1004              		.loc 1 191 32 discriminator 1 view .LVU257
 1005 0312 FCE7     		b	.L48
 1006              	.LVL109:
 1007              	.L47:
 195:My_Top/System/kth_read.cpp ****         tx = rx_temp&(~0x80);//µ£Ćķ½śõĮŹµĖģķøČ
 1008              		.loc 1 195 9 is_stmt 1 view .LVU258
 195:My_Top/System/kth_read.cpp ****         tx = rx_temp&(~0x80);//µ£Ćķ½śõĮŹµĖģķøČ
 1009              		.loc 1 195 34 is_stmt 0 view .LVU259
 1010 0314 0221     		movs	r1, #2
 1011              	.LVL110:
 195:My_Top/System/kth_read.cpp ****         tx = rx_temp&(~0x80);//µ£Ćķ½śõĮŹµĖģķøČ
 1012              		.loc 1 195 34 view .LVU260
 1013 0316 FFF7FEFF 		bl	_ZN7KTH711115KTH7111_ReadRegEh
 1014              	.LVL111:
 196:My_Top/System/kth_read.cpp ****         KTH7111_WriteReg(0x02,tx);
 1015              		.loc 1 196 9 is_stmt 1 view .LVU261
 196:My_Top/System/kth_read.cpp ****         KTH7111_WriteReg(0x02,tx);
 1016              		.loc 1 196 12 is_stmt 0 view .LVU262
 1017 031a 7F22     		movs	r2, #127
 1018 031c 0240     		ands	r2, r0
 1019              	.LVL112:
 197:My_Top/System/kth_read.cpp ****         rx_new = KTH7111_ReadReg(0x02);
 1020              		.loc 1 197 9 is_stmt 1 view .LVU263
 197:My_Top/System/kth_read.cpp ****         rx_new = KTH7111_ReadReg(0x02);
 1021              		.loc 1 197 25 is_stmt 0 view .LVU264
 1022 031e 0221     		movs	r1, #2
 1023 0320 2800     		movs	r0, r5
 1024              	.LVL113:
 197:My_Top/System/kth_read.cpp ****         rx_new = KTH7111_ReadReg(0x02);
 1025              		.loc 1 197 25 view .LVU265
 1026 0322 FFF7FEFF 		bl	_ZN7KTH711116KTH7111_WriteRegEhh
 1027              	.LVL114:
ARM GAS  /tmp/cc5qDhQe.s 			page 24


 198:My_Top/System/kth_read.cpp ****         if(rx_new&0x80) return false;
 1028              		.loc 1 198 9 is_stmt 1 view .LVU266
 198:My_Top/System/kth_read.cpp ****         if(rx_new&0x80) return false;
 1029              		.loc 1 198 33 is_stmt 0 view .LVU267
 1030 0326 0221     		movs	r1, #2
 1031 0328 2800     		movs	r0, r5
 1032 032a FFF7FEFF 		bl	_ZN7KTH711115KTH7111_ReadRegEh
 1033              	.LVL115:
 199:My_Top/System/kth_read.cpp ****         else return true;
 1034              		.loc 1 199 9 is_stmt 1 view .LVU268
 199:My_Top/System/kth_read.cpp ****         else return true;
 1035              		.loc 1 199 18 is_stmt 0 view .LVU269
 1036 032e 40B2     		sxtb	r0, r0
 199:My_Top/System/kth_read.cpp ****         else return true;
 1037              		.loc 1 199 9 view .LVU270
 1038 0330 0028     		cmp	r0, #0
 1039 0332 01DB     		blt	.L52
 200:My_Top/System/kth_read.cpp ****     }
 1040              		.loc 1 200 21 view .LVU271
 1041 0334 0120     		movs	r0, #1
 1042              	.LVL116:
 200:My_Top/System/kth_read.cpp ****     }
 1043              		.loc 1 200 21 view .LVU272
 1044 0336 EAE7     		b	.L48
 1045              	.LVL117:
 1046              	.L52:
 199:My_Top/System/kth_read.cpp ****         else return true;
 1047              		.loc 1 199 32 discriminator 1 view .LVU273
 1048 0338 2000     		movs	r0, r4
 1049              	.LVL118:
 199:My_Top/System/kth_read.cpp ****         else return true;
 1050              		.loc 1 199 32 discriminator 1 view .LVU274
 1051 033a E8E7     		b	.L48
 1052              		.cfi_endproc
 1053              	.LFE1448:
 1055              		.section	.rodata.str1.4,"aMS",%progbits,1
 1056              		.align	2
 1057              	.LC0:
 1058 0000 2255AA00 		.ascii	"\"U\252\000"
 1059              		.text
 1060              		.align	1
 1061              		.global	_ZN7KTH711115KTH7111_BurnMTPEv
 1062              		.syntax unified
 1063              		.code	16
 1064              		.thumb_func
 1066              	_ZN7KTH711115KTH7111_BurnMTPEv:
 1067              	.LVL119:
 1068              	.LFB1449:
 203:My_Top/System/kth_read.cpp **** 
 204:My_Top/System/kth_read.cpp **** 
 205:My_Top/System/kth_read.cpp **** 
 206:My_Top/System/kth_read.cpp **** HAL_StatusTypeDef KTH7111::KTH7111_BurnMTP(void)//õ┐ØÕŁśÕĮōÕēŹÕÅéµĢ░Õł░MTP
 207:My_Top/System/kth_read.cpp **** {
 1069              		.loc 1 207 1 is_stmt 1 view -0
 1070              		.cfi_startproc
 1071              		@ args = 0, pretend = 0, frame = 8
 1072              		@ frame_needed = 0, uses_anonymous_args = 0
ARM GAS  /tmp/cc5qDhQe.s 			page 25


 1073              		.loc 1 207 1 is_stmt 0 view .LVU276
 1074 033c 30B5     		push	{r4, r5, lr}
 1075              		.cfi_def_cfa_offset 12
 1076              		.cfi_offset 4, -12
 1077              		.cfi_offset 5, -8
 1078              		.cfi_offset 14, -4
 1079 033e 83B0     		sub	sp, sp, #12
 1080              		.cfi_def_cfa_offset 24
 1081 0340 0400     		movs	r4, r0
 208:My_Top/System/kth_read.cpp ****     uint8_t burn_cmd[3] = {0x22, 0x55, 0xAA}; //
 1082              		.loc 1 208 5 is_stmt 1 view .LVU277
 1083              		.loc 1 208 13 is_stmt 0 view .LVU278
 1084 0342 01AD     		add	r5, sp, #4
 1085 0344 0E4B     		ldr	r3, .L54
 1086 0346 1A88     		ldrh	r2, [r3]
 1087 0348 2A80     		strh	r2, [r5]
 1088 034a 9B78     		ldrb	r3, [r3, #2]
 1089 034c AB70     		strb	r3, [r5, #2]
 209:My_Top/System/kth_read.cpp ****     HAL_StatusTypeDef status = HAL_ERROR;
 1090              		.loc 1 209 5 is_stmt 1 view .LVU279
 1091              	.LVL120:
 210:My_Top/System/kth_read.cpp ****     SPI_Set_MOSI_Input();//MOSIÕÅśõĖ║MISO
 1092              		.loc 1 210 5 view .LVU280
 1093              		.loc 1 210 23 is_stmt 0 view .LVU281
 1094 034e FFF7FEFF 		bl	_ZN7KTH711118SPI_Set_MOSI_InputEv
 1095              	.LVL121:
 211:My_Top/System/kth_read.cpp ****     KTH_CS_Enble(false);
 1096              		.loc 1 211 5 is_stmt 1 view .LVU282
 1097              		.loc 1 211 17 is_stmt 0 view .LVU283
 1098 0352 0021     		movs	r1, #0
 1099 0354 2000     		movs	r0, r4
 1100 0356 FFF7FEFF 		bl	_ZN7KTH711112KTH_CS_EnbleEb
 1101              	.LVL122:
 212:My_Top/System/kth_read.cpp ****     status = HAL_SPI_Transmit(_hspi, burn_cmd, 3, 10);
 1102              		.loc 1 212 5 is_stmt 1 view .LVU284
 1103              		.loc 1 212 30 is_stmt 0 view .LVU285
 1104 035a 2069     		ldr	r0, [r4, #16]
 1105 035c 0A23     		movs	r3, #10
 1106 035e 0322     		movs	r2, #3
 1107 0360 2900     		movs	r1, r5
 1108 0362 FFF7FEFF 		bl	HAL_SPI_Transmit
 1109              	.LVL123:
 1110 0366 0500     		movs	r5, r0
 1111              	.LVL124:
 213:My_Top/System/kth_read.cpp ****     KTH_CS_Enble(true);
 1112              		.loc 1 213 5 is_stmt 1 view .LVU286
 1113              		.loc 1 213 17 is_stmt 0 view .LVU287
 1114 0368 0121     		movs	r1, #1
 1115 036a 2000     		movs	r0, r4
 1116 036c FFF7FEFF 		bl	_ZN7KTH711112KTH_CS_EnbleEb
 1117              	.LVL125:
 214:My_Top/System/kth_read.cpp ****     vTaskDelay(pdMS_TO_TICKS(500));//õĖżµ¼Īõ┐ØÕŁś400msõ╗źõĖŖ
 1118              		.loc 1 214 5 is_stmt 1 view .LVU288
 1119              		.loc 1 214 15 is_stmt 0 view .LVU289
 1120 0370 FA20     		movs	r0, #250
 1121 0372 4000     		lsls	r0, r0, #1
 1122 0374 FFF7FEFF 		bl	vTaskDelay
ARM GAS  /tmp/cc5qDhQe.s 			page 26


 1123              	.LVL126:
 215:My_Top/System/kth_read.cpp ****     return status;
 1124              		.loc 1 215 5 is_stmt 1 view .LVU290
 216:My_Top/System/kth_read.cpp **** }
 1125              		.loc 1 216 1 is_stmt 0 view .LVU291
 1126 0378 2800     		movs	r0, r5
 1127 037a 03B0     		add	sp, sp, #12
 1128              		@ sp needed
 1129              	.LVL127:
 1130              	.LVL128:
 1131              		.loc 1 216 1 view .LVU292
 1132 037c 30BD     		pop	{r4, r5, pc}
 1133              	.L55:
 1134 037e C046     		.align	2
 1135              	.L54:
 1136 0380 00000000 		.word	.LC0
 1137              		.cfi_endproc
 1138              	.LFE1449:
 1140              		.align	1
 1141              		.global	_ZN7KTH711112KTH7111_InitEb
 1142              		.syntax unified
 1143              		.code	16
 1144              		.thumb_func
 1146              	_ZN7KTH711112KTH7111_InitEb:
 1147              	.LVL129:
 1148              	.LFB1438:
   5:My_Top/System/kth_read.cpp ****     bool write_ok = false;
 1149              		.loc 1 5 1 is_stmt 1 view -0
 1150              		.cfi_startproc
 1151              		@ args = 0, pretend = 0, frame = 0
 1152              		@ frame_needed = 0, uses_anonymous_args = 0
   5:My_Top/System/kth_read.cpp ****     bool write_ok = false;
 1153              		.loc 1 5 1 is_stmt 0 view .LVU294
 1154 0384 70B5     		push	{r4, r5, r6, lr}
 1155              		.cfi_def_cfa_offset 16
 1156              		.cfi_offset 4, -16
 1157              		.cfi_offset 5, -12
 1158              		.cfi_offset 6, -8
 1159              		.cfi_offset 14, -4
 1160 0386 0400     		movs	r4, r0
   6:My_Top/System/kth_read.cpp ****     uint16_t angle_zero = 0;
 1161              		.loc 1 6 5 is_stmt 1 view .LVU295
 1162              	.LVL130:
   7:My_Top/System/kth_read.cpp ****     encoder_dir = fx;
 1163              		.loc 1 7 5 view .LVU296
   8:My_Top/System/kth_read.cpp ****     write_ok =KTH7111_RotationDirection(fx); //ÕåÖÕģźń╝¢ńĀüÕÖ©Ķ¦ÆÕ║”µ¢╣ÕÉæ
 1164              		.loc 1 8 5 view .LVU297
   8:My_Top/System/kth_read.cpp ****     write_ok =KTH7111_RotationDirection(fx); //ÕåÖÕģźń╝¢ńĀüÕÖ©Ķ¦ÆÕ║”µ¢╣ÕÉæ
 1165              		.loc 1 8 17 is_stmt 0 view .LVU298
 1166 0388 0173     		strb	r1, [r0, #12]
   9:My_Top/System/kth_read.cpp ****     // KTH7111_WriteReg(0x00, 0x00); //Ķ«ŠńĮ«ķøČńé╣
 1167              		.loc 1 9 5 is_stmt 1 view .LVU299
   9:My_Top/System/kth_read.cpp ****     // KTH7111_WriteReg(0x00, 0x00); //Ķ«ŠńĮ«ķøČńé╣
 1168              		.loc 1 9 40 is_stmt 0 view .LVU300
 1169 038a FFF7FEFF 		bl	_ZN7KTH711125KTH7111_RotationDirectionEb
 1170              	.LVL131:
   9:My_Top/System/kth_read.cpp ****     // KTH7111_WriteReg(0x00, 0x00); //Ķ«ŠńĮ«ķøČńé╣
ARM GAS  /tmp/cc5qDhQe.s 			page 27


 1171              		.loc 1 9 40 view .LVU301
 1172 038e 0500     		movs	r5, r0
 1173              	.LVL132:
  12:My_Top/System/kth_read.cpp **** 
 1174              		.loc 1 12 5 is_stmt 1 view .LVU302
  12:My_Top/System/kth_read.cpp **** 
 1175              		.loc 1 12 21 is_stmt 0 view .LVU303
 1176 0390 8822     		movs	r2, #136
 1177 0392 0D21     		movs	r1, #13
 1178 0394 2000     		movs	r0, r4
 1179 0396 FFF7FEFF 		bl	_ZN7KTH711116KTH7111_WriteRegEhh
 1180              	.LVL133:
  14:My_Top/System/kth_read.cpp ****     return write_ok;
 1181              		.loc 1 14 5 is_stmt 1 view .LVU304
  14:My_Top/System/kth_read.cpp ****     return write_ok;
 1182              		.loc 1 14 20 is_stmt 0 view .LVU305
 1183 039a 2000     		movs	r0, r4
 1184 039c FFF7FEFF 		bl	_ZN7KTH711115KTH7111_BurnMTPEv
 1185              	.LVL134:
  15:My_Top/System/kth_read.cpp **** }
 1186              		.loc 1 15 5 is_stmt 1 view .LVU306
  16:My_Top/System/kth_read.cpp **** 
 1187              		.loc 1 16 1 is_stmt 0 view .LVU307
 1188 03a0 2800     		movs	r0, r5
 1189              		@ sp needed
 1190              	.LVL135:
 1191              	.LVL136:
  16:My_Top/System/kth_read.cpp **** 
 1192              		.loc 1 16 1 view .LVU308
 1193 03a2 70BD     		pop	{r4, r5, r6, pc}
 1194              		.cfi_endproc
 1195              	.LFE1438:
 1197              		.align	1
 1198              		.global	_ZN7KTH711121KTH7111_Read_MoreRegsEPhS0_h
 1199              		.syntax unified
 1200              		.code	16
 1201              		.thumb_func
 1203              	_ZN7KTH711121KTH7111_Read_MoreRegsEPhS0_h:
 1204              	.LVL137:
 1205              	.LFB1450:
 217:My_Top/System/kth_read.cpp **** 
 218:My_Top/System/kth_read.cpp **** 
 219:My_Top/System/kth_read.cpp **** 
 220:My_Top/System/kth_read.cpp **** // uint8_t add[]= {0x00,0x01,0x02,0x03,0x04,0x05,0x06,0x07,0x08,0x09,0x0a,0x0d,0x10,0x11,0x12,0x16,
 221:My_Top/System/kth_read.cpp **** // uint8_t data_tx[]= {0x00,0x00,0x00,0xff,0x03,0x00,0x07,0x00,0x00,0xa5,0xa5,0x88,0x00,0xaC,0x02,0
 222:My_Top/System/kth_read.cpp **** 
 223:My_Top/System/kth_read.cpp **** // uint8_t len = sizeof(data_tx)/sizeof(data_tx[0]);
 224:My_Top/System/kth_read.cpp **** // uint8_t data_rx[20];
 225:My_Top/System/kth_read.cpp **** 
 226:My_Top/System/kth_read.cpp **** 
 227:My_Top/System/kth_read.cpp **** /* ---------------------- Ķ»╗ÕżÜõĖ¬Õ»äÕŁśÕÖ© ---------------------- */
 228:My_Top/System/kth_read.cpp **** void KTH7111::KTH7111_Read_MoreRegs(uint8_t *add, uint8_t *data_rx, uint8_t len)
 229:My_Top/System/kth_read.cpp **** {
 1206              		.loc 1 229 1 is_stmt 1 view -0
 1207              		.cfi_startproc
 1208              		@ args = 0, pretend = 0, frame = 0
 1209              		@ frame_needed = 0, uses_anonymous_args = 0
ARM GAS  /tmp/cc5qDhQe.s 			page 28


 1210              		.loc 1 229 1 is_stmt 0 view .LVU310
 1211 03a4 F8B5     		push	{r3, r4, r5, r6, r7, lr}
 1212              		.cfi_def_cfa_offset 24
 1213              		.cfi_offset 3, -24
 1214              		.cfi_offset 4, -20
 1215              		.cfi_offset 5, -16
 1216              		.cfi_offset 6, -12
 1217              		.cfi_offset 7, -8
 1218              		.cfi_offset 14, -4
 1219 03a6 CE46     		mov	lr, r9
 1220 03a8 4746     		mov	r7, r8
 1221 03aa 80B5     		push	{r7, lr}
 1222              		.cfi_def_cfa_offset 32
 1223              		.cfi_offset 8, -32
 1224              		.cfi_offset 9, -28
 1225 03ac 8146     		mov	r9, r0
 1226 03ae 8846     		mov	r8, r1
 1227 03b0 1700     		movs	r7, r2
 1228 03b2 1E00     		movs	r6, r3
 230:My_Top/System/kth_read.cpp ****     for (uint8_t i = 0; i < len; i++)
 1229              		.loc 1 230 5 is_stmt 1 view .LVU311
 1230              	.LVL138:
 1231              	.LBB15:
 1232              		.loc 1 230 18 is_stmt 0 view .LVU312
 1233 03b4 0024     		movs	r4, #0
 1234              		.loc 1 230 5 view .LVU313
 1235 03b6 08E0     		b	.L58
 1236              	.LVL139:
 1237              	.L59:
 231:My_Top/System/kth_read.cpp ****     {
 232:My_Top/System/kth_read.cpp ****         data_rx[i] = KTH7111_ReadReg(add[i]);
 1238              		.loc 1 232 9 is_stmt 1 view .LVU314
 1239              		.loc 1 232 18 is_stmt 0 view .LVU315
 1240 03b8 3D19     		adds	r5, r7, r4
 1241              		.loc 1 232 37 view .LVU316
 1242 03ba 4346     		mov	r3, r8
 1243 03bc 195D     		ldrb	r1, [r3, r4]
 1244 03be 4846     		mov	r0, r9
 1245 03c0 FFF7FEFF 		bl	_ZN7KTH711115KTH7111_ReadRegEh
 1246              	.LVL140:
 1247              		.loc 1 232 20 discriminator 1 view .LVU317
 1248 03c4 2870     		strb	r0, [r5]
 230:My_Top/System/kth_read.cpp ****     for (uint8_t i = 0; i < len; i++)
 1249              		.loc 1 230 5 is_stmt 1 discriminator 3 view .LVU318
 1250 03c6 0134     		adds	r4, r4, #1
 1251              	.LVL141:
 230:My_Top/System/kth_read.cpp ****     for (uint8_t i = 0; i < len; i++)
 1252              		.loc 1 230 5 is_stmt 0 discriminator 3 view .LVU319
 1253 03c8 E4B2     		uxtb	r4, r4
 1254              	.LVL142:
 1255              	.L58:
 230:My_Top/System/kth_read.cpp ****     for (uint8_t i = 0; i < len; i++)
 1256              		.loc 1 230 27 is_stmt 1 discriminator 1 view .LVU320
 1257 03ca B442     		cmp	r4, r6
 1258 03cc F4D3     		bcc	.L59
 1259              	.LBE15:
 233:My_Top/System/kth_read.cpp ****     }
ARM GAS  /tmp/cc5qDhQe.s 			page 29


 234:My_Top/System/kth_read.cpp **** }
 1260              		.loc 1 234 1 is_stmt 0 view .LVU321
 1261              		@ sp needed
 1262              	.LVL143:
 1263              	.LVL144:
 1264              	.LVL145:
 1265              	.LVL146:
 1266              	.LVL147:
 1267              		.loc 1 234 1 view .LVU322
 1268 03ce C0BC     		pop	{r6, r7}
 1269 03d0 B946     		mov	r9, r7
 1270 03d2 B046     		mov	r8, r6
 1271 03d4 F8BD     		pop	{r3, r4, r5, r6, r7, pc}
 1272              		.cfi_endproc
 1273              	.LFE1450:
 1275              		.align	1
 1276              		.global	_ZN7KTH711122KTH7111_Write_MoreRegsEPhS0_hb
 1277              		.syntax unified
 1278              		.code	16
 1279              		.thumb_func
 1281              	_ZN7KTH711122KTH7111_Write_MoreRegsEPhS0_hb:
 1282              	.LVL148:
 1283              	.LFB1451:
 235:My_Top/System/kth_read.cpp **** 
 236:My_Top/System/kth_read.cpp **** /* ---------------------- ÕåÖÕżÜõĖ¬Õ»äÕŁśÕÖ© µś»ÕÉ”õ┐ØÕŁś---------------------- */
 237:My_Top/System/kth_read.cpp **** void KTH7111::KTH7111_Write_MoreRegs(uint8_t *add, uint8_t *data_tx, uint8_t len,bool save)
 238:My_Top/System/kth_read.cpp **** {
 1284              		.loc 1 238 1 is_stmt 1 view -0
 1285              		.cfi_startproc
 1286              		@ args = 4, pretend = 0, frame = 0
 1287              		@ frame_needed = 0, uses_anonymous_args = 0
 1288              		.loc 1 238 1 is_stmt 0 view .LVU324
 1289 03d6 F8B5     		push	{r3, r4, r5, r6, r7, lr}
 1290              		.cfi_def_cfa_offset 24
 1291              		.cfi_offset 3, -24
 1292              		.cfi_offset 4, -20
 1293              		.cfi_offset 5, -16
 1294              		.cfi_offset 6, -12
 1295              		.cfi_offset 7, -8
 1296              		.cfi_offset 14, -4
 1297 03d8 CE46     		mov	lr, r9
 1298 03da 4746     		mov	r7, r8
 1299 03dc 80B5     		push	{r7, lr}
 1300              		.cfi_def_cfa_offset 32
 1301              		.cfi_offset 8, -32
 1302              		.cfi_offset 9, -28
 1303 03de 0600     		movs	r6, r0
 1304 03e0 8846     		mov	r8, r1
 1305 03e2 1700     		movs	r7, r2
 1306 03e4 1D00     		movs	r5, r3
 1307 03e6 08AB     		add	r3, sp, #32
 1308              	.LVL149:
 1309              		.loc 1 238 1 view .LVU325
 1310 03e8 1B78     		ldrb	r3, [r3]
 1311              	.LVL150:
 1312              		.loc 1 238 1 view .LVU326
 1313 03ea 9946     		mov	r9, r3
ARM GAS  /tmp/cc5qDhQe.s 			page 30


 239:My_Top/System/kth_read.cpp ****     for (uint8_t i = 0; i < len; i++)
 1314              		.loc 1 239 5 is_stmt 1 view .LVU327
 1315              	.LVL151:
 1316              	.LBB16:
 1317              		.loc 1 239 18 is_stmt 0 view .LVU328
 1318 03ec 0024     		movs	r4, #0
 1319              		.loc 1 239 5 view .LVU329
 1320 03ee 07E0     		b	.L61
 1321              	.LVL152:
 1322              	.L62:
 240:My_Top/System/kth_read.cpp ****     {
 241:My_Top/System/kth_read.cpp ****         KTH7111_WriteReg(add[i], data_tx[i]);
 1323              		.loc 1 241 9 is_stmt 1 view .LVU330
 1324              		.loc 1 241 25 is_stmt 0 view .LVU331
 1325 03f0 3A5D     		ldrb	r2, [r7, r4]
 1326 03f2 4346     		mov	r3, r8
 1327 03f4 195D     		ldrb	r1, [r3, r4]
 1328 03f6 3000     		movs	r0, r6
 1329 03f8 FFF7FEFF 		bl	_ZN7KTH711116KTH7111_WriteRegEhh
 1330              	.LVL153:
 239:My_Top/System/kth_read.cpp ****     for (uint8_t i = 0; i < len; i++)
 1331              		.loc 1 239 5 is_stmt 1 discriminator 3 view .LVU332
 1332 03fc 0134     		adds	r4, r4, #1
 1333              	.LVL154:
 239:My_Top/System/kth_read.cpp ****     for (uint8_t i = 0; i < len; i++)
 1334              		.loc 1 239 5 is_stmt 0 discriminator 3 view .LVU333
 1335 03fe E4B2     		uxtb	r4, r4
 1336              	.LVL155:
 1337              	.L61:
 239:My_Top/System/kth_read.cpp ****     for (uint8_t i = 0; i < len; i++)
 1338              		.loc 1 239 27 is_stmt 1 discriminator 1 view .LVU334
 1339 0400 AC42     		cmp	r4, r5
 1340 0402 F5D3     		bcc	.L62
 1341              	.LBE16:
 242:My_Top/System/kth_read.cpp ****     }
 243:My_Top/System/kth_read.cpp ****     if (save == true)
 1342              		.loc 1 243 5 view .LVU335
 1343 0404 4B46     		mov	r3, r9
 1344 0406 002B     		cmp	r3, #0
 1345 0408 03D1     		bne	.L64
 1346              	.L60:
 244:My_Top/System/kth_read.cpp ****     {
 245:My_Top/System/kth_read.cpp ****         KTH7111_BurnMTP();
 246:My_Top/System/kth_read.cpp ****     }
 247:My_Top/System/kth_read.cpp ****     
 248:My_Top/System/kth_read.cpp **** }
 1347              		.loc 1 248 1 is_stmt 0 view .LVU336
 1348              		@ sp needed
 1349              	.LVL156:
 1350              	.LVL157:
 1351              	.LVL158:
 1352              	.LVL159:
 1353              	.LVL160:
 1354              		.loc 1 248 1 view .LVU337
 1355 040a C0BC     		pop	{r6, r7}
 1356 040c B946     		mov	r9, r7
 1357 040e B046     		mov	r8, r6
ARM GAS  /tmp/cc5qDhQe.s 			page 31


 1358 0410 F8BD     		pop	{r3, r4, r5, r6, r7, pc}
 1359              	.LVL161:
 1360              	.L64:
 245:My_Top/System/kth_read.cpp ****     }
 1361              		.loc 1 245 9 is_stmt 1 view .LVU338
 245:My_Top/System/kth_read.cpp ****     }
 1362              		.loc 1 245 24 is_stmt 0 view .LVU339
 1363 0412 3000     		movs	r0, r6
 1364 0414 FFF7FEFF 		bl	_ZN7KTH711115KTH7111_BurnMTPEv
 1365              	.LVL162:
 1366              		.loc 1 248 1 view .LVU340
 1367 0418 F7E7     		b	.L60
 1368              		.cfi_endproc
 1369              	.LFE1451:
 1371              		.align	1
 1372              		.global	_ZN7KTH711123KTH7111_Get_ANLC_StatusEv
 1373              		.syntax unified
 1374              		.code	16
 1375              		.thumb_func
 1377              	_ZN7KTH711123KTH7111_Get_ANLC_StatusEv:
 1378              	.LVL163:
 1379              	.LFB1452:
 249:My_Top/System/kth_read.cpp **** 
 250:My_Top/System/kth_read.cpp **** 
 251:My_Top/System/kth_read.cpp **** /* ---------------------- Õ»äÕŁśÕÖ©µ¢╣Õ╝ÅµĀĪÕćåń╝¢ńĀüÕÖ© ---------------------- */
 252:My_Top/System/kth_read.cpp **** uint8_t KTH7111::KTH7111_Get_ANLC_Status(void) //ĶÄĘÕÅ¢µĀĪÕćåńŖČµĆü 0’╝Üµ£¬µĀĪÕćå 1’╝ÜµĀĪÕćåõĖŁ 2’╝
 253:My_Top/System/kth_read.cpp **** {
 1380              		.loc 1 253 1 is_stmt 1 view -0
 1381              		.cfi_startproc
 1382              		@ args = 0, pretend = 0, frame = 0
 1383              		@ frame_needed = 0, uses_anonymous_args = 0
 1384              		.loc 1 253 1 is_stmt 0 view .LVU342
 1385 041a 10B5     		push	{r4, lr}
 1386              		.cfi_def_cfa_offset 8
 1387              		.cfi_offset 4, -8
 1388              		.cfi_offset 14, -4
 254:My_Top/System/kth_read.cpp ****     return (KTH7111_ReadReg(0x72) >> 4) & 0x03;
 1389              		.loc 1 254 5 is_stmt 1 view .LVU343
 1390              		.loc 1 254 28 is_stmt 0 view .LVU344
 1391 041c 7221     		movs	r1, #114
 1392 041e FFF7FEFF 		bl	_ZN7KTH711115KTH7111_ReadRegEh
 1393              	.LVL164:
 1394              		.loc 1 254 35 discriminator 1 view .LVU345
 1395 0422 0009     		lsrs	r0, r0, #4
 1396              		.loc 1 254 43 discriminator 1 view .LVU346
 1397 0424 0323     		movs	r3, #3
 1398 0426 1840     		ands	r0, r3
 255:My_Top/System/kth_read.cpp **** }
 1399              		.loc 1 255 1 view .LVU347
 1400              		@ sp needed
 1401 0428 10BD     		pop	{r4, pc}
 1402              		.cfi_endproc
 1403              	.LFE1452:
 1405              		.align	1
 1406              		.global	_ZN7KTH711124KTH7111_ANLC_CalibrationEm
 1407              		.syntax unified
 1408              		.code	16
ARM GAS  /tmp/cc5qDhQe.s 			page 32


 1409              		.thumb_func
 1411              	_ZN7KTH711124KTH7111_ANLC_CalibrationEm:
 1412              	.LVL165:
 1413              	.LFB1453:
 256:My_Top/System/kth_read.cpp **** 
 257:My_Top/System/kth_read.cpp **** 
 258:My_Top/System/kth_read.cpp **** bool KTH7111::KTH7111_ANLC_Calibration(uint32_t timeout_s)
 259:My_Top/System/kth_read.cpp **** {
 1414              		.loc 1 259 1 is_stmt 1 view -0
 1415              		.cfi_startproc
 1416              		@ args = 0, pretend = 0, frame = 0
 1417              		@ frame_needed = 0, uses_anonymous_args = 0
 1418              		.loc 1 259 1 is_stmt 0 view .LVU349
 1419 042a F8B5     		push	{r3, r4, r5, r6, r7, lr}
 1420              		.cfi_def_cfa_offset 24
 1421              		.cfi_offset 3, -24
 1422              		.cfi_offset 4, -20
 1423              		.cfi_offset 5, -16
 1424              		.cfi_offset 6, -12
 1425              		.cfi_offset 7, -8
 1426              		.cfi_offset 14, -4
 1427 042c CE46     		mov	lr, r9
 1428 042e 4746     		mov	r7, r8
 1429 0430 80B5     		push	{r7, lr}
 1430              		.cfi_def_cfa_offset 32
 1431              		.cfi_offset 8, -32
 1432              		.cfi_offset 9, -28
 1433 0432 0700     		movs	r7, r0
 1434 0434 0E00     		movs	r6, r1
 260:My_Top/System/kth_read.cpp ****     // foc1.work_mode = open1_Mode; //Ķ«ŠńĮ«ÕĘźõĮ£µ©ĪÕ╝ÅõĖ║Õ╝ĆńÄ»µ©ĪÕ╝Å
 261:My_Top/System/kth_read.cpp ****     
 262:My_Top/System/kth_read.cpp ****     uint8_t reg16 = KTH7111_ReadReg(0x16) | 0x08; //Ķć¬µĀĪÕćåµĢłµ×£õĮ┐ĶāĮÕł░Ķ¦ÆÕ║”ĶŠōÕć║
 1435              		.loc 1 262 5 is_stmt 1 view .LVU350
 1436              		.loc 1 262 36 is_stmt 0 view .LVU351
 1437 0436 1621     		movs	r1, #22
 1438              	.LVL166:
 1439              		.loc 1 262 36 view .LVU352
 1440 0438 FFF7FEFF 		bl	_ZN7KTH711115KTH7111_ReadRegEh
 1441              	.LVL167:
 1442              		.loc 1 262 36 view .LVU353
 1443 043c 8146     		mov	r9, r0
 1444              		.loc 1 262 45 discriminator 1 view .LVU354
 1445 043e 0822     		movs	r2, #8
 1446 0440 0243     		orrs	r2, r0
 1447 0442 D2B2     		uxtb	r2, r2
 1448              	.LVL168:
 263:My_Top/System/kth_read.cpp ****     KTH7111_WriteReg(0x16, reg16);
 1449              		.loc 1 263 5 is_stmt 1 view .LVU355
 1450              		.loc 1 263 21 is_stmt 0 view .LVU356
 1451 0444 1621     		movs	r1, #22
 1452 0446 3800     		movs	r0, r7
 1453 0448 FFF7FEFF 		bl	_ZN7KTH711116KTH7111_WriteRegEhh
 1454              	.LVL169:
 264:My_Top/System/kth_read.cpp ****     vTaskDelay(pdMS_TO_TICKS(5));
 1455              		.loc 1 264 5 is_stmt 1 view .LVU357
 1456              		.loc 1 264 15 is_stmt 0 view .LVU358
 1457 044c 0520     		movs	r0, #5
ARM GAS  /tmp/cc5qDhQe.s 			page 33


 1458 044e FFF7FEFF 		bl	vTaskDelay
 1459              	.LVL170:
 265:My_Top/System/kth_read.cpp ****     
 266:My_Top/System/kth_read.cpp ****     reg16 |= 0x10; // Õ░å REG_CAL Õ»äÕŁśÕÖ©Ķ«ŠńĮ«õĖ║ 1’╝īÕÉ»ÕŖ©ķØ×ń║┐µĆ¦µĀĪÕćå
 1460              		.loc 1 266 5 is_stmt 1 view .LVU359
 1461              		.loc 1 266 11 is_stmt 0 view .LVU360
 1462 0452 1822     		movs	r2, #24
 1463 0454 4B46     		mov	r3, r9
 1464 0456 1A43     		orrs	r2, r3
 1465 0458 D2B2     		uxtb	r2, r2
 1466              	.LVL171:
 267:My_Top/System/kth_read.cpp ****     KTH7111_WriteReg(0x16, reg16);
 1467              		.loc 1 267 5 is_stmt 1 view .LVU361
 1468              		.loc 1 267 21 is_stmt 0 view .LVU362
 1469 045a 1621     		movs	r1, #22
 1470 045c 3800     		movs	r0, r7
 1471 045e FFF7FEFF 		bl	_ZN7KTH711116KTH7111_WriteRegEhh
 1472              	.LVL172:
 268:My_Top/System/kth_read.cpp ****     
 269:My_Top/System/kth_read.cpp ****     uint32_t start = xTaskGetTickCount();
 1473              		.loc 1 269 5 is_stmt 1 view .LVU363
 1474              		.loc 1 269 39 is_stmt 0 view .LVU364
 1475 0462 FFF7FEFF 		bl	xTaskGetTickCount
 1476              	.LVL173:
 1477 0466 8046     		mov	r8, r0
 1478              	.LVL174:
 1479              	.L70:
 270:My_Top/System/kth_read.cpp ****     uint8_t status;
 1480              		.loc 1 270 5 is_stmt 1 view .LVU365
 271:My_Top/System/kth_read.cpp ****     do {
 1481              		.loc 1 271 5 view .LVU366
 272:My_Top/System/kth_read.cpp ****         vTaskDelay(pdMS_TO_TICKS(10));
 1482              		.loc 1 272 9 view .LVU367
 1483              		.loc 1 272 19 is_stmt 0 view .LVU368
 1484 0468 0A20     		movs	r0, #10
 1485 046a FFF7FEFF 		bl	vTaskDelay
 1486              	.LVL175:
 273:My_Top/System/kth_read.cpp ****         status = KTH7111_Get_ANLC_Status();
 1487              		.loc 1 273 9 is_stmt 1 view .LVU369
 1488              		.loc 1 273 41 is_stmt 0 view .LVU370
 1489 046e 3800     		movs	r0, r7
 1490 0470 FFF7FEFF 		bl	_ZN7KTH711123KTH7111_Get_ANLC_StatusEv
 1491              	.LVL176:
 1492 0474 0400     		movs	r4, r0
 1493              	.LVL177:
 274:My_Top/System/kth_read.cpp ****         if (status == 2 || (xTaskGetTickCount() - start) > pdMS_TO_TICKS(timeout_s*1000)) {
 1494              		.loc 1 274 9 is_stmt 1 view .LVU371
 1495              		.loc 1 274 25 is_stmt 0 view .LVU372
 1496 0476 0228     		cmp	r0, #2
 1497 0478 21D0     		beq	.L67
 1498              		.loc 1 274 46 discriminator 2 view .LVU373
 1499 047a FFF7FEFF 		bl	xTaskGetTickCount
 1500              	.LVL178:
 1501              		.loc 1 274 49 discriminator 1 view .LVU374
 1502 047e 4346     		mov	r3, r8
 1503 0480 C51A     		subs	r5, r0, r3
 1504              		.loc 1 274 60 discriminator 1 view .LVU375
ARM GAS  /tmp/cc5qDhQe.s 			page 34


 1505 0482 7301     		lsls	r3, r6, #5
 1506 0484 9B1B     		subs	r3, r3, r6
 1507 0486 9801     		lsls	r0, r3, #6
 1508 0488 C01A     		subs	r0, r0, r3
 1509 048a C000     		lsls	r0, r0, #3
 1510 048c 8019     		adds	r0, r0, r6
 1511 048e 8001     		lsls	r0, r0, #6
 1512 0490 FA21     		movs	r1, #250
 1513 0492 8900     		lsls	r1, r1, #2
 1514 0494 FFF7FEFF 		bl	__aeabi_uidiv
 1515              	.LVL179:
 1516              		.loc 1 274 25 discriminator 1 view .LVU376
 1517 0498 8542     		cmp	r5, r0
 1518 049a 10D8     		bhi	.L67
 275:My_Top/System/kth_read.cpp ****             reg16 &= ~0x10; //Õ░å REG_CAL Õ»äÕŁśÕÖ©Ķ«ŠńĮ«õĖ║ 0’╝īÕü£µŁóķØ×ń║┐µĆ¦µĀĪÕćå
 276:My_Top/System/kth_read.cpp ****             KTH7111_WriteReg(0x16, reg16);
 277:My_Top/System/kth_read.cpp ****             return false;
 278:My_Top/System/kth_read.cpp ****         }
 279:My_Top/System/kth_read.cpp ****     } while (status == 1);//µĀĪÕćåõĖŁ  Õ”éµ×£statusńŁēõ║Ä0õ╣¤õ╝ÜĶĘ│Õć║µØź ?????
 1519              		.loc 1 279 21 is_stmt 1 view .LVU377
 1520 049c 012C     		cmp	r4, #1
 1521 049e E3D0     		beq	.L70
 280:My_Top/System/kth_read.cpp ****     
 281:My_Top/System/kth_read.cpp ****     reg16 &= ~0x10;//Õ░å REG_CAL Õ»äÕŁśÕÖ©Ķ«ŠńĮ«õĖ║ 0’╝īÕü£µŁóķØ×ń║┐µĆ¦µĀĪÕćå
 1522              		.loc 1 281 5 view .LVU378
 1523              		.loc 1 281 11 is_stmt 0 view .LVU379
 1524 04a0 1023     		movs	r3, #16
 1525 04a2 4A46     		mov	r2, r9
 1526 04a4 9A43     		bics	r2, r3
 1527 04a6 0823     		movs	r3, #8
 1528 04a8 1A43     		orrs	r2, r3
 1529 04aa D2B2     		uxtb	r2, r2
 1530              	.LVL180:
 282:My_Top/System/kth_read.cpp ****     KTH7111_WriteReg(0x16, reg16);
 1531              		.loc 1 282 5 is_stmt 1 view .LVU380
 1532              		.loc 1 282 21 is_stmt 0 view .LVU381
 1533 04ac 1621     		movs	r1, #22
 1534 04ae 3800     		movs	r0, r7
 1535 04b0 FFF7FEFF 		bl	_ZN7KTH711116KTH7111_WriteRegEhh
 1536              	.LVL181:
 283:My_Top/System/kth_read.cpp ****     KTH7111_BurnMTP(); //õ┐ØÕŁśµĀĪÕćåÕÅéµĢ░Õł░MTP
 1537              		.loc 1 283 5 is_stmt 1 view .LVU382
 1538              		.loc 1 283 20 is_stmt 0 view .LVU383
 1539 04b4 3800     		movs	r0, r7
 1540 04b6 FFF7FEFF 		bl	_ZN7KTH711115KTH7111_BurnMTPEv
 1541              	.LVL182:
 284:My_Top/System/kth_read.cpp ****     return true;
 1542              		.loc 1 284 5 is_stmt 1 view .LVU384
 1543              		.loc 1 284 12 is_stmt 0 view .LVU385
 1544 04ba 0120     		movs	r0, #1
 1545 04bc 0AE0     		b	.L69
 1546              	.L67:
 275:My_Top/System/kth_read.cpp ****             KTH7111_WriteReg(0x16, reg16);
 1547              		.loc 1 275 13 is_stmt 1 view .LVU386
 275:My_Top/System/kth_read.cpp ****             KTH7111_WriteReg(0x16, reg16);
 1548              		.loc 1 275 19 is_stmt 0 view .LVU387
 1549 04be 1023     		movs	r3, #16
ARM GAS  /tmp/cc5qDhQe.s 			page 35


 1550 04c0 4A46     		mov	r2, r9
 1551 04c2 9A43     		bics	r2, r3
 1552 04c4 0823     		movs	r3, #8
 1553 04c6 1A43     		orrs	r2, r3
 1554 04c8 D2B2     		uxtb	r2, r2
 1555              	.LVL183:
 276:My_Top/System/kth_read.cpp ****             return false;
 1556              		.loc 1 276 13 is_stmt 1 view .LVU388
 276:My_Top/System/kth_read.cpp ****             return false;
 1557              		.loc 1 276 29 is_stmt 0 view .LVU389
 1558 04ca 1621     		movs	r1, #22
 1559 04cc 3800     		movs	r0, r7
 1560 04ce FFF7FEFF 		bl	_ZN7KTH711116KTH7111_WriteRegEhh
 1561              	.LVL184:
 277:My_Top/System/kth_read.cpp ****         }
 1562              		.loc 1 277 13 is_stmt 1 view .LVU390
 277:My_Top/System/kth_read.cpp ****         }
 1563              		.loc 1 277 20 is_stmt 0 view .LVU391
 1564 04d2 0020     		movs	r0, #0
 1565              	.LVL185:
 1566              	.L69:
 285:My_Top/System/kth_read.cpp **** }
 1567              		.loc 1 285 1 view .LVU392
 1568              		@ sp needed
 1569              	.LVL186:
 1570              	.LVL187:
 1571              	.LVL188:
 1572              	.LVL189:
 1573              		.loc 1 285 1 view .LVU393
 1574 04d4 C0BC     		pop	{r6, r7}
 1575 04d6 B946     		mov	r9, r7
 1576 04d8 B046     		mov	r8, r6
 1577 04da F8BD     		pop	{r3, r4, r5, r6, r7, pc}
 1578              		.cfi_endproc
 1579              	.LFE1453:
 1581              		.align	1
 1582              		.global	_ZN7KTH711121SetZeroAngle_RuanJianEf
 1583              		.syntax unified
 1584              		.code	16
 1585              		.thumb_func
 1587              	_ZN7KTH711121SetZeroAngle_RuanJianEf:
 1588              	.LVL190:
 1589              	.LFB1454:
 286:My_Top/System/kth_read.cpp **** 
 287:My_Top/System/kth_read.cpp **** 
 288:My_Top/System/kth_read.cpp **** void KTH7111::SetZeroAngle_RuanJian(float zero) //Ķ«ŠńĮ«ĶĮ»õ╗ČķøČńé╣
 289:My_Top/System/kth_read.cpp **** {
 1590              		.loc 1 289 1 is_stmt 1 view -0
 1591              		.cfi_startproc
 1592              		@ args = 0, pretend = 0, frame = 0
 1593              		@ frame_needed = 0, uses_anonymous_args = 0
 1594              		@ link register save eliminated.
 290:My_Top/System/kth_read.cpp ****     //ÕŠģÕüÜ ????
 291:My_Top/System/kth_read.cpp **** }
 1595              		.loc 1 291 1 is_stmt 0 view .LVU395
 1596              		@ sp needed
 1597 04dc 7047     		bx	lr
ARM GAS  /tmp/cc5qDhQe.s 			page 36


 1598              		.cfi_endproc
 1599              	.LFE1454:
 1601              		.align	1
 1602              		.global	_ZN7KTH711118KTH7111_SetNowZeroEv
 1603              		.syntax unified
 1604              		.code	16
 1605              		.thumb_func
 1607              	_ZN7KTH711118KTH7111_SetNowZeroEv:
 1608              	.LVL191:
 1609              	.LFB1455:
 292:My_Top/System/kth_read.cpp **** 
 293:My_Top/System/kth_read.cpp **** 
 294:My_Top/System/kth_read.cpp **** bool KTH7111::KTH7111_SetNowZero(void)  //Ķ«ŠńĮ«ÕĮōÕēŹõĮŹńĮ«õĖ║ķøČńé╣ Ķ┐öÕø×µś»ÕÉ”õ┐«µö╣µłÉÕŖ¤
 295:My_Top/System/kth_read.cpp **** {
 1610              		.loc 1 295 1 is_stmt 1 view -0
 1611              		.cfi_startproc
 1612              		@ args = 0, pretend = 0, frame = 0
 1613              		@ frame_needed = 0, uses_anonymous_args = 0
 1614              		.loc 1 295 1 is_stmt 0 view .LVU397
 1615 04de 10B5     		push	{r4, lr}
 1616              		.cfi_def_cfa_offset 8
 1617              		.cfi_offset 4, -8
 1618              		.cfi_offset 14, -4
 1619 04e0 0400     		movs	r4, r0
 296:My_Top/System/kth_read.cpp ****     uint8_t rx_temp = 0;
 1620              		.loc 1 296 5 is_stmt 1 view .LVU398
 1621              	.LVL192:
 297:My_Top/System/kth_read.cpp ****     uint8_t rx_new = 0;    
 1622              		.loc 1 297 5 view .LVU399
 298:My_Top/System/kth_read.cpp ****     uint8_t tx = 0;
 1623              		.loc 1 298 5 view .LVU400
 299:My_Top/System/kth_read.cpp ****     rx_temp = KTH7111_ReadReg(0x02); //Ķ»╗Õ»äÕŁśÕÖ©ÕĆ╝ 1000 0000
 1624              		.loc 1 299 5 view .LVU401
 1625              		.loc 1 299 30 is_stmt 0 view .LVU402
 1626 04e2 0221     		movs	r1, #2
 1627 04e4 FFF7FEFF 		bl	_ZN7KTH711115KTH7111_ReadRegEh
 1628              	.LVL193:
 300:My_Top/System/kth_read.cpp ****     tx = rx_temp|0x40;//AUTO_ZERO_SET ńĮ«1
 1629              		.loc 1 300 5 is_stmt 1 view .LVU403
 1630              		.loc 1 300 8 is_stmt 0 view .LVU404
 1631 04e8 4023     		movs	r3, #64
 1632 04ea 1843     		orrs	r0, r3
 1633              	.LVL194:
 1634              		.loc 1 300 8 view .LVU405
 1635 04ec C2B2     		uxtb	r2, r0
 1636              	.LVL195:
 301:My_Top/System/kth_read.cpp ****     KTH7111_WriteReg(0x02,tx); //ÕåÖÕ»äÕŁśÕÖ©ÕĆ╝ 1100 0000
 1637              		.loc 1 301 5 is_stmt 1 view .LVU406
 1638              		.loc 1 301 21 is_stmt 0 view .LVU407
 1639 04ee 0221     		movs	r1, #2
 1640 04f0 2000     		movs	r0, r4
 1641 04f2 FFF7FEFF 		bl	_ZN7KTH711116KTH7111_WriteRegEhh
 1642              	.LVL196:
 302:My_Top/System/kth_read.cpp ****     vTaskDelay(pdMS_TO_TICKS(50));//ńŁēÕŠģķøČńé╣ÕåÖÕģź
 1643              		.loc 1 302 5 is_stmt 1 view .LVU408
 1644              		.loc 1 302 15 is_stmt 0 view .LVU409
 1645 04f6 3220     		movs	r0, #50
ARM GAS  /tmp/cc5qDhQe.s 			page 37


 1646 04f8 FFF7FEFF 		bl	vTaskDelay
 1647              	.LVL197:
 303:My_Top/System/kth_read.cpp ****     rx_new = KTH7111_ReadReg(0x02);//Ķ»╗Õ»äÕŁśÕÖ©ÕĆ╝ 1010 0100
 1648              		.loc 1 303 5 is_stmt 1 view .LVU410
 1649              		.loc 1 303 29 is_stmt 0 view .LVU411
 1650 04fc 0221     		movs	r1, #2
 1651 04fe 2000     		movs	r0, r4
 1652 0500 FFF7FEFF 		bl	_ZN7KTH711115KTH7111_ReadRegEh
 1653              	.LVL198:
 304:My_Top/System/kth_read.cpp ****     if(rx_new&0x40) return true;
 1654              		.loc 1 304 5 is_stmt 1 view .LVU412
 1655 0504 4006     		lsls	r0, r0, #25
 1656 0506 01D5     		bpl	.L74
 1657              	.LVL199:
 1658              		.loc 1 304 28 is_stmt 0 discriminator 1 view .LVU413
 1659 0508 0120     		movs	r0, #1
 1660              	.L73:
 305:My_Top/System/kth_read.cpp ****     else return false;
 306:My_Top/System/kth_read.cpp **** 
 307:My_Top/System/kth_read.cpp **** }
 1661              		.loc 1 307 1 view .LVU414
 1662              		@ sp needed
 1663              	.LVL200:
 1664              		.loc 1 307 1 view .LVU415
 1665 050a 10BD     		pop	{r4, pc}
 1666              	.LVL201:
 1667              	.L74:
 305:My_Top/System/kth_read.cpp ****     else return false;
 1668              		.loc 1 305 17 view .LVU416
 1669 050c 0020     		movs	r0, #0
 1670 050e FCE7     		b	.L73
 1671              		.cfi_endproc
 1672              	.LFE1455:
 1674              	.Letext0:
 1675              		.file 2 "/opt/arm-gnu-toolchain-14.2/arm-none-eabi/include/machine/_default_types.h"
 1676              		.file 3 "/opt/arm-gnu-toolchain-14.2/arm-none-eabi/include/sys/_stdint.h"
 1677              		.file 4 "Drivers/CMSIS/Device/ST/STM32G0xx/Include/stm32g071xx.h"
 1678              		.file 5 "Drivers/STM32G0xx_HAL_Driver/Inc/stm32g0xx_hal_def.h"
 1679              		.file 6 "Drivers/STM32G0xx_HAL_Driver/Inc/stm32g0xx_hal_gpio.h"
 1680              		.file 7 "Drivers/STM32G0xx_HAL_Driver/Inc/stm32g0xx_hal_dma.h"
 1681              		.file 8 "Drivers/STM32G0xx_HAL_Driver/Inc/stm32g0xx_hal_spi.h"
 1682              		.file 9 "Middlewares/Third_Party/FreeRTOS/Source/portable/GCC/ARM_CM0/portmacro.h"
 1683              		.file 10 "/opt/arm-gnu-toolchain-14.2/arm-none-eabi/include/c++/14.2.1/cmath"
 1684              		.file 11 "/opt/arm-gnu-toolchain-14.2/arm-none-eabi/include/c++/14.2.1/type_traits"
 1685              		.file 12 "/opt/arm-gnu-toolchain-14.2/arm-none-eabi/include/c++/14.2.1/debug/debug.h"
 1686              		.file 13 "/opt/arm-gnu-toolchain-14.2/arm-none-eabi/include/c++/14.2.1/bits/std_abs.h"
 1687              		.file 14 "/opt/arm-gnu-toolchain-14.2/arm-none-eabi/include/c++/14.2.1/bits/predefined_ops.h"
 1688              		.file 15 "/opt/arm-gnu-toolchain-14.2/arm-none-eabi/include/math.h"
 1689              		.file 16 "/opt/arm-gnu-toolchain-14.2/arm-none-eabi/include/c++/14.2.1/arm-none-eabi/thumb/v6-m/no
 1690              		.file 17 "/opt/arm-gnu-toolchain-14.2/arm-none-eabi/include/c++/14.2.1/math.h"
 1691              		.file 18 "My_Top/System/kth_read.hpp"
 1692              		.file 19 "Middlewares/Third_Party/FreeRTOS/Source/include/task.h"
 1693              		.file 20 "Drivers/STM32G0xx_HAL_Driver/Inc/stm32g0xx_ll_dma.h"
ARM GAS  /tmp/cc5qDhQe.s 			page 38


DEFINED SYMBOLS
                            *ABS*:00000000 kth_read.cpp
     /tmp/cc5qDhQe.s:18     .text:00000000 $t
     /tmp/cc5qDhQe.s:24     .text:00000000 _ZN7KTH711112KTH_CS_EnbleEb
     /tmp/cc5qDhQe.s:73     .text:0000001a _ZN7KTH711119SPI_Set_MOSI_OutputEv
     /tmp/cc5qDhQe.s:118    .text:00000042 _ZN7KTH711118SPI_Set_MOSI_InputEv
     /tmp/cc5qDhQe.s:156    .text:00000068 $d
     /tmp/cc5qDhQe.s:160    .text:0000006c $t
     /tmp/cc5qDhQe.s:166    .text:0000006c _ZN7KTH71118CRC8_ITUEPKhh
     /tmp/cc5qDhQe.s:289    .text:000000aa _ZN7KTH711121KTH7111_Send_JIAO_CMDEv
     /tmp/cc5qDhQe.s:448    .text:00000150 $d
     /tmp/cc5qDhQe.s:454    .text:0000015c $t
     /tmp/cc5qDhQe.s:460    .text:0000015c _ZN7KTH711118Get_KTH7111_RadianEv
     /tmp/cc5qDhQe.s:484    .text:00000160 _ZN7KTH711118Get_KTH7111_DegreeEv
     /tmp/cc5qDhQe.s:508    .text:00000164 _ZN7KTH711115KTH7111_ReadRegEh
     /tmp/cc5qDhQe.s:720    .text:00000214 _ZN7KTH711116KTH7111_WriteRegEhh
     /tmp/cc5qDhQe.s:923    .text:000002dc $d
     /tmp/cc5qDhQe.s:927    .text:000002e0 $t
     /tmp/cc5qDhQe.s:933    .text:000002e0 _ZN7KTH711125KTH7111_RotationDirectionEb
     /tmp/cc5qDhQe.s:1056   .rodata.str1.4:00000000 $d
     /tmp/cc5qDhQe.s:1066   .text:0000033c _ZN7KTH711115KTH7111_BurnMTPEv
     /tmp/cc5qDhQe.s:1136   .text:00000380 $d
     /tmp/cc5qDhQe.s:1140   .text:00000384 $t
     /tmp/cc5qDhQe.s:1146   .text:00000384 _ZN7KTH711112KTH7111_InitEb
     /tmp/cc5qDhQe.s:1203   .text:000003a4 _ZN7KTH711121KTH7111_Read_MoreRegsEPhS0_h
     /tmp/cc5qDhQe.s:1281   .text:000003d6 _ZN7KTH711122KTH7111_Write_MoreRegsEPhS0_hb
     /tmp/cc5qDhQe.s:1377   .text:0000041a _ZN7KTH711123KTH7111_Get_ANLC_StatusEv
     /tmp/cc5qDhQe.s:1411   .text:0000042a _ZN7KTH711124KTH7111_ANLC_CalibrationEm
     /tmp/cc5qDhQe.s:1587   .text:000004dc _ZN7KTH711121SetZeroAngle_RuanJianEf
     /tmp/cc5qDhQe.s:1607   .text:000004de _ZN7KTH711118KTH7111_SetNowZeroEv

UNDEFINED SYMBOLS
HAL_GPIO_WritePin
memset
HAL_SPI_Transmit
HAL_SPI_Receive
__aeabi_i2f
__aeabi_fsub
__aeabi_f2uiz
__aeabi_fmul
vTaskDelay
xTaskGetTickCount
__aeabi_uidiv
