ARM GAS  /tmp/ccVpkkof.s 			page 1


   1              		.cpu cortex-m0plus
   2              		.arch armv6s-m
   3              		.fpu softvfp
   4              		.eabi_attribute 20, 1
   5              		.eabi_attribute 21, 1
   6              		.eabi_attribute 23, 3
   7              		.eabi_attribute 24, 1
   8              		.eabi_attribute 25, 1
   9              		.eabi_attribute 26, 1
  10              		.eabi_attribute 30, 1
  11              		.eabi_attribute 34, 0
  12              		.eabi_attribute 18, 4
  13              		.file	"kth_read.cpp"
  14              		.text
  15              	.Ltext0:
  16              		.cfi_sections	.debug_frame
  17              		.file 1 "My_Top/System/kth_read.cpp"
  18              		.align	1
  19              		.global	_ZN7KTH711112KTH_CS_EnbleEb
  20              		.syntax unified
  21              		.code	16
  22              		.thumb_func
  24              	_ZN7KTH711112KTH_CS_EnbleEb:
  25              	.LVL0:
  26              	.LFB1439:
   1:My_Top/System/kth_read.cpp **** #include "kth_read.hpp"
   2:My_Top/System/kth_read.cpp **** 
   3:My_Top/System/kth_read.cpp **** 
   4:My_Top/System/kth_read.cpp **** bool KTH7111::KTH7111_Init(bool fx)
   5:My_Top/System/kth_read.cpp **** {
   6:My_Top/System/kth_read.cpp ****     bool write_ok = false;
   7:My_Top/System/kth_read.cpp ****     uint16_t angle_zero = 0;
   8:My_Top/System/kth_read.cpp ****     encoder_dir = fx;
   9:My_Top/System/kth_read.cpp ****     write_ok =KTH7111_RotationDirection(fx); //еЖЩеЕ•зЉЦз†БеЩ®иІТеЇ¶жЦєеРС
  10:My_Top/System/kth_read.cpp ****     // KTH7111_WriteReg(0x00, 0x00); //иЃЊзљЃйЫґзВє
  11:My_Top/System/kth_read.cpp ****     // KTH7111_WriteReg(0x01, 0x00); //иЃЊзљЃйЫґзВє 32786
  12:My_Top/System/kth_read.cpp ****     KTH7111_WriteReg(0x0d, 0x88); //иЃЊзљЃжї§ж≥ҐжЈ±еЇ¶
  13:My_Top/System/kth_read.cpp **** 
  14:My_Top/System/kth_read.cpp ****     KTH7111_BurnMTP(); //еЖЩеЕ•MTP 
  15:My_Top/System/kth_read.cpp ****     return write_ok;
  16:My_Top/System/kth_read.cpp **** }
  17:My_Top/System/kth_read.cpp **** 
  18:My_Top/System/kth_read.cpp **** void KTH7111::KTH_CS_Enble(bool status)
  19:My_Top/System/kth_read.cpp **** {
  27              		.loc 1 19 1 view -0
  28              		.cfi_startproc
  29              		@ args = 0, pretend = 0, frame = 0
  30              		@ frame_needed = 0, uses_anonymous_args = 0
  31              		.loc 1 19 1 is_stmt 0 view .LVU1
  32 0000 10B5     		push	{r4, lr}
  33              		.cfi_def_cfa_offset 8
  34              		.cfi_offset 4, -8
  35              		.cfi_offset 14, -4
  36 0002 0300     		movs	r3, r0
  20:My_Top/System/kth_read.cpp ****     HAL_GPIO_WritePin(_cs_port, _cs_pin, status ? GPIO_PIN_SET : GPIO_PIN_RESET);
  37              		.loc 1 20 5 is_stmt 1 view .LVU2
  38              		.loc 1 20 22 is_stmt 0 view .LVU3
ARM GAS  /tmp/ccVpkkof.s 			page 2


  39 0004 4069     		ldr	r0, [r0, #20]
  40              	.LVL1:
  41              		.loc 1 20 22 view .LVU4
  42 0006 1B8B     		ldrh	r3, [r3, #24]
  43              	.LVL2:
  44              		.loc 1 20 22 view .LVU5
  45 0008 0029     		cmp	r1, #0
  46 000a 04D0     		beq	.L3
  47              		.loc 1 20 22 discriminator 1 view .LVU6
  48 000c 0122     		movs	r2, #1
  49              	.L2:
  50              		.loc 1 20 22 discriminator 4 view .LVU7
  51 000e 1900     		movs	r1, r3
  52              	.LVL3:
  53              		.loc 1 20 22 discriminator 4 view .LVU8
  54 0010 FFF7FEFF 		bl	HAL_GPIO_WritePin
  55              	.LVL4:
  21:My_Top/System/kth_read.cpp **** }
  56              		.loc 1 21 1 view .LVU9
  57              		@ sp needed
  58 0014 10BD     		pop	{r4, pc}
  59              	.LVL5:
  60              	.L3:
  20:My_Top/System/kth_read.cpp ****     HAL_GPIO_WritePin(_cs_port, _cs_pin, status ? GPIO_PIN_SET : GPIO_PIN_RESET);
  61              		.loc 1 20 22 discriminator 2 view .LVU10
  62 0016 0022     		movs	r2, #0
  63 0018 F9E7     		b	.L2
  64              		.cfi_endproc
  65              	.LFE1439:
  67              		.align	1
  68              		.global	_ZN7KTH711119SPI_Set_MOSI_OutputEv
  69              		.syntax unified
  70              		.code	16
  71              		.thumb_func
  73              	_ZN7KTH711119SPI_Set_MOSI_OutputEv:
  74              	.LVL6:
  75              	.LFB1440:
  22:My_Top/System/kth_read.cpp **** 
  23:My_Top/System/kth_read.cpp **** void KTH7111::SPI_Set_MOSI_Output()
  24:My_Top/System/kth_read.cpp **** {
  76              		.loc 1 24 1 is_stmt 1 view -0
  77              		.cfi_startproc
  78              		@ args = 0, pretend = 0, frame = 0
  79              		@ frame_needed = 0, uses_anonymous_args = 0
  80              		.loc 1 24 1 is_stmt 0 view .LVU12
  81 001a 10B5     		push	{r4, lr}
  82              		.cfi_def_cfa_offset 8
  83              		.cfi_offset 4, -8
  84              		.cfi_offset 14, -4
  25:My_Top/System/kth_read.cpp ****     __HAL_SPI_DISABLE(_hspi);
  85              		.loc 1 25 5 is_stmt 1 view .LVU13
  86 001c 0369     		ldr	r3, [r0, #16]
  87 001e 1A68     		ldr	r2, [r3]
  88 0020 1368     		ldr	r3, [r2]
  89 0022 4021     		movs	r1, #64
  90 0024 8B43     		bics	r3, r1
  91 0026 1360     		str	r3, [r2]
ARM GAS  /tmp/ccVpkkof.s 			page 3


  26:My_Top/System/kth_read.cpp ****     SET_BIT(_hspi->Instance->CR1, SPI_CR1_BIDIOE);  // MOSI иЊУеЗЇпЉИдЄїжЬЇеПСйАБпЉЙ
  92              		.loc 1 26 5 view .LVU14
  93 0028 0369     		ldr	r3, [r0, #16]
  94 002a 1A68     		ldr	r2, [r3]
  95 002c 1468     		ldr	r4, [r2]
  96 002e 8023     		movs	r3, #128
  97 0030 DB01     		lsls	r3, r3, #7
  98 0032 2343     		orrs	r3, r4
  99 0034 1360     		str	r3, [r2]
  27:My_Top/System/kth_read.cpp ****     __HAL_SPI_ENABLE(_hspi);
 100              		.loc 1 27 5 view .LVU15
 101 0036 0369     		ldr	r3, [r0, #16]
 102 0038 1A68     		ldr	r2, [r3]
 103 003a 1368     		ldr	r3, [r2]
 104 003c 0B43     		orrs	r3, r1
 105 003e 1360     		str	r3, [r2]
  28:My_Top/System/kth_read.cpp **** }
 106              		.loc 1 28 1 is_stmt 0 view .LVU16
 107              		@ sp needed
 108 0040 10BD     		pop	{r4, pc}
 109              		.cfi_endproc
 110              	.LFE1440:
 112              		.align	1
 113              		.global	_ZN7KTH711118SPI_Set_MOSI_InputEv
 114              		.syntax unified
 115              		.code	16
 116              		.thumb_func
 118              	_ZN7KTH711118SPI_Set_MOSI_InputEv:
 119              	.LVL7:
 120              	.LFB1441:
  29:My_Top/System/kth_read.cpp **** 
  30:My_Top/System/kth_read.cpp **** void KTH7111::SPI_Set_MOSI_Input()
  31:My_Top/System/kth_read.cpp **** {
 121              		.loc 1 31 1 is_stmt 1 view -0
 122              		.cfi_startproc
 123              		@ args = 0, pretend = 0, frame = 0
 124              		@ frame_needed = 0, uses_anonymous_args = 0
 125              		.loc 1 31 1 is_stmt 0 view .LVU18
 126 0042 10B5     		push	{r4, lr}
 127              		.cfi_def_cfa_offset 8
 128              		.cfi_offset 4, -8
 129              		.cfi_offset 14, -4
  32:My_Top/System/kth_read.cpp ****     __HAL_SPI_DISABLE(_hspi);
 130              		.loc 1 32 5 is_stmt 1 view .LVU19
 131 0044 0369     		ldr	r3, [r0, #16]
 132 0046 1A68     		ldr	r2, [r3]
 133 0048 1368     		ldr	r3, [r2]
 134 004a 4021     		movs	r1, #64
 135 004c 8B43     		bics	r3, r1
 136 004e 1360     		str	r3, [r2]
  33:My_Top/System/kth_read.cpp ****     CLEAR_BIT(_hspi->Instance->CR1, SPI_CR1_BIDIOE);// MOSI иЊУеЕ•пЉИдЄїжЬЇжО•жФґпЉЙ
 137              		.loc 1 33 5 view .LVU20
 138 0050 0369     		ldr	r3, [r0, #16]
 139 0052 1A68     		ldr	r2, [r3]
 140 0054 1368     		ldr	r3, [r2]
 141 0056 044C     		ldr	r4, .L6
 142 0058 2340     		ands	r3, r4
ARM GAS  /tmp/ccVpkkof.s 			page 4


 143 005a 1360     		str	r3, [r2]
  34:My_Top/System/kth_read.cpp ****     __HAL_SPI_ENABLE(_hspi); 
 144              		.loc 1 34 5 view .LVU21
 145 005c 0369     		ldr	r3, [r0, #16]
 146 005e 1A68     		ldr	r2, [r3]
 147 0060 1368     		ldr	r3, [r2]
 148 0062 0B43     		orrs	r3, r1
 149 0064 1360     		str	r3, [r2]
  35:My_Top/System/kth_read.cpp **** }
 150              		.loc 1 35 1 is_stmt 0 view .LVU22
 151              		@ sp needed
 152 0066 10BD     		pop	{r4, pc}
 153              	.L7:
 154              		.align	2
 155              	.L6:
 156 0068 FFBFFFFF 		.word	-16385
 157              		.cfi_endproc
 158              	.LFE1441:
 160              		.align	1
 161              		.global	_ZN7KTH71118CRC8_ITUEPKhh
 162              		.syntax unified
 163              		.code	16
 164              		.thumb_func
 166              	_ZN7KTH71118CRC8_ITUEPKhh:
 167              	.LVL8:
 168              	.LFB1442:
  36:My_Top/System/kth_read.cpp **** 
  37:My_Top/System/kth_read.cpp **** 
  38:My_Top/System/kth_read.cpp **** 
  39:My_Top/System/kth_read.cpp **** /**
  40:My_Top/System/kth_read.cpp ****  * @brief CRC8/ITU ж†°й™М
  41:My_Top/System/kth_read.cpp ****  * е§Ъй°єеЉПпЉЪx8+x2+x+1 (0x07)
  42:My_Top/System/kth_read.cpp ****  * еИЭеІЛеАЉпЉЪ0x00
  43:My_Top/System/kth_read.cpp ****  * еЉВжИЦеАЉпЉЪ0x55
  44:My_Top/System/kth_read.cpp ****  */
  45:My_Top/System/kth_read.cpp **** uint8_t KTH7111::CRC8_ITU(const uint8_t *data, uint8_t len)
  46:My_Top/System/kth_read.cpp **** {
 169              		.loc 1 46 1 is_stmt 1 view -0
 170              		.cfi_startproc
 171              		@ args = 0, pretend = 0, frame = 0
 172              		@ frame_needed = 0, uses_anonymous_args = 0
 173              		.loc 1 46 1 is_stmt 0 view .LVU24
 174 006c 30B5     		push	{r4, r5, lr}
 175              		.cfi_def_cfa_offset 12
 176              		.cfi_offset 4, -12
 177              		.cfi_offset 5, -8
 178              		.cfi_offset 14, -4
 179 006e 0D00     		movs	r5, r1
  47:My_Top/System/kth_read.cpp ****     uint8_t crc = 0x00;  /* еИЭеІЛеАЉ */
 180              		.loc 1 47 5 is_stmt 1 view .LVU25
 181              	.LVL9:
  48:My_Top/System/kth_read.cpp ****     for (uint8_t i = 0; i < len; i++)
 182              		.loc 1 48 5 view .LVU26
 183              	.LBB2:
 184              		.loc 1 48 18 is_stmt 0 view .LVU27
 185 0070 0024     		movs	r4, #0
 186              	.LBE2:
ARM GAS  /tmp/ccVpkkof.s 			page 5


  47:My_Top/System/kth_read.cpp ****     uint8_t crc = 0x00;  /* еИЭеІЛеАЉ */
 187              		.loc 1 47 13 view .LVU28
 188 0072 0020     		movs	r0, #0
 189              	.LVL10:
 190              	.LBB7:
 191              		.loc 1 48 5 view .LVU29
 192 0074 0FE0     		b	.L9
 193              	.LVL11:
 194              	.L16:
 195              	.LBB3:
 196              	.LBB4:
  49:My_Top/System/kth_read.cpp ****     {
  50:My_Top/System/kth_read.cpp ****         crc ^= data[i];
  51:My_Top/System/kth_read.cpp ****         for (uint8_t j = 0; j < 8; j++)
  52:My_Top/System/kth_read.cpp ****         {
  53:My_Top/System/kth_read.cpp ****             if (crc & 0x80)
  54:My_Top/System/kth_read.cpp ****                 crc = (crc << 1) ^ 0x07;  /* е§Ъй°єеЉП */
 197              		.loc 1 54 17 is_stmt 1 view .LVU30
 198              		.loc 1 54 34 is_stmt 0 view .LVU31
 199 0076 4900     		lsls	r1, r1, #1
 200 0078 0720     		movs	r0, #7
 201              	.LVL12:
 202              		.loc 1 54 34 view .LVU32
 203 007a 4840     		eors	r0, r1
 204              		.loc 1 54 21 view .LVU33
 205 007c C0B2     		uxtb	r0, r0
 206              	.LVL13:
 207              	.L12:
  51:My_Top/System/kth_read.cpp ****         {
 208              		.loc 1 51 9 is_stmt 1 discriminator 2 view .LVU34
 209 007e 0133     		adds	r3, r3, #1
 210              	.LVL14:
  51:My_Top/System/kth_read.cpp ****         {
 211              		.loc 1 51 9 is_stmt 0 discriminator 2 view .LVU35
 212 0080 DBB2     		uxtb	r3, r3
 213              	.LVL15:
 214              	.L10:
  51:My_Top/System/kth_read.cpp ****         {
 215              		.loc 1 51 31 is_stmt 1 discriminator 1 view .LVU36
 216 0082 072B     		cmp	r3, #7
 217 0084 05D8     		bhi	.L15
  53:My_Top/System/kth_read.cpp ****                 crc = (crc << 1) ^ 0x07;  /* е§Ъй°єеЉП */
 218              		.loc 1 53 13 view .LVU37
  53:My_Top/System/kth_read.cpp ****                 crc = (crc << 1) ^ 0x07;  /* е§Ъй°єеЉП */
 219              		.loc 1 53 21 is_stmt 0 view .LVU38
 220 0086 41B2     		sxtb	r1, r0
  53:My_Top/System/kth_read.cpp ****                 crc = (crc << 1) ^ 0x07;  /* е§Ъй°єеЉП */
 221              		.loc 1 53 13 view .LVU39
 222 0088 0029     		cmp	r1, #0
 223 008a F4DB     		blt	.L16
  55:My_Top/System/kth_read.cpp ****             else
  56:My_Top/System/kth_read.cpp ****                 crc = crc << 1;
 224              		.loc 1 56 17 is_stmt 1 view .LVU40
 225              		.loc 1 56 21 is_stmt 0 view .LVU41
 226 008c 4000     		lsls	r0, r0, #1
 227              	.LVL16:
 228              		.loc 1 56 21 view .LVU42
ARM GAS  /tmp/ccVpkkof.s 			page 6


 229 008e C0B2     		uxtb	r0, r0
 230 0090 F5E7     		b	.L12
 231              	.LVL17:
 232              	.L15:
 233              		.loc 1 56 21 view .LVU43
 234              	.LBE4:
 235              	.LBE3:
  48:My_Top/System/kth_read.cpp ****     {
 236              		.loc 1 48 5 is_stmt 1 discriminator 2 view .LVU44
 237 0092 0134     		adds	r4, r4, #1
 238              	.LVL18:
  48:My_Top/System/kth_read.cpp ****     {
 239              		.loc 1 48 5 is_stmt 0 discriminator 2 view .LVU45
 240 0094 E4B2     		uxtb	r4, r4
 241              	.LVL19:
 242              	.L9:
  48:My_Top/System/kth_read.cpp ****     {
 243              		.loc 1 48 27 is_stmt 1 discriminator 1 view .LVU46
 244 0096 9442     		cmp	r4, r2
 245 0098 03D2     		bcs	.L17
 246              	.LBB6:
  50:My_Top/System/kth_read.cpp ****         for (uint8_t j = 0; j < 8; j++)
 247              		.loc 1 50 9 view .LVU47
  50:My_Top/System/kth_read.cpp ****         for (uint8_t j = 0; j < 8; j++)
 248              		.loc 1 50 22 is_stmt 0 view .LVU48
 249 009a 2B5D     		ldrb	r3, [r5, r4]
  50:My_Top/System/kth_read.cpp ****         for (uint8_t j = 0; j < 8; j++)
 250              		.loc 1 50 13 view .LVU49
 251 009c 5840     		eors	r0, r3
 252              	.LVL20:
  51:My_Top/System/kth_read.cpp ****         {
 253              		.loc 1 51 9 is_stmt 1 view .LVU50
 254              	.LBB5:
  51:My_Top/System/kth_read.cpp ****         {
 255              		.loc 1 51 22 is_stmt 0 view .LVU51
 256 009e 0023     		movs	r3, #0
  51:My_Top/System/kth_read.cpp ****         {
 257              		.loc 1 51 9 view .LVU52
 258 00a0 EFE7     		b	.L10
 259              	.LVL21:
 260              	.L17:
  51:My_Top/System/kth_read.cpp ****         {
 261              		.loc 1 51 9 view .LVU53
 262              	.LBE5:
 263              	.LBE6:
 264              	.LBE7:
  57:My_Top/System/kth_read.cpp ****         }
  58:My_Top/System/kth_read.cpp ****     }
  59:My_Top/System/kth_read.cpp ****     crc ^= 0x55;
 265              		.loc 1 59 5 is_stmt 1 view .LVU54
 266              		.loc 1 59 9 is_stmt 0 view .LVU55
 267 00a2 5523     		movs	r3, #85
 268 00a4 5840     		eors	r0, r3
 269              	.LVL22:
 270              		.loc 1 59 9 view .LVU56
 271 00a6 C0B2     		uxtb	r0, r0
 272              	.LVL23:
ARM GAS  /tmp/ccVpkkof.s 			page 7


  60:My_Top/System/kth_read.cpp ****     return crc;
 273              		.loc 1 60 5 is_stmt 1 view .LVU57
  61:My_Top/System/kth_read.cpp **** }
 274              		.loc 1 61 1 is_stmt 0 view .LVU58
 275              		@ sp needed
 276              	.LVL24:
 277              	.LVL25:
 278              		.loc 1 61 1 view .LVU59
 279 00a8 30BD     		pop	{r4, r5, pc}
 280              		.cfi_endproc
 281              	.LFE1442:
 283              		.align	1
 284              		.global	_ZN7KTH711121KTH7111_Send_JIAO_CMDEv
 285              		.syntax unified
 286              		.code	16
 287              		.thumb_func
 289              	_ZN7KTH711121KTH7111_Send_JIAO_CMDEv:
 290              	.LVL26:
 291              	.LFB1443:
  62:My_Top/System/kth_read.cpp **** 
  63:My_Top/System/kth_read.cpp **** 
  64:My_Top/System/kth_read.cpp **** void KTH7111::KTH7111_Send_JIAO_CMD() //иѓїеПЦиІТеЇ¶
  65:My_Top/System/kth_read.cpp **** {
 292              		.loc 1 65 1 is_stmt 1 view -0
 293              		.cfi_startproc
 294              		@ args = 0, pretend = 0, frame = 8
 295              		@ frame_needed = 0, uses_anonymous_args = 0
 296              		.loc 1 65 1 is_stmt 0 view .LVU61
 297 00aa 30B5     		push	{r4, r5, lr}
 298              		.cfi_def_cfa_offset 12
 299              		.cfi_offset 4, -12
 300              		.cfi_offset 5, -8
 301              		.cfi_offset 14, -4
 302 00ac 83B0     		sub	sp, sp, #12
 303              		.cfi_def_cfa_offset 24
 304 00ae 0400     		movs	r4, r0
  66:My_Top/System/kth_read.cpp ****     HAL_StatusTypeDef status = HAL_ERROR;
 305              		.loc 1 66 5 is_stmt 1 view .LVU62
 306              	.LVL27:
  67:My_Top/System/kth_read.cpp ****     uint8_t cmd = 0x00;   //еПСйАБеСљдї§пЉЪ8bitпЉИ0x00пЉЙ
 307              		.loc 1 67 5 view .LVU63
 308              		.loc 1 67 13 is_stmt 0 view .LVU64
 309 00b0 6B46     		mov	r3, sp
 310 00b2 DD1D     		adds	r5, r3, #7
 311 00b4 0023     		movs	r3, #0
 312 00b6 2B70     		strb	r3, [r5]
  68:My_Top/System/kth_read.cpp ****     uint8_t rx_buff[3] = {0}; /* жФґ 2е≠ЧиКВиІТеЇ¶ + 1е≠ЧиКВCRC */
 313              		.loc 1 68 5 is_stmt 1 view .LVU65
 314              		.loc 1 68 13 is_stmt 0 view .LVU66
 315 00b8 0322     		movs	r2, #3
 316 00ba 0021     		movs	r1, #0
 317 00bc 01A8     		add	r0, sp, #4
 318              	.LVL28:
 319              		.loc 1 68 13 view .LVU67
 320 00be FFF7FEFF 		bl	memset
 321              	.LVL29:
  69:My_Top/System/kth_read.cpp ****     uint8_t crc = 0;
ARM GAS  /tmp/ccVpkkof.s 			page 8


 322              		.loc 1 69 5 is_stmt 1 view .LVU68
  70:My_Top/System/kth_read.cpp ****     
  71:My_Top/System/kth_read.cpp ****     KTH_CS_Enble(false);/* зЙЗйАЙжЛЙдљО */
 323              		.loc 1 71 5 view .LVU69
 324              		.loc 1 71 17 is_stmt 0 view .LVU70
 325 00c2 0021     		movs	r1, #0
 326 00c4 2000     		movs	r0, r4
 327 00c6 FFF7FEFF 		bl	_ZN7KTH711112KTH_CS_EnbleEb
 328              	.LVL30:
  72:My_Top/System/kth_read.cpp ****     status = HAL_SPI_Transmit(_hspi,&cmd, 1, 1);//еПСйАБеСљдї§пЉЪ8bitпЉИ0x00пЉЙ
 329              		.loc 1 72 5 is_stmt 1 view .LVU71
 330              		.loc 1 72 30 is_stmt 0 view .LVU72
 331 00ca 2069     		ldr	r0, [r4, #16]
 332 00cc 0123     		movs	r3, #1
 333 00ce 0122     		movs	r2, #1
 334 00d0 2900     		movs	r1, r5
 335 00d2 FFF7FEFF 		bl	HAL_SPI_Transmit
 336              	.LVL31:
  73:My_Top/System/kth_read.cpp ****     if(status != HAL_OK) return;
 337              		.loc 1 73 5 is_stmt 1 view .LVU73
 338 00d6 0028     		cmp	r0, #0
 339 00d8 01D0     		beq	.L21
 340              	.LVL32:
 341              	.L18:
  74:My_Top/System/kth_read.cpp **** 
  75:My_Top/System/kth_read.cpp ****     SPI_Set_MOSI_Input();//MOSIеПШдЄЇMISO
  76:My_Top/System/kth_read.cpp **** 
  77:My_Top/System/kth_read.cpp ****     status = HAL_SPI_Receive(_hspi,rx_buff, 3, 1); //жО•жФґжХ∞жНЃпЉЪ2е≠ЧиКВиІТеЇ¶ + 1е≠ЧиКВCRC
  78:My_Top/System/kth_read.cpp ****     if(status != HAL_OK) return;
  79:My_Top/System/kth_read.cpp **** 
  80:My_Top/System/kth_read.cpp ****     SPI_Set_MOSI_Output();//MISO еПШдЄЇMOSI
  81:My_Top/System/kth_read.cpp **** 
  82:My_Top/System/kth_read.cpp ****     KTH_CS_Enble(true);/* зЙЗйАЙжЛЙйЂШ */
  83:My_Top/System/kth_read.cpp ****     crc = CRC8_ITU(rx_buff, 2); //ж†°й™МCRC
  84:My_Top/System/kth_read.cpp ****     if(crc != rx_buff[2]) return; //CRCж†°й™МжЬ™йАЪињЗ
  85:My_Top/System/kth_read.cpp ****     single_turn = (uint16_t)(rx_buff[0] << 8) | (uint16_t)rx_buff[1]; //иљђжИР16дљНжХ∞жНЃ
  86:My_Top/System/kth_read.cpp ****     // if(encoder_dir == false) single_turn = KTH7111_PRECISION - single_turn; //иІТеЇ¶жЦєеРСеПЦеПН
  87:My_Top/System/kth_read.cpp ****     theta = single_turn*RAW_TO_RAD;//иљђжИРеЉІеЇ¶
  88:My_Top/System/kth_read.cpp ****     angle = theta*RAD_TO_DEG;//иљђжИРиІТеЇ¶
  89:My_Top/System/kth_read.cpp **** }
 342              		.loc 1 89 1 is_stmt 0 view .LVU74
 343 00da 03B0     		add	sp, sp, #12
 344              		@ sp needed
 345              	.LVL33:
 346              		.loc 1 89 1 view .LVU75
 347 00dc 30BD     		pop	{r4, r5, pc}
 348              	.LVL34:
 349              	.L21:
  75:My_Top/System/kth_read.cpp **** 
 350              		.loc 1 75 5 is_stmt 1 view .LVU76
  75:My_Top/System/kth_read.cpp **** 
 351              		.loc 1 75 23 is_stmt 0 view .LVU77
 352 00de 2000     		movs	r0, r4
 353              	.LVL35:
  75:My_Top/System/kth_read.cpp **** 
 354              		.loc 1 75 23 view .LVU78
 355 00e0 FFF7FEFF 		bl	_ZN7KTH711118SPI_Set_MOSI_InputEv
ARM GAS  /tmp/ccVpkkof.s 			page 9


 356              	.LVL36:
  77:My_Top/System/kth_read.cpp ****     if(status != HAL_OK) return;
 357              		.loc 1 77 5 is_stmt 1 view .LVU79
  77:My_Top/System/kth_read.cpp ****     if(status != HAL_OK) return;
 358              		.loc 1 77 29 is_stmt 0 view .LVU80
 359 00e4 2069     		ldr	r0, [r4, #16]
 360 00e6 0123     		movs	r3, #1
 361 00e8 0322     		movs	r2, #3
 362 00ea 01A9     		add	r1, sp, #4
 363 00ec FFF7FEFF 		bl	HAL_SPI_Receive
 364              	.LVL37:
  78:My_Top/System/kth_read.cpp **** 
 365              		.loc 1 78 5 is_stmt 1 view .LVU81
 366 00f0 0028     		cmp	r0, #0
 367 00f2 F2D1     		bne	.L18
  80:My_Top/System/kth_read.cpp **** 
 368              		.loc 1 80 5 view .LVU82
  80:My_Top/System/kth_read.cpp **** 
 369              		.loc 1 80 24 is_stmt 0 view .LVU83
 370 00f4 2000     		movs	r0, r4
 371              	.LVL38:
  80:My_Top/System/kth_read.cpp **** 
 372              		.loc 1 80 24 view .LVU84
 373 00f6 FFF7FEFF 		bl	_ZN7KTH711119SPI_Set_MOSI_OutputEv
 374              	.LVL39:
  82:My_Top/System/kth_read.cpp ****     crc = CRC8_ITU(rx_buff, 2); //ж†°й™МCRC
 375              		.loc 1 82 5 is_stmt 1 view .LVU85
  82:My_Top/System/kth_read.cpp ****     crc = CRC8_ITU(rx_buff, 2); //ж†°й™МCRC
 376              		.loc 1 82 17 is_stmt 0 view .LVU86
 377 00fa 0121     		movs	r1, #1
 378 00fc 2000     		movs	r0, r4
 379 00fe FFF7FEFF 		bl	_ZN7KTH711112KTH_CS_EnbleEb
 380              	.LVL40:
  83:My_Top/System/kth_read.cpp ****     if(crc != rx_buff[2]) return; //CRCж†°й™МжЬ™йАЪињЗ
 381              		.loc 1 83 5 is_stmt 1 view .LVU87
  83:My_Top/System/kth_read.cpp ****     if(crc != rx_buff[2]) return; //CRCж†°й™МжЬ™йАЪињЗ
 382              		.loc 1 83 19 is_stmt 0 view .LVU88
 383 0102 01AD     		add	r5, sp, #4
 384 0104 0222     		movs	r2, #2
 385 0106 2900     		movs	r1, r5
 386 0108 2000     		movs	r0, r4
 387 010a FFF7FEFF 		bl	_ZN7KTH71118CRC8_ITUEPKhh
 388              	.LVL41:
  84:My_Top/System/kth_read.cpp ****     single_turn = (uint16_t)(rx_buff[0] << 8) | (uint16_t)rx_buff[1]; //иљђжИР16дљНжХ∞жНЃ
 389              		.loc 1 84 5 is_stmt 1 view .LVU89
  84:My_Top/System/kth_read.cpp ****     single_turn = (uint16_t)(rx_buff[0] << 8) | (uint16_t)rx_buff[1]; //иљђжИР16дљНжХ∞жНЃ
 390              		.loc 1 84 24 is_stmt 0 view .LVU90
 391 010e AB78     		ldrb	r3, [r5, #2]
  84:My_Top/System/kth_read.cpp ****     single_turn = (uint16_t)(rx_buff[0] << 8) | (uint16_t)rx_buff[1]; //иљђжИР16дљНжХ∞жНЃ
 392              		.loc 1 84 5 view .LVU91
 393 0110 8342     		cmp	r3, r0
 394 0112 E2D1     		bne	.L18
  85:My_Top/System/kth_read.cpp ****     // if(encoder_dir == false) single_turn = KTH7111_PRECISION - single_turn; //иІТеЇ¶жЦєеРСеПЦеПН
 395              		.loc 1 85 5 is_stmt 1 view .LVU92
  85:My_Top/System/kth_read.cpp ****     // if(encoder_dir == false) single_turn = KTH7111_PRECISION - single_turn; //иІТеЇ¶жЦєеРСеПЦеПН
 396              		.loc 1 85 39 is_stmt 0 view .LVU93
 397 0114 2878     		ldrb	r0, [r5]
ARM GAS  /tmp/ccVpkkof.s 			page 10


 398              	.LVL42:
  85:My_Top/System/kth_read.cpp ****     // if(encoder_dir == false) single_turn = KTH7111_PRECISION - single_turn; //иІТеЇ¶жЦєеРСеПЦеПН
 399              		.loc 1 85 41 view .LVU94
 400 0116 0002     		lsls	r0, r0, #8
  85:My_Top/System/kth_read.cpp ****     // if(encoder_dir == false) single_turn = KTH7111_PRECISION - single_turn; //иІТеЇ¶жЦєеРСеПЦеПН
 401              		.loc 1 85 68 view .LVU95
 402 0118 6B78     		ldrb	r3, [r5, #1]
  85:My_Top/System/kth_read.cpp ****     // if(encoder_dir == false) single_turn = KTH7111_PRECISION - single_turn; //иІТеЇ¶жЦєеРСеПЦеПН
 403              		.loc 1 85 47 view .LVU96
 404 011a 1843     		orrs	r0, r3
  85:My_Top/System/kth_read.cpp ****     // if(encoder_dir == false) single_turn = KTH7111_PRECISION - single_turn; //иІТеЇ¶жЦєеРСеПЦеПН
 405              		.loc 1 85 17 view .LVU97
 406 011c 2080     		strh	r0, [r4]
  87:My_Top/System/kth_read.cpp ****     angle = theta*RAD_TO_DEG;//иљђжИРиІТеЇ¶
 407              		.loc 1 87 5 is_stmt 1 view .LVU98
  87:My_Top/System/kth_read.cpp ****     angle = theta*RAD_TO_DEG;//иљђжИРиІТеЇ¶
 408              		.loc 1 87 24 is_stmt 0 view .LVU99
 409 011e FFF7FEFF 		bl	__aeabi_i2f
 410              	.LVL43:
 411 0122 0449     		ldr	r1, .L22
 412 0124 FFF7FEFF 		bl	__aeabi_fmul
 413              	.LVL44:
  87:My_Top/System/kth_read.cpp ****     angle = theta*RAD_TO_DEG;//иљђжИРиІТеЇ¶
 414              		.loc 1 87 11 view .LVU100
 415 0128 6060     		str	r0, [r4, #4]
  88:My_Top/System/kth_read.cpp **** }
 416              		.loc 1 88 5 is_stmt 1 view .LVU101
  88:My_Top/System/kth_read.cpp **** }
 417              		.loc 1 88 18 is_stmt 0 view .LVU102
 418 012a 0349     		ldr	r1, .L22+4
 419 012c FFF7FEFF 		bl	__aeabi_fmul
 420              	.LVL45:
  88:My_Top/System/kth_read.cpp **** }
 421              		.loc 1 88 11 view .LVU103
 422 0130 A060     		str	r0, [r4, #8]
 423 0132 D2E7     		b	.L18
 424              	.L23:
 425              		.align	2
 426              	.L22:
 427 0134 A410C938 		.word	952701092
 428 0138 E02E6542 		.word	1113927392
 429              		.cfi_endproc
 430              	.LFE1443:
 432              		.align	1
 433              		.global	_ZN7KTH711118Get_KTH7111_RadianEv
 434              		.syntax unified
 435              		.code	16
 436              		.thumb_func
 438              	_ZN7KTH711118Get_KTH7111_RadianEv:
 439              	.LVL46:
 440              	.LFB1444:
  90:My_Top/System/kth_read.cpp **** 
  91:My_Top/System/kth_read.cpp **** 
  92:My_Top/System/kth_read.cpp **** /**
  93:My_Top/System/kth_read.cpp ****  * @brief иОЈеПЦKTH7111дЉ†жДЯеЩ®зЪДеЉІеЇ¶еАЉ
  94:My_Top/System/kth_read.cpp ****  * @return float ињФеЫЮељУеЙНе≠ШеВ®зЪДеЉІеЇ¶еАЉtheta
  95:My_Top/System/kth_read.cpp ****  */
ARM GAS  /tmp/ccVpkkof.s 			page 11


  96:My_Top/System/kth_read.cpp **** float KTH7111::Get_KTH7111_Radian(void) //иОЈеПЦеЉІеЇ¶
  97:My_Top/System/kth_read.cpp **** {
 441              		.loc 1 97 1 is_stmt 1 view -0
 442              		.cfi_startproc
 443              		@ args = 0, pretend = 0, frame = 0
 444              		@ frame_needed = 0, uses_anonymous_args = 0
 445              		@ link register save eliminated.
  98:My_Top/System/kth_read.cpp ****     return theta;  // ињФеЫЮжИРеСШеПШйЗПthetaзЪДеАЉпЉМиѓ•еАЉе≠ШеВ®дЇЖдЉ†жДЯеЩ®зЪДеЉІеЇ¶жµЛйЗПеАЉ
 446              		.loc 1 98 5 view .LVU105
 447              		.loc 1 98 12 is_stmt 0 discriminator 1 view .LVU106
 448 013c 4068     		ldr	r0, [r0, #4]
 449              	.LVL47:
  99:My_Top/System/kth_read.cpp **** }
 450              		.loc 1 99 1 view .LVU107
 451              		@ sp needed
 452 013e 7047     		bx	lr
 453              		.cfi_endproc
 454              	.LFE1444:
 456              		.align	1
 457              		.global	_ZN7KTH711118Get_KTH7111_DegreeEv
 458              		.syntax unified
 459              		.code	16
 460              		.thumb_func
 462              	_ZN7KTH711118Get_KTH7111_DegreeEv:
 463              	.LVL48:
 464              	.LFB1445:
 100:My_Top/System/kth_read.cpp **** 
 101:My_Top/System/kth_read.cpp **** float KTH7111::Get_KTH7111_Degree(void) //иОЈеПЦиІТеЇ¶
 102:My_Top/System/kth_read.cpp **** {
 465              		.loc 1 102 1 is_stmt 1 view -0
 466              		.cfi_startproc
 467              		@ args = 0, pretend = 0, frame = 0
 468              		@ frame_needed = 0, uses_anonymous_args = 0
 469              		@ link register save eliminated.
 103:My_Top/System/kth_read.cpp ****     return angle;
 470              		.loc 1 103 5 view .LVU109
 471              		.loc 1 103 12 is_stmt 0 discriminator 1 view .LVU110
 472 0140 8068     		ldr	r0, [r0, #8]
 473              	.LVL49:
 104:My_Top/System/kth_read.cpp **** }
 474              		.loc 1 104 1 view .LVU111
 475              		@ sp needed
 476 0142 7047     		bx	lr
 477              		.cfi_endproc
 478              	.LFE1445:
 480              		.align	1
 481              		.global	_ZN7KTH711115KTH7111_ReadRegEh
 482              		.syntax unified
 483              		.code	16
 484              		.thumb_func
 486              	_ZN7KTH711115KTH7111_ReadRegEh:
 487              	.LVL50:
 488              	.LFB1446:
 105:My_Top/System/kth_read.cpp **** 
 106:My_Top/System/kth_read.cpp **** /* ---------------------- иѓїеѓДе≠ШеЩ® ---------------------- */
 107:My_Top/System/kth_read.cpp **** uint8_t KTH7111::KTH7111_ReadReg(uint8_t addr)
 108:My_Top/System/kth_read.cpp **** {
ARM GAS  /tmp/ccVpkkof.s 			page 12


 489              		.loc 1 108 1 is_stmt 1 view -0
 490              		.cfi_startproc
 491              		@ args = 0, pretend = 0, frame = 16
 492              		@ frame_needed = 0, uses_anonymous_args = 0
 493              		.loc 1 108 1 is_stmt 0 view .LVU113
 494 0144 70B5     		push	{r4, r5, r6, lr}
 495              		.cfi_def_cfa_offset 16
 496              		.cfi_offset 4, -16
 497              		.cfi_offset 5, -12
 498              		.cfi_offset 6, -8
 499              		.cfi_offset 14, -4
 500 0146 84B0     		sub	sp, sp, #16
 501              		.cfi_def_cfa_offset 32
 502 0148 0400     		movs	r4, r0
 109:My_Top/System/kth_read.cpp ****     uint8_t cmd[2] = {0x11, addr};  /*еПСйАБеСљдї§пЉЪ8bit 0x11 + 8bit еѓДе≠ШеЩ®еЬ∞еЭА*/
 503              		.loc 1 109 5 is_stmt 1 view .LVU114
 504              		.loc 1 109 13 is_stmt 0 view .LVU115
 505 014a 03AD     		add	r5, sp, #12
 506 014c 0023     		movs	r3, #0
 507 014e 2B80     		strh	r3, [r5]
 508 0150 1122     		movs	r2, #17
 509 0152 2A70     		strb	r2, [r5]
 510              		.loc 1 109 33 view .LVU116
 511 0154 6970     		strb	r1, [r5, #1]
 110:My_Top/System/kth_read.cpp ****     uint8_t rx_buff[2] = {0}; /* жФґ 8bit еѓДе≠ШеЩ®еАЉ + 8bitCRC */
 512              		.loc 1 110 5 is_stmt 1 view .LVU117
 513              		.loc 1 110 13 is_stmt 0 view .LVU118
 514 0156 02AA     		add	r2, sp, #8
 515 0158 1380     		strh	r3, [r2]
 111:My_Top/System/kth_read.cpp ****     uint8_t crc = 0; 
 516              		.loc 1 111 5 is_stmt 1 view .LVU119
 517              	.LVL51:
 112:My_Top/System/kth_read.cpp ****     HAL_StatusTypeDef status = HAL_ERROR;
 518              		.loc 1 112 5 view .LVU120
 113:My_Top/System/kth_read.cpp **** 
 114:My_Top/System/kth_read.cpp ****     KTH_CS_Enble(false);
 519              		.loc 1 114 5 view .LVU121
 520              		.loc 1 114 17 is_stmt 0 view .LVU122
 521 015a 0021     		movs	r1, #0
 522              	.LVL52:
 523              		.loc 1 114 17 view .LVU123
 524 015c FFF7FEFF 		bl	_ZN7KTH711112KTH_CS_EnbleEb
 525              	.LVL53:
 115:My_Top/System/kth_read.cpp ****     status = HAL_SPI_Transmit(_hspi,cmd, 2, 10);//еПСйАБеСљдї§пЉЪ8bit 0x11 + 8bit еѓДе≠ШеЩ®еЬ∞еЭА
 526              		.loc 1 115 5 is_stmt 1 view .LVU124
 527              		.loc 1 115 30 is_stmt 0 view .LVU125
 528 0160 2069     		ldr	r0, [r4, #16]
 529 0162 0A23     		movs	r3, #10
 530 0164 0222     		movs	r2, #2
 531 0166 2900     		movs	r1, r5
 532 0168 FFF7FEFF 		bl	HAL_SPI_Transmit
 533              	.LVL54:
 534 016c 061E     		subs	r6, r0, #0
 535              	.LVL55:
 116:My_Top/System/kth_read.cpp ****     if(status != HAL_OK) 
 536              		.loc 1 116 5 is_stmt 1 view .LVU126
 537 016e 05D1     		bne	.L34
ARM GAS  /tmp/ccVpkkof.s 			page 13


 117:My_Top/System/kth_read.cpp ****     {
 118:My_Top/System/kth_read.cpp ****         KTH_CS_Enble(true);
 119:My_Top/System/kth_read.cpp ****         return 0;
 120:My_Top/System/kth_read.cpp ****     }
 121:My_Top/System/kth_read.cpp **** 
 122:My_Top/System/kth_read.cpp ****     SPI_Set_MOSI_Input();//MOSIеПШдЄЇMISO
 538              		.loc 1 122 5 view .LVU127
 539              		.loc 1 122 23 is_stmt 0 view .LVU128
 540 0170 2000     		movs	r0, r4
 541              	.LVL56:
 542              		.loc 1 122 23 view .LVU129
 543 0172 FFF7FEFF 		bl	_ZN7KTH711118SPI_Set_MOSI_InputEv
 544              	.LVL57:
 123:My_Top/System/kth_read.cpp **** 
 124:My_Top/System/kth_read.cpp ****     for(volatile uint32_t i = 0; i < 28; i++) { __NOP(); } //еїґжЧґ1us
 545              		.loc 1 124 5 is_stmt 1 view .LVU130
 546              	.LBB8:
 547              		.loc 1 124 27 is_stmt 0 view .LVU131
 548 0176 0023     		movs	r3, #0
 549 0178 0093     		str	r3, [sp]
 550              		.loc 1 124 5 view .LVU132
 551 017a 0BE0     		b	.L29
 552              	.LVL58:
 553              	.L34:
 554              		.loc 1 124 5 view .LVU133
 555              	.LBE8:
 118:My_Top/System/kth_read.cpp ****         return 0;
 556              		.loc 1 118 9 is_stmt 1 view .LVU134
 118:My_Top/System/kth_read.cpp ****         return 0;
 557              		.loc 1 118 21 is_stmt 0 view .LVU135
 558 017c 0121     		movs	r1, #1
 559 017e 2000     		movs	r0, r4
 560              	.LVL59:
 118:My_Top/System/kth_read.cpp ****         return 0;
 561              		.loc 1 118 21 view .LVU136
 562 0180 FFF7FEFF 		bl	_ZN7KTH711112KTH_CS_EnbleEb
 563              	.LVL60:
 119:My_Top/System/kth_read.cpp ****     }
 564              		.loc 1 119 9 is_stmt 1 view .LVU137
 119:My_Top/System/kth_read.cpp ****     }
 565              		.loc 1 119 16 is_stmt 0 view .LVU138
 566 0184 0025     		movs	r5, #0
 567              	.LVL61:
 568              	.L28:
 125:My_Top/System/kth_read.cpp ****     status = HAL_SPI_Receive(_hspi,rx_buff, 2, 10); //жО•жФґжХ∞жНЃпЉЪ8bit еѓДе≠ШеЩ®еАЉ + 8bitCRC
 126:My_Top/System/kth_read.cpp ****     if(status != HAL_OK)
 127:My_Top/System/kth_read.cpp ****     {
 128:My_Top/System/kth_read.cpp ****         KTH_CS_Enble(true);
 129:My_Top/System/kth_read.cpp ****         SPI_Set_MOSI_Output();//MISO еПШдЄЇMOSI
 130:My_Top/System/kth_read.cpp ****         return 0;
 131:My_Top/System/kth_read.cpp ****     }
 132:My_Top/System/kth_read.cpp ****     for(volatile uint32_t i = 0; i < 28; i++) { __NOP(); } //еїґжЧґ1us
 133:My_Top/System/kth_read.cpp ****     SPI_Set_MOSI_Output();//MISO еПШдЄЇMOSI
 134:My_Top/System/kth_read.cpp ****     KTH_CS_Enble(true);
 135:My_Top/System/kth_read.cpp **** 
 136:My_Top/System/kth_read.cpp ****     
 137:My_Top/System/kth_read.cpp **** 
ARM GAS  /tmp/ccVpkkof.s 			page 14


 138:My_Top/System/kth_read.cpp ****     crc = CRC8_ITU(rx_buff, 1); //ж†°й™МCRC
 139:My_Top/System/kth_read.cpp ****     if(crc != rx_buff[1]) return 0; //CRCж†°й™МжЬ™йАЪињЗ 
 140:My_Top/System/kth_read.cpp ****     return rx_buff[0]; //ињФеЫЮеѓДе≠ШеЩ®еАЉ 
 141:My_Top/System/kth_read.cpp **** }
 569              		.loc 1 141 1 view .LVU139
 570 0186 2800     		movs	r0, r5
 571 0188 04B0     		add	sp, sp, #16
 572              		@ sp needed
 573              	.LVL62:
 574              		.loc 1 141 1 view .LVU140
 575 018a 70BD     		pop	{r4, r5, r6, pc}
 576              	.LVL63:
 577              	.L30:
 578              	.LBB9:
 124:My_Top/System/kth_read.cpp ****     status = HAL_SPI_Receive(_hspi,rx_buff, 2, 10); //жО•жФґжХ∞жНЃпЉЪ8bit еѓДе≠ШеЩ®еАЉ + 8bitCRC
 579              		.loc 1 124 49 is_stmt 1 discriminator 3 view .LVU141
 580              		.syntax divided
 581              	@ 124 "My_Top/System/kth_read.cpp" 1
 582 018c C046     		nop
 583              	@ 0 "" 2
 124:My_Top/System/kth_read.cpp ****     status = HAL_SPI_Receive(_hspi,rx_buff, 2, 10); //жО•жФґжХ∞жНЃпЉЪ8bit еѓДе≠ШеЩ®еАЉ + 8bitCRC
 584              		.loc 1 124 5 discriminator 3 view .LVU142
 585              		.thumb
 586              		.syntax unified
 587 018e 009B     		ldr	r3, [sp]
 588 0190 0133     		adds	r3, r3, #1
 589 0192 0093     		str	r3, [sp]
 590              	.L29:
 124:My_Top/System/kth_read.cpp ****     status = HAL_SPI_Receive(_hspi,rx_buff, 2, 10); //жО•жФґжХ∞жНЃпЉЪ8bit еѓДе≠ШеЩ®еАЉ + 8bitCRC
 591              		.loc 1 124 36 discriminator 1 view .LVU143
 592 0194 009B     		ldr	r3, [sp]
 593 0196 1B2B     		cmp	r3, #27
 594 0198 F8D9     		bls	.L30
 595              	.LBE9:
 125:My_Top/System/kth_read.cpp ****     status = HAL_SPI_Receive(_hspi,rx_buff, 2, 10); //жО•жФґжХ∞жНЃпЉЪ8bit еѓДе≠ШеЩ®еАЉ + 8bitCRC
 596              		.loc 1 125 5 view .LVU144
 125:My_Top/System/kth_read.cpp ****     status = HAL_SPI_Receive(_hspi,rx_buff, 2, 10); //жО•жФґжХ∞жНЃпЉЪ8bit еѓДе≠ШеЩ®еАЉ + 8bitCRC
 597              		.loc 1 125 29 is_stmt 0 view .LVU145
 598 019a 2069     		ldr	r0, [r4, #16]
 599 019c 0A23     		movs	r3, #10
 600 019e 0222     		movs	r2, #2
 601 01a0 02A9     		add	r1, sp, #8
 602 01a2 FFF7FEFF 		bl	HAL_SPI_Receive
 603              	.LVL64:
 604 01a6 051E     		subs	r5, r0, #0
 605              	.LVL65:
 126:My_Top/System/kth_read.cpp ****     {
 606              		.loc 1 126 5 is_stmt 1 view .LVU146
 607 01a8 02D1     		bne	.L35
 132:My_Top/System/kth_read.cpp ****     SPI_Set_MOSI_Output();//MISO еПШдЄЇMOSI
 608              		.loc 1 132 5 view .LVU147
 609              	.LBB10:
 132:My_Top/System/kth_read.cpp ****     SPI_Set_MOSI_Output();//MISO еПШдЄЇMOSI
 610              		.loc 1 132 27 is_stmt 0 view .LVU148
 611 01aa 0023     		movs	r3, #0
 612 01ac 0193     		str	r3, [sp, #4]
 132:My_Top/System/kth_read.cpp ****     SPI_Set_MOSI_Output();//MISO еПШдЄЇMOSI
ARM GAS  /tmp/ccVpkkof.s 			page 15


 613              		.loc 1 132 5 view .LVU149
 614 01ae 0CE0     		b	.L32
 615              	.L35:
 616              	.LBE10:
 128:My_Top/System/kth_read.cpp ****         SPI_Set_MOSI_Output();//MISO еПШдЄЇMOSI
 617              		.loc 1 128 9 is_stmt 1 view .LVU150
 128:My_Top/System/kth_read.cpp ****         SPI_Set_MOSI_Output();//MISO еПШдЄЇMOSI
 618              		.loc 1 128 21 is_stmt 0 view .LVU151
 619 01b0 0121     		movs	r1, #1
 620 01b2 2000     		movs	r0, r4
 621              	.LVL66:
 128:My_Top/System/kth_read.cpp ****         SPI_Set_MOSI_Output();//MISO еПШдЄЇMOSI
 622              		.loc 1 128 21 view .LVU152
 623 01b4 FFF7FEFF 		bl	_ZN7KTH711112KTH_CS_EnbleEb
 624              	.LVL67:
 129:My_Top/System/kth_read.cpp ****         return 0;
 625              		.loc 1 129 9 is_stmt 1 view .LVU153
 129:My_Top/System/kth_read.cpp ****         return 0;
 626              		.loc 1 129 28 is_stmt 0 view .LVU154
 627 01b8 2000     		movs	r0, r4
 628 01ba FFF7FEFF 		bl	_ZN7KTH711119SPI_Set_MOSI_OutputEv
 629              	.LVL68:
 130:My_Top/System/kth_read.cpp ****     }
 630              		.loc 1 130 9 is_stmt 1 view .LVU155
 130:My_Top/System/kth_read.cpp ****     }
 631              		.loc 1 130 16 is_stmt 0 view .LVU156
 632 01be 3500     		movs	r5, r6
 633              	.LVL69:
 130:My_Top/System/kth_read.cpp ****     }
 634              		.loc 1 130 16 view .LVU157
 635 01c0 E1E7     		b	.L28
 636              	.LVL70:
 637              	.L33:
 638              	.LBB11:
 132:My_Top/System/kth_read.cpp ****     SPI_Set_MOSI_Output();//MISO еПШдЄЇMOSI
 639              		.loc 1 132 49 is_stmt 1 discriminator 3 view .LVU158
 640              		.syntax divided
 641              	@ 132 "My_Top/System/kth_read.cpp" 1
 642 01c2 C046     		nop
 643              	@ 0 "" 2
 132:My_Top/System/kth_read.cpp ****     SPI_Set_MOSI_Output();//MISO еПШдЄЇMOSI
 644              		.loc 1 132 5 discriminator 3 view .LVU159
 645              		.thumb
 646              		.syntax unified
 647 01c4 019B     		ldr	r3, [sp, #4]
 648 01c6 0133     		adds	r3, r3, #1
 649 01c8 0193     		str	r3, [sp, #4]
 650              	.L32:
 132:My_Top/System/kth_read.cpp ****     SPI_Set_MOSI_Output();//MISO еПШдЄЇMOSI
 651              		.loc 1 132 36 discriminator 1 view .LVU160
 652 01ca 019B     		ldr	r3, [sp, #4]
 653 01cc 1B2B     		cmp	r3, #27
 654 01ce F8D9     		bls	.L33
 655              	.LBE11:
 133:My_Top/System/kth_read.cpp ****     KTH_CS_Enble(true);
 656              		.loc 1 133 5 view .LVU161
 133:My_Top/System/kth_read.cpp ****     KTH_CS_Enble(true);
ARM GAS  /tmp/ccVpkkof.s 			page 16


 657              		.loc 1 133 24 is_stmt 0 view .LVU162
 658 01d0 2000     		movs	r0, r4
 659              	.LVL71:
 133:My_Top/System/kth_read.cpp ****     KTH_CS_Enble(true);
 660              		.loc 1 133 24 view .LVU163
 661 01d2 FFF7FEFF 		bl	_ZN7KTH711119SPI_Set_MOSI_OutputEv
 662              	.LVL72:
 134:My_Top/System/kth_read.cpp **** 
 663              		.loc 1 134 5 is_stmt 1 view .LVU164
 134:My_Top/System/kth_read.cpp **** 
 664              		.loc 1 134 17 is_stmt 0 view .LVU165
 665 01d6 0121     		movs	r1, #1
 666 01d8 2000     		movs	r0, r4
 667 01da FFF7FEFF 		bl	_ZN7KTH711112KTH_CS_EnbleEb
 668              	.LVL73:
 138:My_Top/System/kth_read.cpp ****     if(crc != rx_buff[1]) return 0; //CRCж†°й™МжЬ™йАЪињЗ 
 669              		.loc 1 138 5 is_stmt 1 view .LVU166
 138:My_Top/System/kth_read.cpp ****     if(crc != rx_buff[1]) return 0; //CRCж†°й™МжЬ™йАЪињЗ 
 670              		.loc 1 138 19 is_stmt 0 view .LVU167
 671 01de 02AE     		add	r6, sp, #8
 672 01e0 0122     		movs	r2, #1
 673 01e2 3100     		movs	r1, r6
 674 01e4 2000     		movs	r0, r4
 675 01e6 FFF7FEFF 		bl	_ZN7KTH71118CRC8_ITUEPKhh
 676              	.LVL74:
 139:My_Top/System/kth_read.cpp ****     return rx_buff[0]; //ињФеЫЮеѓДе≠ШеЩ®еАЉ 
 677              		.loc 1 139 5 is_stmt 1 view .LVU168
 139:My_Top/System/kth_read.cpp ****     return rx_buff[0]; //ињФеЫЮеѓДе≠ШеЩ®еАЉ 
 678              		.loc 1 139 24 is_stmt 0 view .LVU169
 679 01ea 7378     		ldrb	r3, [r6, #1]
 139:My_Top/System/kth_read.cpp ****     return rx_buff[0]; //ињФеЫЮеѓДе≠ШеЩ®еАЉ 
 680              		.loc 1 139 5 view .LVU170
 681 01ec 8342     		cmp	r3, r0
 682 01ee CAD1     		bne	.L28
 140:My_Top/System/kth_read.cpp **** }
 683              		.loc 1 140 5 is_stmt 1 view .LVU171
 140:My_Top/System/kth_read.cpp **** }
 684              		.loc 1 140 21 is_stmt 0 view .LVU172
 685 01f0 3578     		ldrb	r5, [r6]
 686              	.LVL75:
 140:My_Top/System/kth_read.cpp **** }
 687              		.loc 1 140 21 view .LVU173
 688 01f2 C8E7     		b	.L28
 689              		.cfi_endproc
 690              	.LFE1446:
 692              		.align	1
 693              		.global	_ZN7KTH711116KTH7111_WriteRegEhh
 694              		.syntax unified
 695              		.code	16
 696              		.thumb_func
 698              	_ZN7KTH711116KTH7111_WriteRegEhh:
 699              	.LVL76:
 700              	.LFB1447:
 142:My_Top/System/kth_read.cpp **** 
 143:My_Top/System/kth_read.cpp **** 
 144:My_Top/System/kth_read.cpp **** 
 145:My_Top/System/kth_read.cpp **** /* ---------------------- еЖЩеѓДе≠ШеЩ® ---------------------- */
ARM GAS  /tmp/ccVpkkof.s 			page 17


 146:My_Top/System/kth_read.cpp **** bool KTH7111::KTH7111_WriteReg(uint8_t addr, uint8_t data)
 147:My_Top/System/kth_read.cpp **** {
 701              		.loc 1 147 1 is_stmt 1 view -0
 702              		.cfi_startproc
 703              		@ args = 0, pretend = 0, frame = 24
 704              		@ frame_needed = 0, uses_anonymous_args = 0
 705              		.loc 1 147 1 is_stmt 0 view .LVU175
 706 01f4 F0B5     		push	{r4, r5, r6, r7, lr}
 707              		.cfi_def_cfa_offset 20
 708              		.cfi_offset 4, -20
 709              		.cfi_offset 5, -16
 710              		.cfi_offset 6, -12
 711              		.cfi_offset 7, -8
 712              		.cfi_offset 14, -4
 713 01f6 87B0     		sub	sp, sp, #28
 714              		.cfi_def_cfa_offset 48
 715 01f8 0400     		movs	r4, r0
 716 01fa 0F00     		movs	r7, r1
 717 01fc 1500     		movs	r5, r2
 148:My_Top/System/kth_read.cpp ****     uint8_t unlock[4] = {0x20, 0x24, 0x01, 0x01};  /* иІ£йФБеѓЖз†Б 0x20240101 */
 718              		.loc 1 148 5 is_stmt 1 view .LVU176
 719              		.loc 1 148 13 is_stmt 0 view .LVU177
 720 01fe 2F4B     		ldr	r3, .L43
 721 0200 0593     		str	r3, [sp, #20]
 149:My_Top/System/kth_read.cpp ****     uint8_t cmd[3] = {0x33, addr, data};            /* еСљдї§пЉЪ0x33 + addr + data */
 722              		.loc 1 149 5 is_stmt 1 view .LVU178
 723              		.loc 1 149 13 is_stmt 0 view .LVU179
 724 0202 04AE     		add	r6, sp, #16
 725 0204 0322     		movs	r2, #3
 726              	.LVL77:
 727              		.loc 1 149 13 view .LVU180
 728 0206 0021     		movs	r1, #0
 729              	.LVL78:
 730              		.loc 1 149 13 view .LVU181
 731 0208 3000     		movs	r0, r6
 732              	.LVL79:
 733              		.loc 1 149 13 view .LVU182
 734 020a FFF7FEFF 		bl	memset
 735              	.LVL80:
 736 020e 3323     		movs	r3, #51
 737 0210 3370     		strb	r3, [r6]
 738              		.loc 1 149 39 view .LVU183
 739 0212 7770     		strb	r7, [r6, #1]
 740 0214 B570     		strb	r5, [r6, #2]
 150:My_Top/System/kth_read.cpp ****     uint8_t rx = 0;
 741              		.loc 1 150 5 is_stmt 1 view .LVU184
 742              		.loc 1 150 13 is_stmt 0 view .LVU185
 743 0216 0026     		movs	r6, #0
 744 0218 243B     		subs	r3, r3, #36
 745 021a 6B44     		add	r3, r3, sp
 746 021c 1E70     		strb	r6, [r3]
 151:My_Top/System/kth_read.cpp **** 
 152:My_Top/System/kth_read.cpp ****     KTH_CS_Enble(false);
 747              		.loc 1 152 5 is_stmt 1 view .LVU186
 748              		.loc 1 152 17 is_stmt 0 view .LVU187
 749 021e 0021     		movs	r1, #0
 750 0220 2000     		movs	r0, r4
ARM GAS  /tmp/ccVpkkof.s 			page 18


 751 0222 FFF7FEFF 		bl	_ZN7KTH711112KTH_CS_EnbleEb
 752              	.LVL81:
 153:My_Top/System/kth_read.cpp ****     /* зђђдЄАеЄІпЉЪиІ£йФБ */
 154:My_Top/System/kth_read.cpp ****     HAL_SPI_Transmit(_hspi, unlock, 4, 10);
 753              		.loc 1 154 5 is_stmt 1 view .LVU188
 754              		.loc 1 154 21 is_stmt 0 view .LVU189
 755 0226 2069     		ldr	r0, [r4, #16]
 756 0228 0A23     		movs	r3, #10
 757 022a 0422     		movs	r2, #4
 758 022c 05A9     		add	r1, sp, #20
 759 022e FFF7FEFF 		bl	HAL_SPI_Transmit
 760              	.LVL82:
 155:My_Top/System/kth_read.cpp ****     KTH_CS_Enble(true);
 761              		.loc 1 155 5 is_stmt 1 view .LVU190
 762              		.loc 1 155 17 is_stmt 0 view .LVU191
 763 0232 0121     		movs	r1, #1
 764 0234 2000     		movs	r0, r4
 765 0236 FFF7FEFF 		bl	_ZN7KTH711112KTH_CS_EnbleEb
 766              	.LVL83:
 156:My_Top/System/kth_read.cpp **** 
 157:My_Top/System/kth_read.cpp ****     KTH_CS_Enble(false);
 767              		.loc 1 157 5 is_stmt 1 view .LVU192
 768              		.loc 1 157 17 is_stmt 0 view .LVU193
 769 023a 0021     		movs	r1, #0
 770 023c 2000     		movs	r0, r4
 771 023e FFF7FEFF 		bl	_ZN7KTH711112KTH_CS_EnbleEb
 772              	.LVL84:
 158:My_Top/System/kth_read.cpp ****     for(volatile uint32_t i = 0; i < 28; i++) { __NOP(); } //еїґжЧґ1us
 773              		.loc 1 158 5 is_stmt 1 view .LVU194
 774              	.LBB12:
 775              		.loc 1 158 27 is_stmt 0 view .LVU195
 776 0242 0096     		str	r6, [sp]
 777              		.loc 1 158 5 view .LVU196
 778 0244 03E0     		b	.L37
 779              	.L38:
 780              		.loc 1 158 49 is_stmt 1 discriminator 3 view .LVU197
 781              		.syntax divided
 782              	@ 158 "My_Top/System/kth_read.cpp" 1
 783 0246 C046     		nop
 784              	@ 0 "" 2
 785              		.loc 1 158 5 discriminator 3 view .LVU198
 786              		.thumb
 787              		.syntax unified
 788 0248 009B     		ldr	r3, [sp]
 789 024a 0133     		adds	r3, r3, #1
 790 024c 0093     		str	r3, [sp]
 791              	.L37:
 792              		.loc 1 158 36 discriminator 1 view .LVU199
 793 024e 009B     		ldr	r3, [sp]
 794 0250 1B2B     		cmp	r3, #27
 795 0252 F8D9     		bls	.L38
 796              	.LBE12:
 159:My_Top/System/kth_read.cpp ****     /* зђђдЇМеЄІпЉЪеПСеЖЩеСљдї§ */
 160:My_Top/System/kth_read.cpp ****     HAL_SPI_Transmit(_hspi, cmd, 3, 10);
 797              		.loc 1 160 5 view .LVU200
 798              		.loc 1 160 21 is_stmt 0 view .LVU201
 799 0254 2069     		ldr	r0, [r4, #16]
ARM GAS  /tmp/ccVpkkof.s 			page 19


 800 0256 0A23     		movs	r3, #10
 801 0258 0322     		movs	r2, #3
 802 025a 04A9     		add	r1, sp, #16
 803 025c FFF7FEFF 		bl	HAL_SPI_Transmit
 804              	.LVL85:
 161:My_Top/System/kth_read.cpp ****     for(volatile uint32_t i = 0; i < 28; i++) { __NOP(); } //еїґжЧґ1us
 805              		.loc 1 161 5 is_stmt 1 view .LVU202
 806              	.LBB13:
 807              		.loc 1 161 27 is_stmt 0 view .LVU203
 808 0260 0023     		movs	r3, #0
 809 0262 0193     		str	r3, [sp, #4]
 810              		.loc 1 161 5 view .LVU204
 811 0264 03E0     		b	.L39
 812              	.L40:
 813              		.loc 1 161 49 is_stmt 1 discriminator 3 view .LVU205
 814              		.syntax divided
 815              	@ 161 "My_Top/System/kth_read.cpp" 1
 816 0266 C046     		nop
 817              	@ 0 "" 2
 818              		.loc 1 161 5 discriminator 3 view .LVU206
 819              		.thumb
 820              		.syntax unified
 821 0268 019B     		ldr	r3, [sp, #4]
 822 026a 0133     		adds	r3, r3, #1
 823 026c 0193     		str	r3, [sp, #4]
 824              	.L39:
 825              		.loc 1 161 36 discriminator 1 view .LVU207
 826 026e 019B     		ldr	r3, [sp, #4]
 827 0270 1B2B     		cmp	r3, #27
 828 0272 F8D9     		bls	.L40
 829              	.LBE13:
 162:My_Top/System/kth_read.cpp **** 
 163:My_Top/System/kth_read.cpp ****     SPI_Set_MOSI_Input();//MOSIеПШдЄЇMISO
 830              		.loc 1 163 5 view .LVU208
 831              		.loc 1 163 23 is_stmt 0 view .LVU209
 832 0274 2000     		movs	r0, r4
 833 0276 FFF7FEFF 		bl	_ZN7KTH711118SPI_Set_MOSI_InputEv
 834              	.LVL86:
 164:My_Top/System/kth_read.cpp ****     /* зђђдЄЙеЄІпЉЪжФґз°ЃиЃ§пЉИеРМдЄАеЄІињФеЫЮзЪДеѓДе≠ШеЩ®еАЉпЉЙ */
 165:My_Top/System/kth_read.cpp ****     HAL_SPI_Receive(_hspi, &rx, 1, 10);
 835              		.loc 1 165 5 is_stmt 1 view .LVU210
 836              		.loc 1 165 20 is_stmt 0 view .LVU211
 837 027a 2069     		ldr	r0, [r4, #16]
 838 027c 0A23     		movs	r3, #10
 839 027e 0122     		movs	r2, #1
 840 0280 0F21     		movs	r1, #15
 841 0282 6944     		add	r1, r1, sp
 842 0284 FFF7FEFF 		bl	HAL_SPI_Receive
 843              	.LVL87:
 166:My_Top/System/kth_read.cpp ****     KTH_CS_Enble(true);
 844              		.loc 1 166 5 is_stmt 1 view .LVU212
 845              		.loc 1 166 17 is_stmt 0 view .LVU213
 846 0288 0121     		movs	r1, #1
 847 028a 2000     		movs	r0, r4
 848 028c FFF7FEFF 		bl	_ZN7KTH711112KTH_CS_EnbleEb
 849              	.LVL88:
 167:My_Top/System/kth_read.cpp ****     for(volatile uint32_t i = 0; i < 28; i++) { __NOP(); } //еїґжЧґ1us
ARM GAS  /tmp/ccVpkkof.s 			page 20


 850              		.loc 1 167 5 is_stmt 1 view .LVU214
 851              	.LBB14:
 852              		.loc 1 167 27 is_stmt 0 view .LVU215
 853 0290 0023     		movs	r3, #0
 854 0292 0293     		str	r3, [sp, #8]
 855              		.loc 1 167 5 view .LVU216
 856 0294 03E0     		b	.L41
 857              	.L42:
 858              		.loc 1 167 49 is_stmt 1 discriminator 3 view .LVU217
 859              		.syntax divided
 860              	@ 167 "My_Top/System/kth_read.cpp" 1
 861 0296 C046     		nop
 862              	@ 0 "" 2
 863              		.loc 1 167 5 discriminator 3 view .LVU218
 864              		.thumb
 865              		.syntax unified
 866 0298 029B     		ldr	r3, [sp, #8]
 867 029a 0133     		adds	r3, r3, #1
 868 029c 0293     		str	r3, [sp, #8]
 869              	.L41:
 870              		.loc 1 167 36 discriminator 1 view .LVU219
 871 029e 029B     		ldr	r3, [sp, #8]
 872 02a0 1B2B     		cmp	r3, #27
 873 02a2 F8D9     		bls	.L42
 874              	.LBE14:
 168:My_Top/System/kth_read.cpp ****     SPI_Set_MOSI_Output();//MISO еПШдЄЇMOSI
 875              		.loc 1 168 5 view .LVU220
 876              		.loc 1 168 24 is_stmt 0 view .LVU221
 877 02a4 2000     		movs	r0, r4
 878 02a6 FFF7FEFF 		bl	_ZN7KTH711119SPI_Set_MOSI_OutputEv
 879              	.LVL89:
 169:My_Top/System/kth_read.cpp ****     
 170:My_Top/System/kth_read.cpp ****     
 171:My_Top/System/kth_read.cpp ****     return rx == data;
 880              		.loc 1 171 5 is_stmt 1 view .LVU222
 881              		.loc 1 171 15 is_stmt 0 view .LVU223
 882 02aa 0F23     		movs	r3, #15
 883 02ac 6B44     		add	r3, r3, sp
 884 02ae 1878     		ldrb	r0, [r3]
 885              		.loc 1 171 18 view .LVU224
 886 02b0 401B     		subs	r0, r0, r5
 887 02b2 4342     		rsbs	r3, r0, #0
 888 02b4 5841     		adcs	r0, r0, r3
 889 02b6 C0B2     		uxtb	r0, r0
 172:My_Top/System/kth_read.cpp **** }
 890              		.loc 1 172 1 view .LVU225
 891 02b8 07B0     		add	sp, sp, #28
 892              		@ sp needed
 893              	.LVL90:
 894              	.LVL91:
 895              	.LVL92:
 896              		.loc 1 172 1 view .LVU226
 897 02ba F0BD     		pop	{r4, r5, r6, r7, pc}
 898              	.L44:
 899              		.align	2
 900              	.L43:
 901 02bc 20240101 		.word	16852000
ARM GAS  /tmp/ccVpkkof.s 			page 21


 902              		.cfi_endproc
 903              	.LFE1447:
 905              		.align	1
 906              		.global	_ZN7KTH711125KTH7111_RotationDirectionEb
 907              		.syntax unified
 908              		.code	16
 909              		.thumb_func
 911              	_ZN7KTH711125KTH7111_RotationDirectionEb:
 912              	.LVL93:
 913              	.LFB1448:
 173:My_Top/System/kth_read.cpp **** 
 174:My_Top/System/kth_read.cpp **** 
 175:My_Top/System/kth_read.cpp **** 
 176:My_Top/System/kth_read.cpp **** /**
 177:My_Top/System/kth_read.cpp ****  * @brief жОІеИґзЉЦз†БеЩ®жЧЛиљђжЦєеРС
 178:My_Top/System/kth_read.cpp ****  * @param RD жЧЛиљђжЦєеРСеПВжХ∞пЉМtrueдЄЇй°ЇжЧґйТИпЉМfalseдЄЇйАЖжЧґйТИ
 179:My_Top/System/kth_read.cpp ****  */
 180:My_Top/System/kth_read.cpp **** bool KTH7111::KTH7111_RotationDirection(bool RD)  //жОІеИґзЉЦз†БеЩ®жЧЛиљђжЦєеРС ињФеЫЮжШѓеР¶дњЃжФєж
 181:My_Top/System/kth_read.cpp **** {
 914              		.loc 1 181 1 is_stmt 1 view -0
 915              		.cfi_startproc
 916              		@ args = 0, pretend = 0, frame = 0
 917              		@ frame_needed = 0, uses_anonymous_args = 0
 918              		.loc 1 181 1 is_stmt 0 view .LVU228
 919 02c0 70B5     		push	{r4, r5, r6, lr}
 920              		.cfi_def_cfa_offset 16
 921              		.cfi_offset 4, -16
 922              		.cfi_offset 5, -12
 923              		.cfi_offset 6, -8
 924              		.cfi_offset 14, -4
 925 02c2 0400     		movs	r4, r0
 926 02c4 0D1E     		subs	r5, r1, #0
 182:My_Top/System/kth_read.cpp ****     //жФєзЉЦз†БеЩ®жµЛиІТеЇ¶ еАТзЭАи£Е 
 183:My_Top/System/kth_read.cpp ****     uint8_t rx_temp = 0;
 927              		.loc 1 183 5 is_stmt 1 view .LVU229
 928              	.LVL94:
 184:My_Top/System/kth_read.cpp ****     uint8_t rx_new = 0;    
 929              		.loc 1 184 5 view .LVU230
 185:My_Top/System/kth_read.cpp ****     uint8_t tx = 0;
 930              		.loc 1 185 5 view .LVU231
 186:My_Top/System/kth_read.cpp ****     if(RD == false)  //е¶ВжЮЬRDдЄЇ1пЉМиЃЊзљЃдЄЇй°ЇжЧґйТИжЦєеРС
 931              		.loc 1 186 5 view .LVU232
 932 02c6 15D1     		bne	.L46
 187:My_Top/System/kth_read.cpp ****     {
 188:My_Top/System/kth_read.cpp ****         rx_temp = KTH7111_ReadReg(0x02); 
 933              		.loc 1 188 9 view .LVU233
 934              		.loc 1 188 34 is_stmt 0 view .LVU234
 935 02c8 0221     		movs	r1, #2
 936              	.LVL95:
 937              		.loc 1 188 34 view .LVU235
 938 02ca FFF7FEFF 		bl	_ZN7KTH711115KTH7111_ReadRegEh
 939              	.LVL96:
 189:My_Top/System/kth_read.cpp ****         tx = rx_temp|0x80;//жЬАйЂШдљНзљЃ1
 940              		.loc 1 189 9 is_stmt 1 view .LVU236
 941              		.loc 1 189 12 is_stmt 0 view .LVU237
 942 02ce 8022     		movs	r2, #128
 943 02d0 5242     		rsbs	r2, r2, #0
ARM GAS  /tmp/ccVpkkof.s 			page 22


 944 02d2 0243     		orrs	r2, r0
 945 02d4 D2B2     		uxtb	r2, r2
 946              	.LVL97:
 190:My_Top/System/kth_read.cpp ****         KTH7111_WriteReg(0x02,tx);
 947              		.loc 1 190 9 is_stmt 1 view .LVU238
 948              		.loc 1 190 25 is_stmt 0 view .LVU239
 949 02d6 0221     		movs	r1, #2
 950 02d8 2000     		movs	r0, r4
 951              	.LVL98:
 952              		.loc 1 190 25 view .LVU240
 953 02da FFF7FEFF 		bl	_ZN7KTH711116KTH7111_WriteRegEhh
 954              	.LVL99:
 191:My_Top/System/kth_read.cpp ****         rx_new = KTH7111_ReadReg(0x02);
 955              		.loc 1 191 9 is_stmt 1 view .LVU241
 956              		.loc 1 191 33 is_stmt 0 view .LVU242
 957 02de 0221     		movs	r1, #2
 958 02e0 2000     		movs	r0, r4
 959 02e2 FFF7FEFF 		bl	_ZN7KTH711115KTH7111_ReadRegEh
 960              	.LVL100:
 192:My_Top/System/kth_read.cpp ****         if(rx_new&0x80) return true;
 961              		.loc 1 192 9 is_stmt 1 view .LVU243
 962              		.loc 1 192 18 is_stmt 0 view .LVU244
 963 02e6 40B2     		sxtb	r0, r0
 964              		.loc 1 192 9 view .LVU245
 965 02e8 0028     		cmp	r0, #0
 966 02ea 01DB     		blt	.L48
 967              	.LVL101:
 968              	.L47:
 193:My_Top/System/kth_read.cpp ****         else return false;
 194:My_Top/System/kth_read.cpp ****     }else
 195:My_Top/System/kth_read.cpp ****     {
 196:My_Top/System/kth_read.cpp ****         rx_temp = KTH7111_ReadReg(0x02);
 197:My_Top/System/kth_read.cpp ****         tx = rx_temp&(~0x80);//жЬАйЂШдљНжЄЕйЫґ
 198:My_Top/System/kth_read.cpp ****         KTH7111_WriteReg(0x02,tx);
 199:My_Top/System/kth_read.cpp ****         rx_new = KTH7111_ReadReg(0x02);
 200:My_Top/System/kth_read.cpp ****         if(rx_new&0x80) return false;
 201:My_Top/System/kth_read.cpp ****         else return true;
 202:My_Top/System/kth_read.cpp ****     }
 203:My_Top/System/kth_read.cpp **** }
 969              		.loc 1 203 1 view .LVU246
 970 02ec 2800     		movs	r0, r5
 971              		@ sp needed
 972              	.LVL102:
 973              		.loc 1 203 1 view .LVU247
 974 02ee 70BD     		pop	{r4, r5, r6, pc}
 975              	.LVL103:
 976              	.L48:
 192:My_Top/System/kth_read.cpp ****         if(rx_new&0x80) return true;
 977              		.loc 1 192 32 discriminator 1 view .LVU248
 978 02f0 0135     		adds	r5, r5, #1
 979 02f2 FBE7     		b	.L47
 980              	.LVL104:
 981              	.L46:
 196:My_Top/System/kth_read.cpp ****         tx = rx_temp&(~0x80);//жЬАйЂШдљНжЄЕйЫґ
 982              		.loc 1 196 9 is_stmt 1 view .LVU249
 196:My_Top/System/kth_read.cpp ****         tx = rx_temp&(~0x80);//жЬАйЂШдљНжЄЕйЫґ
 983              		.loc 1 196 34 is_stmt 0 view .LVU250
ARM GAS  /tmp/ccVpkkof.s 			page 23


 984 02f4 0221     		movs	r1, #2
 985              	.LVL105:
 196:My_Top/System/kth_read.cpp ****         tx = rx_temp&(~0x80);//жЬАйЂШдљНжЄЕйЫґ
 986              		.loc 1 196 34 view .LVU251
 987 02f6 FFF7FEFF 		bl	_ZN7KTH711115KTH7111_ReadRegEh
 988              	.LVL106:
 197:My_Top/System/kth_read.cpp ****         KTH7111_WriteReg(0x02,tx);
 989              		.loc 1 197 9 is_stmt 1 view .LVU252
 197:My_Top/System/kth_read.cpp ****         KTH7111_WriteReg(0x02,tx);
 990              		.loc 1 197 12 is_stmt 0 view .LVU253
 991 02fa 7F22     		movs	r2, #127
 992 02fc 0240     		ands	r2, r0
 993              	.LVL107:
 198:My_Top/System/kth_read.cpp ****         rx_new = KTH7111_ReadReg(0x02);
 994              		.loc 1 198 9 is_stmt 1 view .LVU254
 198:My_Top/System/kth_read.cpp ****         rx_new = KTH7111_ReadReg(0x02);
 995              		.loc 1 198 25 is_stmt 0 view .LVU255
 996 02fe 0221     		movs	r1, #2
 997 0300 2000     		movs	r0, r4
 998              	.LVL108:
 198:My_Top/System/kth_read.cpp ****         rx_new = KTH7111_ReadReg(0x02);
 999              		.loc 1 198 25 view .LVU256
 1000 0302 FFF7FEFF 		bl	_ZN7KTH711116KTH7111_WriteRegEhh
 1001              	.LVL109:
 199:My_Top/System/kth_read.cpp ****         if(rx_new&0x80) return false;
 1002              		.loc 1 199 9 is_stmt 1 view .LVU257
 199:My_Top/System/kth_read.cpp ****         if(rx_new&0x80) return false;
 1003              		.loc 1 199 33 is_stmt 0 view .LVU258
 1004 0306 0221     		movs	r1, #2
 1005 0308 2000     		movs	r0, r4
 1006 030a FFF7FEFF 		bl	_ZN7KTH711115KTH7111_ReadRegEh
 1007              	.LVL110:
 200:My_Top/System/kth_read.cpp ****         else return true;
 1008              		.loc 1 200 9 is_stmt 1 view .LVU259
 200:My_Top/System/kth_read.cpp ****         else return true;
 1009              		.loc 1 200 18 is_stmt 0 view .LVU260
 1010 030e 40B2     		sxtb	r0, r0
 200:My_Top/System/kth_read.cpp ****         else return true;
 1011              		.loc 1 200 9 view .LVU261
 1012 0310 0028     		cmp	r0, #0
 1013 0312 EBDA     		bge	.L47
 200:My_Top/System/kth_read.cpp ****         else return true;
 1014              		.loc 1 200 32 discriminator 1 view .LVU262
 1015 0314 0025     		movs	r5, #0
 1016              	.LVL111:
 200:My_Top/System/kth_read.cpp ****         else return true;
 1017              		.loc 1 200 32 discriminator 1 view .LVU263
 1018 0316 E9E7     		b	.L47
 1019              		.cfi_endproc
 1020              	.LFE1448:
 1022              		.section	.rodata.str1.4,"aMS",%progbits,1
 1023              		.align	2
 1024              	.LC0:
 1025 0000 2255AA00 		.ascii	"\"U\252\000"
 1026              		.text
 1027              		.align	1
 1028              		.global	_ZN7KTH711115KTH7111_BurnMTPEv
ARM GAS  /tmp/ccVpkkof.s 			page 24


 1029              		.syntax unified
 1030              		.code	16
 1031              		.thumb_func
 1033              	_ZN7KTH711115KTH7111_BurnMTPEv:
 1034              	.LVL112:
 1035              	.LFB1449:
 204:My_Top/System/kth_read.cpp **** 
 205:My_Top/System/kth_read.cpp **** 
 206:My_Top/System/kth_read.cpp **** 
 207:My_Top/System/kth_read.cpp **** HAL_StatusTypeDef KTH7111::KTH7111_BurnMTP(void)//дњЭе≠ШељУеЙНеПВжХ∞еИ∞MTP
 208:My_Top/System/kth_read.cpp **** {
 1036              		.loc 1 208 1 is_stmt 1 view -0
 1037              		.cfi_startproc
 1038              		@ args = 0, pretend = 0, frame = 8
 1039              		@ frame_needed = 0, uses_anonymous_args = 0
 1040              		.loc 1 208 1 is_stmt 0 view .LVU265
 1041 0318 30B5     		push	{r4, r5, lr}
 1042              		.cfi_def_cfa_offset 12
 1043              		.cfi_offset 4, -12
 1044              		.cfi_offset 5, -8
 1045              		.cfi_offset 14, -4
 1046 031a 83B0     		sub	sp, sp, #12
 1047              		.cfi_def_cfa_offset 24
 1048 031c 0400     		movs	r4, r0
 209:My_Top/System/kth_read.cpp ****     uint8_t burn_cmd[3] = {0x22, 0x55, 0xAA}; //
 1049              		.loc 1 209 5 is_stmt 1 view .LVU266
 1050              		.loc 1 209 13 is_stmt 0 view .LVU267
 1051 031e 01AD     		add	r5, sp, #4
 1052 0320 0E4B     		ldr	r3, .L50
 1053 0322 1A88     		ldrh	r2, [r3]
 1054 0324 2A80     		strh	r2, [r5]
 1055 0326 9B78     		ldrb	r3, [r3, #2]
 1056 0328 AB70     		strb	r3, [r5, #2]
 210:My_Top/System/kth_read.cpp ****     HAL_StatusTypeDef status = HAL_ERROR;
 1057              		.loc 1 210 5 is_stmt 1 view .LVU268
 1058              	.LVL113:
 211:My_Top/System/kth_read.cpp ****     SPI_Set_MOSI_Input();//MOSIеПШдЄЇMISO
 1059              		.loc 1 211 5 view .LVU269
 1060              		.loc 1 211 23 is_stmt 0 view .LVU270
 1061 032a FFF7FEFF 		bl	_ZN7KTH711118SPI_Set_MOSI_InputEv
 1062              	.LVL114:
 212:My_Top/System/kth_read.cpp ****     KTH_CS_Enble(false);
 1063              		.loc 1 212 5 is_stmt 1 view .LVU271
 1064              		.loc 1 212 17 is_stmt 0 view .LVU272
 1065 032e 0021     		movs	r1, #0
 1066 0330 2000     		movs	r0, r4
 1067 0332 FFF7FEFF 		bl	_ZN7KTH711112KTH_CS_EnbleEb
 1068              	.LVL115:
 213:My_Top/System/kth_read.cpp ****     status = HAL_SPI_Transmit(_hspi, burn_cmd, 3, 10);
 1069              		.loc 1 213 5 is_stmt 1 view .LVU273
 1070              		.loc 1 213 30 is_stmt 0 view .LVU274
 1071 0336 2069     		ldr	r0, [r4, #16]
 1072 0338 0A23     		movs	r3, #10
 1073 033a 0322     		movs	r2, #3
 1074 033c 2900     		movs	r1, r5
 1075 033e FFF7FEFF 		bl	HAL_SPI_Transmit
 1076              	.LVL116:
ARM GAS  /tmp/ccVpkkof.s 			page 25


 1077 0342 0500     		movs	r5, r0
 1078              	.LVL117:
 214:My_Top/System/kth_read.cpp ****     KTH_CS_Enble(true);
 1079              		.loc 1 214 5 is_stmt 1 view .LVU275
 1080              		.loc 1 214 17 is_stmt 0 view .LVU276
 1081 0344 0121     		movs	r1, #1
 1082 0346 2000     		movs	r0, r4
 1083 0348 FFF7FEFF 		bl	_ZN7KTH711112KTH_CS_EnbleEb
 1084              	.LVL118:
 215:My_Top/System/kth_read.cpp ****     vTaskDelay(pdMS_TO_TICKS(500));//дЄ§жђ°дњЭе≠Ш400msдї•дЄК
 1085              		.loc 1 215 5 is_stmt 1 view .LVU277
 1086              		.loc 1 215 15 is_stmt 0 view .LVU278
 1087 034c FA20     		movs	r0, #250
 1088 034e 4000     		lsls	r0, r0, #1
 1089 0350 FFF7FEFF 		bl	vTaskDelay
 1090              	.LVL119:
 216:My_Top/System/kth_read.cpp ****     return status;
 1091              		.loc 1 216 5 is_stmt 1 view .LVU279
 217:My_Top/System/kth_read.cpp **** }
 1092              		.loc 1 217 1 is_stmt 0 view .LVU280
 1093 0354 2800     		movs	r0, r5
 1094 0356 03B0     		add	sp, sp, #12
 1095              		@ sp needed
 1096              	.LVL120:
 1097              	.LVL121:
 1098              		.loc 1 217 1 view .LVU281
 1099 0358 30BD     		pop	{r4, r5, pc}
 1100              	.L51:
 1101 035a C046     		.align	2
 1102              	.L50:
 1103 035c 00000000 		.word	.LC0
 1104              		.cfi_endproc
 1105              	.LFE1449:
 1107              		.align	1
 1108              		.global	_ZN7KTH711112KTH7111_InitEb
 1109              		.syntax unified
 1110              		.code	16
 1111              		.thumb_func
 1113              	_ZN7KTH711112KTH7111_InitEb:
 1114              	.LVL122:
 1115              	.LFB1438:
   5:My_Top/System/kth_read.cpp ****     uint16_t angle_zero = 0;
 1116              		.loc 1 5 1 is_stmt 1 view -0
 1117              		.cfi_startproc
 1118              		@ args = 0, pretend = 0, frame = 0
 1119              		@ frame_needed = 0, uses_anonymous_args = 0
   5:My_Top/System/kth_read.cpp ****     uint16_t angle_zero = 0;
 1120              		.loc 1 5 1 is_stmt 0 view .LVU283
 1121 0360 70B5     		push	{r4, r5, r6, lr}
 1122              		.cfi_def_cfa_offset 16
 1123              		.cfi_offset 4, -16
 1124              		.cfi_offset 5, -12
 1125              		.cfi_offset 6, -8
 1126              		.cfi_offset 14, -4
 1127 0362 0400     		movs	r4, r0
   6:My_Top/System/kth_read.cpp ****     uint16_t angle_zero = 0;
 1128              		.loc 1 6 5 is_stmt 1 view .LVU284
ARM GAS  /tmp/ccVpkkof.s 			page 26


 1129              	.LVL123:
   7:My_Top/System/kth_read.cpp ****     encoder_dir = fx;
 1130              		.loc 1 7 5 view .LVU285
   8:My_Top/System/kth_read.cpp ****     write_ok =KTH7111_RotationDirection(fx); //еЖЩеЕ•зЉЦз†БеЩ®иІТеЇ¶жЦєеРС
 1131              		.loc 1 8 5 view .LVU286
   8:My_Top/System/kth_read.cpp ****     write_ok =KTH7111_RotationDirection(fx); //еЖЩеЕ•зЉЦз†БеЩ®иІТеЇ¶жЦєеРС
 1132              		.loc 1 8 17 is_stmt 0 view .LVU287
 1133 0364 0173     		strb	r1, [r0, #12]
   9:My_Top/System/kth_read.cpp ****     // KTH7111_WriteReg(0x00, 0x00); //иЃЊзљЃйЫґзВє
 1134              		.loc 1 9 5 is_stmt 1 view .LVU288
   9:My_Top/System/kth_read.cpp ****     // KTH7111_WriteReg(0x00, 0x00); //иЃЊзљЃйЫґзВє
 1135              		.loc 1 9 40 is_stmt 0 view .LVU289
 1136 0366 FFF7FEFF 		bl	_ZN7KTH711125KTH7111_RotationDirectionEb
 1137              	.LVL124:
   9:My_Top/System/kth_read.cpp ****     // KTH7111_WriteReg(0x00, 0x00); //иЃЊзљЃйЫґзВє
 1138              		.loc 1 9 40 view .LVU290
 1139 036a 0500     		movs	r5, r0
 1140              	.LVL125:
  12:My_Top/System/kth_read.cpp **** 
 1141              		.loc 1 12 5 is_stmt 1 view .LVU291
  12:My_Top/System/kth_read.cpp **** 
 1142              		.loc 1 12 21 is_stmt 0 view .LVU292
 1143 036c 8822     		movs	r2, #136
 1144 036e 0D21     		movs	r1, #13
 1145 0370 2000     		movs	r0, r4
 1146 0372 FFF7FEFF 		bl	_ZN7KTH711116KTH7111_WriteRegEhh
 1147              	.LVL126:
  14:My_Top/System/kth_read.cpp ****     return write_ok;
 1148              		.loc 1 14 5 is_stmt 1 view .LVU293
  14:My_Top/System/kth_read.cpp ****     return write_ok;
 1149              		.loc 1 14 20 is_stmt 0 view .LVU294
 1150 0376 2000     		movs	r0, r4
 1151 0378 FFF7FEFF 		bl	_ZN7KTH711115KTH7111_BurnMTPEv
 1152              	.LVL127:
  15:My_Top/System/kth_read.cpp **** }
 1153              		.loc 1 15 5 is_stmt 1 view .LVU295
  16:My_Top/System/kth_read.cpp **** 
 1154              		.loc 1 16 1 is_stmt 0 view .LVU296
 1155 037c 2800     		movs	r0, r5
 1156              		@ sp needed
 1157              	.LVL128:
 1158              	.LVL129:
  16:My_Top/System/kth_read.cpp **** 
 1159              		.loc 1 16 1 view .LVU297
 1160 037e 70BD     		pop	{r4, r5, r6, pc}
 1161              		.cfi_endproc
 1162              	.LFE1438:
 1164              		.align	1
 1165              		.global	_ZN7KTH711121KTH7111_Read_MoreRegsEPhS0_h
 1166              		.syntax unified
 1167              		.code	16
 1168              		.thumb_func
 1170              	_ZN7KTH711121KTH7111_Read_MoreRegsEPhS0_h:
 1171              	.LVL130:
 1172              	.LFB1450:
 218:My_Top/System/kth_read.cpp **** 
 219:My_Top/System/kth_read.cpp **** 
ARM GAS  /tmp/ccVpkkof.s 			page 27


 220:My_Top/System/kth_read.cpp **** 
 221:My_Top/System/kth_read.cpp **** // uint8_t add[]= {0x00,0x01,0x02,0x03,0x04,0x05,0x06,0x07,0x08,0x09,0x0a,0x0d,0x10,0x11,0x12,0x16,
 222:My_Top/System/kth_read.cpp **** // uint8_t data_tx[]= {0x00,0x00,0x00,0xff,0x03,0x00,0x07,0x00,0x00,0xa5,0xa5,0x88,0x00,0xaC,0x02,0
 223:My_Top/System/kth_read.cpp **** 
 224:My_Top/System/kth_read.cpp **** // uint8_t len = sizeof(data_tx)/sizeof(data_tx[0]);
 225:My_Top/System/kth_read.cpp **** // uint8_t data_rx[20];
 226:My_Top/System/kth_read.cpp **** 
 227:My_Top/System/kth_read.cpp **** 
 228:My_Top/System/kth_read.cpp **** /* ---------------------- иѓїе§ЪдЄ™еѓДе≠ШеЩ® ---------------------- */
 229:My_Top/System/kth_read.cpp **** void KTH7111::KTH7111_Read_MoreRegs(uint8_t *add, uint8_t *data_rx, uint8_t len)
 230:My_Top/System/kth_read.cpp **** {
 1173              		.loc 1 230 1 is_stmt 1 view -0
 1174              		.cfi_startproc
 1175              		@ args = 0, pretend = 0, frame = 0
 1176              		@ frame_needed = 0, uses_anonymous_args = 0
 1177              		.loc 1 230 1 is_stmt 0 view .LVU299
 1178 0380 F8B5     		push	{r3, r4, r5, r6, r7, lr}
 1179              		.cfi_def_cfa_offset 24
 1180              		.cfi_offset 3, -24
 1181              		.cfi_offset 4, -20
 1182              		.cfi_offset 5, -16
 1183              		.cfi_offset 6, -12
 1184              		.cfi_offset 7, -8
 1185              		.cfi_offset 14, -4
 1186 0382 CE46     		mov	lr, r9
 1187 0384 4746     		mov	r7, r8
 1188 0386 80B5     		push	{r7, lr}
 1189              		.cfi_def_cfa_offset 32
 1190              		.cfi_offset 8, -32
 1191              		.cfi_offset 9, -28
 1192 0388 8146     		mov	r9, r0
 1193 038a 8846     		mov	r8, r1
 1194 038c 1700     		movs	r7, r2
 1195 038e 1E00     		movs	r6, r3
 231:My_Top/System/kth_read.cpp ****     for (uint8_t i = 0; i < len; i++)
 1196              		.loc 1 231 5 is_stmt 1 view .LVU300
 1197              	.LVL131:
 1198              	.LBB15:
 1199              		.loc 1 231 18 is_stmt 0 view .LVU301
 1200 0390 0024     		movs	r4, #0
 1201              		.loc 1 231 5 view .LVU302
 1202 0392 08E0     		b	.L54
 1203              	.LVL132:
 1204              	.L55:
 232:My_Top/System/kth_read.cpp ****     {
 233:My_Top/System/kth_read.cpp ****         data_rx[i] = KTH7111_ReadReg(add[i]);
 1205              		.loc 1 233 9 is_stmt 1 view .LVU303
 1206              		.loc 1 233 18 is_stmt 0 view .LVU304
 1207 0394 3D19     		adds	r5, r7, r4
 1208              		.loc 1 233 37 view .LVU305
 1209 0396 4346     		mov	r3, r8
 1210 0398 195D     		ldrb	r1, [r3, r4]
 1211 039a 4846     		mov	r0, r9
 1212 039c FFF7FEFF 		bl	_ZN7KTH711115KTH7111_ReadRegEh
 1213              	.LVL133:
 1214              		.loc 1 233 20 discriminator 1 view .LVU306
 1215 03a0 2870     		strb	r0, [r5]
ARM GAS  /tmp/ccVpkkof.s 			page 28


 231:My_Top/System/kth_read.cpp ****     for (uint8_t i = 0; i < len; i++)
 1216              		.loc 1 231 5 is_stmt 1 discriminator 3 view .LVU307
 1217 03a2 0134     		adds	r4, r4, #1
 1218              	.LVL134:
 231:My_Top/System/kth_read.cpp ****     for (uint8_t i = 0; i < len; i++)
 1219              		.loc 1 231 5 is_stmt 0 discriminator 3 view .LVU308
 1220 03a4 E4B2     		uxtb	r4, r4
 1221              	.LVL135:
 1222              	.L54:
 231:My_Top/System/kth_read.cpp ****     for (uint8_t i = 0; i < len; i++)
 1223              		.loc 1 231 27 is_stmt 1 discriminator 1 view .LVU309
 1224 03a6 B442     		cmp	r4, r6
 1225 03a8 F4D3     		bcc	.L55
 1226              	.LBE15:
 234:My_Top/System/kth_read.cpp ****     }
 235:My_Top/System/kth_read.cpp **** }
 1227              		.loc 1 235 1 is_stmt 0 view .LVU310
 1228              		@ sp needed
 1229              	.LVL136:
 1230              	.LVL137:
 1231              	.LVL138:
 1232              	.LVL139:
 1233              	.LVL140:
 1234              		.loc 1 235 1 view .LVU311
 1235 03aa C0BC     		pop	{r6, r7}
 1236 03ac B946     		mov	r9, r7
 1237 03ae B046     		mov	r8, r6
 1238 03b0 F8BD     		pop	{r3, r4, r5, r6, r7, pc}
 1239              		.cfi_endproc
 1240              	.LFE1450:
 1242              		.align	1
 1243              		.global	_ZN7KTH711122KTH7111_Write_MoreRegsEPhS0_hb
 1244              		.syntax unified
 1245              		.code	16
 1246              		.thumb_func
 1248              	_ZN7KTH711122KTH7111_Write_MoreRegsEPhS0_hb:
 1249              	.LVL141:
 1250              	.LFB1451:
 236:My_Top/System/kth_read.cpp **** 
 237:My_Top/System/kth_read.cpp **** /* ---------------------- еЖЩе§ЪдЄ™еѓДе≠ШеЩ® жШѓеР¶дњЭе≠Ш---------------------- */
 238:My_Top/System/kth_read.cpp **** void KTH7111::KTH7111_Write_MoreRegs(uint8_t *add, uint8_t *data_tx, uint8_t len,bool save)
 239:My_Top/System/kth_read.cpp **** {
 1251              		.loc 1 239 1 is_stmt 1 view -0
 1252              		.cfi_startproc
 1253              		@ args = 4, pretend = 0, frame = 0
 1254              		@ frame_needed = 0, uses_anonymous_args = 0
 1255              		.loc 1 239 1 is_stmt 0 view .LVU313
 1256 03b2 F8B5     		push	{r3, r4, r5, r6, r7, lr}
 1257              		.cfi_def_cfa_offset 24
 1258              		.cfi_offset 3, -24
 1259              		.cfi_offset 4, -20
 1260              		.cfi_offset 5, -16
 1261              		.cfi_offset 6, -12
 1262              		.cfi_offset 7, -8
 1263              		.cfi_offset 14, -4
 1264 03b4 CE46     		mov	lr, r9
 1265 03b6 4746     		mov	r7, r8
ARM GAS  /tmp/ccVpkkof.s 			page 29


 1266 03b8 80B5     		push	{r7, lr}
 1267              		.cfi_def_cfa_offset 32
 1268              		.cfi_offset 8, -32
 1269              		.cfi_offset 9, -28
 1270 03ba 0600     		movs	r6, r0
 1271 03bc 8846     		mov	r8, r1
 1272 03be 1700     		movs	r7, r2
 1273 03c0 1D00     		movs	r5, r3
 1274 03c2 08AB     		add	r3, sp, #32
 1275              	.LVL142:
 1276              		.loc 1 239 1 view .LVU314
 1277 03c4 1B78     		ldrb	r3, [r3]
 1278              	.LVL143:
 1279              		.loc 1 239 1 view .LVU315
 1280 03c6 9946     		mov	r9, r3
 240:My_Top/System/kth_read.cpp ****     for (uint8_t i = 0; i < len; i++)
 1281              		.loc 1 240 5 is_stmt 1 view .LVU316
 1282              	.LVL144:
 1283              	.LBB16:
 1284              		.loc 1 240 18 is_stmt 0 view .LVU317
 1285 03c8 0024     		movs	r4, #0
 1286              		.loc 1 240 5 view .LVU318
 1287 03ca 07E0     		b	.L57
 1288              	.LVL145:
 1289              	.L58:
 241:My_Top/System/kth_read.cpp ****     {
 242:My_Top/System/kth_read.cpp ****         KTH7111_WriteReg(add[i], data_tx[i]);
 1290              		.loc 1 242 9 is_stmt 1 view .LVU319
 1291              		.loc 1 242 25 is_stmt 0 view .LVU320
 1292 03cc 3A5D     		ldrb	r2, [r7, r4]
 1293 03ce 4346     		mov	r3, r8
 1294 03d0 195D     		ldrb	r1, [r3, r4]
 1295 03d2 3000     		movs	r0, r6
 1296 03d4 FFF7FEFF 		bl	_ZN7KTH711116KTH7111_WriteRegEhh
 1297              	.LVL146:
 240:My_Top/System/kth_read.cpp ****     for (uint8_t i = 0; i < len; i++)
 1298              		.loc 1 240 5 is_stmt 1 discriminator 3 view .LVU321
 1299 03d8 0134     		adds	r4, r4, #1
 1300              	.LVL147:
 240:My_Top/System/kth_read.cpp ****     for (uint8_t i = 0; i < len; i++)
 1301              		.loc 1 240 5 is_stmt 0 discriminator 3 view .LVU322
 1302 03da E4B2     		uxtb	r4, r4
 1303              	.LVL148:
 1304              	.L57:
 240:My_Top/System/kth_read.cpp ****     for (uint8_t i = 0; i < len; i++)
 1305              		.loc 1 240 27 is_stmt 1 discriminator 1 view .LVU323
 1306 03dc AC42     		cmp	r4, r5
 1307 03de F5D3     		bcc	.L58
 1308              	.LBE16:
 243:My_Top/System/kth_read.cpp ****     }
 244:My_Top/System/kth_read.cpp ****     if (save == true)
 1309              		.loc 1 244 5 view .LVU324
 1310 03e0 4B46     		mov	r3, r9
 1311 03e2 002B     		cmp	r3, #0
 1312 03e4 03D1     		bne	.L60
 1313              	.L56:
 245:My_Top/System/kth_read.cpp ****     {
ARM GAS  /tmp/ccVpkkof.s 			page 30


 246:My_Top/System/kth_read.cpp ****         KTH7111_BurnMTP();
 247:My_Top/System/kth_read.cpp ****     }
 248:My_Top/System/kth_read.cpp ****     
 249:My_Top/System/kth_read.cpp **** }
 1314              		.loc 1 249 1 is_stmt 0 view .LVU325
 1315              		@ sp needed
 1316              	.LVL149:
 1317              	.LVL150:
 1318              	.LVL151:
 1319              	.LVL152:
 1320              	.LVL153:
 1321              		.loc 1 249 1 view .LVU326
 1322 03e6 C0BC     		pop	{r6, r7}
 1323 03e8 B946     		mov	r9, r7
 1324 03ea B046     		mov	r8, r6
 1325 03ec F8BD     		pop	{r3, r4, r5, r6, r7, pc}
 1326              	.LVL154:
 1327              	.L60:
 246:My_Top/System/kth_read.cpp ****     }
 1328              		.loc 1 246 9 is_stmt 1 view .LVU327
 246:My_Top/System/kth_read.cpp ****     }
 1329              		.loc 1 246 24 is_stmt 0 view .LVU328
 1330 03ee 3000     		movs	r0, r6
 1331 03f0 FFF7FEFF 		bl	_ZN7KTH711115KTH7111_BurnMTPEv
 1332              	.LVL155:
 1333              		.loc 1 249 1 view .LVU329
 1334 03f4 F7E7     		b	.L56
 1335              		.cfi_endproc
 1336              	.LFE1451:
 1338              		.align	1
 1339              		.global	_ZN7KTH711123KTH7111_Get_ANLC_StatusEv
 1340              		.syntax unified
 1341              		.code	16
 1342              		.thumb_func
 1344              	_ZN7KTH711123KTH7111_Get_ANLC_StatusEv:
 1345              	.LVL156:
 1346              	.LFB1452:
 250:My_Top/System/kth_read.cpp **** 
 251:My_Top/System/kth_read.cpp **** 
 252:My_Top/System/kth_read.cpp **** /* ---------------------- еѓДе≠ШеЩ®жЦєеЉПж†°еЗЖзЉЦз†БеЩ® ---------------------- */
 253:My_Top/System/kth_read.cpp **** uint8_t KTH7111::KTH7111_Get_ANLC_Status(void) //иОЈеПЦж†°еЗЖзКґжАБ 0пЉЪжЬ™ж†°еЗЖ 1пЉЪж†°еЗЖдЄ≠ 2пЉ
 254:My_Top/System/kth_read.cpp **** {
 1347              		.loc 1 254 1 is_stmt 1 view -0
 1348              		.cfi_startproc
 1349              		@ args = 0, pretend = 0, frame = 0
 1350              		@ frame_needed = 0, uses_anonymous_args = 0
 1351              		.loc 1 254 1 is_stmt 0 view .LVU331
 1352 03f6 10B5     		push	{r4, lr}
 1353              		.cfi_def_cfa_offset 8
 1354              		.cfi_offset 4, -8
 1355              		.cfi_offset 14, -4
 255:My_Top/System/kth_read.cpp ****     return (KTH7111_ReadReg(0x72) >> 4) & 0x03;
 1356              		.loc 1 255 5 is_stmt 1 view .LVU332
 1357              		.loc 1 255 28 is_stmt 0 view .LVU333
 1358 03f8 7221     		movs	r1, #114
 1359 03fa FFF7FEFF 		bl	_ZN7KTH711115KTH7111_ReadRegEh
 1360              	.LVL157:
ARM GAS  /tmp/ccVpkkof.s 			page 31


 1361              		.loc 1 255 35 discriminator 1 view .LVU334
 1362 03fe 0009     		lsrs	r0, r0, #4
 1363              		.loc 1 255 43 discriminator 1 view .LVU335
 1364 0400 0323     		movs	r3, #3
 1365 0402 1840     		ands	r0, r3
 256:My_Top/System/kth_read.cpp **** }
 1366              		.loc 1 256 1 view .LVU336
 1367              		@ sp needed
 1368 0404 10BD     		pop	{r4, pc}
 1369              		.cfi_endproc
 1370              	.LFE1452:
 1372              		.align	1
 1373              		.global	_ZN7KTH711124KTH7111_ANLC_CalibrationEm
 1374              		.syntax unified
 1375              		.code	16
 1376              		.thumb_func
 1378              	_ZN7KTH711124KTH7111_ANLC_CalibrationEm:
 1379              	.LVL158:
 1380              	.LFB1453:
 257:My_Top/System/kth_read.cpp **** 
 258:My_Top/System/kth_read.cpp **** 
 259:My_Top/System/kth_read.cpp **** bool KTH7111::KTH7111_ANLC_Calibration(uint32_t timeout_s)
 260:My_Top/System/kth_read.cpp **** {
 1381              		.loc 1 260 1 is_stmt 1 view -0
 1382              		.cfi_startproc
 1383              		@ args = 0, pretend = 0, frame = 0
 1384              		@ frame_needed = 0, uses_anonymous_args = 0
 1385              		.loc 1 260 1 is_stmt 0 view .LVU338
 1386 0406 F8B5     		push	{r3, r4, r5, r6, r7, lr}
 1387              		.cfi_def_cfa_offset 24
 1388              		.cfi_offset 3, -24
 1389              		.cfi_offset 4, -20
 1390              		.cfi_offset 5, -16
 1391              		.cfi_offset 6, -12
 1392              		.cfi_offset 7, -8
 1393              		.cfi_offset 14, -4
 1394 0408 CE46     		mov	lr, r9
 1395 040a 4746     		mov	r7, r8
 1396 040c 80B5     		push	{r7, lr}
 1397              		.cfi_def_cfa_offset 32
 1398              		.cfi_offset 8, -32
 1399              		.cfi_offset 9, -28
 1400 040e 0700     		movs	r7, r0
 1401 0410 0E00     		movs	r6, r1
 261:My_Top/System/kth_read.cpp ****     // foc1.work_mode = open1_Mode; //иЃЊзљЃеЈ•дљЬж®°еЉПдЄЇеЉАзОѓж®°еЉП
 262:My_Top/System/kth_read.cpp ****     
 263:My_Top/System/kth_read.cpp ****     uint8_t reg16 = KTH7111_ReadReg(0x16) | 0x08; //иЗ™ж†°еЗЖжХИжЮЬдљњиГљеИ∞иІТеЇ¶иЊУеЗЇ
 1402              		.loc 1 263 5 is_stmt 1 view .LVU339
 1403              		.loc 1 263 36 is_stmt 0 view .LVU340
 1404 0412 1621     		movs	r1, #22
 1405              	.LVL159:
 1406              		.loc 1 263 36 view .LVU341
 1407 0414 FFF7FEFF 		bl	_ZN7KTH711115KTH7111_ReadRegEh
 1408              	.LVL160:
 1409              		.loc 1 263 36 view .LVU342
 1410 0418 8146     		mov	r9, r0
 1411              		.loc 1 263 45 discriminator 1 view .LVU343
ARM GAS  /tmp/ccVpkkof.s 			page 32


 1412 041a 0822     		movs	r2, #8
 1413 041c 0243     		orrs	r2, r0
 1414 041e D2B2     		uxtb	r2, r2
 1415              	.LVL161:
 264:My_Top/System/kth_read.cpp ****     KTH7111_WriteReg(0x16, reg16);
 1416              		.loc 1 264 5 is_stmt 1 view .LVU344
 1417              		.loc 1 264 21 is_stmt 0 view .LVU345
 1418 0420 1621     		movs	r1, #22
 1419 0422 3800     		movs	r0, r7
 1420 0424 FFF7FEFF 		bl	_ZN7KTH711116KTH7111_WriteRegEhh
 1421              	.LVL162:
 265:My_Top/System/kth_read.cpp ****     vTaskDelay(pdMS_TO_TICKS(5));
 1422              		.loc 1 265 5 is_stmt 1 view .LVU346
 1423              		.loc 1 265 15 is_stmt 0 view .LVU347
 1424 0428 0520     		movs	r0, #5
 1425 042a FFF7FEFF 		bl	vTaskDelay
 1426              	.LVL163:
 266:My_Top/System/kth_read.cpp ****     
 267:My_Top/System/kth_read.cpp ****     reg16 |= 0x10; // е∞Ж REG_CAL еѓДе≠ШеЩ®иЃЊзљЃдЄЇ 1пЉМеРѓеК®йЭЮзЇњжАІж†°еЗЖ
 1427              		.loc 1 267 5 is_stmt 1 view .LVU348
 1428              		.loc 1 267 11 is_stmt 0 view .LVU349
 1429 042e 1822     		movs	r2, #24
 1430 0430 4B46     		mov	r3, r9
 1431 0432 1A43     		orrs	r2, r3
 1432 0434 D2B2     		uxtb	r2, r2
 1433              	.LVL164:
 268:My_Top/System/kth_read.cpp ****     KTH7111_WriteReg(0x16, reg16);
 1434              		.loc 1 268 5 is_stmt 1 view .LVU350
 1435              		.loc 1 268 21 is_stmt 0 view .LVU351
 1436 0436 1621     		movs	r1, #22
 1437 0438 3800     		movs	r0, r7
 1438 043a FFF7FEFF 		bl	_ZN7KTH711116KTH7111_WriteRegEhh
 1439              	.LVL165:
 269:My_Top/System/kth_read.cpp ****     
 270:My_Top/System/kth_read.cpp ****     uint32_t start = xTaskGetTickCount();
 1440              		.loc 1 270 5 is_stmt 1 view .LVU352
 1441              		.loc 1 270 39 is_stmt 0 view .LVU353
 1442 043e FFF7FEFF 		bl	xTaskGetTickCount
 1443              	.LVL166:
 1444 0442 8046     		mov	r8, r0
 1445              	.LVL167:
 1446              	.L66:
 271:My_Top/System/kth_read.cpp ****     uint8_t status;
 1447              		.loc 1 271 5 is_stmt 1 view .LVU354
 272:My_Top/System/kth_read.cpp ****     do {
 1448              		.loc 1 272 5 view .LVU355
 273:My_Top/System/kth_read.cpp ****         vTaskDelay(pdMS_TO_TICKS(10));
 1449              		.loc 1 273 9 view .LVU356
 1450              		.loc 1 273 19 is_stmt 0 view .LVU357
 1451 0444 0A20     		movs	r0, #10
 1452 0446 FFF7FEFF 		bl	vTaskDelay
 1453              	.LVL168:
 274:My_Top/System/kth_read.cpp ****         status = KTH7111_Get_ANLC_Status();
 1454              		.loc 1 274 9 is_stmt 1 view .LVU358
 1455              		.loc 1 274 41 is_stmt 0 view .LVU359
 1456 044a 3800     		movs	r0, r7
 1457 044c FFF7FEFF 		bl	_ZN7KTH711123KTH7111_Get_ANLC_StatusEv
ARM GAS  /tmp/ccVpkkof.s 			page 33


 1458              	.LVL169:
 1459 0450 0400     		movs	r4, r0
 1460              	.LVL170:
 275:My_Top/System/kth_read.cpp ****         if (status == 2 || (xTaskGetTickCount() - start) > pdMS_TO_TICKS(timeout_s*1000)) {
 1461              		.loc 1 275 9 is_stmt 1 view .LVU360
 1462              		.loc 1 275 25 is_stmt 0 view .LVU361
 1463 0452 0228     		cmp	r0, #2
 1464 0454 21D0     		beq	.L63
 1465              		.loc 1 275 46 discriminator 2 view .LVU362
 1466 0456 FFF7FEFF 		bl	xTaskGetTickCount
 1467              	.LVL171:
 1468              		.loc 1 275 49 discriminator 1 view .LVU363
 1469 045a 4346     		mov	r3, r8
 1470 045c C51A     		subs	r5, r0, r3
 1471              		.loc 1 275 60 discriminator 1 view .LVU364
 1472 045e 7301     		lsls	r3, r6, #5
 1473 0460 9B1B     		subs	r3, r3, r6
 1474 0462 9801     		lsls	r0, r3, #6
 1475 0464 C01A     		subs	r0, r0, r3
 1476 0466 C000     		lsls	r0, r0, #3
 1477 0468 8019     		adds	r0, r0, r6
 1478 046a 8001     		lsls	r0, r0, #6
 1479 046c FA21     		movs	r1, #250
 1480 046e 8900     		lsls	r1, r1, #2
 1481 0470 FFF7FEFF 		bl	__aeabi_uidiv
 1482              	.LVL172:
 1483              		.loc 1 275 25 discriminator 1 view .LVU365
 1484 0474 8542     		cmp	r5, r0
 1485 0476 10D8     		bhi	.L63
 276:My_Top/System/kth_read.cpp ****             reg16 &= ~0x10; //е∞Ж REG_CAL еѓДе≠ШеЩ®иЃЊзљЃдЄЇ 0пЉМеБЬж≠ҐйЭЮзЇњжАІж†°еЗЖ
 277:My_Top/System/kth_read.cpp ****             KTH7111_WriteReg(0x16, reg16);
 278:My_Top/System/kth_read.cpp ****             return false;
 279:My_Top/System/kth_read.cpp ****         }
 280:My_Top/System/kth_read.cpp ****     } while (status == 1);//ж†°еЗЖдЄ≠  е¶ВжЮЬstatusз≠ЙдЇО0дєЯдЉЪиЈ≥еЗЇжЭ• ?????
 1486              		.loc 1 280 21 is_stmt 1 view .LVU366
 1487 0478 012C     		cmp	r4, #1
 1488 047a E3D0     		beq	.L66
 281:My_Top/System/kth_read.cpp ****     
 282:My_Top/System/kth_read.cpp ****     reg16 &= ~0x10;//е∞Ж REG_CAL еѓДе≠ШеЩ®иЃЊзљЃдЄЇ 0пЉМеБЬж≠ҐйЭЮзЇњжАІж†°еЗЖ
 1489              		.loc 1 282 5 view .LVU367
 1490              		.loc 1 282 11 is_stmt 0 view .LVU368
 1491 047c 1023     		movs	r3, #16
 1492 047e 4A46     		mov	r2, r9
 1493 0480 9A43     		bics	r2, r3
 1494 0482 0823     		movs	r3, #8
 1495 0484 1A43     		orrs	r2, r3
 1496 0486 D2B2     		uxtb	r2, r2
 1497              	.LVL173:
 283:My_Top/System/kth_read.cpp ****     KTH7111_WriteReg(0x16, reg16);
 1498              		.loc 1 283 5 is_stmt 1 view .LVU369
 1499              		.loc 1 283 21 is_stmt 0 view .LVU370
 1500 0488 1621     		movs	r1, #22
 1501 048a 3800     		movs	r0, r7
 1502 048c FFF7FEFF 		bl	_ZN7KTH711116KTH7111_WriteRegEhh
 1503              	.LVL174:
 284:My_Top/System/kth_read.cpp ****     KTH7111_BurnMTP(); //дњЭе≠Шж†°еЗЖеПВжХ∞еИ∞MTP
 1504              		.loc 1 284 5 is_stmt 1 view .LVU371
ARM GAS  /tmp/ccVpkkof.s 			page 34


 1505              		.loc 1 284 20 is_stmt 0 view .LVU372
 1506 0490 3800     		movs	r0, r7
 1507 0492 FFF7FEFF 		bl	_ZN7KTH711115KTH7111_BurnMTPEv
 1508              	.LVL175:
 285:My_Top/System/kth_read.cpp ****     return true;
 1509              		.loc 1 285 5 is_stmt 1 view .LVU373
 1510              		.loc 1 285 12 is_stmt 0 view .LVU374
 1511 0496 0120     		movs	r0, #1
 1512 0498 0AE0     		b	.L65
 1513              	.L63:
 276:My_Top/System/kth_read.cpp ****             KTH7111_WriteReg(0x16, reg16);
 1514              		.loc 1 276 13 is_stmt 1 view .LVU375
 276:My_Top/System/kth_read.cpp ****             KTH7111_WriteReg(0x16, reg16);
 1515              		.loc 1 276 19 is_stmt 0 view .LVU376
 1516 049a 1023     		movs	r3, #16
 1517 049c 4A46     		mov	r2, r9
 1518 049e 9A43     		bics	r2, r3
 1519 04a0 0823     		movs	r3, #8
 1520 04a2 1A43     		orrs	r2, r3
 1521 04a4 D2B2     		uxtb	r2, r2
 1522              	.LVL176:
 277:My_Top/System/kth_read.cpp ****             return false;
 1523              		.loc 1 277 13 is_stmt 1 view .LVU377
 277:My_Top/System/kth_read.cpp ****             return false;
 1524              		.loc 1 277 29 is_stmt 0 view .LVU378
 1525 04a6 1621     		movs	r1, #22
 1526 04a8 3800     		movs	r0, r7
 1527 04aa FFF7FEFF 		bl	_ZN7KTH711116KTH7111_WriteRegEhh
 1528              	.LVL177:
 278:My_Top/System/kth_read.cpp ****         }
 1529              		.loc 1 278 13 is_stmt 1 view .LVU379
 278:My_Top/System/kth_read.cpp ****         }
 1530              		.loc 1 278 20 is_stmt 0 view .LVU380
 1531 04ae 0020     		movs	r0, #0
 1532              	.LVL178:
 1533              	.L65:
 286:My_Top/System/kth_read.cpp **** }
 1534              		.loc 1 286 1 view .LVU381
 1535              		@ sp needed
 1536              	.LVL179:
 1537              	.LVL180:
 1538              	.LVL181:
 1539              	.LVL182:
 1540              		.loc 1 286 1 view .LVU382
 1541 04b0 C0BC     		pop	{r6, r7}
 1542 04b2 B946     		mov	r9, r7
 1543 04b4 B046     		mov	r8, r6
 1544 04b6 F8BD     		pop	{r3, r4, r5, r6, r7, pc}
 1545              		.cfi_endproc
 1546              	.LFE1453:
 1548              		.align	1
 1549              		.global	_ZN7KTH711121SetZeroAngle_RuanJianEf
 1550              		.syntax unified
 1551              		.code	16
 1552              		.thumb_func
 1554              	_ZN7KTH711121SetZeroAngle_RuanJianEf:
 1555              	.LVL183:
ARM GAS  /tmp/ccVpkkof.s 			page 35


 1556              	.LFB1454:
 287:My_Top/System/kth_read.cpp **** 
 288:My_Top/System/kth_read.cpp **** 
 289:My_Top/System/kth_read.cpp **** void KTH7111::SetZeroAngle_RuanJian(float zero) //иЃЊзљЃиљѓдїґйЫґзВє
 290:My_Top/System/kth_read.cpp **** {
 1557              		.loc 1 290 1 is_stmt 1 view -0
 1558              		.cfi_startproc
 1559              		@ args = 0, pretend = 0, frame = 0
 1560              		@ frame_needed = 0, uses_anonymous_args = 0
 1561              		@ link register save eliminated.
 291:My_Top/System/kth_read.cpp ****     //еЊЕеБЪ ????
 292:My_Top/System/kth_read.cpp **** }
 1562              		.loc 1 292 1 is_stmt 0 view .LVU384
 1563              		@ sp needed
 1564 04b8 7047     		bx	lr
 1565              		.cfi_endproc
 1566              	.LFE1454:
 1568              		.align	1
 1569              		.global	_ZN7KTH711118KTH7111_SetNowZeroEv
 1570              		.syntax unified
 1571              		.code	16
 1572              		.thumb_func
 1574              	_ZN7KTH711118KTH7111_SetNowZeroEv:
 1575              	.LVL184:
 1576              	.LFB1455:
 293:My_Top/System/kth_read.cpp **** 
 294:My_Top/System/kth_read.cpp **** 
 295:My_Top/System/kth_read.cpp **** bool KTH7111::KTH7111_SetNowZero(void)  //иЃЊзљЃељУеЙНдљНзљЃдЄЇйЫґзВє ињФеЫЮжШѓеР¶дњЃжФєжИРеКЯ
 296:My_Top/System/kth_read.cpp **** {
 1577              		.loc 1 296 1 is_stmt 1 view -0
 1578              		.cfi_startproc
 1579              		@ args = 0, pretend = 0, frame = 0
 1580              		@ frame_needed = 0, uses_anonymous_args = 0
 1581              		.loc 1 296 1 is_stmt 0 view .LVU386
 1582 04ba 10B5     		push	{r4, lr}
 1583              		.cfi_def_cfa_offset 8
 1584              		.cfi_offset 4, -8
 1585              		.cfi_offset 14, -4
 1586 04bc 0400     		movs	r4, r0
 297:My_Top/System/kth_read.cpp ****     uint8_t rx_temp = 0;
 1587              		.loc 1 297 5 is_stmt 1 view .LVU387
 1588              	.LVL185:
 298:My_Top/System/kth_read.cpp ****     uint8_t rx_new = 0;    
 1589              		.loc 1 298 5 view .LVU388
 299:My_Top/System/kth_read.cpp ****     uint8_t tx = 0;
 1590              		.loc 1 299 5 view .LVU389
 300:My_Top/System/kth_read.cpp ****     rx_temp = KTH7111_ReadReg(0x02); //иѓїеѓДе≠ШеЩ®еАЉ 1000 0000
 1591              		.loc 1 300 5 view .LVU390
 1592              		.loc 1 300 30 is_stmt 0 view .LVU391
 1593 04be 0221     		movs	r1, #2
 1594 04c0 FFF7FEFF 		bl	_ZN7KTH711115KTH7111_ReadRegEh
 1595              	.LVL186:
 301:My_Top/System/kth_read.cpp ****     tx = rx_temp|0x40;//AUTO_ZERO_SET зљЃ1
 1596              		.loc 1 301 5 is_stmt 1 view .LVU392
 1597              		.loc 1 301 8 is_stmt 0 view .LVU393
 1598 04c4 4023     		movs	r3, #64
 1599 04c6 1843     		orrs	r0, r3
ARM GAS  /tmp/ccVpkkof.s 			page 36


 1600              	.LVL187:
 1601              		.loc 1 301 8 view .LVU394
 1602 04c8 C2B2     		uxtb	r2, r0
 1603              	.LVL188:
 302:My_Top/System/kth_read.cpp ****     KTH7111_WriteReg(0x02,tx); //еЖЩеѓДе≠ШеЩ®еАЉ 1100 0000
 1604              		.loc 1 302 5 is_stmt 1 view .LVU395
 1605              		.loc 1 302 21 is_stmt 0 view .LVU396
 1606 04ca 0221     		movs	r1, #2
 1607 04cc 2000     		movs	r0, r4
 1608 04ce FFF7FEFF 		bl	_ZN7KTH711116KTH7111_WriteRegEhh
 1609              	.LVL189:
 303:My_Top/System/kth_read.cpp ****     vTaskDelay(pdMS_TO_TICKS(50));//з≠ЙеЊЕйЫґзВєеЖЩеЕ•
 1610              		.loc 1 303 5 is_stmt 1 view .LVU397
 1611              		.loc 1 303 15 is_stmt 0 view .LVU398
 1612 04d2 3220     		movs	r0, #50
 1613 04d4 FFF7FEFF 		bl	vTaskDelay
 1614              	.LVL190:
 304:My_Top/System/kth_read.cpp ****     rx_new = KTH7111_ReadReg(0x02);//иѓїеѓДе≠ШеЩ®еАЉ 1010 0100
 1615              		.loc 1 304 5 is_stmt 1 view .LVU399
 1616              		.loc 1 304 29 is_stmt 0 view .LVU400
 1617 04d8 0221     		movs	r1, #2
 1618 04da 2000     		movs	r0, r4
 1619 04dc FFF7FEFF 		bl	_ZN7KTH711115KTH7111_ReadRegEh
 1620              	.LVL191:
 305:My_Top/System/kth_read.cpp ****     if(rx_new&0x40) return true;
 1621              		.loc 1 305 5 is_stmt 1 view .LVU401
 1622 04e0 4006     		lsls	r0, r0, #25
 1623 04e2 01D5     		bpl	.L70
 1624              	.LVL192:
 1625              		.loc 1 305 28 is_stmt 0 discriminator 1 view .LVU402
 1626 04e4 0120     		movs	r0, #1
 1627              	.L69:
 306:My_Top/System/kth_read.cpp ****     else return false;
 307:My_Top/System/kth_read.cpp **** 
 308:My_Top/System/kth_read.cpp **** }
 1628              		.loc 1 308 1 view .LVU403
 1629              		@ sp needed
 1630              	.LVL193:
 1631              		.loc 1 308 1 view .LVU404
 1632 04e6 10BD     		pop	{r4, pc}
 1633              	.LVL194:
 1634              	.L70:
 306:My_Top/System/kth_read.cpp ****     else return false;
 1635              		.loc 1 306 17 view .LVU405
 1636 04e8 0020     		movs	r0, #0
 1637 04ea FCE7     		b	.L69
 1638              		.cfi_endproc
 1639              	.LFE1455:
 1641              	.Letext0:
 1642              		.file 2 "/opt/arm-gnu-toolchain-14.2/arm-none-eabi/include/machine/_default_types.h"
 1643              		.file 3 "/opt/arm-gnu-toolchain-14.2/arm-none-eabi/include/sys/_stdint.h"
 1644              		.file 4 "Drivers/CMSIS/Device/ST/STM32G0xx/Include/stm32g071xx.h"
 1645              		.file 5 "Drivers/STM32G0xx_HAL_Driver/Inc/stm32g0xx_hal_def.h"
 1646              		.file 6 "Drivers/STM32G0xx_HAL_Driver/Inc/stm32g0xx_hal_gpio.h"
 1647              		.file 7 "Drivers/STM32G0xx_HAL_Driver/Inc/stm32g0xx_hal_dma.h"
 1648              		.file 8 "Drivers/STM32G0xx_HAL_Driver/Inc/stm32g0xx_hal_spi.h"
 1649              		.file 9 "Middlewares/Third_Party/FreeRTOS/Source/portable/GCC/ARM_CM0/portmacro.h"
ARM GAS  /tmp/ccVpkkof.s 			page 37


 1650              		.file 10 "/opt/arm-gnu-toolchain-14.2/arm-none-eabi/include/c++/14.2.1/cmath"
 1651              		.file 11 "/opt/arm-gnu-toolchain-14.2/arm-none-eabi/include/c++/14.2.1/type_traits"
 1652              		.file 12 "/opt/arm-gnu-toolchain-14.2/arm-none-eabi/include/c++/14.2.1/debug/debug.h"
 1653              		.file 13 "/opt/arm-gnu-toolchain-14.2/arm-none-eabi/include/c++/14.2.1/bits/std_abs.h"
 1654              		.file 14 "/opt/arm-gnu-toolchain-14.2/arm-none-eabi/include/c++/14.2.1/bits/predefined_ops.h"
 1655              		.file 15 "/opt/arm-gnu-toolchain-14.2/arm-none-eabi/include/math.h"
 1656              		.file 16 "/opt/arm-gnu-toolchain-14.2/arm-none-eabi/include/c++/14.2.1/arm-none-eabi/thumb/v6-m/no
 1657              		.file 17 "/opt/arm-gnu-toolchain-14.2/arm-none-eabi/include/c++/14.2.1/math.h"
 1658              		.file 18 "My_Top/System/kth_read.hpp"
 1659              		.file 19 "Middlewares/Third_Party/FreeRTOS/Source/include/task.h"
 1660              		.file 20 "Drivers/STM32G0xx_HAL_Driver/Inc/stm32g0xx_ll_dma.h"
ARM GAS  /tmp/ccVpkkof.s 			page 38


DEFINED SYMBOLS
                            *ABS*:00000000 kth_read.cpp
     /tmp/ccVpkkof.s:18     .text:00000000 $t
     /tmp/ccVpkkof.s:24     .text:00000000 _ZN7KTH711112KTH_CS_EnbleEb
     /tmp/ccVpkkof.s:73     .text:0000001a _ZN7KTH711119SPI_Set_MOSI_OutputEv
     /tmp/ccVpkkof.s:118    .text:00000042 _ZN7KTH711118SPI_Set_MOSI_InputEv
     /tmp/ccVpkkof.s:156    .text:00000068 $d
     /tmp/ccVpkkof.s:160    .text:0000006c $t
     /tmp/ccVpkkof.s:166    .text:0000006c _ZN7KTH71118CRC8_ITUEPKhh
     /tmp/ccVpkkof.s:289    .text:000000aa _ZN7KTH711121KTH7111_Send_JIAO_CMDEv
     /tmp/ccVpkkof.s:427    .text:00000134 $d
     /tmp/ccVpkkof.s:432    .text:0000013c $t
     /tmp/ccVpkkof.s:438    .text:0000013c _ZN7KTH711118Get_KTH7111_RadianEv
     /tmp/ccVpkkof.s:462    .text:00000140 _ZN7KTH711118Get_KTH7111_DegreeEv
     /tmp/ccVpkkof.s:486    .text:00000144 _ZN7KTH711115KTH7111_ReadRegEh
     /tmp/ccVpkkof.s:698    .text:000001f4 _ZN7KTH711116KTH7111_WriteRegEhh
     /tmp/ccVpkkof.s:901    .text:000002bc $d
     /tmp/ccVpkkof.s:905    .text:000002c0 $t
     /tmp/ccVpkkof.s:911    .text:000002c0 _ZN7KTH711125KTH7111_RotationDirectionEb
     /tmp/ccVpkkof.s:1023   .rodata.str1.4:00000000 $d
     /tmp/ccVpkkof.s:1033   .text:00000318 _ZN7KTH711115KTH7111_BurnMTPEv
     /tmp/ccVpkkof.s:1103   .text:0000035c $d
     /tmp/ccVpkkof.s:1107   .text:00000360 $t
     /tmp/ccVpkkof.s:1113   .text:00000360 _ZN7KTH711112KTH7111_InitEb
     /tmp/ccVpkkof.s:1170   .text:00000380 _ZN7KTH711121KTH7111_Read_MoreRegsEPhS0_h
     /tmp/ccVpkkof.s:1248   .text:000003b2 _ZN7KTH711122KTH7111_Write_MoreRegsEPhS0_hb
     /tmp/ccVpkkof.s:1344   .text:000003f6 _ZN7KTH711123KTH7111_Get_ANLC_StatusEv
     /tmp/ccVpkkof.s:1378   .text:00000406 _ZN7KTH711124KTH7111_ANLC_CalibrationEm
     /tmp/ccVpkkof.s:1554   .text:000004b8 _ZN7KTH711121SetZeroAngle_RuanJianEf
     /tmp/ccVpkkof.s:1574   .text:000004ba _ZN7KTH711118KTH7111_SetNowZeroEv

UNDEFINED SYMBOLS
HAL_GPIO_WritePin
memset
HAL_SPI_Transmit
HAL_SPI_Receive
__aeabi_i2f
__aeabi_fmul
vTaskDelay
xTaskGetTickCount
__aeabi_uidiv
