ARM GAS  /tmp/ccMWeAOp.s 			page 1


   1              		.cpu cortex-m0plus
   2              		.arch armv6s-m
   3              		.fpu softvfp
   4              		.eabi_attribute 20, 1
   5              		.eabi_attribute 21, 1
   6              		.eabi_attribute 23, 3
   7              		.eabi_attribute 24, 1
   8              		.eabi_attribute 25, 1
   9              		.eabi_attribute 26, 1
  10              		.eabi_attribute 30, 1
  11              		.eabi_attribute 34, 0
  12              		.eabi_attribute 18, 4
  13              		.file	"MC_Serial.cpp"
  14              		.text
  15              	.Ltext0:
  16              		.cfi_sections	.debug_frame
  17              		.file 1 "My_Top/MC/MC_Serial.cpp"
  18              		.align	1
  19              		.syntax unified
  20              		.code	16
  21              		.thumb_func
  23              	_ZL18handle_console_msgP12__DataPack_tP6SerialPv:
  24              	.LVL0:
  25              	.LFB469:
   1:My_Top/MC/MC_Serial.cpp **** // #include "MotorController.hpp"
   2:My_Top/MC/MC_Serial.cpp **** #include "MC_Serial.hpp"
   3:My_Top/MC/MC_Serial.cpp **** 
   4:My_Top/MC/MC_Serial.cpp **** Serial sr_logger;
   5:My_Top/MC/MC_Serial.cpp **** Serial sr_console;
   6:My_Top/MC/MC_Serial.cpp **** 
   7:My_Top/MC/MC_Serial.cpp **** static void handle_console_msg(DataPack_t *pack, Serial *serial, void *args);
   8:My_Top/MC/MC_Serial.cpp **** static void handle_logger_msg(DataPack_t *pack, Serial *serial, void *args);
   9:My_Top/MC/MC_Serial.cpp **** 
  10:My_Top/MC/MC_Serial.cpp **** void MC_Serial::init(void)
  11:My_Top/MC/MC_Serial.cpp **** {
  12:My_Top/MC/MC_Serial.cpp ****     /* vofa+õĖ▓ÕÅŻÕłØÕ¦ŗÕī¢ */
  13:My_Top/MC/MC_Serial.cpp ****     sr_logger.init_with_default("logger", Vofa_huart);
  14:My_Top/MC/MC_Serial.cpp ****     sr_logger.register_rx_msg_handler(handle_logger_msg, NULL);
  15:My_Top/MC/MC_Serial.cpp **** 
  16:My_Top/MC/MC_Serial.cpp ****     /* µÄ¦ÕłČÕÅ░µēōÕŹ░õĖ▓ÕÅŻÕłØÕ¦ŗÕī¢ */
  17:My_Top/MC/MC_Serial.cpp ****     sr_console.init_with_default("console", CLI_huart);
  18:My_Top/MC/MC_Serial.cpp ****     sr_console.register_rx_msg_handler(handle_console_msg, NULL);
  19:My_Top/MC/MC_Serial.cpp **** 
  20:My_Top/MC/MC_Serial.cpp **** }
  21:My_Top/MC/MC_Serial.cpp **** 
  22:My_Top/MC/MC_Serial.cpp **** extern "C" int printf_(const char *format, ...) // µø┐õ╗ŻµĀćÕćåprintf’╝īÕ░åµĀ╝Õ╝ÅÕī¢ĶŠōÕć║ķćŹÕ«ÜÕÉæ
  23:My_Top/MC/MC_Serial.cpp **** {
  24:My_Top/MC/MC_Serial.cpp ****     // extern Serial sr_console;
  25:My_Top/MC/MC_Serial.cpp ****     uint8_t *print_buf = (uint8_t *)pvPortMalloc(SERIAL_PRINT_SIZE);
  26:My_Top/MC/MC_Serial.cpp **** 
  27:My_Top/MC/MC_Serial.cpp ****     if (print_buf == NULL)
  28:My_Top/MC/MC_Serial.cpp ****         return -1;
  29:My_Top/MC/MC_Serial.cpp **** 
  30:My_Top/MC/MC_Serial.cpp ****     va_list args;
  31:My_Top/MC/MC_Serial.cpp ****     va_start(args, format);
  32:My_Top/MC/MC_Serial.cpp ****     int len = vsnprintf((char *)print_buf, SERIAL_PRINT_SIZE, format, args);
  33:My_Top/MC/MC_Serial.cpp ****     va_end(args);
ARM GAS  /tmp/ccMWeAOp.s 			page 2


  34:My_Top/MC/MC_Serial.cpp **** 
  35:My_Top/MC/MC_Serial.cpp ****     bool status;
  36:My_Top/MC/MC_Serial.cpp ****     for (uint8_t i = 0; i < 100; i++)
  37:My_Top/MC/MC_Serial.cpp ****     {
  38:My_Top/MC/MC_Serial.cpp ****         status = sr_console.send_data(print_buf, len);
  39:My_Top/MC/MC_Serial.cpp ****         if (status)
  40:My_Top/MC/MC_Serial.cpp ****             break;
  41:My_Top/MC/MC_Serial.cpp ****         vTaskDelay(pdMS_TO_TICKS(1));
  42:My_Top/MC/MC_Serial.cpp ****     }
  43:My_Top/MC/MC_Serial.cpp ****     if (!status)
  44:My_Top/MC/MC_Serial.cpp ****         len = -1;
  45:My_Top/MC/MC_Serial.cpp **** 
  46:My_Top/MC/MC_Serial.cpp ****     vPortFree(print_buf);
  47:My_Top/MC/MC_Serial.cpp **** 
  48:My_Top/MC/MC_Serial.cpp ****     return len;
  49:My_Top/MC/MC_Serial.cpp **** }
  50:My_Top/MC/MC_Serial.cpp **** 
  51:My_Top/MC/MC_Serial.cpp **** extern "C" int println(const char *format, ...) // µø┐õ╗ŻµĀćÕćåprintf’╝īÕ░åµĀ╝Õ╝ÅÕī¢ĶŠōÕć║ķćŹÕ«ÜÕÉæ
  52:My_Top/MC/MC_Serial.cpp **** {
  53:My_Top/MC/MC_Serial.cpp ****     // extern Serial sr_console;
  54:My_Top/MC/MC_Serial.cpp ****     uint8_t *print_buf = (uint8_t *)pvPortMalloc(SERIAL_PRINT_SIZE);
  55:My_Top/MC/MC_Serial.cpp **** 
  56:My_Top/MC/MC_Serial.cpp ****     if (print_buf == NULL)
  57:My_Top/MC/MC_Serial.cpp ****         return -1;
  58:My_Top/MC/MC_Serial.cpp **** 
  59:My_Top/MC/MC_Serial.cpp ****     va_list args;
  60:My_Top/MC/MC_Serial.cpp ****     va_start(args, format);
  61:My_Top/MC/MC_Serial.cpp ****     int len = vsnprintf((char *)print_buf, SERIAL_PRINT_SIZE, format, args);
  62:My_Top/MC/MC_Serial.cpp ****     va_end(args);
  63:My_Top/MC/MC_Serial.cpp **** 
  64:My_Top/MC/MC_Serial.cpp ****     bool status;
  65:My_Top/MC/MC_Serial.cpp ****     for (uint8_t i = 0; i < 100; i++)
  66:My_Top/MC/MC_Serial.cpp ****     {
  67:My_Top/MC/MC_Serial.cpp ****         status = sr_console.send_data(print_buf, len);
  68:My_Top/MC/MC_Serial.cpp ****         if (status)
  69:My_Top/MC/MC_Serial.cpp ****             break;
  70:My_Top/MC/MC_Serial.cpp ****         vTaskDelay(pdMS_TO_TICKS(1));
  71:My_Top/MC/MC_Serial.cpp ****     }
  72:My_Top/MC/MC_Serial.cpp ****     status &= sr_console.send_data((uint8_t *)"\r\n", 2);
  73:My_Top/MC/MC_Serial.cpp ****     len += 2;
  74:My_Top/MC/MC_Serial.cpp ****     if (!status)
  75:My_Top/MC/MC_Serial.cpp ****         len = -1;
  76:My_Top/MC/MC_Serial.cpp **** 
  77:My_Top/MC/MC_Serial.cpp ****     vPortFree(print_buf);
  78:My_Top/MC/MC_Serial.cpp **** 
  79:My_Top/MC/MC_Serial.cpp ****     return len;
  80:My_Top/MC/MC_Serial.cpp **** }
  81:My_Top/MC/MC_Serial.cpp **** 
  82:My_Top/MC/MC_Serial.cpp **** static void handle_console_msg(DataPack_t *pack, Serial *serial, void *args) // ńö©õ║ÄÕ«×ńÄ░õ║żõ║ÆÕ
  83:My_Top/MC/MC_Serial.cpp **** {
  26              		.loc 1 83 1 view -0
  27              		.cfi_startproc
  28              		@ args = 0, pretend = 0, frame = 0
  29              		@ frame_needed = 0, uses_anonymous_args = 0
  30              		.loc 1 83 1 is_stmt 0 view .LVU1
  31 0000 10B5     		push	{r4, lr}
  32              		.cfi_def_cfa_offset 8
ARM GAS  /tmp/ccMWeAOp.s 			page 3


  33              		.cfi_offset 4, -8
  34              		.cfi_offset 14, -4
  35 0002 0400     		movs	r4, r0
  84:My_Top/MC/MC_Serial.cpp ****     CLI_Module *mcli = CLI_Module::get_cli_module(&sr_console);
  36              		.loc 1 84 5 is_stmt 1 view .LVU2
  37              		.loc 1 84 50 is_stmt 0 view .LVU3
  38 0004 0448     		ldr	r0, .L3
  39              	.LVL1:
  40              		.loc 1 84 50 view .LVU4
  41 0006 FFF7FEFF 		bl	_ZN10CLI_Module14get_cli_moduleEP6Serial
  42              	.LVL2:
  85:My_Top/MC/MC_Serial.cpp **** 
  86:My_Top/MC/MC_Serial.cpp ****     if (mcli == NULL)
  43              		.loc 1 86 5 is_stmt 1 view .LVU5
  44 000a 0028     		cmp	r0, #0
  45 000c 03D0     		beq	.L1
  87:My_Top/MC/MC_Serial.cpp ****         return;
  88:My_Top/MC/MC_Serial.cpp **** 
  89:My_Top/MC/MC_Serial.cpp ****     mcli->receive_data(pack->pData, pack->size);
  46              		.loc 1 89 5 view .LVU6
  47              		.loc 1 89 23 is_stmt 0 view .LVU7
  48 000e A288     		ldrh	r2, [r4, #4]
  49 0010 2168     		ldr	r1, [r4]
  50 0012 FFF7FEFF 		bl	_ZN10CLI_Module12receive_dataEPht
  51              	.LVL3:
  52              	.L1:
  90:My_Top/MC/MC_Serial.cpp **** }
  53              		.loc 1 90 1 view .LVU8
  54              		@ sp needed
  55              	.LVL4:
  56              		.loc 1 90 1 view .LVU9
  57 0016 10BD     		pop	{r4, pc}
  58              	.L4:
  59              		.align	2
  60              	.L3:
  61 0018 00000000 		.word	sr_console
  62              		.cfi_endproc
  63              	.LFE469:
  65              		.align	1
  66              		.syntax unified
  67              		.code	16
  68              		.thumb_func
  70              	_ZL17handle_logger_msgP12__DataPack_tP6SerialPv:
  71              	.LVL5:
  72              	.LFB470:
  91:My_Top/MC/MC_Serial.cpp **** 
  92:My_Top/MC/MC_Serial.cpp **** static void handle_logger_msg(DataPack_t *pack, Serial *serial, void *args) //õĖ▓ÕÅŻ2 VoFAńÜäÕø×Ķ░ā
  93:My_Top/MC/MC_Serial.cpp **** {
  73              		.loc 1 93 1 is_stmt 1 view -0
  74              		.cfi_startproc
  75              		@ args = 0, pretend = 0, frame = 0
  76              		@ frame_needed = 0, uses_anonymous_args = 0
  77              		.loc 1 93 1 is_stmt 0 view .LVU11
  78 001c 10B5     		push	{r4, lr}
  79              		.cfi_def_cfa_offset 8
  80              		.cfi_offset 4, -8
  81              		.cfi_offset 14, -4
ARM GAS  /tmp/ccMWeAOp.s 			page 4


  82 001e 0400     		movs	r4, r0
  94:My_Top/MC/MC_Serial.cpp ****     CLI_Module *mcli = CLI_Module::get_cli_module(&sr_console);
  83              		.loc 1 94 5 is_stmt 1 view .LVU12
  84              		.loc 1 94 50 is_stmt 0 view .LVU13
  85 0020 0448     		ldr	r0, .L7
  86              	.LVL6:
  87              		.loc 1 94 50 view .LVU14
  88 0022 FFF7FEFF 		bl	_ZN10CLI_Module14get_cli_moduleEP6Serial
  89              	.LVL7:
  95:My_Top/MC/MC_Serial.cpp **** 
  96:My_Top/MC/MC_Serial.cpp ****     if (mcli == NULL)
  90              		.loc 1 96 5 is_stmt 1 view .LVU15
  91 0026 0028     		cmp	r0, #0
  92 0028 03D0     		beq	.L5
  97:My_Top/MC/MC_Serial.cpp ****         return;
  98:My_Top/MC/MC_Serial.cpp ****     // vofa1.on_recv(pack->pData, pack->size);//ĶĮ¼ÕÅæń╗ÖĶć¬Õ«Üõ╣ēĶ¦Żµ×Éõ╗╗ÕŖĪ
  99:My_Top/MC/MC_Serial.cpp ****     mcli->receive_data(pack->pData, pack->size);
  93              		.loc 1 99 5 view .LVU16
  94              		.loc 1 99 23 is_stmt 0 view .LVU17
  95 002a A288     		ldrh	r2, [r4, #4]
  96 002c 2168     		ldr	r1, [r4]
  97 002e FFF7FEFF 		bl	_ZN10CLI_Module12receive_dataEPht
  98              	.LVL8:
  99              	.L5:
 100:My_Top/MC/MC_Serial.cpp ****     
 101:My_Top/MC/MC_Serial.cpp **** 
 102:My_Top/MC/MC_Serial.cpp **** }...
 100              		.loc 1 102 1 view .LVU18
 101              		@ sp needed
 102              	.LVL9:
 103              		.loc 1 102 1 view .LVU19
 104 0032 10BD     		pop	{r4, pc}
 105              	.L8:
 106              		.align	2
 107              	.L7:
 108 0034 00000000 		.word	sr_console
 109              		.cfi_endproc
 110              	.LFE470:
 112              		.section	.text._ZN6SerialC2Ev,"axG",%progbits,_ZN6SerialC5Ev,comdat
 113              		.align	1
 114              		.weak	_ZN6SerialC2Ev
 115              		.syntax unified
 116              		.code	16
 117              		.thumb_func
 119              	_ZN6SerialC2Ev:
 120              	.LVL10:
 121              	.LFB464:
 122              		.file 2 "Lib/serial/serial.hpp"
   1:Lib/serial/serial.hpp **** #pragma once
   2:Lib/serial/serial.hpp **** 
   3:Lib/serial/serial.hpp **** #include <stdint.h>
   4:Lib/serial/serial.hpp **** #include <stdarg.h>
   5:Lib/serial/serial.hpp **** 
   6:Lib/serial/serial.hpp **** #include "usart.h"
   7:Lib/serial/serial.hpp **** #if (USE_HAL_UART_REGISTER_CALLBACKS != 1)
   8:Lib/serial/serial.hpp **** #error "Ķ»ĘÕ£©STM32CubeMXõĖŁÕ╝ĆÕÉ»UARTńÜäÕø×Ķ░āÕćĮµĢ░ÕŖ¤ĶāĮ"
   9:Lib/serial/serial.hpp **** #endif
ARM GAS  /tmp/ccMWeAOp.s 			page 5


  10:Lib/serial/serial.hpp **** 
  11:Lib/serial/serial.hpp **** #include "cmsis_os2.h"
  12:Lib/serial/serial.hpp **** #include "FreeRTOS.h"
  13:Lib/serial/serial.hpp **** #include "queue.h"
  14:Lib/serial/serial.hpp **** #include "semphr.h"
  15:Lib/serial/serial.hpp **** 
  16:Lib/serial/serial.hpp **** #define SERIAL_NAME_SIZE 16
  17:Lib/serial/serial.hpp **** #define SERIAL_MAX_COUNT 8
  18:Lib/serial/serial.hpp **** #define SERIAL_PRINT_SIZE 200
  19:Lib/serial/serial.hpp **** 
  20:Lib/serial/serial.hpp **** typedef struct __DataPack_t
  21:Lib/serial/serial.hpp **** {
  22:Lib/serial/serial.hpp ****     uint8_t *pData; // µĢ░µŹ«Õīģķ”¢Õ£░ÕØĆ
  23:Lib/serial/serial.hpp ****     uint16_t size;  // µĢ░µŹ«ÕīģÕż¦Õ░Å
  24:Lib/serial/serial.hpp ****     uint32_t tick;  // µŚČķŚ┤µł│
  25:Lib/serial/serial.hpp **** } DataPack_t;
  26:Lib/serial/serial.hpp **** 
  27:Lib/serial/serial.hpp **** typedef struct __BufferHandle_t
  28:Lib/serial/serial.hpp **** {
  29:Lib/serial/serial.hpp ****     uint8_t *pBuffer; // µĢ░µŹ«ń╝ōÕå▓Õī║ķ”¢Õ£░ÕØĆ
  30:Lib/serial/serial.hpp ****     uint16_t size;    // µĢ░µŹ«ń╝ōÕå▓Õī║µ£ĆÕż¦ķĢ┐Õ║”
  31:Lib/serial/serial.hpp ****     uint8_t status;   // µĢ░µŹ«ń╝ōÕå▓Õī║ńŖČµĆü
  32:Lib/serial/serial.hpp ****     uint8_t *pData;   // ÕĘ▓µ£ēµĢ░µŹ«ķ”¢µīćķÆł
  33:Lib/serial/serial.hpp ****     uint16_t index;   // ÕĘ▓µ£ēµĢ░µŹ«Õ░ŠµīćķÆłń┤óÕ╝Ģ
  34:Lib/serial/serial.hpp **** } BufferHandle_t;
  35:Lib/serial/serial.hpp **** 
  36:Lib/serial/serial.hpp **** enum class Serial_Mode : uint8_t
  37:Lib/serial/serial.hpp **** {
  38:Lib/serial/serial.hpp ****     None,
  39:Lib/serial/serial.hpp ****     IT,
  40:Lib/serial/serial.hpp ****     DMA
  41:Lib/serial/serial.hpp **** };
  42:Lib/serial/serial.hpp **** 
  43:Lib/serial/serial.hpp **** enum class Serial_Error : uint8_t
  44:Lib/serial/serial.hpp **** {
  45:Lib/serial/serial.hpp ****     None,
  46:Lib/serial/serial.hpp ****     Init_Error,
  47:Lib/serial/serial.hpp ****     Start_Error,
  48:Lib/serial/serial.hpp ****     RX_Error,
  49:Lib/serial/serial.hpp ****     TX_Error
  50:Lib/serial/serial.hpp **** };
  51:Lib/serial/serial.hpp **** 
  52:Lib/serial/serial.hpp **** 
  53:Lib/serial/serial.hpp **** typedef struct
  54:Lib/serial/serial.hpp **** {
  55:Lib/serial/serial.hpp ****     Serial_Mode rx_mode;   // µÄźµöČµ©ĪÕ╝Å’╝łITŃĆüDMA’╝ē
  56:Lib/serial/serial.hpp ****     Serial_Mode tx_mode;   // ÕÅæķĆüµ©ĪÕ╝Å’╝łITŃĆüDMA’╝ē
  57:Lib/serial/serial.hpp ****     uint16_t rx_buf_size;  // µÄźµöČń╝ōÕå▓Õī║Õż¦Õ░Å
  58:Lib/serial/serial.hpp ****     uint16_t tx_buf_size;  // ÕÅæķĆüń╝ōÕå▓Õī║Õż¦Õ░Å
  59:Lib/serial/serial.hpp ****     uint16_t rx_pack_size; // µÄźµöČµĢ░µŹ«ÕīģÕż¦Õ░Å
  60:Lib/serial/serial.hpp ****     uint16_t tx_pack_size; // ÕÅæķĆüµĢ░µŹ«ÕīģÕż¦Õ░Å
  61:Lib/serial/serial.hpp ****     uint16_t rx_queue_len; // µÄźµöČķś¤ÕłŚķĢ┐Õ║”
  62:Lib/serial/serial.hpp ****     uint16_t tx_queue_len; // ÕÅæķĆüķś¤ÕłŚķĢ┐Õ║”
  63:Lib/serial/serial.hpp **** } Serial_Config;
  64:Lib/serial/serial.hpp **** 
  65:Lib/serial/serial.hpp **** typedef struct
  66:Lib/serial/serial.hpp **** {
ARM GAS  /tmp/ccMWeAOp.s 			page 6


  67:Lib/serial/serial.hpp ****     uint16_t error_cnt;          // õĖ▓ÕÅŻķöÖĶ»»Ķ«ĪµĢ░
  68:Lib/serial/serial.hpp ****     uint32_t rx_total_size;      // µĆ╗µÄźµöČÕŁŚĶŖéµĢ░
  69:Lib/serial/serial.hpp ****     uint32_t tx_total_size;      // µĆ╗ÕÅæķĆüÕŁŚĶŖéµĢ░
  70:Lib/serial/serial.hpp ****     uint16_t rx_to_process_size; // ÕŠģÕżäńÉåµÄźµöČÕŁŚĶŖéµĢ░
  71:Lib/serial/serial.hpp ****     uint16_t tx_to_process_size; // ÕŠģÕżäńÉåÕÅæķĆüÕŁŚĶŖéµĢ░
  72:Lib/serial/serial.hpp **** } Serial_Info;
  73:Lib/serial/serial.hpp **** 
  74:Lib/serial/serial.hpp **** class Serial;
  75:Lib/serial/serial.hpp **** 
  76:Lib/serial/serial.hpp **** typedef struct
  77:Lib/serial/serial.hpp **** {
  78:Lib/serial/serial.hpp ****     UART_HandleTypeDef *uart;
  79:Lib/serial/serial.hpp ****     Serial *serial;
  80:Lib/serial/serial.hpp **** } Serial_Map;
  81:Lib/serial/serial.hpp **** 
  82:Lib/serial/serial.hpp **** typedef void (*Serial_RX_Msg_Handler)(DataPack_t *pack, Serial *serial, void *args);
  83:Lib/serial/serial.hpp **** 
  84:Lib/serial/serial.hpp **** class Serial
 123              		.loc 2 84 7 is_stmt 1 view -0
 124              		.cfi_startproc
 125              		@ args = 0, pretend = 0, frame = 0
 126              		@ frame_needed = 0, uses_anonymous_args = 0
 127              		.loc 2 84 7 is_stmt 0 view .LVU21
 128 0000 70B5     		push	{r4, r5, r6, lr}
 129              		.cfi_def_cfa_offset 16
 130              		.cfi_offset 4, -16
 131              		.cfi_offset 5, -12
 132              		.cfi_offset 6, -8
 133              		.cfi_offset 14, -4
 134 0002 0400     		movs	r4, r0
 135              	.LBB2:
 136              		.loc 2 84 7 view .LVU22
 137 0004 1022     		movs	r2, #16
 138 0006 0021     		movs	r1, #0
 139 0008 FFF7FEFF 		bl	memset
 140              	.LVL11:
 141              		.loc 2 84 7 view .LVU23
 142 000c 0025     		movs	r5, #0
 143 000e 2574     		strb	r5, [r4, #16]
 144 0010 6574     		strb	r5, [r4, #17]
 145 0012 A574     		strb	r5, [r4, #18]
 146 0014 2000     		movs	r0, r4
 147 0016 5030     		adds	r0, r0, #80
 148 0018 1322     		movs	r2, #19
 149 001a 0021     		movs	r1, #0
 150 001c FFF7FEFF 		bl	memset
 151              	.LVL12:
 152 0020 2000     		movs	r0, r4
 153 0022 6330     		adds	r0, r0, #99
 154 0024 1322     		movs	r2, #19
 155 0026 0021     		movs	r1, #0
 156 0028 FFF7FEFF 		bl	memset
 157              	.LVL13:
 158 002c 9423     		movs	r3, #148
 159 002e E550     		str	r5, [r4, r3]
 160 0030 0433     		adds	r3, r3, #4
 161 0032 E550     		str	r5, [r4, r3]
ARM GAS  /tmp/ccMWeAOp.s 			page 7


 162              	.LBE2:
 163 0034 2000     		movs	r0, r4
 164              		@ sp needed
 165              	.LVL14:
 166              		.loc 2 84 7 view .LVU24
 167 0036 70BD     		pop	{r4, r5, r6, pc}
 168              		.cfi_endproc
 169              	.LFE464:
 171              		.weak	_ZN6SerialC1Ev
 172              		.thumb_set _ZN6SerialC1Ev,_ZN6SerialC2Ev
 173              		.text
 174              		.align	1
 175              		.syntax unified
 176              		.code	16
 177              		.thumb_func
 179              	_Z41__static_initialization_and_destruction_0v:
 180              	.LFB471:
 181              		.loc 1 102 1 is_stmt 1 view -0
 182              		.cfi_startproc
 183              		@ args = 0, pretend = 0, frame = 0
 184              		@ frame_needed = 0, uses_anonymous_args = 0
 185 0038 10B5     		push	{r4, lr}
 186              		.cfi_def_cfa_offset 8
 187              		.cfi_offset 4, -8
 188              		.cfi_offset 14, -4
   4:My_Top/MC/MC_Serial.cpp **** Serial sr_logger;
 189              		.loc 1 4 8 is_stmt 0 view .LVU26
 190 003a 0348     		ldr	r0, .L11
 191 003c FFF7FEFF 		bl	_ZN6SerialC1Ev
 192              	.LVL15:
   5:My_Top/MC/MC_Serial.cpp **** Serial sr_console;
 193              		.loc 1 5 8 view .LVU27
 194 0040 0248     		ldr	r0, .L11+4
 195 0042 FFF7FEFF 		bl	_ZN6SerialC1Ev
 196              	.LVL16:
 197              		.loc 1 102 1 view .LVU28
 198              		@ sp needed
 199 0046 10BD     		pop	{r4, pc}
 200              	.L12:
 201              		.align	2
 202              	.L11:
 203 0048 00000000 		.word	sr_logger
 204 004c 00000000 		.word	sr_console
 205              		.cfi_endproc
 206              	.LFE471:
 208              		.section	.rodata.str1.4,"aMS",%progbits,1
 209              		.align	2
 210              	.LC5:
 211 0000 6C6F6767 		.ascii	"logger\000"
 211      657200
 212 0007 00       		.align	2
 213              	.LC10:
 214 0008 636F6E73 		.ascii	"console\000"
 214      6F6C6500 
 215              		.text
 216              		.align	1
 217              		.global	_ZN9MC_Serial4initEv
ARM GAS  /tmp/ccMWeAOp.s 			page 8


 218              		.syntax unified
 219              		.code	16
 220              		.thumb_func
 222              	_ZN9MC_Serial4initEv:
 223              	.LFB466:
  11:My_Top/MC/MC_Serial.cpp **** {
 224              		.loc 1 11 1 is_stmt 1 view -0
 225              		.cfi_startproc
 226              		@ args = 0, pretend = 0, frame = 0
 227              		@ frame_needed = 0, uses_anonymous_args = 0
 228 0050 10B5     		push	{r4, lr}
 229              		.cfi_def_cfa_offset 8
 230              		.cfi_offset 4, -8
 231              		.cfi_offset 14, -4
  13:My_Top/MC/MC_Serial.cpp ****     sr_logger.init_with_default("logger", Vofa_huart);
 232              		.loc 1 13 5 view .LVU30
  13:My_Top/MC/MC_Serial.cpp ****     sr_logger.init_with_default("logger", Vofa_huart);
 233              		.loc 1 13 32 is_stmt 0 view .LVU31
 234 0052 0B4A     		ldr	r2, .L14
 235 0054 0B49     		ldr	r1, .L14+4
 236 0056 0C4C     		ldr	r4, .L14+8
 237 0058 2000     		movs	r0, r4
 238 005a FFF7FEFF 		bl	_ZN6Serial17init_with_defaultEPKcP20__UART_HandleTypeDef
 239              	.LVL17:
  14:My_Top/MC/MC_Serial.cpp ****     sr_logger.register_rx_msg_handler(handle_logger_msg, NULL);
 240              		.loc 1 14 5 is_stmt 1 view .LVU32
  14:My_Top/MC/MC_Serial.cpp ****     sr_logger.register_rx_msg_handler(handle_logger_msg, NULL);
 241              		.loc 1 14 38 is_stmt 0 view .LVU33
 242 005e 0B49     		ldr	r1, .L14+12
 243 0060 0022     		movs	r2, #0
 244 0062 2000     		movs	r0, r4
 245 0064 FFF7FEFF 		bl	_ZN6Serial23register_rx_msg_handlerEPFvP12__DataPack_tPS_PvES3_
 246              	.LVL18:
  17:My_Top/MC/MC_Serial.cpp ****     sr_console.init_with_default("console", CLI_huart);
 247              		.loc 1 17 5 is_stmt 1 view .LVU34
  17:My_Top/MC/MC_Serial.cpp ****     sr_console.init_with_default("console", CLI_huart);
 248              		.loc 1 17 33 is_stmt 0 view .LVU35
 249 0068 094A     		ldr	r2, .L14+16
 250 006a 0A49     		ldr	r1, .L14+20
 251 006c 0A4C     		ldr	r4, .L14+24
 252 006e 2000     		movs	r0, r4
 253 0070 FFF7FEFF 		bl	_ZN6Serial17init_with_defaultEPKcP20__UART_HandleTypeDef
 254              	.LVL19:
  18:My_Top/MC/MC_Serial.cpp ****     sr_console.register_rx_msg_handler(handle_console_msg, NULL);
 255              		.loc 1 18 5 is_stmt 1 view .LVU36
  18:My_Top/MC/MC_Serial.cpp ****     sr_console.register_rx_msg_handler(handle_console_msg, NULL);
 256              		.loc 1 18 39 is_stmt 0 view .LVU37
 257 0074 0949     		ldr	r1, .L14+28
 258 0076 0022     		movs	r2, #0
 259 0078 2000     		movs	r0, r4
 260 007a FFF7FEFF 		bl	_ZN6Serial23register_rx_msg_handlerEPFvP12__DataPack_tPS_PvES3_
 261              	.LVL20:
  20:My_Top/MC/MC_Serial.cpp **** }
 262              		.loc 1 20 1 view .LVU38
 263              		@ sp needed
 264 007e 10BD     		pop	{r4, pc}
 265              	.L15:
ARM GAS  /tmp/ccMWeAOp.s 			page 9


 266              		.align	2
 267              	.L14:
 268 0080 00000000 		.word	huart2
 269 0084 00000000 		.word	.LC5
 270 0088 00000000 		.word	sr_logger
 271 008c 00000000 		.word	_ZL17handle_logger_msgP12__DataPack_tP6SerialPv
 272 0090 00000000 		.word	huart3
 273 0094 08000000 		.word	.LC10
 274 0098 00000000 		.word	sr_console
 275 009c 00000000 		.word	_ZL18handle_console_msgP12__DataPack_tP6SerialPv
 276              		.cfi_endproc
 277              	.LFE466:
 279              		.align	1
 280              		.global	printf_
 281              		.syntax unified
 282              		.code	16
 283              		.thumb_func
 285              	printf_:
 286              	.LVL21:
 287              	.LFB467:
  23:My_Top/MC/MC_Serial.cpp **** {
 288              		.loc 1 23 1 is_stmt 1 view -0
 289              		.cfi_startproc
 290              		@ args = 4, pretend = 16, frame = 8
 291              		@ frame_needed = 0, uses_anonymous_args = 1
  23:My_Top/MC/MC_Serial.cpp **** {
 292              		.loc 1 23 1 is_stmt 0 view .LVU40
 293 00a0 0FB4     		push	{r0, r1, r2, r3}
 294              		.cfi_def_cfa_offset 16
 295 00a2 F0B5     		push	{r4, r5, r6, r7, lr}
 296              		.cfi_def_cfa_offset 36
 297              		.cfi_offset 4, -36
 298              		.cfi_offset 5, -32
 299              		.cfi_offset 6, -28
 300              		.cfi_offset 7, -24
 301              		.cfi_offset 14, -20
 302 00a4 83B0     		sub	sp, sp, #12
 303              		.cfi_def_cfa_offset 48
 304 00a6 0025     		movs	r5, #0
  25:My_Top/MC/MC_Serial.cpp ****     uint8_t *print_buf = (uint8_t *)pvPortMalloc(SERIAL_PRINT_SIZE);
 305              		.loc 1 25 5 is_stmt 1 view .LVU41
  25:My_Top/MC/MC_Serial.cpp ****     uint8_t *print_buf = (uint8_t *)pvPortMalloc(SERIAL_PRINT_SIZE);
 306              		.loc 1 25 49 is_stmt 0 view .LVU42
 307 00a8 C820     		movs	r0, #200
 308 00aa FFF7FEFF 		bl	pvPortMalloc
 309              	.LVL22:
 310 00ae 071E     		subs	r7, r0, #0
 311              	.LVL23:
  27:My_Top/MC/MC_Serial.cpp ****     if (print_buf == NULL)
 312              		.loc 1 27 5 is_stmt 1 view .LVU43
 313 00b0 24D0     		beq	.L22
  30:My_Top/MC/MC_Serial.cpp ****     va_list args;
 314              		.loc 1 30 5 view .LVU44
  31:My_Top/MC/MC_Serial.cpp ****     va_start(args, format);
 315              		.loc 1 31 5 view .LVU45
 316 00b2 09AB     		add	r3, sp, #36
 317 00b4 0193     		str	r3, [sp, #4]
ARM GAS  /tmp/ccMWeAOp.s 			page 10


  32:My_Top/MC/MC_Serial.cpp ****     int len = vsnprintf((char *)print_buf, SERIAL_PRINT_SIZE, format, args);
 318              		.loc 1 32 5 view .LVU46
  32:My_Top/MC/MC_Serial.cpp ****     int len = vsnprintf((char *)print_buf, SERIAL_PRINT_SIZE, format, args);
 319              		.loc 1 32 24 is_stmt 0 view .LVU47
 320 00b6 089A     		ldr	r2, [sp, #32]
 321 00b8 C821     		movs	r1, #200
 322 00ba FFF7FEFF 		bl	vsnprintf_
 323              	.LVL24:
  32:My_Top/MC/MC_Serial.cpp ****     int len = vsnprintf((char *)print_buf, SERIAL_PRINT_SIZE, format, args);
 324              		.loc 1 32 24 view .LVU48
 325 00be 0600     		movs	r6, r0
 326              	.LVL25:
  33:My_Top/MC/MC_Serial.cpp ****     va_end(args);
 327              		.loc 1 33 5 is_stmt 1 view .LVU49
  35:My_Top/MC/MC_Serial.cpp ****     bool status;
 328              		.loc 1 35 5 view .LVU50
  36:My_Top/MC/MC_Serial.cpp ****     for (uint8_t i = 0; i < 100; i++)
 329              		.loc 1 36 5 view .LVU51
 330              	.LBB3:
  36:My_Top/MC/MC_Serial.cpp ****     for (uint8_t i = 0; i < 100; i++)
 331              		.loc 1 36 18 is_stmt 0 view .LVU52
 332 00c0 0024     		movs	r4, #0
 333              	.LVL26:
 334              	.L18:
  36:My_Top/MC/MC_Serial.cpp ****     for (uint8_t i = 0; i < 100; i++)
 335              		.loc 1 36 27 is_stmt 1 discriminator 1 view .LVU53
 336 00c2 632C     		cmp	r4, #99
 337 00c4 0DD8     		bhi	.L19
  38:My_Top/MC/MC_Serial.cpp ****         status = sr_console.send_data(print_buf, len);
 338              		.loc 1 38 9 view .LVU54
  38:My_Top/MC/MC_Serial.cpp ****         status = sr_console.send_data(print_buf, len);
 339              		.loc 1 38 38 is_stmt 0 view .LVU55
 340 00c6 B2B2     		uxth	r2, r6
 341 00c8 0E48     		ldr	r0, .L24
 342 00ca 0023     		movs	r3, #0
 343 00cc 3900     		movs	r1, r7
 344 00ce FFF7FEFF 		bl	_ZN6Serial9send_dataEPhtm
 345              	.LVL27:
 346 00d2 051E     		subs	r5, r0, #0
 347              	.LVL28:
  39:My_Top/MC/MC_Serial.cpp ****         if (status)
 348              		.loc 1 39 9 is_stmt 1 view .LVU56
 349 00d4 05D1     		bne	.L19
  41:My_Top/MC/MC_Serial.cpp ****         vTaskDelay(pdMS_TO_TICKS(1));
 350              		.loc 1 41 9 view .LVU57
  41:My_Top/MC/MC_Serial.cpp ****         vTaskDelay(pdMS_TO_TICKS(1));
 351              		.loc 1 41 19 is_stmt 0 view .LVU58
 352 00d6 0120     		movs	r0, #1
 353              	.LVL29:
  41:My_Top/MC/MC_Serial.cpp ****         vTaskDelay(pdMS_TO_TICKS(1));
 354              		.loc 1 41 19 view .LVU59
 355 00d8 FFF7FEFF 		bl	vTaskDelay
 356              	.LVL30:
  36:My_Top/MC/MC_Serial.cpp ****     for (uint8_t i = 0; i < 100; i++)
 357              		.loc 1 36 5 is_stmt 1 discriminator 2 view .LVU60
 358 00dc 0134     		adds	r4, r4, #1
 359              	.LVL31:
ARM GAS  /tmp/ccMWeAOp.s 			page 11


  36:My_Top/MC/MC_Serial.cpp ****     for (uint8_t i = 0; i < 100; i++)
 360              		.loc 1 36 5 is_stmt 0 discriminator 2 view .LVU61
 361 00de E4B2     		uxtb	r4, r4
 362              	.LVL32:
  36:My_Top/MC/MC_Serial.cpp ****     for (uint8_t i = 0; i < 100; i++)
 363              		.loc 1 36 5 discriminator 2 view .LVU62
 364 00e0 EFE7     		b	.L18
 365              	.LVL33:
 366              	.L19:
  36:My_Top/MC/MC_Serial.cpp ****     for (uint8_t i = 0; i < 100; i++)
 367              		.loc 1 36 5 discriminator 2 view .LVU63
 368              	.LBE3:
  43:My_Top/MC/MC_Serial.cpp ****     if (!status)
 369              		.loc 1 43 5 is_stmt 1 view .LVU64
 370 00e2 002D     		cmp	r5, #0
 371 00e4 01D1     		bne	.L21
  44:My_Top/MC/MC_Serial.cpp ****         len = -1;
 372              		.loc 1 44 13 is_stmt 0 view .LVU65
 373 00e6 0126     		movs	r6, #1
 374              	.LVL34:
  44:My_Top/MC/MC_Serial.cpp ****         len = -1;
 375              		.loc 1 44 13 view .LVU66
 376 00e8 7642     		rsbs	r6, r6, #0
 377              	.L21:
 378              	.LVL35:
  46:My_Top/MC/MC_Serial.cpp ****     vPortFree(print_buf);
 379              		.loc 1 46 5 is_stmt 1 view .LVU67
  46:My_Top/MC/MC_Serial.cpp ****     vPortFree(print_buf);
 380              		.loc 1 46 14 is_stmt 0 view .LVU68
 381 00ea 3800     		movs	r0, r7
 382 00ec FFF7FEFF 		bl	vPortFree
 383              	.LVL36:
  48:My_Top/MC/MC_Serial.cpp ****     return len;
 384              		.loc 1 48 5 is_stmt 1 view .LVU69
 385              	.L16:
  49:My_Top/MC/MC_Serial.cpp **** }
 386              		.loc 1 49 1 is_stmt 0 view .LVU70
 387 00f0 3000     		movs	r0, r6
 388 00f2 03B0     		add	sp, sp, #12
 389              		@ sp needed
 390              	.LVL37:
  49:My_Top/MC/MC_Serial.cpp **** }
 391              		.loc 1 49 1 view .LVU71
 392 00f4 F0BC     		pop	{r4, r5, r6, r7}
 393 00f6 08BC     		pop	{r3}
 394 00f8 04B0     		add	sp, sp, #16
 395 00fa 1847     		bx	r3
 396              	.LVL38:
 397              	.L22:
  28:My_Top/MC/MC_Serial.cpp ****         return -1;
 398              		.loc 1 28 17 view .LVU72
 399 00fc 0126     		movs	r6, #1
 400 00fe 7642     		rsbs	r6, r6, #0
 401 0100 F6E7     		b	.L16
 402              	.L25:
 403 0102 C046     		.align	2
 404              	.L24:
ARM GAS  /tmp/ccMWeAOp.s 			page 12


 405 0104 00000000 		.word	sr_console
 406              		.cfi_endproc
 407              	.LFE467:
 409              		.section	.rodata.str1.4
 410              		.align	2
 411              	.LC16:
 412 0010 0D0A00   		.ascii	"\015\012\000"
 413              		.text
 414              		.align	1
 415              		.global	println
 416              		.syntax unified
 417              		.code	16
 418              		.thumb_func
 420              	println:
 421              	.LVL39:
 422              	.LFB468:
  52:My_Top/MC/MC_Serial.cpp **** {
 423              		.loc 1 52 1 is_stmt 1 view -0
 424              		.cfi_startproc
 425              		@ args = 4, pretend = 16, frame = 8
 426              		@ frame_needed = 0, uses_anonymous_args = 1
  52:My_Top/MC/MC_Serial.cpp **** {
 427              		.loc 1 52 1 is_stmt 0 view .LVU74
 428 0108 0FB4     		push	{r0, r1, r2, r3}
 429              		.cfi_def_cfa_offset 16
 430 010a F0B5     		push	{r4, r5, r6, r7, lr}
 431              		.cfi_def_cfa_offset 36
 432              		.cfi_offset 4, -36
 433              		.cfi_offset 5, -32
 434              		.cfi_offset 6, -28
 435              		.cfi_offset 7, -24
 436              		.cfi_offset 14, -20
 437 010c 83B0     		sub	sp, sp, #12
 438              		.cfi_def_cfa_offset 48
 439 010e 0025     		movs	r5, #0
  54:My_Top/MC/MC_Serial.cpp ****     uint8_t *print_buf = (uint8_t *)pvPortMalloc(SERIAL_PRINT_SIZE);
 440              		.loc 1 54 5 is_stmt 1 view .LVU75
  54:My_Top/MC/MC_Serial.cpp ****     uint8_t *print_buf = (uint8_t *)pvPortMalloc(SERIAL_PRINT_SIZE);
 441              		.loc 1 54 49 is_stmt 0 view .LVU76
 442 0110 C820     		movs	r0, #200
 443 0112 FFF7FEFF 		bl	pvPortMalloc
 444              	.LVL40:
 445 0116 071E     		subs	r7, r0, #0
 446              	.LVL41:
  56:My_Top/MC/MC_Serial.cpp ****     if (print_buf == NULL)
 447              		.loc 1 56 5 is_stmt 1 view .LVU77
 448 0118 2ED0     		beq	.L32
  59:My_Top/MC/MC_Serial.cpp ****     va_list args;
 449              		.loc 1 59 5 view .LVU78
  60:My_Top/MC/MC_Serial.cpp ****     va_start(args, format);
 450              		.loc 1 60 5 view .LVU79
 451 011a 09AB     		add	r3, sp, #36
 452 011c 0193     		str	r3, [sp, #4]
  61:My_Top/MC/MC_Serial.cpp ****     int len = vsnprintf((char *)print_buf, SERIAL_PRINT_SIZE, format, args);
 453              		.loc 1 61 5 view .LVU80
  61:My_Top/MC/MC_Serial.cpp ****     int len = vsnprintf((char *)print_buf, SERIAL_PRINT_SIZE, format, args);
 454              		.loc 1 61 24 is_stmt 0 view .LVU81
ARM GAS  /tmp/ccMWeAOp.s 			page 13


 455 011e 089A     		ldr	r2, [sp, #32]
 456 0120 C821     		movs	r1, #200
 457 0122 FFF7FEFF 		bl	vsnprintf_
 458              	.LVL42:
  61:My_Top/MC/MC_Serial.cpp ****     int len = vsnprintf((char *)print_buf, SERIAL_PRINT_SIZE, format, args);
 459              		.loc 1 61 24 view .LVU82
 460 0126 0600     		movs	r6, r0
 461              	.LVL43:
  62:My_Top/MC/MC_Serial.cpp ****     va_end(args);
 462              		.loc 1 62 5 is_stmt 1 view .LVU83
  64:My_Top/MC/MC_Serial.cpp ****     bool status;
 463              		.loc 1 64 5 view .LVU84
  65:My_Top/MC/MC_Serial.cpp ****     for (uint8_t i = 0; i < 100; i++)
 464              		.loc 1 65 5 view .LVU85
 465              	.LBB4:
  65:My_Top/MC/MC_Serial.cpp ****     for (uint8_t i = 0; i < 100; i++)
 466              		.loc 1 65 18 is_stmt 0 view .LVU86
 467 0128 0024     		movs	r4, #0
 468              	.LVL44:
 469              	.L28:
  65:My_Top/MC/MC_Serial.cpp ****     for (uint8_t i = 0; i < 100; i++)
 470              		.loc 1 65 27 is_stmt 1 discriminator 1 view .LVU87
 471 012a 632C     		cmp	r4, #99
 472 012c 0DD8     		bhi	.L29
  67:My_Top/MC/MC_Serial.cpp ****         status = sr_console.send_data(print_buf, len);
 473              		.loc 1 67 9 view .LVU88
  67:My_Top/MC/MC_Serial.cpp ****         status = sr_console.send_data(print_buf, len);
 474              		.loc 1 67 38 is_stmt 0 view .LVU89
 475 012e B2B2     		uxth	r2, r6
 476 0130 1348     		ldr	r0, .L34
 477 0132 0023     		movs	r3, #0
 478 0134 3900     		movs	r1, r7
 479 0136 FFF7FEFF 		bl	_ZN6Serial9send_dataEPhtm
 480              	.LVL45:
 481 013a 051E     		subs	r5, r0, #0
 482              	.LVL46:
  68:My_Top/MC/MC_Serial.cpp ****         if (status)
 483              		.loc 1 68 9 is_stmt 1 view .LVU90
 484 013c 05D1     		bne	.L29
  70:My_Top/MC/MC_Serial.cpp ****         vTaskDelay(pdMS_TO_TICKS(1));
 485              		.loc 1 70 9 view .LVU91
  70:My_Top/MC/MC_Serial.cpp ****         vTaskDelay(pdMS_TO_TICKS(1));
 486              		.loc 1 70 19 is_stmt 0 view .LVU92
 487 013e 0120     		movs	r0, #1
 488              	.LVL47:
  70:My_Top/MC/MC_Serial.cpp ****         vTaskDelay(pdMS_TO_TICKS(1));
 489              		.loc 1 70 19 view .LVU93
 490 0140 FFF7FEFF 		bl	vTaskDelay
 491              	.LVL48:
  65:My_Top/MC/MC_Serial.cpp ****     for (uint8_t i = 0; i < 100; i++)
 492              		.loc 1 65 5 is_stmt 1 discriminator 2 view .LVU94
 493 0144 0134     		adds	r4, r4, #1
 494              	.LVL49:
  65:My_Top/MC/MC_Serial.cpp ****     for (uint8_t i = 0; i < 100; i++)
 495              		.loc 1 65 5 is_stmt 0 discriminator 2 view .LVU95
 496 0146 E4B2     		uxtb	r4, r4
 497              	.LVL50:
ARM GAS  /tmp/ccMWeAOp.s 			page 14


  65:My_Top/MC/MC_Serial.cpp ****     for (uint8_t i = 0; i < 100; i++)
 498              		.loc 1 65 5 discriminator 2 view .LVU96
 499 0148 EFE7     		b	.L28
 500              	.LVL51:
 501              	.L29:
  65:My_Top/MC/MC_Serial.cpp ****     for (uint8_t i = 0; i < 100; i++)
 502              		.loc 1 65 5 discriminator 2 view .LVU97
 503              	.LBE4:
  72:My_Top/MC/MC_Serial.cpp ****     status &= sr_console.send_data((uint8_t *)"\r\n", 2);
 504              		.loc 1 72 5 is_stmt 1 view .LVU98
  72:My_Top/MC/MC_Serial.cpp ****     status &= sr_console.send_data((uint8_t *)"\r\n", 2);
 505              		.loc 1 72 35 is_stmt 0 view .LVU99
 506 014a 0E49     		ldr	r1, .L34+4
 507 014c 0C48     		ldr	r0, .L34
 508 014e 0023     		movs	r3, #0
 509 0150 0222     		movs	r2, #2
 510 0152 FFF7FEFF 		bl	_ZN6Serial9send_dataEPhtm
 511              	.LVL52:
  73:My_Top/MC/MC_Serial.cpp ****     len += 2;
 512              		.loc 1 73 5 is_stmt 1 view .LVU100
  73:My_Top/MC/MC_Serial.cpp ****     len += 2;
 513              		.loc 1 73 9 is_stmt 0 view .LVU101
 514 0156 0236     		adds	r6, r6, #2
 515              	.LVL53:
  74:My_Top/MC/MC_Serial.cpp ****     if (!status)
 516              		.loc 1 74 5 is_stmt 1 view .LVU102
 517 0158 002D     		cmp	r5, #0
 518 015a 0AD0     		beq	.L33
 519 015c 0028     		cmp	r0, #0
 520 015e 08D0     		beq	.L33
 521              	.LVL54:
 522              	.L31:
  77:My_Top/MC/MC_Serial.cpp ****     vPortFree(print_buf);
 523              		.loc 1 77 5 view .LVU103
  77:My_Top/MC/MC_Serial.cpp ****     vPortFree(print_buf);
 524              		.loc 1 77 14 is_stmt 0 view .LVU104
 525 0160 3800     		movs	r0, r7
 526              	.LVL55:
  77:My_Top/MC/MC_Serial.cpp ****     vPortFree(print_buf);
 527              		.loc 1 77 14 view .LVU105
 528 0162 FFF7FEFF 		bl	vPortFree
 529              	.LVL56:
  79:My_Top/MC/MC_Serial.cpp ****     return len;
 530              		.loc 1 79 5 is_stmt 1 view .LVU106
 531              	.L26:
  80:My_Top/MC/MC_Serial.cpp **** }
 532              		.loc 1 80 1 is_stmt 0 view .LVU107
 533 0166 3000     		movs	r0, r6
 534 0168 03B0     		add	sp, sp, #12
 535              		@ sp needed
 536              	.LVL57:
  80:My_Top/MC/MC_Serial.cpp **** }
 537              		.loc 1 80 1 view .LVU108
 538 016a F0BC     		pop	{r4, r5, r6, r7}
 539 016c 08BC     		pop	{r3}
 540 016e 04B0     		add	sp, sp, #16
 541 0170 1847     		bx	r3
ARM GAS  /tmp/ccMWeAOp.s 			page 15


 542              	.LVL58:
 543              	.L33:
  75:My_Top/MC/MC_Serial.cpp ****         len = -1;
 544              		.loc 1 75 13 view .LVU109
 545 0172 0126     		movs	r6, #1
 546              	.LVL59:
  75:My_Top/MC/MC_Serial.cpp ****         len = -1;
 547              		.loc 1 75 13 view .LVU110
 548 0174 7642     		rsbs	r6, r6, #0
 549 0176 F3E7     		b	.L31
 550              	.LVL60:
 551              	.L32:
  57:My_Top/MC/MC_Serial.cpp ****         return -1;
 552              		.loc 1 57 17 view .LVU111
 553 0178 0126     		movs	r6, #1
 554 017a 7642     		rsbs	r6, r6, #0
 555 017c F3E7     		b	.L26
 556              	.L35:
 557 017e C046     		.align	2
 558              	.L34:
 559 0180 00000000 		.word	sr_console
 560 0184 10000000 		.word	.LC16
 561              		.cfi_endproc
 562              	.LFE468:
 564              		.align	1
 565              		.syntax unified
 566              		.code	16
 567              		.thumb_func
 569              	_GLOBAL__sub_I_sr_logger:
 570              	.LFB472:
 571              		.loc 1 102 1 is_stmt 1 view -0
 572              		.cfi_startproc
 573              		@ args = 0, pretend = 0, frame = 0
 574              		@ frame_needed = 0, uses_anonymous_args = 0
 575 0188 10B5     		push	{r4, lr}
 576              		.cfi_def_cfa_offset 8
 577              		.cfi_offset 4, -8
 578              		.cfi_offset 14, -4
 579              		.loc 1 102 1 is_stmt 0 view .LVU113
 580 018a FFF755FF 		bl	_Z41__static_initialization_and_destruction_0v
 581              	.LVL61:
 582              		@ sp needed
 583 018e 10BD     		pop	{r4, pc}
 584              		.cfi_endproc
 585              	.LFE472:
 587              		.section	.init_array,"aw",%init_array
 588              		.align	2
 589 0000 00000000 		.word	_GLOBAL__sub_I_sr_logger(target1)
 590              		.global	sr_console
 591              		.global	sr_logger
 592              		.bss
 593              		.align	2
 596              	sr_console:
 597 0000 00000000 		.space	156
 597      00000000 
 597      00000000 
 597      00000000 
ARM GAS  /tmp/ccMWeAOp.s 			page 16


 597      00000000 
 600              	sr_logger:
 601 009c 00000000 		.space	156
 601      00000000 
 601      00000000 
 601      00000000 
 601      00000000 
 602              		.text
 603              	.Letext0:
 604              		.file 3 "/opt/arm-gnu-toolchain-14.2/arm-none-eabi/include/machine/_default_types.h"
 605              		.file 4 "/opt/arm-gnu-toolchain-14.2/arm-none-eabi/include/sys/_stdint.h"
 606              		.file 5 "/opt/arm-gnu-toolchain-14.2/lib/gcc/arm-none-eabi/14.2.1/include/stdarg.h"
 607              		.file 6 "Drivers/CMSIS/Device/ST/STM32G0xx/Include/stm32g071xx.h"
 608              		.file 7 "/opt/arm-gnu-toolchain-14.2/lib/gcc/arm-none-eabi/14.2.1/include/stddef.h"
 609              		.file 8 "Drivers/STM32G0xx_HAL_Driver/Inc/stm32g0xx_hal_def.h"
 610              		.file 9 "Drivers/STM32G0xx_HAL_Driver/Inc/stm32g0xx_hal_dma.h"
 611              		.file 10 "Drivers/STM32G0xx_HAL_Driver/Inc/stm32g0xx_hal_uart.h"
 612              		.file 11 "Core/Inc/usart.h"
 613              		.file 12 "Middlewares/Third_Party/FreeRTOS/Source/portable/GCC/ARM_CM0/portmacro.h"
 614              		.file 13 "Middlewares/Third_Party/FreeRTOS/Source/include/task.h"
 615              		.file 14 "Middlewares/Third_Party/FreeRTOS/Source/include/queue.h"
 616              		.file 15 "Middlewares/Third_Party/FreeRTOS/Source/include/semphr.h"
 617              		.file 16 "Lib/embedded-cli/embedded_cli.h"
 618              		.file 17 "My_Top/Modules/CLI_Module.hpp"
 619              		.file 18 "My_Top/MC/MC_Serial.hpp"
 620              		.file 19 "Middlewares/Third_Party/FreeRTOS/Source/include/portable.h"
 621              		.file 20 "Lib/serial/printf.h"
 622              		.file 21 "Drivers/STM32G0xx_HAL_Driver/Inc/stm32g0xx_ll_dma.h"
 623              		.file 22 "<built-in>"
ARM GAS  /tmp/ccMWeAOp.s 			page 17


DEFINED SYMBOLS
                            *ABS*:00000000 MC_Serial.cpp
     /tmp/ccMWeAOp.s:18     .text:00000000 $t
     /tmp/ccMWeAOp.s:23     .text:00000000 _ZL18handle_console_msgP12__DataPack_tP6SerialPv
     /tmp/ccMWeAOp.s:61     .text:00000018 $d
     /tmp/ccMWeAOp.s:596    .bss:00000000 sr_console
     /tmp/ccMWeAOp.s:65     .text:0000001c $t
     /tmp/ccMWeAOp.s:70     .text:0000001c _ZL17handle_logger_msgP12__DataPack_tP6SerialPv
     /tmp/ccMWeAOp.s:108    .text:00000034 $d
     /tmp/ccMWeAOp.s:113    .text._ZN6SerialC2Ev:00000000 $t
     /tmp/ccMWeAOp.s:119    .text._ZN6SerialC2Ev:00000000 _ZN6SerialC2Ev
     /tmp/ccMWeAOp.s:119    .text._ZN6SerialC2Ev:00000000 _ZN6SerialC1Ev
     /tmp/ccMWeAOp.s:174    .text:00000038 $t
     /tmp/ccMWeAOp.s:179    .text:00000038 _Z41__static_initialization_and_destruction_0v
     /tmp/ccMWeAOp.s:203    .text:00000048 $d
     /tmp/ccMWeAOp.s:600    .bss:0000009c sr_logger
     /tmp/ccMWeAOp.s:209    .rodata.str1.4:00000000 $d
     /tmp/ccMWeAOp.s:216    .text:00000050 $t
     /tmp/ccMWeAOp.s:222    .text:00000050 _ZN9MC_Serial4initEv
     /tmp/ccMWeAOp.s:268    .text:00000080 $d
     /tmp/ccMWeAOp.s:279    .text:000000a0 $t
     /tmp/ccMWeAOp.s:285    .text:000000a0 printf_
     /tmp/ccMWeAOp.s:405    .text:00000104 $d
     /tmp/ccMWeAOp.s:414    .text:00000108 $t
     /tmp/ccMWeAOp.s:420    .text:00000108 println
     /tmp/ccMWeAOp.s:559    .text:00000180 $d
     /tmp/ccMWeAOp.s:564    .text:00000188 $t
     /tmp/ccMWeAOp.s:569    .text:00000188 _GLOBAL__sub_I_sr_logger
     /tmp/ccMWeAOp.s:588    .init_array:00000000 $d
     /tmp/ccMWeAOp.s:593    .bss:00000000 $d
                           .group:00000000 _ZN6SerialC5Ev

UNDEFINED SYMBOLS
_ZN10CLI_Module14get_cli_moduleEP6Serial
_ZN10CLI_Module12receive_dataEPht
memset
_ZN6Serial17init_with_defaultEPKcP20__UART_HandleTypeDef
_ZN6Serial23register_rx_msg_handlerEPFvP12__DataPack_tPS_PvES3_
huart2
huart3
pvPortMalloc
vsnprintf_
_ZN6Serial9send_dataEPhtm
vTaskDelay
vPortFree
