ARM GAS  /tmp/ccfLJw5x.s 			page 1


   1              		.cpu cortex-m0plus
   2              		.arch armv6s-m
   3              		.fpu softvfp
   4              		.eabi_attribute 20, 1
   5              		.eabi_attribute 21, 1
   6              		.eabi_attribute 23, 3
   7              		.eabi_attribute 24, 1
   8              		.eabi_attribute 25, 1
   9              		.eabi_attribute 26, 1
  10              		.eabi_attribute 30, 1
  11              		.eabi_attribute 34, 0
  12              		.eabi_attribute 18, 4
  13              		.file	"My_CLI.cpp"
  14              		.text
  15              	.Ltext0:
  16              		.cfi_sections	.debug_frame
  17              		.file 1 "My_Top/System/My_CLI.cpp"
  18              		.section	.rodata.str1.4,"aMS",%progbits,1
  19              		.align	2
  20              	.LC0:
  21 0000 E590AFE5 		.ascii	"\345\220\257\345\212\250\347\224\265\346\234\272\015"
  21      8AA8E794 
  21      B5E69CBA 
  21      0D
  22 000d 0A00     		.ascii	"\012\000"
  23              		.text
  24              		.align	1
  25              		.global	_Z5startP11EmbeddedCliPcPv
  26              		.syntax unified
  27              		.code	16
  28              		.thumb_func
  30              	_Z5startP11EmbeddedCliPcPv:
  31              	.LVL0:
  32              	.LFB476:
   1:My_Top/System/My_CLI.cpp **** #include "My_CLI.hpp"
   2:My_Top/System/My_CLI.cpp **** 
   3:My_Top/System/My_CLI.cpp **** void start(EmbeddedCli *cli, char *args, void *context) //启动电机
   4:My_Top/System/My_CLI.cpp **** {
  33              		.loc 1 4 1 view -0
  34              		.cfi_startproc
  35              		@ args = 0, pretend = 0, frame = 40
  36              		@ frame_needed = 0, uses_anonymous_args = 0
  37              		.loc 1 4 1 is_stmt 0 view .LVU1
  38 0000 10B5     		push	{r4, lr}
  39              		.cfi_def_cfa_offset 8
  40              		.cfi_offset 4, -8
  41              		.cfi_offset 14, -4
  42 0002 8AB0     		sub	sp, sp, #40
  43              		.cfi_def_cfa_offset 48
  44 0004 0C00     		movs	r4, r1
   5:My_Top/System/My_CLI.cpp ****     // 获取CLI实例
   6:My_Top/System/My_CLI.cpp ****     CLI_Module *mc = CLI_Module::get_cli_module(cli);
  45              		.loc 1 6 5 is_stmt 1 view .LVU2
  46              		.loc 1 6 48 is_stmt 0 view .LVU3
  47 0006 FFF7FEFF 		bl	_ZN10CLI_Module14get_cli_moduleEP11EmbeddedCli
  48              	.LVL1:
   7:My_Top/System/My_CLI.cpp ****     if (mc == NULL) return;
ARM GAS  /tmp/ccfLJw5x.s 			page 2


  49              		.loc 1 7 5 is_stmt 1 view .LVU4
  50 000a 0028     		cmp	r0, #0
  51 000c 06D0     		beq	.L1
   8:My_Top/System/My_CLI.cpp **** 
   9:My_Top/System/My_CLI.cpp ****     // 解析参数
  10:My_Top/System/My_CLI.cpp ****     const char *arg_list[CLI_MODULE_MAX_ARGS_NUM]; //数据存放区 超限只保存前CLI_MODULE_M
  52              		.loc 1 10 5 view .LVU5
  11:My_Top/System/My_CLI.cpp ****     int argc = CLI_Module::init_arg_list(arg_list, args);
  53              		.loc 1 11 5 view .LVU6
  54              		.loc 1 11 41 is_stmt 0 view .LVU7
  55 000e 2100     		movs	r1, r4
  56 0010 6846     		mov	r0, sp
  57              	.LVL2:
  58              		.loc 1 11 41 view .LVU8
  59 0012 FFF7FEFF 		bl	_ZN10CLI_Module13init_arg_listEPPKcS1_
  60              	.LVL3:
  12:My_Top/System/My_CLI.cpp **** 
  13:My_Top/System/My_CLI.cpp ****     // Motor_M1.Set_Motor_EN(1); //启动电机
  14:My_Top/System/My_CLI.cpp ****     printf("启动电机\r\n");
  61              		.loc 1 14 5 is_stmt 1 view .LVU9
  62              		.loc 1 14 11 is_stmt 0 view .LVU10
  63 0016 0248     		ldr	r0, .L4
  64 0018 FFF7FEFF 		bl	printf_
  65              	.LVL4:
  66              	.L1:
  15:My_Top/System/My_CLI.cpp **** 
  16:My_Top/System/My_CLI.cpp **** }
  67              		.loc 1 16 1 view .LVU11
  68 001c 0AB0     		add	sp, sp, #40
  69              		@ sp needed
  70              	.LVL5:
  71              		.loc 1 16 1 view .LVU12
  72 001e 10BD     		pop	{r4, pc}
  73              	.L5:
  74              		.align	2
  75              	.L4:
  76 0020 00000000 		.word	.LC0
  77              		.cfi_endproc
  78              	.LFE476:
  80              		.section	.rodata.str1.4
  81 000f 00       		.align	2
  82              	.LC3:
  83 0010 E5819CE6 		.ascii	"\345\201\234\346\255\242\347\224\265\346\234\272\015"
  83      ADA2E794 
  83      B5E69CBA 
  83      0D
  84 001d 0A00     		.ascii	"\012\000"
  85              		.text
  86              		.align	1
  87              		.global	_Z4stopP11EmbeddedCliPcPv
  88              		.syntax unified
  89              		.code	16
  90              		.thumb_func
  92              	_Z4stopP11EmbeddedCliPcPv:
  93              	.LVL6:
  94              	.LFB477:
  17:My_Top/System/My_CLI.cpp **** 
ARM GAS  /tmp/ccfLJw5x.s 			page 3


  18:My_Top/System/My_CLI.cpp **** void stop(EmbeddedCli *cli, char *args, void *context) //停止电机
  19:My_Top/System/My_CLI.cpp **** {
  95              		.loc 1 19 1 is_stmt 1 view -0
  96              		.cfi_startproc
  97              		@ args = 0, pretend = 0, frame = 40
  98              		@ frame_needed = 0, uses_anonymous_args = 0
  99              		.loc 1 19 1 is_stmt 0 view .LVU14
 100 0024 10B5     		push	{r4, lr}
 101              		.cfi_def_cfa_offset 8
 102              		.cfi_offset 4, -8
 103              		.cfi_offset 14, -4
 104 0026 8AB0     		sub	sp, sp, #40
 105              		.cfi_def_cfa_offset 48
 106 0028 0C00     		movs	r4, r1
  20:My_Top/System/My_CLI.cpp ****     // 获取CLI实例
  21:My_Top/System/My_CLI.cpp ****     CLI_Module *mc = CLI_Module::get_cli_module(cli);
 107              		.loc 1 21 5 is_stmt 1 view .LVU15
 108              		.loc 1 21 48 is_stmt 0 view .LVU16
 109 002a FFF7FEFF 		bl	_ZN10CLI_Module14get_cli_moduleEP11EmbeddedCli
 110              	.LVL7:
  22:My_Top/System/My_CLI.cpp ****     if (mc == NULL) return;
 111              		.loc 1 22 5 is_stmt 1 view .LVU17
 112 002e 0028     		cmp	r0, #0
 113 0030 0AD0     		beq	.L6
  23:My_Top/System/My_CLI.cpp **** 
  24:My_Top/System/My_CLI.cpp ****     // 解析参数
  25:My_Top/System/My_CLI.cpp ****     const char *arg_list[CLI_MODULE_MAX_ARGS_NUM]; //数据存放区 超限只保存前CLI_MODULE_M
 114              		.loc 1 25 5 view .LVU18
  26:My_Top/System/My_CLI.cpp ****     int argc = CLI_Module::init_arg_list(arg_list, args);
 115              		.loc 1 26 5 view .LVU19
 116              		.loc 1 26 41 is_stmt 0 view .LVU20
 117 0032 2100     		movs	r1, r4
 118 0034 6846     		mov	r0, sp
 119              	.LVL8:
 120              		.loc 1 26 41 view .LVU21
 121 0036 FFF7FEFF 		bl	_ZN10CLI_Module13init_arg_listEPPKcS1_
 122              	.LVL9:
  27:My_Top/System/My_CLI.cpp ****     Motor_M1.Set_Motor_EN(0); //停止电机
 123              		.loc 1 27 5 is_stmt 1 view .LVU22
 124              		.loc 1 27 26 is_stmt 0 view .LVU23
 125 003a 0448     		ldr	r0, .L9
 126 003c 0021     		movs	r1, #0
 127 003e FFF7FEFF 		bl	_ZN10Step_Motor12Set_Motor_ENEb
 128              	.LVL10:
  28:My_Top/System/My_CLI.cpp ****     printf("停止电机\r\n");
 129              		.loc 1 28 5 is_stmt 1 view .LVU24
 130              		.loc 1 28 11 is_stmt 0 view .LVU25
 131 0042 0348     		ldr	r0, .L9+4
 132 0044 FFF7FEFF 		bl	printf_
 133              	.LVL11:
 134              	.L6:
  29:My_Top/System/My_CLI.cpp **** }
 135              		.loc 1 29 1 view .LVU26
 136 0048 0AB0     		add	sp, sp, #40
 137              		@ sp needed
 138              	.LVL12:
 139              		.loc 1 29 1 view .LVU27
ARM GAS  /tmp/ccfLJw5x.s 			page 4


 140 004a 10BD     		pop	{r4, pc}
 141              	.L10:
 142              		.align	2
 143              	.L9:
 144 004c 00000000 		.word	Motor_M1
 145 0050 10000000 		.word	.LC3
 146              		.cfi_endproc
 147              	.LFE477:
 149              		.section	.rodata.str1.4
 150 001f 00       		.align	2
 151              	.LC5:
 152 0020 E9A9B1E5 		.ascii	"\351\251\261\345\212\250\346\235\277\351\207\215\345"
 152      8AA8E69D 
 152      BFE9878D 
 152      E5
 153 002d 90AF0D0A 		.ascii	"\220\257\015\012\000"
 153      00
 154              		.text
 155              		.align	1
 156              		.global	_Z5resetP11EmbeddedCliPcPv
 157              		.syntax unified
 158              		.code	16
 159              		.thumb_func
 161              	_Z5resetP11EmbeddedCliPcPv:
 162              	.LVL13:
 163              	.LFB478:
  30:My_Top/System/My_CLI.cpp **** 
  31:My_Top/System/My_CLI.cpp **** 
  32:My_Top/System/My_CLI.cpp **** void reset(EmbeddedCli *cli, char *args, void *context) //驱动板重启
  33:My_Top/System/My_CLI.cpp **** {
 164              		.loc 1 33 1 is_stmt 1 view -0
 165              		.cfi_startproc
 166              		@ args = 0, pretend = 0, frame = 40
 167              		@ frame_needed = 0, uses_anonymous_args = 0
 168              		.loc 1 33 1 is_stmt 0 view .LVU29
 169 0054 10B5     		push	{r4, lr}
 170              		.cfi_def_cfa_offset 8
 171              		.cfi_offset 4, -8
 172              		.cfi_offset 14, -4
 173 0056 8AB0     		sub	sp, sp, #40
 174              		.cfi_def_cfa_offset 48
 175 0058 0C00     		movs	r4, r1
  34:My_Top/System/My_CLI.cpp ****     // 获取CLI实例
  35:My_Top/System/My_CLI.cpp ****     CLI_Module *mc = CLI_Module::get_cli_module(cli);
 176              		.loc 1 35 5 is_stmt 1 view .LVU30
 177              		.loc 1 35 48 is_stmt 0 view .LVU31
 178 005a FFF7FEFF 		bl	_ZN10CLI_Module14get_cli_moduleEP11EmbeddedCli
 179              	.LVL14:
  36:My_Top/System/My_CLI.cpp ****     if (mc == NULL) return;
 180              		.loc 1 36 5 is_stmt 1 view .LVU32
 181 005e 0028     		cmp	r0, #0
 182 0060 08D0     		beq	.L11
  37:My_Top/System/My_CLI.cpp **** 
  38:My_Top/System/My_CLI.cpp ****     // 解析参数
  39:My_Top/System/My_CLI.cpp ****     const char *arg_list[CLI_MODULE_MAX_ARGS_NUM]; //数据存放区 超限只保存前CLI_MODULE_M
 183              		.loc 1 39 5 view .LVU33
  40:My_Top/System/My_CLI.cpp ****     int argc = CLI_Module::init_arg_list(arg_list, args);
ARM GAS  /tmp/ccfLJw5x.s 			page 5


 184              		.loc 1 40 5 view .LVU34
 185              		.loc 1 40 41 is_stmt 0 view .LVU35
 186 0062 2100     		movs	r1, r4
 187 0064 6846     		mov	r0, sp
 188              	.LVL15:
 189              		.loc 1 40 41 view .LVU36
 190 0066 FFF7FEFF 		bl	_ZN10CLI_Module13init_arg_listEPPKcS1_
 191              	.LVL16:
  41:My_Top/System/My_CLI.cpp **** 
  42:My_Top/System/My_CLI.cpp ****     HAL_NVIC_SystemReset();//复位芯片
 192              		.loc 1 42 5 is_stmt 1 view .LVU37
 193              		.loc 1 42 25 is_stmt 0 view .LVU38
 194 006a FFF7FEFF 		bl	HAL_NVIC_SystemReset
 195              	.LVL17:
  43:My_Top/System/My_CLI.cpp ****     printf("驱动板重启\r\n");
 196              		.loc 1 43 5 is_stmt 1 view .LVU39
 197              		.loc 1 43 11 is_stmt 0 view .LVU40
 198 006e 0248     		ldr	r0, .L14
 199 0070 FFF7FEFF 		bl	printf_
 200              	.LVL18:
 201              	.L11:
  44:My_Top/System/My_CLI.cpp **** 
  45:My_Top/System/My_CLI.cpp **** }
 202              		.loc 1 45 1 view .LVU41
 203 0074 0AB0     		add	sp, sp, #40
 204              		@ sp needed
 205              	.LVL19:
 206              		.loc 1 45 1 view .LVU42
 207 0076 10BD     		pop	{r4, pc}
 208              	.L15:
 209              		.align	2
 210              	.L14:
 211 0078 20000000 		.word	.LC5
 212              		.cfi_endproc
 213              	.LFE478:
 215              		.section	.rodata.str1.4
 216 0032 0000     		.align	2
 217              	.LC7:
 218 0034 E58F82E6 		.ascii	"\345\217\202\346\225\260\344\270\252\346\225\260\351"
 218      95B0E4B8 
 218      AAE695B0 
 218      E9
 219 0041 9499E8AF 		.ascii	"\224\231\350\257\257\015\012\000"
 219      AF0D0A00 
 220 0049 000000   		.align	2
 221              	.LC9:
 222 004c E58F82E6 		.ascii	"\345\217\202\346\225\260\346\240\274\345\274\217\351"
 222      95B0E6A0 
 222      BCE5BC8F 
 222      E9
 223 0059 9499E8AF 		.ascii	"\224\231\350\257\257\015\012\000"
 223      AF0D0A00 
 224 0061 000000   		.align	2
 225              	.LC12:
 226 0064 E794B5E6 		.ascii	"\347\224\265\346\234\272\346\255\243\345\217\215\350"
 226      9CBAE6AD 
 226      A3E58F8D 
ARM GAS  /tmp/ccfLJw5x.s 			page 6


 226      E8
 227 0071 BDACE696 		.ascii	"\275\254\346\226\271\345\220\221\350\256\276\347\275"
 227      B9E59091 
 227      E8AEBEE7 
 227      BD
 228 007e AE25640D 		.ascii	"\256%d\015\012\000"
 228      0A00
 229              		.text
 230              		.align	1
 231              		.global	_Z7set_dirP11EmbeddedCliPcPv
 232              		.syntax unified
 233              		.code	16
 234              		.thumb_func
 236              	_Z7set_dirP11EmbeddedCliPcPv:
 237              	.LVL20:
 238              	.LFB479:
  46:My_Top/System/My_CLI.cpp **** 
  47:My_Top/System/My_CLI.cpp **** void set_dir(EmbeddedCli *cli, char *args, void *context) //设置电机正反转方向
  48:My_Top/System/My_CLI.cpp **** {
 239              		.loc 1 48 1 is_stmt 1 view -0
 240              		.cfi_startproc
 241              		@ args = 0, pretend = 0, frame = 48
 242              		@ frame_needed = 0, uses_anonymous_args = 0
 243              		.loc 1 48 1 is_stmt 0 view .LVU44
 244 007c 30B5     		push	{r4, r5, lr}
 245              		.cfi_def_cfa_offset 12
 246              		.cfi_offset 4, -12
 247              		.cfi_offset 5, -8
 248              		.cfi_offset 14, -4
 249 007e 8DB0     		sub	sp, sp, #52
 250              		.cfi_def_cfa_offset 64
 251 0080 0C00     		movs	r4, r1
  49:My_Top/System/My_CLI.cpp ****     char *end;
 252              		.loc 1 49 5 is_stmt 1 view .LVU45
  50:My_Top/System/My_CLI.cpp ****     // 获取CLI实例
  51:My_Top/System/My_CLI.cpp ****     CLI_Module *mc = CLI_Module::get_cli_module(cli);
 253              		.loc 1 51 5 view .LVU46
 254              		.loc 1 51 48 is_stmt 0 view .LVU47
 255 0082 FFF7FEFF 		bl	_ZN10CLI_Module14get_cli_moduleEP11EmbeddedCli
 256              	.LVL21:
  52:My_Top/System/My_CLI.cpp ****     if (mc == NULL) return;
 257              		.loc 1 52 5 is_stmt 1 view .LVU48
 258 0086 0028     		cmp	r0, #0
 259 0088 15D0     		beq	.L16
  53:My_Top/System/My_CLI.cpp ****     // 解析参数
  54:My_Top/System/My_CLI.cpp ****     const char *arg_list[CLI_MODULE_MAX_ARGS_NUM]; //数据存放区 超限只保存前CLI_MODULE_M
 260              		.loc 1 54 5 view .LVU49
  55:My_Top/System/My_CLI.cpp ****     int argc = CLI_Module::init_arg_list(arg_list, args);
 261              		.loc 1 55 5 view .LVU50
 262              		.loc 1 55 41 is_stmt 0 view .LVU51
 263 008a 2100     		movs	r1, r4
 264 008c 01A8     		add	r0, sp, #4
 265              	.LVL22:
 266              		.loc 1 55 41 view .LVU52
 267 008e FFF7FEFF 		bl	_ZN10CLI_Module13init_arg_listEPPKcS1_
 268              	.LVL23:
  56:My_Top/System/My_CLI.cpp ****     if (argc <= 0) { //argc是除了定义头后 字符串的个数
ARM GAS  /tmp/ccfLJw5x.s 			page 7


 269              		.loc 1 56 5 is_stmt 1 view .LVU53
 270 0092 0028     		cmp	r0, #0
 271 0094 11DD     		ble	.L22
  57:My_Top/System/My_CLI.cpp ****         printf("参数个数错误\r\n");
  58:My_Top/System/My_CLI.cpp ****         return;
  59:My_Top/System/My_CLI.cpp ****     }
  60:My_Top/System/My_CLI.cpp ****     uint8_t temp = strtof(arg_list[1], &end); //将字符串转换为浮点数
 272              		.loc 1 60 5 view .LVU54
 273              		.loc 1 60 26 is_stmt 0 view .LVU55
 274 0096 0298     		ldr	r0, [sp, #8]
 275              	.LVL24:
 276              		.loc 1 60 26 view .LVU56
 277 0098 0BA9     		add	r1, sp, #44
 278 009a FFF7FEFF 		bl	strtof
 279              	.LVL25:
 280              		.loc 1 60 44 discriminator 1 view .LVU57
 281 009e FFF7FEFF 		bl	__aeabi_f2uiz
 282              	.LVL26:
 283 00a2 C4B2     		uxtb	r4, r0
 284              	.LVL27:
  61:My_Top/System/My_CLI.cpp ****     if(end == arg_list[1] || (temp != 0 && temp != 1)) 
 285              		.loc 1 61 5 is_stmt 1 view .LVU58
 286              		.loc 1 61 25 is_stmt 0 view .LVU59
 287 00a4 029A     		ldr	r2, [sp, #8]
 288              		.loc 1 61 8 view .LVU60
 289 00a6 0B9B     		ldr	r3, [sp, #44]
 290              		.loc 1 61 5 view .LVU61
 291 00a8 9A42     		cmp	r2, r3
 292 00aa 01D0     		beq	.L19
 293              		.loc 1 61 27 discriminator 1 view .LVU62
 294 00ac 012C     		cmp	r4, #1
 295 00ae 08D9     		bls	.L20
 296              	.L19:
  62:My_Top/System/My_CLI.cpp ****     {
  63:My_Top/System/My_CLI.cpp ****         printf("参数格式错误\r\n");
 297              		.loc 1 63 9 is_stmt 1 view .LVU63
 298              		.loc 1 63 15 is_stmt 0 view .LVU64
 299 00b0 0A48     		ldr	r0, .L23
 300 00b2 FFF7FEFF 		bl	printf_
 301              	.LVL28:
  64:My_Top/System/My_CLI.cpp ****         return;
 302              		.loc 1 64 9 is_stmt 1 view .LVU65
 303              	.L16:
  65:My_Top/System/My_CLI.cpp ****     }
  66:My_Top/System/My_CLI.cpp ****     Motor_M1.Set_Motor_DTR(temp); //设置电机正反转方向
  67:My_Top/System/My_CLI.cpp ****     printf("电机正反转方向设置%d\r\n",temp);
  68:My_Top/System/My_CLI.cpp **** }
 304              		.loc 1 68 1 is_stmt 0 view .LVU66
 305 00b6 0DB0     		add	sp, sp, #52
 306              		@ sp needed
 307 00b8 30BD     		pop	{r4, r5, pc}
 308              	.LVL29:
 309              	.L22:
  57:My_Top/System/My_CLI.cpp ****         return;
 310              		.loc 1 57 9 is_stmt 1 view .LVU67
  57:My_Top/System/My_CLI.cpp ****         return;
 311              		.loc 1 57 15 is_stmt 0 view .LVU68
ARM GAS  /tmp/ccfLJw5x.s 			page 8


 312 00ba 0948     		ldr	r0, .L23+4
 313              	.LVL30:
  57:My_Top/System/My_CLI.cpp ****         return;
 314              		.loc 1 57 15 view .LVU69
 315 00bc FFF7FEFF 		bl	printf_
 316              	.LVL31:
  58:My_Top/System/My_CLI.cpp ****     }
 317              		.loc 1 58 9 is_stmt 1 view .LVU70
 318 00c0 F9E7     		b	.L16
 319              	.LVL32:
 320              	.L20:
  66:My_Top/System/My_CLI.cpp ****     printf("电机正反转方向设置%d\r\n",temp);
 321              		.loc 1 66 5 view .LVU71
  66:My_Top/System/My_CLI.cpp ****     printf("电机正反转方向设置%d\r\n",temp);
 322              		.loc 1 66 27 is_stmt 0 view .LVU72
 323 00c2 2100     		movs	r1, r4
 324 00c4 4B1E     		subs	r3, r1, #1
 325 00c6 9941     		sbcs	r1, r1, r3
 326 00c8 C9B2     		uxtb	r1, r1
 327 00ca 0648     		ldr	r0, .L23+8
 328 00cc FFF7FEFF 		bl	_ZN10Step_Motor13Set_Motor_DTREb
 329              	.LVL33:
  67:My_Top/System/My_CLI.cpp **** }
 330              		.loc 1 67 5 is_stmt 1 view .LVU73
  67:My_Top/System/My_CLI.cpp **** }
 331              		.loc 1 67 11 is_stmt 0 view .LVU74
 332 00d0 0548     		ldr	r0, .L23+12
 333 00d2 2100     		movs	r1, r4
 334 00d4 FFF7FEFF 		bl	printf_
 335              	.LVL34:
 336 00d8 EDE7     		b	.L16
 337              	.L24:
 338 00da C046     		.align	2
 339              	.L23:
 340 00dc 4C000000 		.word	.LC9
 341 00e0 34000000 		.word	.LC7
 342 00e4 00000000 		.word	Motor_M1
 343 00e8 64000000 		.word	.LC12
 344              		.cfi_endproc
 345              	.LFE479:
 347              		.section	.rodata.str1.4
 348              		.align	2
 349              	.LC17:
 350 0084 E794B5E6 		.ascii	"\347\224\265\346\234\272\351\242\221\347\216\207\350"
 350      9CBAE9A2 
 350      91E78E87 
 350      E8
 351 0091 AEBEE7BD 		.ascii	"\256\276\347\275\256%.2fhz\015\012\000"
 351      AE252E32 
 351      66687A0D 
 351      0A00
 352              		.text
 353              		.align	1
 354              		.global	_Z7set_freP11EmbeddedCliPcPv
 355              		.syntax unified
 356              		.code	16
 357              		.thumb_func
ARM GAS  /tmp/ccfLJw5x.s 			page 9


 359              	_Z7set_freP11EmbeddedCliPcPv:
 360              	.LVL35:
 361              	.LFB480:
  69:My_Top/System/My_CLI.cpp **** 
  70:My_Top/System/My_CLI.cpp **** 
  71:My_Top/System/My_CLI.cpp **** void set_fre(EmbeddedCli *cli, char *args, void *context) //设置电机频率 单位 Hz
  72:My_Top/System/My_CLI.cpp **** {
 362              		.loc 1 72 1 is_stmt 1 view -0
 363              		.cfi_startproc
 364              		@ args = 0, pretend = 0, frame = 48
 365              		@ frame_needed = 0, uses_anonymous_args = 0
 366              		.loc 1 72 1 is_stmt 0 view .LVU76
 367 00ec 30B5     		push	{r4, r5, lr}
 368              		.cfi_def_cfa_offset 12
 369              		.cfi_offset 4, -12
 370              		.cfi_offset 5, -8
 371              		.cfi_offset 14, -4
 372 00ee 8DB0     		sub	sp, sp, #52
 373              		.cfi_def_cfa_offset 64
 374 00f0 0C00     		movs	r4, r1
  73:My_Top/System/My_CLI.cpp ****     char *end;
 375              		.loc 1 73 5 is_stmt 1 view .LVU77
  74:My_Top/System/My_CLI.cpp ****     // 获取CLI实例
  75:My_Top/System/My_CLI.cpp ****     CLI_Module *mc = CLI_Module::get_cli_module(cli);
 376              		.loc 1 75 5 view .LVU78
 377              		.loc 1 75 48 is_stmt 0 view .LVU79
 378 00f2 FFF7FEFF 		bl	_ZN10CLI_Module14get_cli_moduleEP11EmbeddedCli
 379              	.LVL36:
  76:My_Top/System/My_CLI.cpp ****     if (mc == NULL) return;
 380              		.loc 1 76 5 is_stmt 1 view .LVU80
 381 00f6 0028     		cmp	r0, #0
 382 00f8 1AD0     		beq	.L25
  77:My_Top/System/My_CLI.cpp ****     // 解析参数
  78:My_Top/System/My_CLI.cpp ****     const char *arg_list[CLI_MODULE_MAX_ARGS_NUM]; //数据存放区 超限只保存前CLI_MODULE_M
 383              		.loc 1 78 5 view .LVU81
  79:My_Top/System/My_CLI.cpp ****     int argc = CLI_Module::init_arg_list(arg_list, args);
 384              		.loc 1 79 5 view .LVU82
 385              		.loc 1 79 41 is_stmt 0 view .LVU83
 386 00fa 2100     		movs	r1, r4
 387 00fc 01A8     		add	r0, sp, #4
 388              	.LVL37:
 389              		.loc 1 79 41 view .LVU84
 390 00fe FFF7FEFF 		bl	_ZN10CLI_Module13init_arg_listEPPKcS1_
 391              	.LVL38:
  80:My_Top/System/My_CLI.cpp ****     if (argc <= 0) { //argc是除了定义头后 字符串的个数
 392              		.loc 1 80 5 is_stmt 1 view .LVU85
 393 0102 0028     		cmp	r0, #0
 394 0104 16DD     		ble	.L30
  81:My_Top/System/My_CLI.cpp ****         printf("参数个数错误\r\n");
  82:My_Top/System/My_CLI.cpp ****         return;
  83:My_Top/System/My_CLI.cpp ****     }
  84:My_Top/System/My_CLI.cpp ****     float temp = strtof(arg_list[1], &end); //将字符串转换为浮点数
 395              		.loc 1 84 5 view .LVU86
 396              		.loc 1 84 24 is_stmt 0 view .LVU87
 397 0106 0298     		ldr	r0, [sp, #8]
 398              	.LVL39:
 399              		.loc 1 84 24 view .LVU88
ARM GAS  /tmp/ccfLJw5x.s 			page 10


 400 0108 0BA9     		add	r1, sp, #44
 401 010a FFF7FEFF 		bl	strtof
 402              	.LVL40:
 403 010e 041C     		adds	r4, r0, #0
 404              	.LVL41:
  85:My_Top/System/My_CLI.cpp ****     if(end == arg_list[1]) 
 405              		.loc 1 85 5 is_stmt 1 view .LVU89
 406              		.loc 1 85 25 is_stmt 0 view .LVU90
 407 0110 029A     		ldr	r2, [sp, #8]
 408              		.loc 1 85 8 view .LVU91
 409 0112 0B9B     		ldr	r3, [sp, #44]
 410              		.loc 1 85 5 view .LVU92
 411 0114 9A42     		cmp	r2, r3
 412 0116 11D0     		beq	.L31
  86:My_Top/System/My_CLI.cpp ****     {
  87:My_Top/System/My_CLI.cpp ****         printf("参数格式错误\r\n");
  88:My_Top/System/My_CLI.cpp ****         return;
  89:My_Top/System/My_CLI.cpp ****     }
  90:My_Top/System/My_CLI.cpp ****     Motor_M1.Set_Motor_Frequency(temp); //设置电机频率
 413              		.loc 1 90 5 is_stmt 1 view .LVU93
 414              		.loc 1 90 33 is_stmt 0 view .LVU94
 415 0118 0A48     		ldr	r0, .L32
 416              	.LVL42:
 417              		.loc 1 90 33 view .LVU95
 418 011a 211C     		adds	r1, r4, #0
 419 011c FFF7FEFF 		bl	_ZN10Step_Motor19Set_Motor_FrequencyEf
 420              	.LVL43:
  91:My_Top/System/My_CLI.cpp ****     printf("电机频率设置%.2fhz\r\n",temp);
 421              		.loc 1 91 5 is_stmt 1 view .LVU96
 422              		.loc 1 91 11 is_stmt 0 view .LVU97
 423 0120 201C     		adds	r0, r4, #0
 424 0122 FFF7FEFF 		bl	__aeabi_f2d
 425              	.LVL44:
 426 0126 0200     		movs	r2, r0
 427 0128 0B00     		movs	r3, r1
 428 012a 0748     		ldr	r0, .L32+4
 429 012c FFF7FEFF 		bl	printf_
 430              	.LVL45:
 431              	.L25:
  92:My_Top/System/My_CLI.cpp **** }
 432              		.loc 1 92 1 view .LVU98
 433 0130 0DB0     		add	sp, sp, #52
 434              		@ sp needed
 435 0132 30BD     		pop	{r4, r5, pc}
 436              	.LVL46:
 437              	.L30:
  81:My_Top/System/My_CLI.cpp ****         return;
 438              		.loc 1 81 9 is_stmt 1 view .LVU99
  81:My_Top/System/My_CLI.cpp ****         return;
 439              		.loc 1 81 15 is_stmt 0 view .LVU100
 440 0134 0548     		ldr	r0, .L32+8
 441              	.LVL47:
  81:My_Top/System/My_CLI.cpp ****         return;
 442              		.loc 1 81 15 view .LVU101
 443 0136 FFF7FEFF 		bl	printf_
 444              	.LVL48:
  82:My_Top/System/My_CLI.cpp ****     }
ARM GAS  /tmp/ccfLJw5x.s 			page 11


 445              		.loc 1 82 9 is_stmt 1 view .LVU102
 446 013a F9E7     		b	.L25
 447              	.LVL49:
 448              	.L31:
  87:My_Top/System/My_CLI.cpp ****         return;
 449              		.loc 1 87 9 view .LVU103
  87:My_Top/System/My_CLI.cpp ****         return;
 450              		.loc 1 87 15 is_stmt 0 view .LVU104
 451 013c 0448     		ldr	r0, .L32+12
 452              	.LVL50:
  87:My_Top/System/My_CLI.cpp ****         return;
 453              		.loc 1 87 15 view .LVU105
 454 013e FFF7FEFF 		bl	printf_
 455              	.LVL51:
  88:My_Top/System/My_CLI.cpp ****     }
 456              		.loc 1 88 9 is_stmt 1 view .LVU106
 457 0142 F5E7     		b	.L25
 458              	.L33:
 459              		.align	2
 460              	.L32:
 461 0144 00000000 		.word	Motor_M1
 462 0148 84000000 		.word	.LC17
 463 014c 34000000 		.word	.LC7
 464 0150 4C000000 		.word	.LC9
 465              		.cfi_endproc
 466              	.LFE480:
 468              		.section	.rodata.str1.4
 469 009f 00       		.align	2
 470              	.LC21:
 471 00a0 E794B5E6 		.ascii	"\347\224\265\346\234\272\345\215\240\347\251\272\346"
 471      9CBAE58D 
 471      A0E7A9BA 
 471      E6
 472 00ad AF94E8AE 		.ascii	"\257\224\350\256\276\347\275\256%.2f\015\012\000"
 472      BEE7BDAE 
 472      252E3266 
 472      0D0A00
 473              		.text
 474              		.align	1
 475              		.global	_Z8set_dutyP11EmbeddedCliPcPv
 476              		.syntax unified
 477              		.code	16
 478              		.thumb_func
 480              	_Z8set_dutyP11EmbeddedCliPcPv:
 481              	.LVL52:
 482              	.LFB481:
  93:My_Top/System/My_CLI.cpp **** 
  94:My_Top/System/My_CLI.cpp **** void set_duty(EmbeddedCli *cli, char *args, void *context) //设置电机占空比0-1
  95:My_Top/System/My_CLI.cpp **** {
 483              		.loc 1 95 1 view -0
 484              		.cfi_startproc
 485              		@ args = 0, pretend = 0, frame = 48
 486              		@ frame_needed = 0, uses_anonymous_args = 0
 487              		.loc 1 95 1 is_stmt 0 view .LVU108
 488 0154 10B5     		push	{r4, lr}
 489              		.cfi_def_cfa_offset 8
 490              		.cfi_offset 4, -8
ARM GAS  /tmp/ccfLJw5x.s 			page 12


 491              		.cfi_offset 14, -4
 492 0156 8CB0     		sub	sp, sp, #48
 493              		.cfi_def_cfa_offset 56
 494 0158 0C00     		movs	r4, r1
  96:My_Top/System/My_CLI.cpp ****     char *end;
 495              		.loc 1 96 5 is_stmt 1 view .LVU109
  97:My_Top/System/My_CLI.cpp ****     // 获取CLI实例
  98:My_Top/System/My_CLI.cpp ****     CLI_Module *mc = CLI_Module::get_cli_module(cli);
 496              		.loc 1 98 5 view .LVU110
 497              		.loc 1 98 48 is_stmt 0 view .LVU111
 498 015a FFF7FEFF 		bl	_ZN10CLI_Module14get_cli_moduleEP11EmbeddedCli
 499              	.LVL53:
  99:My_Top/System/My_CLI.cpp ****     if (mc == NULL) return;
 500              		.loc 1 99 5 is_stmt 1 view .LVU112
 501 015e 0028     		cmp	r0, #0
 502 0160 14D0     		beq	.L34
 100:My_Top/System/My_CLI.cpp ****     // 解析参数
 101:My_Top/System/My_CLI.cpp ****     const char *arg_list[CLI_MODULE_MAX_ARGS_NUM]; //数据存放区 超限只保存前CLI_MODULE_M
 503              		.loc 1 101 5 view .LVU113
 102:My_Top/System/My_CLI.cpp ****     int argc = CLI_Module::init_arg_list(arg_list, args);
 504              		.loc 1 102 5 view .LVU114
 505              		.loc 1 102 41 is_stmt 0 view .LVU115
 506 0162 2100     		movs	r1, r4
 507 0164 01A8     		add	r0, sp, #4
 508              	.LVL54:
 509              		.loc 1 102 41 view .LVU116
 510 0166 FFF7FEFF 		bl	_ZN10CLI_Module13init_arg_listEPPKcS1_
 511              	.LVL55:
 103:My_Top/System/My_CLI.cpp ****     if (argc <= 0) { //argc是除了定义头后 字符串的个数
 512              		.loc 1 103 5 is_stmt 1 view .LVU117
 513 016a 0028     		cmp	r0, #0
 514 016c 10DD     		ble	.L39
 104:My_Top/System/My_CLI.cpp ****         printf("参数个数错误\r\n");
 105:My_Top/System/My_CLI.cpp ****         return;
 106:My_Top/System/My_CLI.cpp ****     }
 107:My_Top/System/My_CLI.cpp ****     float temp = strtof(arg_list[1], &end); //将字符串转换为浮点数
 515              		.loc 1 107 5 view .LVU118
 516              		.loc 1 107 24 is_stmt 0 view .LVU119
 517 016e 0298     		ldr	r0, [sp, #8]
 518              	.LVL56:
 519              		.loc 1 107 24 view .LVU120
 520 0170 0BA9     		add	r1, sp, #44
 521 0172 FFF7FEFF 		bl	strtof
 522              	.LVL57:
 108:My_Top/System/My_CLI.cpp ****     if(end == arg_list[1]) 
 523              		.loc 1 108 5 is_stmt 1 view .LVU121
 524              		.loc 1 108 25 is_stmt 0 view .LVU122
 525 0176 029A     		ldr	r2, [sp, #8]
 526              		.loc 1 108 8 view .LVU123
 527 0178 0B9B     		ldr	r3, [sp, #44]
 528              		.loc 1 108 5 view .LVU124
 529 017a 9A42     		cmp	r2, r3
 530 017c 0CD0     		beq	.L40
 109:My_Top/System/My_CLI.cpp ****     {
 110:My_Top/System/My_CLI.cpp ****         printf("参数格式错误\r\n");
 111:My_Top/System/My_CLI.cpp ****         return;
 112:My_Top/System/My_CLI.cpp ****     }
ARM GAS  /tmp/ccfLJw5x.s 			page 13


 113:My_Top/System/My_CLI.cpp ****     // Motor_M1.Set_Motor_DutyCycle(temp); //设置电机占空比
 114:My_Top/System/My_CLI.cpp ****     printf("电机占空比设置%.2f\r\n",temp);
 531              		.loc 1 114 5 is_stmt 1 view .LVU125
 532              		.loc 1 114 11 is_stmt 0 view .LVU126
 533 017e FFF7FEFF 		bl	__aeabi_f2d
 534              	.LVL58:
 535              		.loc 1 114 11 view .LVU127
 536 0182 0200     		movs	r2, r0
 537 0184 0B00     		movs	r3, r1
 538 0186 0648     		ldr	r0, .L41
 539 0188 FFF7FEFF 		bl	printf_
 540              	.LVL59:
 541              	.L34:
 115:My_Top/System/My_CLI.cpp **** }
 542              		.loc 1 115 1 view .LVU128
 543 018c 0CB0     		add	sp, sp, #48
 544              		@ sp needed
 545              	.LVL60:
 546              		.loc 1 115 1 view .LVU129
 547 018e 10BD     		pop	{r4, pc}
 548              	.LVL61:
 549              	.L39:
 104:My_Top/System/My_CLI.cpp ****         return;
 550              		.loc 1 104 9 is_stmt 1 view .LVU130
 104:My_Top/System/My_CLI.cpp ****         return;
 551              		.loc 1 104 15 is_stmt 0 view .LVU131
 552 0190 0448     		ldr	r0, .L41+4
 553              	.LVL62:
 104:My_Top/System/My_CLI.cpp ****         return;
 554              		.loc 1 104 15 view .LVU132
 555 0192 FFF7FEFF 		bl	printf_
 556              	.LVL63:
 105:My_Top/System/My_CLI.cpp ****     }
 557              		.loc 1 105 9 is_stmt 1 view .LVU133
 558 0196 F9E7     		b	.L34
 559              	.LVL64:
 560              	.L40:
 110:My_Top/System/My_CLI.cpp ****         return;
 561              		.loc 1 110 9 view .LVU134
 110:My_Top/System/My_CLI.cpp ****         return;
 562              		.loc 1 110 15 is_stmt 0 view .LVU135
 563 0198 0348     		ldr	r0, .L41+8
 564              	.LVL65:
 110:My_Top/System/My_CLI.cpp ****         return;
 565              		.loc 1 110 15 view .LVU136
 566 019a FFF7FEFF 		bl	printf_
 567              	.LVL66:
 111:My_Top/System/My_CLI.cpp ****     }
 568              		.loc 1 111 9 is_stmt 1 view .LVU137
 569 019e F5E7     		b	.L34
 570              	.L42:
 571              		.align	2
 572              	.L41:
 573 01a0 A0000000 		.word	.LC21
 574 01a4 34000000 		.word	.LC7
 575 01a8 4C000000 		.word	.LC9
 576              		.cfi_endproc
ARM GAS  /tmp/ccfLJw5x.s 			page 14


 577              	.LFE481:
 579              	.Letext0:
 580              		.file 2 "/opt/arm-gnu-toolchain-14.2/lib/gcc/arm-none-eabi/14.2.1/include/stddef.h"
 581              		.file 3 "/opt/arm-gnu-toolchain-14.2/arm-none-eabi/include/machine/_default_types.h"
 582              		.file 4 "/opt/arm-gnu-toolchain-14.2/arm-none-eabi/include/sys/_stdint.h"
 583              		.file 5 "Middlewares/Third_Party/FreeRTOS/Source/include/task.h"
 584              		.file 6 "/opt/arm-gnu-toolchain-14.2/arm-none-eabi/include/stdlib.h"
 585              		.file 7 "/opt/arm-gnu-toolchain-14.2/arm-none-eabi/include/c++/14.2.1/cstdlib"
 586              		.file 8 "Middlewares/Third_Party/FreeRTOS/Source/include/queue.h"
 587              		.file 9 "Middlewares/Third_Party/FreeRTOS/Source/include/semphr.h"
 588              		.file 10 "Drivers/CMSIS/Device/ST/STM32G0xx/Include/stm32g071xx.h"
 589              		.file 11 "Drivers/STM32G0xx_HAL_Driver/Inc/stm32g0xx_hal_def.h"
 590              		.file 12 "Drivers/STM32G0xx_HAL_Driver/Inc/stm32g0xx_hal_dma.h"
 591              		.file 13 "Drivers/STM32G0xx_HAL_Driver/Inc/stm32g0xx_hal_tim.h"
 592              		.file 14 "Drivers/STM32G0xx_HAL_Driver/Inc/stm32g0xx_hal_uart.h"
 593              		.file 15 "Lib/serial/serial.hpp"
 594              		.file 16 "Lib/embedded-cli/embedded_cli.h"
 595              		.file 17 "My_Top/Modules/CLI_Module.hpp"
 596              		.file 18 "My_Top/Step_Motor/Step.hpp"
 597              		.file 19 "Lib/serial/printf.h"
 598              		.file 20 "Drivers/STM32G0xx_HAL_Driver/Inc/stm32g0xx_ll_dma.h"
 599              		.file 21 "/opt/arm-gnu-toolchain-14.2/arm-none-eabi/include/c++/14.2.1/arm-none-eabi/thumb/v6-m/no
 600              		.file 22 "Drivers/STM32G0xx_HAL_Driver/Inc/stm32g0xx_hal_cortex.h"
ARM GAS  /tmp/ccfLJw5x.s 			page 15

