ARM GAS  /tmp/ccual967.s 			page 1


   1              		.cpu cortex-m0plus
   2              		.arch armv6s-m
   3              		.fpu softvfp
   4              		.eabi_attribute 20, 1
   5              		.eabi_attribute 21, 1
   6              		.eabi_attribute 23, 3
   7              		.eabi_attribute 24, 1
   8              		.eabi_attribute 25, 1
   9              		.eabi_attribute 26, 1
  10              		.eabi_attribute 30, 1
  11              		.eabi_attribute 34, 0
  12              		.eabi_attribute 18, 4
  13              		.file	"my_tim.cpp"
  14              		.text
  15              	.Ltext0:
  16              		.cfi_sections	.debug_frame
  17              		.file 1 "My_Top/Step_Motor/my_tim.cpp"
  18              		.align	1
  19              		.global	_Z15My_Tim_CallbackP19__TIM_HandleTypeDef
  20              		.syntax unified
  21              		.code	16
  22              		.thumb_func
  24              	_Z15My_Tim_CallbackP19__TIM_HandleTypeDef:
  25              	.LVL0:
  26              	.LFB1466:
   1:My_Top/Step_Motor/my_tim.cpp **** #include "my_tim.hpp"
   2:My_Top/Step_Motor/my_tim.cpp **** 
   3:My_Top/Step_Motor/my_tim.cpp **** 
   4:My_Top/Step_Motor/my_tim.cpp **** 
   5:My_Top/Step_Motor/my_tim.cpp **** /**
   6:My_Top/Step_Motor/my_tim.cpp ****  * @brief е®ҡж—¶еҷЁеӣһи°ғеҮҪж•°пјҢз”ЁдәҺжү§иЎҢFOCпјҲзЈҒеңәе®ҡеҗ‘жҺ§еҲ¶пјүзӣёе…ід»»еҠЎ
   7:My_Top/Step_Motor/my_tim.cpp ****  * @param htim е®ҡж—¶еҷЁеҸҘжҹ„жҢҮй’ҲпјҢеҢ…еҗ«е®ҡж—¶еҷЁзӣёе…ідҝЎжҒҜ
   8:My_Top/Step_Motor/my_tim.cpp ****  */
   9:My_Top/Step_Motor/my_tim.cpp **** void My_Tim_Callback(TIM_HandleTypeDef *htim)
  10:My_Top/Step_Motor/my_tim.cpp **** {
  27              		.loc 1 10 1 view -0
  28              		.cfi_startproc
  29              		@ args = 0, pretend = 0, frame = 0
  30              		@ frame_needed = 0, uses_anonymous_args = 0
  31              		.loc 1 10 1 is_stmt 0 view .LVU1
  32 0000 F8B5     		push	{r3, r4, r5, r6, r7, lr}
  33              		.cfi_def_cfa_offset 24
  34              		.cfi_offset 3, -24
  35              		.cfi_offset 4, -20
  36              		.cfi_offset 5, -16
  37              		.cfi_offset 6, -12
  38              		.cfi_offset 7, -8
  39              		.cfi_offset 14, -4
  11:My_Top/Step_Motor/my_tim.cpp ****     static uint32_t start_time, end_time = 0;//жұӮи®Ўз®—ж—¶й—ҙ
  40              		.loc 1 11 5 is_stmt 1 view .LVU2
  12:My_Top/Step_Motor/my_tim.cpp **** 
  13:My_Top/Step_Motor/my_tim.cpp ****     static uint32_t last_time = 0;//жұӮдёӯж–ӯй—ҙйҡ”ж—¶й—ҙ
  41              		.loc 1 13 5 view .LVU3
  14:My_Top/Step_Motor/my_tim.cpp ****     uint32_t now_time = 0;
  42              		.loc 1 14 5 view .LVU4
  43              	.LVL1:
  15:My_Top/Step_Motor/my_tim.cpp **** 
ARM GAS  /tmp/ccual967.s 			page 2


  16:My_Top/Step_Motor/my_tim.cpp ****     static uint16_t count = 0;
  44              		.loc 1 16 5 view .LVU5
  17:My_Top/Step_Motor/my_tim.cpp **** 
  18:My_Top/Step_Motor/my_tim.cpp **** 
  19:My_Top/Step_Motor/my_tim.cpp ****     if (M1.control_init_flag == false) return;// еҲқе§ӢеҢ–жңӘе®ҢжҲҗж—¶пјҢдёҚжү§иЎҢ
  45              		.loc 1 19 5 view .LVU6
  46              		.loc 1 19 12 is_stmt 0 view .LVU7
  47 0002 3F4B     		ldr	r3, .L16
  48 0004 5B78     		ldrb	r3, [r3, #1]
  49              		.loc 1 19 5 view .LVU8
  50 0006 002B     		cmp	r3, #0
  51 0008 2BD0     		beq	.L1
  20:My_Top/Step_Motor/my_tim.cpp ****     if (M2.control_init_flag == false) return;
  52              		.loc 1 20 5 is_stmt 1 view .LVU9
  53              		.loc 1 20 12 is_stmt 0 view .LVU10
  54 000a 3E4B     		ldr	r3, .L16+4
  55 000c 5B78     		ldrb	r3, [r3, #1]
  56              		.loc 1 20 5 view .LVU11
  57 000e 002B     		cmp	r3, #0
  58 0010 27D0     		beq	.L1
  21:My_Top/Step_Motor/my_tim.cpp ****     if ((htim->Instance->CR1 & 0x10) == 0x00U) // еҗ‘дёҠи®Ўж•°ж—¶пјҢиҜ·жұӮзј–з ҒеҷЁдҪҚзҪ®дҝЎжҒҜ
  59              		.loc 1 21 5 is_stmt 1 view .LVU12
  60              	.LBB2:
  61              		.loc 1 21 16 is_stmt 0 view .LVU13
  62 0012 0368     		ldr	r3, [r0]
  63              		.loc 1 21 26 view .LVU14
  64 0014 1B68     		ldr	r3, [r3]
  65              		.loc 1 21 5 view .LVU15
  66 0016 DB06     		lsls	r3, r3, #27
  67 0018 23D4     		bmi	.L1
  68              	.LBB3:
  22:My_Top/Step_Motor/my_tim.cpp ****     {
  23:My_Top/Step_Motor/my_tim.cpp ****         if (count % Stepper_VELOCITY_LOOP_FREQ_DIV == 1)// жҜҸ4дёӘе‘Ёжңҹжү§иЎҢдёҖж¬ЎпјҲ4kйў‘зҺҮпјү
  69              		.loc 1 23 9 is_stmt 1 view .LVU16
  70              		.loc 1 23 19 is_stmt 0 view .LVU17
  71 001a 3B4B     		ldr	r3, .L16+8
  72 001c 1A88     		ldrh	r2, [r3]
  73              		.loc 1 23 9 view .LVU18
  74 001e 0723     		movs	r3, #7
  75 0020 1340     		ands	r3, r2
  76 0022 012B     		cmp	r3, #1
  77 0024 1ED0     		beq	.L10
  78              	.LVL2:
  79              	.L3:
  24:My_Top/Step_Motor/my_tim.cpp ****         {
  25:My_Top/Step_Motor/my_tim.cpp ****             // start_time = HAL_System::get_tick_us(); //и®°еҪ•ејҖе§Ӣж—¶й—ҙ
  26:My_Top/Step_Motor/my_tim.cpp ****             M1.Update_Speed_Angle_LPFAndPLL();//жӣҙж–°йҖҹеәҰи§’еәҰ иҖ—ж—¶129*2US жңҖеҝ«3.85KHZ
  27:My_Top/Step_Motor/my_tim.cpp ****             M2.Update_Speed_Angle_LPFAndPLL();//жӣҙж–°йҖҹеәҰи§’еәҰ 
  28:My_Top/Step_Motor/my_tim.cpp ****             // end_time = HAL_System::get_tick_us(); // и®°еҪ•з»“жқҹж—¶й—ҙ
  29:My_Top/Step_Motor/my_tim.cpp ****             // M1.laji = (float)(end_time - start_time); 
  30:My_Top/Step_Motor/my_tim.cpp **** 
  31:My_Top/Step_Motor/my_tim.cpp ****         }
  32:My_Top/Step_Motor/my_tim.cpp ****         if (count % Stepper_VELOCITY_LOOP_FREQ_DIV == 1)// жҜҸ8дёӘе‘Ёжңҹжү§иЎҢдёҖж¬ЎпјҲ2kйў‘зҺҮйҖҹе
  80              		.loc 1 32 9 is_stmt 1 view .LVU19
  81              		.loc 1 32 19 is_stmt 0 view .LVU20
  82 0026 384B     		ldr	r3, .L16+8
  83 0028 1A88     		ldrh	r2, [r3]
ARM GAS  /tmp/ccual967.s 			page 3


  84              		.loc 1 32 9 view .LVU21
  85 002a 0723     		movs	r3, #7
  86 002c 1340     		ands	r3, r2
  87 002e 012B     		cmp	r3, #1
  88 0030 1FD0     		beq	.L11
  89              	.L4:
  33:My_Top/Step_Motor/my_tim.cpp ****         {
  34:My_Top/Step_Motor/my_tim.cpp ****             if(M1.work_mode == speed)
  35:My_Top/Step_Motor/my_tim.cpp ****             {
  36:My_Top/Step_Motor/my_tim.cpp ****                 // start_time = HAL_System::get_tick_us(); //и®°еҪ•ејҖе§Ӣж—¶й—ҙ
  37:My_Top/Step_Motor/my_tim.cpp ****                 M1.Speed_Loop();//йҖҹеәҰзҺҜжҺ§еҲ¶ иҖ—ж—¶46*2US жңҖеҝ«10.KHZ 
  38:My_Top/Step_Motor/my_tim.cpp ****                 // end_time = HAL_System::get_tick_us(); // и®°еҪ•з»“жқҹж—¶й—ҙ
  39:My_Top/Step_Motor/my_tim.cpp ****                 // M1.laji = (float)(end_time - start_time);                 
  40:My_Top/Step_Motor/my_tim.cpp ****             }
  41:My_Top/Step_Motor/my_tim.cpp ****             if(M2.work_mode == speed)
  42:My_Top/Step_Motor/my_tim.cpp ****             {
  43:My_Top/Step_Motor/my_tim.cpp ****                 M2.Speed_Loop();//йҖҹеәҰзҺҜжҺ§еҲ¶ иҖ—ж—¶46*2US жңҖеҝ«10.KHZ               
  44:My_Top/Step_Motor/my_tim.cpp ****             }            
  45:My_Top/Step_Motor/my_tim.cpp **** 
  46:My_Top/Step_Motor/my_tim.cpp ****         }
  47:My_Top/Step_Motor/my_tim.cpp ****         if (count % Stepper_POSITION_LOOP_FREQ_DIV == 1)    // дҪҚзҪ®зҺҜ
  90              		.loc 1 47 9 is_stmt 1 view .LVU22
  91              		.loc 1 47 19 is_stmt 0 view .LVU23
  92 0032 354B     		ldr	r3, .L16+8
  93 0034 1A88     		ldrh	r2, [r3]
  94              		.loc 1 47 9 view .LVU24
  95 0036 0723     		movs	r3, #7
  96 0038 1340     		ands	r3, r2
  97 003a 012B     		cmp	r3, #1
  98 003c 29D0     		beq	.L12
  99              	.L6:
  48:My_Top/Step_Motor/my_tim.cpp ****         {
  49:My_Top/Step_Motor/my_tim.cpp ****             if(M1.work_mode == position)
  50:My_Top/Step_Motor/my_tim.cpp ****             {
  51:My_Top/Step_Motor/my_tim.cpp ****                 start_time = HAL_System::get_tick_us(); //и®°еҪ•ејҖе§Ӣж—¶й—ҙ
  52:My_Top/Step_Motor/my_tim.cpp ****                 M1.Position_Loop();//дҪҚзҪ®зҺҜжҺ§еҲ¶4k  иҖ—ж—¶
  53:My_Top/Step_Motor/my_tim.cpp ****                 end_time = HAL_System::get_tick_us(); // и®°еҪ•з»“жқҹж—¶й—ҙ
  54:My_Top/Step_Motor/my_tim.cpp ****                 M1.laji = (float)(end_time - start_time);                 
  55:My_Top/Step_Motor/my_tim.cpp ****             }
  56:My_Top/Step_Motor/my_tim.cpp ****             if(M2.work_mode == position)
  57:My_Top/Step_Motor/my_tim.cpp ****             {
  58:My_Top/Step_Motor/my_tim.cpp ****                 M2.Position_Loop();
  59:My_Top/Step_Motor/my_tim.cpp ****             }
  60:My_Top/Step_Motor/my_tim.cpp ****         }
  61:My_Top/Step_Motor/my_tim.cpp ****         if (count % 1600 == 1 && M2.work_mode == EncoderCalibration) 
 100              		.loc 1 61 9 is_stmt 1 view .LVU25
 101              	.LBB4:
 102              		.loc 1 61 19 is_stmt 0 view .LVU26
 103 003e 324B     		ldr	r3, .L16+8
 104 0040 1C88     		ldrh	r4, [r3]
 105 0042 C821     		movs	r1, #200
 106 0044 C900     		lsls	r1, r1, #3
 107 0046 2000     		movs	r0, r4
 108 0048 FFF7FEFF 		bl	__aeabi_uidivmod
 109              	.LVL3:
 110 004c 89B2     		uxth	r1, r1
 111              		.loc 1 61 9 view .LVU27
ARM GAS  /tmp/ccual967.s 			page 4


 112 004e 0129     		cmp	r1, #1
 113 0050 3ED0     		beq	.L13
 114              	.L8:
 115              	.LBE4:
  62:My_Top/Step_Motor/my_tim.cpp ****         {
  63:My_Top/Step_Motor/my_tim.cpp ****             static uint16_t temp = 800; 
  64:My_Top/Step_Motor/my_tim.cpp ****             M2.motor_fre = temp;
  65:My_Top/Step_Motor/my_tim.cpp ****             temp += 50;
  66:My_Top/Step_Motor/my_tim.cpp ****             if(temp > 2900) 
  67:My_Top/Step_Motor/my_tim.cpp ****             {
  68:My_Top/Step_Motor/my_tim.cpp ****                 temp = 2900;
  69:My_Top/Step_Motor/my_tim.cpp ****                 M2.laji_flag = 1;
  70:My_Top/Step_Motor/my_tim.cpp ****             }
  71:My_Top/Step_Motor/my_tim.cpp ****         }
  72:My_Top/Step_Motor/my_tim.cpp ****         count = (count%10000)+1;
 116              		.loc 1 72 9 is_stmt 1 view .LVU28
 117              		.loc 1 72 23 is_stmt 0 view .LVU29
 118 0052 2E49     		ldr	r1, .L16+12
 119 0054 2000     		movs	r0, r4
 120 0056 FFF7FEFF 		bl	__aeabi_uidivmod
 121              	.LVL4:
 122 005a 89B2     		uxth	r1, r1
 123              		.loc 1 72 30 view .LVU30
 124 005c 0131     		adds	r1, r1, #1
 125              		.loc 1 72 15 view .LVU31
 126 005e 2A4B     		ldr	r3, .L16+8
 127 0060 1980     		strh	r1, [r3]
 128              	.L1:
 129              	.LBE3:
 130              	.LBE2:
  73:My_Top/Step_Motor/my_tim.cpp **** 
  74:My_Top/Step_Motor/my_tim.cpp ****     }
  75:My_Top/Step_Motor/my_tim.cpp **** }
 131              		.loc 1 75 1 view .LVU32
 132              		@ sp needed
 133 0062 F8BD     		pop	{r3, r4, r5, r6, r7, pc}
 134              	.LVL5:
 135              	.L10:
 136              	.LBB8:
 137              	.LBB7:
  26:My_Top/Step_Motor/my_tim.cpp ****             M2.Update_Speed_Angle_LPFAndPLL();//жӣҙж–°йҖҹеәҰи§’еәҰ 
 138              		.loc 1 26 13 is_stmt 1 view .LVU33
  26:My_Top/Step_Motor/my_tim.cpp ****             M2.Update_Speed_Angle_LPFAndPLL();//жӣҙж–°йҖҹеәҰи§’еәҰ 
 139              		.loc 1 26 44 is_stmt 0 view .LVU34
 140 0064 2648     		ldr	r0, .L16
 141              	.LVL6:
  26:My_Top/Step_Motor/my_tim.cpp ****             M2.Update_Speed_Angle_LPFAndPLL();//жӣҙж–°йҖҹеәҰи§’еәҰ 
 142              		.loc 1 26 44 view .LVU35
 143 0066 FFF7FEFF 		bl	_ZN12StepperMotor28Update_Speed_Angle_LPFAndPLLEv
 144              	.LVL7:
  27:My_Top/Step_Motor/my_tim.cpp ****             // end_time = HAL_System::get_tick_us(); // и®°еҪ•з»“жқҹж—¶й—ҙ
 145              		.loc 1 27 13 is_stmt 1 view .LVU36
  27:My_Top/Step_Motor/my_tim.cpp ****             // end_time = HAL_System::get_tick_us(); // и®°еҪ•з»“жқҹж—¶й—ҙ
 146              		.loc 1 27 44 is_stmt 0 view .LVU37
 147 006a 2648     		ldr	r0, .L16+4
 148 006c FFF7FEFF 		bl	_ZN12StepperMotor28Update_Speed_Angle_LPFAndPLLEv
 149              	.LVL8:
ARM GAS  /tmp/ccual967.s 			page 5


 150 0070 D9E7     		b	.L3
 151              	.L11:
  34:My_Top/Step_Motor/my_tim.cpp ****             {
 152              		.loc 1 34 13 is_stmt 1 view .LVU38
  34:My_Top/Step_Motor/my_tim.cpp ****             {
 153              		.loc 1 34 19 is_stmt 0 view .LVU39
 154 0072 234B     		ldr	r3, .L16
 155 0074 1B78     		ldrb	r3, [r3]
  34:My_Top/Step_Motor/my_tim.cpp ****             {
 156              		.loc 1 34 13 view .LVU40
 157 0076 002B     		cmp	r3, #0
 158 0078 07D0     		beq	.L14
 159              	.L5:
  41:My_Top/Step_Motor/my_tim.cpp ****             {
 160              		.loc 1 41 13 is_stmt 1 view .LVU41
  41:My_Top/Step_Motor/my_tim.cpp ****             {
 161              		.loc 1 41 19 is_stmt 0 view .LVU42
 162 007a 224B     		ldr	r3, .L16+4
 163 007c 1B78     		ldrb	r3, [r3]
  41:My_Top/Step_Motor/my_tim.cpp ****             {
 164              		.loc 1 41 13 view .LVU43
 165 007e 002B     		cmp	r3, #0
 166 0080 D7D1     		bne	.L4
  43:My_Top/Step_Motor/my_tim.cpp ****             }            
 167              		.loc 1 43 17 is_stmt 1 view .LVU44
  43:My_Top/Step_Motor/my_tim.cpp ****             }            
 168              		.loc 1 43 30 is_stmt 0 view .LVU45
 169 0082 2048     		ldr	r0, .L16+4
 170 0084 FFF7FEFF 		bl	_ZN12StepperMotor10Speed_LoopEv
 171              	.LVL9:
 172 0088 D3E7     		b	.L4
 173              	.L14:
  37:My_Top/Step_Motor/my_tim.cpp ****                 // end_time = HAL_System::get_tick_us(); // и®°еҪ•з»“жқҹж—¶й—ҙ
 174              		.loc 1 37 17 is_stmt 1 view .LVU46
  37:My_Top/Step_Motor/my_tim.cpp ****                 // end_time = HAL_System::get_tick_us(); // и®°еҪ•з»“жқҹж—¶й—ҙ
 175              		.loc 1 37 30 is_stmt 0 view .LVU47
 176 008a 1D48     		ldr	r0, .L16
 177 008c FFF7FEFF 		bl	_ZN12StepperMotor10Speed_LoopEv
 178              	.LVL10:
 179 0090 F3E7     		b	.L5
 180              	.L12:
  49:My_Top/Step_Motor/my_tim.cpp ****             {
 181              		.loc 1 49 13 is_stmt 1 view .LVU48
  49:My_Top/Step_Motor/my_tim.cpp ****             {
 182              		.loc 1 49 19 is_stmt 0 view .LVU49
 183 0092 1B4B     		ldr	r3, .L16
 184 0094 1B78     		ldrb	r3, [r3]
  49:My_Top/Step_Motor/my_tim.cpp ****             {
 185              		.loc 1 49 13 view .LVU50
 186 0096 012B     		cmp	r3, #1
 187 0098 07D0     		beq	.L15
 188              	.L7:
  56:My_Top/Step_Motor/my_tim.cpp ****             {
 189              		.loc 1 56 13 is_stmt 1 view .LVU51
  56:My_Top/Step_Motor/my_tim.cpp ****             {
 190              		.loc 1 56 19 is_stmt 0 view .LVU52
 191 009a 1A4B     		ldr	r3, .L16+4
ARM GAS  /tmp/ccual967.s 			page 6


 192 009c 1B78     		ldrb	r3, [r3]
  56:My_Top/Step_Motor/my_tim.cpp ****             {
 193              		.loc 1 56 13 view .LVU53
 194 009e 012B     		cmp	r3, #1
 195 00a0 CDD1     		bne	.L6
  58:My_Top/Step_Motor/my_tim.cpp ****             }
 196              		.loc 1 58 17 is_stmt 1 view .LVU54
  58:My_Top/Step_Motor/my_tim.cpp ****             }
 197              		.loc 1 58 33 is_stmt 0 view .LVU55
 198 00a2 1848     		ldr	r0, .L16+4
 199 00a4 FFF7FEFF 		bl	_ZN12StepperMotor13Position_LoopEv
 200              	.LVL11:
 201 00a8 C9E7     		b	.L6
 202              	.L15:
  51:My_Top/Step_Motor/my_tim.cpp ****                 M1.Position_Loop();//дҪҚзҪ®зҺҜжҺ§еҲ¶4k  иҖ—ж—¶
 203              		.loc 1 51 17 is_stmt 1 view .LVU56
  51:My_Top/Step_Motor/my_tim.cpp ****                 M1.Position_Loop();//дҪҚзҪ®зҺҜжҺ§еҲ¶4k  иҖ—ж—¶
 204              		.loc 1 51 53 is_stmt 0 view .LVU57
 205 00aa FFF7FEFF 		bl	_ZN10HAL_System11get_tick_usEv
 206              	.LVL12:
  51:My_Top/Step_Motor/my_tim.cpp ****                 M1.Position_Loop();//дҪҚзҪ®зҺҜжҺ§еҲ¶4k  иҖ—ж—¶
 207              		.loc 1 51 28 discriminator 1 view .LVU58
 208 00ae 164C     		ldr	r4, .L16+8
 209 00b0 6060     		str	r0, [r4, #4]
  52:My_Top/Step_Motor/my_tim.cpp ****                 end_time = HAL_System::get_tick_us(); // и®°еҪ•з»“жқҹж—¶й—ҙ
 210              		.loc 1 52 17 is_stmt 1 view .LVU59
  52:My_Top/Step_Motor/my_tim.cpp ****                 end_time = HAL_System::get_tick_us(); // и®°еҪ•з»“жқҹж—¶й—ҙ
 211              		.loc 1 52 33 is_stmt 0 view .LVU60
 212 00b2 134D     		ldr	r5, .L16
 213 00b4 2800     		movs	r0, r5
 214 00b6 FFF7FEFF 		bl	_ZN12StepperMotor13Position_LoopEv
 215              	.LVL13:
  53:My_Top/Step_Motor/my_tim.cpp ****                 M1.laji = (float)(end_time - start_time);                 
 216              		.loc 1 53 17 is_stmt 1 view .LVU61
  53:My_Top/Step_Motor/my_tim.cpp ****                 M1.laji = (float)(end_time - start_time);                 
 217              		.loc 1 53 51 is_stmt 0 view .LVU62
 218 00ba FFF7FEFF 		bl	_ZN10HAL_System11get_tick_usEv
 219              	.LVL14:
  53:My_Top/Step_Motor/my_tim.cpp ****                 M1.laji = (float)(end_time - start_time);                 
 220              		.loc 1 53 26 discriminator 1 view .LVU63
 221 00be A060     		str	r0, [r4, #8]
  54:My_Top/Step_Motor/my_tim.cpp ****             }
 222              		.loc 1 54 17 is_stmt 1 view .LVU64
  54:My_Top/Step_Motor/my_tim.cpp ****             }
 223              		.loc 1 54 44 is_stmt 0 view .LVU65
 224 00c0 6368     		ldr	r3, [r4, #4]
 225 00c2 C01A     		subs	r0, r0, r3
  54:My_Top/Step_Motor/my_tim.cpp ****             }
 226              		.loc 1 54 27 view .LVU66
 227 00c4 FFF7FEFF 		bl	__aeabi_ui2f
 228              	.LVL15:
  54:My_Top/Step_Motor/my_tim.cpp ****             }
 229              		.loc 1 54 25 view .LVU67
 230 00c8 FFF7FEFF 		bl	__aeabi_f2uiz
 231              	.LVL16:
 232 00cc E865     		str	r0, [r5, #92]
 233 00ce E4E7     		b	.L7
ARM GAS  /tmp/ccual967.s 			page 7


 234              	.L13:
 235              	.LBB6:
  61:My_Top/Step_Motor/my_tim.cpp ****         {
 236              		.loc 1 61 37 discriminator 1 view .LVU68
 237 00d0 0C4B     		ldr	r3, .L16+4
 238 00d2 1B78     		ldrb	r3, [r3]
  61:My_Top/Step_Motor/my_tim.cpp ****         {
 239              		.loc 1 61 31 discriminator 1 view .LVU69
 240 00d4 632B     		cmp	r3, #99
 241 00d6 BCD1     		bne	.L8
 242              	.LBB5:
  63:My_Top/Step_Motor/my_tim.cpp ****             M2.motor_fre = temp;
 243              		.loc 1 63 13 is_stmt 1 view .LVU70
  64:My_Top/Step_Motor/my_tim.cpp ****             temp += 50;
 244              		.loc 1 64 13 view .LVU71
  64:My_Top/Step_Motor/my_tim.cpp ****             temp += 50;
 245              		.loc 1 64 26 is_stmt 0 view .LVU72
 246 00d8 0D4E     		ldr	r6, .L16+16
 247 00da 3588     		ldrh	r5, [r6]
 248 00dc 094F     		ldr	r7, .L16+4
 249 00de 2800     		movs	r0, r5
 250 00e0 FFF7FEFF 		bl	__aeabi_ui2f
 251              	.LVL17:
 252 00e4 7863     		str	r0, [r7, #52]
  65:My_Top/Step_Motor/my_tim.cpp ****             if(temp > 2900) 
 253              		.loc 1 65 13 is_stmt 1 view .LVU73
  65:My_Top/Step_Motor/my_tim.cpp ****             if(temp > 2900) 
 254              		.loc 1 65 18 is_stmt 0 view .LVU74
 255 00e6 3235     		adds	r5, r5, #50
 256 00e8 ADB2     		uxth	r5, r5
 257 00ea 3580     		strh	r5, [r6]
  66:My_Top/Step_Motor/my_tim.cpp ****             {
 258              		.loc 1 66 13 is_stmt 1 view .LVU75
 259 00ec 094B     		ldr	r3, .L16+20
 260 00ee 9D42     		cmp	r5, r3
 261 00f0 AFD9     		bls	.L8
  68:My_Top/Step_Motor/my_tim.cpp ****                 M2.laji_flag = 1;
 262              		.loc 1 68 17 view .LVU76
  68:My_Top/Step_Motor/my_tim.cpp ****                 M2.laji_flag = 1;
 263              		.loc 1 68 22 is_stmt 0 view .LVU77
 264 00f2 084A     		ldr	r2, .L16+20
 265 00f4 3280     		strh	r2, [r6]
  69:My_Top/Step_Motor/my_tim.cpp ****             }
 266              		.loc 1 69 17 is_stmt 1 view .LVU78
  69:My_Top/Step_Motor/my_tim.cpp ****             }
 267              		.loc 1 69 30 is_stmt 0 view .LVU79
 268 00f6 6022     		movs	r2, #96
 269 00f8 0121     		movs	r1, #1
 270 00fa B954     		strb	r1, [r7, r2]
 271 00fc A9E7     		b	.L8
 272              	.L17:
 273 00fe C046     		.align	2
 274              	.L16:
 275 0100 00000000 		.word	M1
 276 0104 00000000 		.word	M2
 277 0108 00000000 		.word	.LANCHOR0
 278 010c 10270000 		.word	10000
ARM GAS  /tmp/ccual967.s 			page 8


 279 0110 00000000 		.word	.LANCHOR1
 280 0114 540B0000 		.word	2900
 281              	.LBE5:
 282              	.LBE6:
 283              	.LBE7:
 284              	.LBE8:
 285              		.cfi_endproc
 286              	.LFE1466:
 288              		.align	1
 289              		.global	_Z18My_Tim_OC_CallbackP19__TIM_HandleTypeDef
 290              		.syntax unified
 291              		.code	16
 292              		.thumb_func
 294              	_Z18My_Tim_OC_CallbackP19__TIM_HandleTypeDef:
 295              	.LVL18:
 296              	.LFB1467:
  76:My_Top/Step_Motor/my_tim.cpp **** 
  77:My_Top/Step_Motor/my_tim.cpp **** 
  78:My_Top/Step_Motor/my_tim.cpp **** void My_Tim_OC_Callback(TIM_HandleTypeDef *htim) // TIM3_CH1 зҡ„иҫ“еҮәжҜ”иҫғдёӯж–ӯ
  79:My_Top/Step_Motor/my_tim.cpp **** {
 297              		.loc 1 79 1 is_stmt 1 view -0
 298              		.cfi_startproc
 299              		@ args = 0, pretend = 0, frame = 0
 300              		@ frame_needed = 0, uses_anonymous_args = 0
 301              		.loc 1 79 1 is_stmt 0 view .LVU81
 302 0118 10B5     		push	{r4, lr}
 303              		.cfi_def_cfa_offset 8
 304              		.cfi_offset 4, -8
 305              		.cfi_offset 14, -4
  80:My_Top/Step_Motor/my_tim.cpp ****     static uint16_t count = 0;
 306              		.loc 1 80 5 is_stmt 1 view .LVU82
  81:My_Top/Step_Motor/my_tim.cpp ****     static uint32_t start_time = 0, end_time = 0; // и®Ўж—¶еҸҳйҮҸ
 307              		.loc 1 81 5 view .LVU83
  82:My_Top/Step_Motor/my_tim.cpp **** 
  83:My_Top/Step_Motor/my_tim.cpp **** 
  84:My_Top/Step_Motor/my_tim.cpp ****     if (M1.control_init_flag == false) return;// еҲқе§ӢеҢ–жңӘе®ҢжҲҗж—¶пјҢдёҚжү§иЎҢ
 308              		.loc 1 84 5 view .LVU84
 309              		.loc 1 84 12 is_stmt 0 view .LVU85
 310 011a 0C4B     		ldr	r3, .L21
 311 011c 5B78     		ldrb	r3, [r3, #1]
 312              		.loc 1 84 5 view .LVU86
 313 011e 002B     		cmp	r3, #0
 314 0120 03D0     		beq	.L18
  85:My_Top/Step_Motor/my_tim.cpp ****     if (M2.control_init_flag == false) return;
 315              		.loc 1 85 5 is_stmt 1 view .LVU87
 316              		.loc 1 85 12 is_stmt 0 view .LVU88
 317 0122 0B4B     		ldr	r3, .L21+4
 318 0124 5B78     		ldrb	r3, [r3, #1]
 319              		.loc 1 85 5 view .LVU89
 320 0126 002B     		cmp	r3, #0
 321 0128 00D1     		bne	.L20
 322              	.LVL19:
 323              	.L18:
  86:My_Top/Step_Motor/my_tim.cpp ****     M1.setFre(); 
  87:My_Top/Step_Motor/my_tim.cpp ****     M2.setFre(); 
  88:My_Top/Step_Motor/my_tim.cpp ****     count = (count%10000)+1;
  89:My_Top/Step_Motor/my_tim.cpp **** 
ARM GAS  /tmp/ccual967.s 			page 9


  90:My_Top/Step_Motor/my_tim.cpp **** }
 324              		.loc 1 90 1 view .LVU90
 325              		@ sp needed
 326 012a 10BD     		pop	{r4, pc}
 327              	.LVL20:
 328              	.L20:
  86:My_Top/Step_Motor/my_tim.cpp ****     M1.setFre(); 
 329              		.loc 1 86 5 is_stmt 1 view .LVU91
  86:My_Top/Step_Motor/my_tim.cpp ****     M1.setFre(); 
 330              		.loc 1 86 14 is_stmt 0 view .LVU92
 331 012c 0748     		ldr	r0, .L21
 332              	.LVL21:
  86:My_Top/Step_Motor/my_tim.cpp ****     M1.setFre(); 
 333              		.loc 1 86 14 view .LVU93
 334 012e FFF7FEFF 		bl	_ZN12StepperMotor6setFreEv
 335              	.LVL22:
  87:My_Top/Step_Motor/my_tim.cpp ****     count = (count%10000)+1;
 336              		.loc 1 87 5 is_stmt 1 view .LVU94
  87:My_Top/Step_Motor/my_tim.cpp ****     count = (count%10000)+1;
 337              		.loc 1 87 14 is_stmt 0 view .LVU95
 338 0132 0748     		ldr	r0, .L21+4
 339 0134 FFF7FEFF 		bl	_ZN12StepperMotor6setFreEv
 340              	.LVL23:
  88:My_Top/Step_Motor/my_tim.cpp **** 
 341              		.loc 1 88 5 is_stmt 1 view .LVU96
  88:My_Top/Step_Motor/my_tim.cpp **** 
 342              		.loc 1 88 19 is_stmt 0 view .LVU97
 343 0138 064C     		ldr	r4, .L21+8
 344 013a A089     		ldrh	r0, [r4, #12]
 345 013c 0649     		ldr	r1, .L21+12
 346 013e FFF7FEFF 		bl	__aeabi_uidivmod
 347              	.LVL24:
 348 0142 89B2     		uxth	r1, r1
  88:My_Top/Step_Motor/my_tim.cpp **** 
 349              		.loc 1 88 26 view .LVU98
 350 0144 0131     		adds	r1, r1, #1
  88:My_Top/Step_Motor/my_tim.cpp **** 
 351              		.loc 1 88 11 view .LVU99
 352 0146 A181     		strh	r1, [r4, #12]
 353 0148 EFE7     		b	.L18
 354              	.L22:
 355 014a C046     		.align	2
 356              	.L21:
 357 014c 00000000 		.word	M1
 358 0150 00000000 		.word	M2
 359 0154 00000000 		.word	.LANCHOR0
 360 0158 10270000 		.word	10000
 361              		.cfi_endproc
 362              	.LFE1467:
 364              		.align	1
 365              		.global	_Z11My_Tim_InitP19__TIM_HandleTypeDefP17ADC_HandleTypeDef
 366              		.syntax unified
 367              		.code	16
 368              		.thumb_func
 370              	_Z11My_Tim_InitP19__TIM_HandleTypeDefP17ADC_HandleTypeDef:
 371              	.LVL25:
 372              	.LFB1468:
ARM GAS  /tmp/ccual967.s 			page 10


  91:My_Top/Step_Motor/my_tim.cpp **** 
  92:My_Top/Step_Motor/my_tim.cpp **** 
  93:My_Top/Step_Motor/my_tim.cpp **** /*
  94:My_Top/Step_Motor/my_tim.cpp **** void laji()
  95:My_Top/Step_Motor/my_tim.cpp **** {
  96:My_Top/Step_Motor/my_tim.cpp ****     static uint32_t last_time = 0;
  97:My_Top/Step_Motor/my_tim.cpp ****     uint32_t now_time = 0;
  98:My_Top/Step_Motor/my_tim.cpp ****     now_time =  HAL_System::get_tick_us();
  99:My_Top/Step_Motor/my_tim.cpp ****     if (last_time != 0) {
 100:My_Top/Step_Motor/my_tim.cpp ****          M1.laji = (int32_t)(now_time - last_time);  // еҚ•ж¬Ўдёӯж–ӯй—ҙйҡ”пјҢеҚ•дҪҚus
 101:My_Top/Step_Motor/my_tim.cpp ****     }
 102:My_Top/Step_Motor/my_tim.cpp ****     last_time = now_time;
 103:My_Top/Step_Motor/my_tim.cpp **** }
 104:My_Top/Step_Motor/my_tim.cpp **** */
 105:My_Top/Step_Motor/my_tim.cpp **** 
 106:My_Top/Step_Motor/my_tim.cpp **** /**
 107:My_Top/Step_Motor/my_tim.cpp ****  * @brief еҲқе§ӢеҢ–е®ҡж—¶еҷЁе№¶и®ҫзҪ®еӣһи°ғеҮҪж•°
 108:My_Top/Step_Motor/my_tim.cpp ****  * @param htim е®ҡж—¶еҷЁеҸҘжҹ„жҢҮй’ҲпјҢжҢҮеҗ‘е®ҡж—¶еҷЁй…ҚзҪ®з»“жһ„дҪ“
 109:My_Top/Step_Motor/my_tim.cpp ****  */
 110:My_Top/Step_Motor/my_tim.cpp **** 
 111:My_Top/Step_Motor/my_tim.cpp **** uint16_t ADC_Value[100]; // ADCйҮҮйӣҶеҖјж•°з»„пјҢй•ҝеәҰдёә2
 112:My_Top/Step_Motor/my_tim.cpp **** void My_Tim_Init(TIM_HandleTypeDef* htim,ADC_HandleTypeDef *hadc)
 113:My_Top/Step_Motor/my_tim.cpp **** {
 373              		.loc 1 113 1 is_stmt 1 view -0
 374              		.cfi_startproc
 375              		@ args = 0, pretend = 0, frame = 0
 376              		@ frame_needed = 0, uses_anonymous_args = 0
 377              		.loc 1 113 1 is_stmt 0 view .LVU101
 378 015c 10B5     		push	{r4, lr}
 379              		.cfi_def_cfa_offset 8
 380              		.cfi_offset 4, -8
 381              		.cfi_offset 14, -4
 382 015e 0400     		movs	r4, r0
 383 0160 0800     		movs	r0, r1
 384              	.LVL26:
 114:My_Top/Step_Motor/my_tim.cpp ****     HAL_ADC_Start_DMA(hadc,(uint32_t *)ADC_Value,100); //з”өжұ з”өеҺӢйҮҮйӣҶ
 385              		.loc 1 114 5 is_stmt 1 view .LVU102
 386              		.loc 1 114 22 is_stmt 0 view .LVU103
 387 0162 0A49     		ldr	r1, .L24
 388              	.LVL27:
 389              		.loc 1 114 22 view .LVU104
 390 0164 6422     		movs	r2, #100
 391 0166 FFF7FEFF 		bl	HAL_ADC_Start_DMA
 392              	.LVL28:
 115:My_Top/Step_Motor/my_tim.cpp ****     __HAL_TIM_SET_COMPARE(htim, TIM_CHANNEL_1, (uint32_t)(100 * 0.5f)); // и®ҫзҪ®еҚ з©әжҜ”дёә50% жҺ
 393              		.loc 1 115 5 is_stmt 1 view .LVU105
 394 016a 2368     		ldr	r3, [r4]
 395 016c 3222     		movs	r2, #50
 396 016e 5A63     		str	r2, [r3, #52]
 116:My_Top/Step_Motor/my_tim.cpp ****     HAL_TIM_Base_Start_IT(htim); //еҗҜеҠЁе®ҡж—¶еҷЁе‘Ёжңҹдёӯж–ӯ
 397              		.loc 1 116 5 view .LVU106
 398              		.loc 1 116 26 is_stmt 0 view .LVU107
 399 0170 2000     		movs	r0, r4
 400 0172 FFF7FEFF 		bl	HAL_TIM_Base_Start_IT
 401              	.LVL29:
 117:My_Top/Step_Motor/my_tim.cpp ****     HAL_TIM_OC_Start_IT(htim, TIM_CHANNEL_1); //еҗҜеҠЁе®ҡж—¶еҷЁжҜ”иҫғдёӯж–ӯ
 402              		.loc 1 117 5 is_stmt 1 view .LVU108
ARM GAS  /tmp/ccual967.s 			page 11


 403              		.loc 1 117 24 is_stmt 0 view .LVU109
 404 0176 0021     		movs	r1, #0
 405 0178 2000     		movs	r0, r4
 406 017a FFF7FEFF 		bl	HAL_TIM_OC_Start_IT
 407              	.LVL30:
 118:My_Top/Step_Motor/my_tim.cpp ****     htim->PeriodElapsedCallback = My_Tim_Callback;  // и®ҫзҪ®е®ҡж—¶еҷЁе‘Ёжңҹз»“жқҹеӣһи°ғеҮҪж•°
 408              		.loc 1 118 5 is_stmt 1 view .LVU110
 409              		.loc 1 118 33 is_stmt 0 view .LVU111
 410 017e 044B     		ldr	r3, .L24+4
 411 0180 8422     		movs	r2, #132
 412 0182 A350     		str	r3, [r4, r2]
 119:My_Top/Step_Motor/my_tim.cpp ****     htim->PWM_PulseFinishedCallback = My_Tim_OC_Callback;// PWMзҡ„жЁЎејҸзҡ„жҜ”иҫғеҢ№й…Қеӣһи°ғеҮҪж•°
 413              		.loc 1 119 5 is_stmt 1 view .LVU112
 414              		.loc 1 119 37 is_stmt 0 view .LVU113
 415 0184 034B     		ldr	r3, .L24+8
 416 0186 1C32     		adds	r2, r2, #28
 417 0188 A350     		str	r3, [r4, r2]
 120:My_Top/Step_Motor/my_tim.cpp **** }
 418              		.loc 1 120 1 view .LVU114
 419              		@ sp needed
 420              	.LVL31:
 421              		.loc 1 120 1 view .LVU115
 422 018a 10BD     		pop	{r4, pc}
 423              	.L25:
 424              		.align	2
 425              	.L24:
 426 018c 00000000 		.word	ADC_Value
 427 0190 00000000 		.word	_Z15My_Tim_CallbackP19__TIM_HandleTypeDef
 428 0194 00000000 		.word	_Z18My_Tim_OC_CallbackP19__TIM_HandleTypeDef
 429              		.cfi_endproc
 430              	.LFE1468:
 432              		.align	1
 433              		.global	_Z15M1_Tim_CallbackP19__TIM_HandleTypeDef
 434              		.syntax unified
 435              		.code	16
 436              		.thumb_func
 438              	_Z15M1_Tim_CallbackP19__TIM_HandleTypeDef:
 439              	.LVL32:
 440              	.LFB1469:
 121:My_Top/Step_Motor/my_tim.cpp **** 
 122:My_Top/Step_Motor/my_tim.cpp **** 
 123:My_Top/Step_Motor/my_tim.cpp **** 
 124:My_Top/Step_Motor/my_tim.cpp **** 
 125:My_Top/Step_Motor/my_tim.cpp **** 
 126:My_Top/Step_Motor/my_tim.cpp **** // в”Җв”Җ M1 зҡ„зӢ¬з«Ӣе®ҡж—¶еҷЁе‘Ёжңҹз»“жқҹеӣһи°ғ в”Җв”Җ
 127:My_Top/Step_Motor/my_tim.cpp **** void M1_Tim_Callback(TIM_HandleTypeDef *htim)
 128:My_Top/Step_Motor/my_tim.cpp **** {
 441              		.loc 1 128 1 is_stmt 1 view -0
 442              		.cfi_startproc
 443              		@ args = 0, pretend = 0, frame = 0
 444              		@ frame_needed = 0, uses_anonymous_args = 0
 445              		.loc 1 128 1 is_stmt 0 view .LVU117
 446 0198 10B5     		push	{r4, lr}
 447              		.cfi_def_cfa_offset 8
 448              		.cfi_offset 4, -8
 449              		.cfi_offset 14, -4
 129:My_Top/Step_Motor/my_tim.cpp ****     if (M1.control_init_flag == false) return;// еҲқе§ӢеҢ–жңӘе®ҢжҲҗж—¶пјҢдёҚжү§иЎҢ
ARM GAS  /tmp/ccual967.s 			page 12


 450              		.loc 1 129 5 is_stmt 1 view .LVU118
 451              		.loc 1 129 12 is_stmt 0 view .LVU119
 452 019a 044B     		ldr	r3, .L29
 453 019c 5B78     		ldrb	r3, [r3, #1]
 454              		.loc 1 129 5 view .LVU120
 455 019e 002B     		cmp	r3, #0
 456 01a0 00D1     		bne	.L28
 457              	.LVL33:
 458              	.L26:
 130:My_Top/Step_Motor/my_tim.cpp ****     M1.Step_Handler(); 
 131:My_Top/Step_Motor/my_tim.cpp **** }
 459              		.loc 1 131 1 view .LVU121
 460              		@ sp needed
 461 01a2 10BD     		pop	{r4, pc}
 462              	.LVL34:
 463              	.L28:
 130:My_Top/Step_Motor/my_tim.cpp ****     M1.Step_Handler(); 
 464              		.loc 1 130 5 is_stmt 1 view .LVU122
 130:My_Top/Step_Motor/my_tim.cpp ****     M1.Step_Handler(); 
 465              		.loc 1 130 20 is_stmt 0 view .LVU123
 466 01a4 0148     		ldr	r0, .L29
 467              	.LVL35:
 130:My_Top/Step_Motor/my_tim.cpp ****     M1.Step_Handler(); 
 468              		.loc 1 130 20 view .LVU124
 469 01a6 FFF7FEFF 		bl	_ZN12StepperMotor12Step_HandlerEv
 470              	.LVL36:
 471 01aa FAE7     		b	.L26
 472              	.L30:
 473              		.align	2
 474              	.L29:
 475 01ac 00000000 		.word	M1
 476              		.cfi_endproc
 477              	.LFE1469:
 479              		.align	1
 480              		.global	_Z15M2_Tim_CallbackP19__TIM_HandleTypeDef
 481              		.syntax unified
 482              		.code	16
 483              		.thumb_func
 485              	_Z15M2_Tim_CallbackP19__TIM_HandleTypeDef:
 486              	.LVL37:
 487              	.LFB1470:
 132:My_Top/Step_Motor/my_tim.cpp **** 
 133:My_Top/Step_Motor/my_tim.cpp **** // в”Җв”Җ M2з”өжңә зҡ„зӢ¬з«Ӣе®ҡж—¶еҷЁе‘Ёжңҹз»“жқҹеӣһи°ғ в”Җв”Җ
 134:My_Top/Step_Motor/my_tim.cpp **** void M2_Tim_Callback(TIM_HandleTypeDef *htim)
 135:My_Top/Step_Motor/my_tim.cpp **** {
 488              		.loc 1 135 1 is_stmt 1 view -0
 489              		.cfi_startproc
 490              		@ args = 0, pretend = 0, frame = 0
 491              		@ frame_needed = 0, uses_anonymous_args = 0
 492              		.loc 1 135 1 is_stmt 0 view .LVU126
 493 01b0 10B5     		push	{r4, lr}
 494              		.cfi_def_cfa_offset 8
 495              		.cfi_offset 4, -8
 496              		.cfi_offset 14, -4
 136:My_Top/Step_Motor/my_tim.cpp ****     if (M2.control_init_flag == false) return;
 497              		.loc 1 136 5 is_stmt 1 view .LVU127
 498              		.loc 1 136 12 is_stmt 0 view .LVU128
ARM GAS  /tmp/ccual967.s 			page 13


 499 01b2 044B     		ldr	r3, .L34
 500 01b4 5B78     		ldrb	r3, [r3, #1]
 501              		.loc 1 136 5 view .LVU129
 502 01b6 002B     		cmp	r3, #0
 503 01b8 00D1     		bne	.L33
 504              	.LVL38:
 505              	.L31:
 137:My_Top/Step_Motor/my_tim.cpp ****     M2.Step_Handler(); 
 138:My_Top/Step_Motor/my_tim.cpp **** }
 506              		.loc 1 138 1 view .LVU130
 507              		@ sp needed
 508 01ba 10BD     		pop	{r4, pc}
 509              	.LVL39:
 510              	.L33:
 137:My_Top/Step_Motor/my_tim.cpp ****     M2.Step_Handler(); 
 511              		.loc 1 137 5 is_stmt 1 view .LVU131
 137:My_Top/Step_Motor/my_tim.cpp ****     M2.Step_Handler(); 
 512              		.loc 1 137 20 is_stmt 0 view .LVU132
 513 01bc 0148     		ldr	r0, .L34
 514              	.LVL40:
 137:My_Top/Step_Motor/my_tim.cpp ****     M2.Step_Handler(); 
 515              		.loc 1 137 20 view .LVU133
 516 01be FFF7FEFF 		bl	_ZN12StepperMotor12Step_HandlerEv
 517              	.LVL41:
 518 01c2 FAE7     		b	.L31
 519              	.L35:
 520              		.align	2
 521              	.L34:
 522 01c4 00000000 		.word	M2
 523              		.cfi_endproc
 524              	.LFE1470:
 526              		.global	ADC_Value
 527              		.data
 528              		.align	1
 529              		.set	.LANCHOR1,. + 0
 532              	_ZZ15My_Tim_CallbackP19__TIM_HandleTypeDefE4temp:
 533 0000 2003     		.short	800
 534              		.bss
 535              		.align	2
 536              		.set	.LANCHOR0,. + 0
 539              	_ZZ15My_Tim_CallbackP19__TIM_HandleTypeDefE5count:
 540 0000 0000     		.space	2
 541 0002 0000     		.space	2
 544              	_ZZ15My_Tim_CallbackP19__TIM_HandleTypeDefE10start_time:
 545 0004 00000000 		.space	4
 548              	_ZZ15My_Tim_CallbackP19__TIM_HandleTypeDefE8end_time:
 549 0008 00000000 		.space	4
 552              	_ZZ18My_Tim_OC_CallbackP19__TIM_HandleTypeDefE5count:
 553 000c 0000     		.space	2
 554 000e 0000     		.space	2
 557              	ADC_Value:
 558 0010 00000000 		.space	200
 558      00000000 
 558      00000000 
 558      00000000 
 558      00000000 
 559              		.text
ARM GAS  /tmp/ccual967.s 			page 14


 560              	.Letext0:
 561              		.file 2 "/opt/arm-gnu-toolchain-14.2/arm-none-eabi/include/machine/_default_types.h"
 562              		.file 3 "/opt/arm-gnu-toolchain-14.2/arm-none-eabi/include/sys/_stdint.h"
 563              		.file 4 "Drivers/CMSIS/Device/ST/STM32G0xx/Include/stm32g071xx.h"
 564              		.file 5 "Drivers/CMSIS/Device/ST/STM32G0xx/Include/stm32g0xx.h"
 565              		.file 6 "Drivers/STM32G0xx_HAL_Driver/Inc/stm32g0xx_hal_def.h"
 566              		.file 7 "Drivers/STM32G0xx_HAL_Driver/Inc/stm32g0xx_hal_dma.h"
 567              		.file 8 "Drivers/STM32G0xx_HAL_Driver/Inc/stm32g0xx_hal_adc.h"
 568              		.file 9 "Drivers/STM32G0xx_HAL_Driver/Inc/stm32g0xx_hal_spi.h"
 569              		.file 10 "Drivers/STM32G0xx_HAL_Driver/Inc/stm32g0xx_hal_tim.h"
 570              		.file 11 "My_Top/System/HAL_System.hpp"
 571              		.file 12 "My_Top/System/pid_Increment.hpp"
 572              		.file 13 "/opt/arm-gnu-toolchain-14.2/arm-none-eabi/include/c++/14.2.1/cmath"
 573              		.file 14 "/opt/arm-gnu-toolchain-14.2/arm-none-eabi/include/c++/14.2.1/type_traits"
 574              		.file 15 "/opt/arm-gnu-toolchain-14.2/arm-none-eabi/include/c++/14.2.1/debug/debug.h"
 575              		.file 16 "/opt/arm-gnu-toolchain-14.2/arm-none-eabi/include/c++/14.2.1/bits/std_abs.h"
 576              		.file 17 "/opt/arm-gnu-toolchain-14.2/arm-none-eabi/include/c++/14.2.1/bits/predefined_ops.h"
 577              		.file 18 "/opt/arm-gnu-toolchain-14.2/arm-none-eabi/include/math.h"
 578              		.file 19 "/opt/arm-gnu-toolchain-14.2/arm-none-eabi/include/c++/14.2.1/arm-none-eabi/thumb/v6-m/no
 579              		.file 20 "/opt/arm-gnu-toolchain-14.2/arm-none-eabi/include/c++/14.2.1/math.h"
 580              		.file 21 "Lib/compute/ex_math.hpp"
 581              		.file 22 "My_Top/System/kth_read.hpp"
 582              		.file 23 "My_Top/Step_Motor/Step.hpp"
 583              		.file 24 "My_Top/Step_Motor/StepperMotor_Loop.hpp"
 584              		.file 25 "Drivers/STM32G0xx_HAL_Driver/Inc/stm32g0xx_ll_dma.h"
ARM GAS  /tmp/ccual967.s 			page 15


DEFINED SYMBOLS
                            *ABS*:00000000 my_tim.cpp
     /tmp/ccual967.s:18     .text:00000000 $t
     /tmp/ccual967.s:24     .text:00000000 _Z15My_Tim_CallbackP19__TIM_HandleTypeDef
     /tmp/ccual967.s:275    .text:00000100 $d
     /tmp/ccual967.s:288    .text:00000118 $t
     /tmp/ccual967.s:294    .text:00000118 _Z18My_Tim_OC_CallbackP19__TIM_HandleTypeDef
     /tmp/ccual967.s:357    .text:0000014c $d
     /tmp/ccual967.s:364    .text:0000015c $t
     /tmp/ccual967.s:370    .text:0000015c _Z11My_Tim_InitP19__TIM_HandleTypeDefP17ADC_HandleTypeDef
     /tmp/ccual967.s:426    .text:0000018c $d
     /tmp/ccual967.s:557    .bss:00000010 ADC_Value
     /tmp/ccual967.s:432    .text:00000198 $t
     /tmp/ccual967.s:438    .text:00000198 _Z15M1_Tim_CallbackP19__TIM_HandleTypeDef
     /tmp/ccual967.s:475    .text:000001ac $d
     /tmp/ccual967.s:479    .text:000001b0 $t
     /tmp/ccual967.s:485    .text:000001b0 _Z15M2_Tim_CallbackP19__TIM_HandleTypeDef
     /tmp/ccual967.s:522    .text:000001c4 $d
     /tmp/ccual967.s:528    .data:00000000 $d
     /tmp/ccual967.s:532    .data:00000000 _ZZ15My_Tim_CallbackP19__TIM_HandleTypeDefE4temp
     /tmp/ccual967.s:535    .bss:00000000 $d
     /tmp/ccual967.s:539    .bss:00000000 _ZZ15My_Tim_CallbackP19__TIM_HandleTypeDefE5count
     /tmp/ccual967.s:544    .bss:00000004 _ZZ15My_Tim_CallbackP19__TIM_HandleTypeDefE10start_time
     /tmp/ccual967.s:548    .bss:00000008 _ZZ15My_Tim_CallbackP19__TIM_HandleTypeDefE8end_time
     /tmp/ccual967.s:552    .bss:0000000c _ZZ18My_Tim_OC_CallbackP19__TIM_HandleTypeDefE5count

UNDEFINED SYMBOLS
__aeabi_uidivmod
_ZN12StepperMotor28Update_Speed_Angle_LPFAndPLLEv
_ZN12StepperMotor10Speed_LoopEv
_ZN12StepperMotor13Position_LoopEv
_ZN10HAL_System11get_tick_usEv
__aeabi_ui2f
__aeabi_f2uiz
M1
M2
_ZN12StepperMotor6setFreEv
HAL_ADC_Start_DMA
HAL_TIM_Base_Start_IT
HAL_TIM_OC_Start_IT
_ZN12StepperMotor12Step_HandlerEv
