ARM GAS  /tmp/cckyrMZQ.s 			page 1


   1              		.cpu cortex-m0plus
   2              		.arch armv6s-m
   3              		.fpu softvfp
   4              		.eabi_attribute 20, 1
   5              		.eabi_attribute 21, 1
   6              		.eabi_attribute 23, 3
   7              		.eabi_attribute 24, 1
   8              		.eabi_attribute 25, 1
   9              		.eabi_attribute 26, 1
  10              		.eabi_attribute 30, 1
  11              		.eabi_attribute 34, 0
  12              		.eabi_attribute 18, 4
  13              		.file	"my_tim.cpp"
  14              		.text
  15              	.Ltext0:
  16              		.cfi_sections	.debug_frame
  17              		.file 1 "My_Top/Step_Motor/my_tim.cpp"
  18              		.align	1
  19              		.global	_Z15My_Tim_CallbackP19__TIM_HandleTypeDef
  20              		.syntax unified
  21              		.code	16
  22              		.thumb_func
  24              	_Z15My_Tim_CallbackP19__TIM_HandleTypeDef:
  25              	.LVL0:
  26              	.LFB1466:
   1:My_Top/Step_Motor/my_tim.cpp **** #include "my_tim.hpp"
   2:My_Top/Step_Motor/my_tim.cpp **** 
   3:My_Top/Step_Motor/my_tim.cpp **** 
   4:My_Top/Step_Motor/my_tim.cpp **** 
   5:My_Top/Step_Motor/my_tim.cpp **** /**
   6:My_Top/Step_Motor/my_tim.cpp ****  * @brief е®ҡж—¶еҷЁеӣһи°ғеҮҪж•°пјҢз”ЁдәҺжү§иЎҢFOCпјҲзЈҒеңәе®ҡеҗ‘жҺ§еҲ¶пјүзӣёе…ід»»еҠЎ
   7:My_Top/Step_Motor/my_tim.cpp ****  * @param htim е®ҡж—¶еҷЁеҸҘжҹ„жҢҮй’ҲпјҢеҢ…еҗ«е®ҡж—¶еҷЁзӣёе…ідҝЎжҒҜ
   8:My_Top/Step_Motor/my_tim.cpp ****  */
   9:My_Top/Step_Motor/my_tim.cpp **** void My_Tim_Callback(TIM_HandleTypeDef *htim)
  10:My_Top/Step_Motor/my_tim.cpp **** {
  27              		.loc 1 10 1 view -0
  28              		.cfi_startproc
  29              		@ args = 0, pretend = 0, frame = 0
  30              		@ frame_needed = 0, uses_anonymous_args = 0
  31              		.loc 1 10 1 is_stmt 0 view .LVU1
  32 0000 10B5     		push	{r4, lr}
  33              		.cfi_def_cfa_offset 8
  34              		.cfi_offset 4, -8
  35              		.cfi_offset 14, -4
  11:My_Top/Step_Motor/my_tim.cpp ****     static uint16_t count = 0;  // йқҷжҖҒи®Ўж•°еҷЁпјҢз”ЁдәҺе‘ЁжңҹжҖ§д»»еҠЎи°ғеәҰ
  36              		.loc 1 11 5 is_stmt 1 view .LVU2
  12:My_Top/Step_Motor/my_tim.cpp ****     static uint32_t start_time = 0, end_time = 0; // и®Ўж—¶еҸҳйҮҸпјҢз”ЁдәҺжҖ§иғҪжөӢйҮҸпјҲе·ІжіЁйҮҠп
  37              		.loc 1 12 5 view .LVU3
  13:My_Top/Step_Motor/my_tim.cpp **** 
  14:My_Top/Step_Motor/my_tim.cpp ****     if (M1.control_init_flag == false) return;// еҲқе§ӢеҢ–жңӘе®ҢжҲҗж—¶пјҢдёҚжү§иЎҢ
  38              		.loc 1 14 5 view .LVU4
  39              		.loc 1 14 12 is_stmt 0 view .LVU5
  40 0002 0A4B     		ldr	r3, .L4
  41 0004 5B78     		ldrb	r3, [r3, #1]
  42              		.loc 1 14 5 view .LVU6
  43 0006 002B     		cmp	r3, #0
  44 0008 0FD0     		beq	.L1
ARM GAS  /tmp/cckyrMZQ.s 			page 2


  15:My_Top/Step_Motor/my_tim.cpp ****     if (M2.control_init_flag == false) return;
  45              		.loc 1 15 5 is_stmt 1 view .LVU7
  46              		.loc 1 15 12 is_stmt 0 view .LVU8
  47 000a 094B     		ldr	r3, .L4+4
  48 000c 5B78     		ldrb	r3, [r3, #1]
  49              		.loc 1 15 5 view .LVU9
  50 000e 002B     		cmp	r3, #0
  51 0010 0BD0     		beq	.L1
  16:My_Top/Step_Motor/my_tim.cpp ****     // if ((htim->Instance->CR1 & 0x10) == 0x10U) // еҗ‘дёӢи®Ўж•°ж—¶пјҢиҜ·жұӮзј–з ҒеҷЁдҪҚзҪ®дҝЎжҒҜ
  17:My_Top/Step_Motor/my_tim.cpp ****     if ((htim->Instance->CR1 & 0x10) == 0x00U) // еҗ‘дёҠи®Ўж•°ж—¶пјҢиҜ·жұӮзј–з ҒеҷЁдҪҚзҪ®дҝЎжҒҜ
  52              		.loc 1 17 5 is_stmt 1 view .LVU10
  53              		.loc 1 17 16 is_stmt 0 view .LVU11
  54 0012 0368     		ldr	r3, [r0]
  55              		.loc 1 17 26 view .LVU12
  56 0014 1B68     		ldr	r3, [r3]
  57              		.loc 1 17 5 view .LVU13
  58 0016 DB06     		lsls	r3, r3, #27
  59 0018 07D4     		bmi	.L1
  18:My_Top/Step_Motor/my_tim.cpp ****     {
  19:My_Top/Step_Motor/my_tim.cpp ****         if (count % 4 == 1)// жҜҸ4дёӘе‘Ёжңҹжү§иЎҢдёҖж¬ЎпјҲ4kйў‘зҺҮпјү
  60              		.loc 1 19 9 is_stmt 1 view .LVU14
  61              		.loc 1 19 19 is_stmt 0 view .LVU15
  62 001a 064C     		ldr	r4, .L4+8
  63 001c 2088     		ldrh	r0, [r4]
  64              	.LVL1:
  20:My_Top/Step_Motor/my_tim.cpp ****         {
  21:My_Top/Step_Motor/my_tim.cpp ****             // start_time = DWT->CYCCNT; //и®°еҪ•ејҖе§Ӣж—¶й—ҙ жҜҸ 1 дёӘ CPU е‘ЁжңҹиҮӘеўһ 1
  22:My_Top/Step_Motor/my_tim.cpp ****             // M1.Update_Speed_Angle_LPFAndPLL();//жӣҙж–°йҖҹеәҰи§’еәҰ иҖ—ж—¶24us дёҖиө·37us
  23:My_Top/Step_Motor/my_tim.cpp ****             // M2.Update_Speed_Angle_LPFAndPLL();//жӣҙж–°йҖҹеәҰи§’еәҰ иҖ—ж—¶24us дёҖиө·37us
  24:My_Top/Step_Motor/my_tim.cpp ****             // end_time = DWT->CYCCNT; // и®°еҪ•з»“жқҹж—¶й—ҙ
  25:My_Top/Step_Motor/my_tim.cpp ****             // foc1.run_time_us = (float)(end_time - start_time) / 168.0f; // и®Ўз®—иҝҗиЎҢж—¶й—ҙпјҲ
  26:My_Top/Step_Motor/my_tim.cpp **** 
  27:My_Top/Step_Motor/my_tim.cpp ****         }
  28:My_Top/Step_Motor/my_tim.cpp ****         if (count % Stepper_VELOCITY_LOOP_FREQ_DIV == 1 && M1.work_mode == speed)                  
  65              		.loc 1 28 9 is_stmt 1 view .LVU16
  29:My_Top/Step_Motor/my_tim.cpp ****         {
  30:My_Top/Step_Motor/my_tim.cpp ****             // start_time = DWT->CYCCNT; //и®°еҪ•ејҖе§Ӣж—¶й—ҙ
  31:My_Top/Step_Motor/my_tim.cpp ****             // M1.Speed_Loop();//йҖҹеәҰзҺҜжҺ§еҲ¶4k иҖ—ж—¶8.2us 
  32:My_Top/Step_Motor/my_tim.cpp ****             // end_time = DWT->CYCCNT; // и®°еҪ•з»“жқҹж—¶й—ҙ 
  33:My_Top/Step_Motor/my_tim.cpp ****             // M1.run_time_us = (float)(end_time - start_time) / 168.0f; // и®Ўз®—иҝҗиЎҢж—¶й—ҙпјҲеҚ
  34:My_Top/Step_Motor/my_tim.cpp ****         }
  35:My_Top/Step_Motor/my_tim.cpp ****         if (count % Stepper_POSITION_LOOP_FREQ_DIV == 1 && M1.work_mode == position)               
  66              		.loc 1 35 9 view .LVU17
  36:My_Top/Step_Motor/my_tim.cpp ****         {
  37:My_Top/Step_Motor/my_tim.cpp ****             // start_time = DWT->CYCCNT; //и®°еҪ•ејҖе§Ӣж—¶й—ҙ
  38:My_Top/Step_Motor/my_tim.cpp ****             // M1.Position_Loop();//дҪҚзҪ®зҺҜжҺ§еҲ¶4k  иҖ—ж—¶14.33us
  39:My_Top/Step_Motor/my_tim.cpp ****             // end_time = DWT->CYCCNT; // и®°еҪ•з»“жқҹж—¶й—ҙ
  40:My_Top/Step_Motor/my_tim.cpp ****             // M1.run_time_us = (float)(end_time - start_time) / 168.0f; // и®Ўз®—иҝҗиЎҢж—¶й—ҙпјҲеҚ
  41:My_Top/Step_Motor/my_tim.cpp ****         }
  42:My_Top/Step_Motor/my_tim.cpp ****         count = (count%10000)+1;
  67              		.loc 1 42 9 view .LVU18
  68              		.loc 1 42 23 is_stmt 0 view .LVU19
  69 001e 0649     		ldr	r1, .L4+12
  70 0020 FFF7FEFF 		bl	__aeabi_uidivmod
  71              	.LVL2:
  72 0024 89B2     		uxth	r1, r1
  73              		.loc 1 42 30 view .LVU20
ARM GAS  /tmp/cckyrMZQ.s 			page 3


  74 0026 0131     		adds	r1, r1, #1
  75              		.loc 1 42 15 view .LVU21
  76 0028 2180     		strh	r1, [r4]
  77              	.L1:
  43:My_Top/Step_Motor/my_tim.cpp **** 
  44:My_Top/Step_Motor/my_tim.cpp ****     }
  45:My_Top/Step_Motor/my_tim.cpp **** }
  78              		.loc 1 45 1 view .LVU22
  79              		@ sp needed
  80 002a 10BD     		pop	{r4, pc}
  81              	.L5:
  82              		.align	2
  83              	.L4:
  84 002c 00000000 		.word	M1
  85 0030 00000000 		.word	M2
  86 0034 00000000 		.word	.LANCHOR0
  87 0038 10270000 		.word	10000
  88              		.cfi_endproc
  89              	.LFE1466:
  91              		.align	1
  92              		.global	_Z18My_Tim_OC_CallbackP19__TIM_HandleTypeDef
  93              		.syntax unified
  94              		.code	16
  95              		.thumb_func
  97              	_Z18My_Tim_OC_CallbackP19__TIM_HandleTypeDef:
  98              	.LVL3:
  99              	.LFB1467:
  46:My_Top/Step_Motor/my_tim.cpp **** 
  47:My_Top/Step_Motor/my_tim.cpp **** 
  48:My_Top/Step_Motor/my_tim.cpp **** void My_Tim_OC_Callback(TIM_HandleTypeDef *htim) // TIM3_CH1 зҡ„иҫ“еҮәжҜ”иҫғдёӯж–ӯ
  49:My_Top/Step_Motor/my_tim.cpp **** {
 100              		.loc 1 49 1 is_stmt 1 view -0
 101              		.cfi_startproc
 102              		@ args = 0, pretend = 0, frame = 0
 103              		@ frame_needed = 0, uses_anonymous_args = 0
 104              		.loc 1 49 1 is_stmt 0 view .LVU24
 105 003c 10B5     		push	{r4, lr}
 106              		.cfi_def_cfa_offset 8
 107              		.cfi_offset 4, -8
 108              		.cfi_offset 14, -4
  50:My_Top/Step_Motor/my_tim.cpp ****     static uint16_t count = 0;
 109              		.loc 1 50 5 is_stmt 1 view .LVU25
  51:My_Top/Step_Motor/my_tim.cpp ****     static uint32_t start_time = 0, end_time = 0; // и®Ўж—¶еҸҳйҮҸ
 110              		.loc 1 51 5 view .LVU26
  52:My_Top/Step_Motor/my_tim.cpp **** 
  53:My_Top/Step_Motor/my_tim.cpp ****     uint32_t psc = TIM3->PSC;   // еә”иҜҘиҜ»еҮәжқҘжҳҜ 39
 111              		.loc 1 53 5 view .LVU27
 112              		.loc 1 53 26 is_stmt 0 view .LVU28
 113 003e 0D4B     		ldr	r3, .L9
 114 0040 9A6A     		ldr	r2, [r3, #40]
  54:My_Top/Step_Motor/my_tim.cpp ****     uint32_t arr = TIM3->ARR;   // еә”иҜҘиҜ»еҮәжқҘжҳҜ 99
 115              		.loc 1 54 5 is_stmt 1 view .LVU29
 116              		.loc 1 54 26 is_stmt 0 view .LVU30
 117 0042 DB6A     		ldr	r3, [r3, #44]
  55:My_Top/Step_Motor/my_tim.cpp **** 
  56:My_Top/Step_Motor/my_tim.cpp **** 
  57:My_Top/Step_Motor/my_tim.cpp ****     if (M1.control_init_flag == false) return;// еҲқе§ӢеҢ–жңӘе®ҢжҲҗж—¶пјҢдёҚжү§иЎҢ
ARM GAS  /tmp/cckyrMZQ.s 			page 4


 118              		.loc 1 57 5 is_stmt 1 view .LVU31
 119              		.loc 1 57 12 is_stmt 0 view .LVU32
 120 0044 0C4B     		ldr	r3, .L9+4
 121 0046 5B78     		ldrb	r3, [r3, #1]
 122              		.loc 1 57 5 view .LVU33
 123 0048 002B     		cmp	r3, #0
 124 004a 03D0     		beq	.L6
  58:My_Top/Step_Motor/my_tim.cpp ****     if (M2.control_init_flag == false) return;
 125              		.loc 1 58 5 is_stmt 1 view .LVU34
 126              		.loc 1 58 12 is_stmt 0 view .LVU35
 127 004c 0B4B     		ldr	r3, .L9+8
 128 004e 5B78     		ldrb	r3, [r3, #1]
 129              		.loc 1 58 5 view .LVU36
 130 0050 002B     		cmp	r3, #0
 131 0052 00D1     		bne	.L8
 132              	.LVL4:
 133              	.L6:
  59:My_Top/Step_Motor/my_tim.cpp ****     M1.setFre();
  60:My_Top/Step_Motor/my_tim.cpp ****     M2.setFre(); 
  61:My_Top/Step_Motor/my_tim.cpp ****     count = (count%10000)+1;
  62:My_Top/Step_Motor/my_tim.cpp **** 
  63:My_Top/Step_Motor/my_tim.cpp **** }
 134              		.loc 1 63 1 view .LVU37
 135              		@ sp needed
 136 0054 10BD     		pop	{r4, pc}
 137              	.LVL5:
 138              	.L8:
  59:My_Top/Step_Motor/my_tim.cpp ****     M1.setFre();
 139              		.loc 1 59 5 is_stmt 1 view .LVU38
  59:My_Top/Step_Motor/my_tim.cpp ****     M1.setFre();
 140              		.loc 1 59 14 is_stmt 0 view .LVU39
 141 0056 0848     		ldr	r0, .L9+4
 142              	.LVL6:
  59:My_Top/Step_Motor/my_tim.cpp ****     M1.setFre();
 143              		.loc 1 59 14 view .LVU40
 144 0058 FFF7FEFF 		bl	_ZN12StepperMotor6setFreEv
 145              	.LVL7:
  60:My_Top/Step_Motor/my_tim.cpp ****     count = (count%10000)+1;
 146              		.loc 1 60 5 is_stmt 1 view .LVU41
  60:My_Top/Step_Motor/my_tim.cpp ****     count = (count%10000)+1;
 147              		.loc 1 60 14 is_stmt 0 view .LVU42
 148 005c 0748     		ldr	r0, .L9+8
 149 005e FFF7FEFF 		bl	_ZN12StepperMotor6setFreEv
 150              	.LVL8:
  61:My_Top/Step_Motor/my_tim.cpp **** 
 151              		.loc 1 61 5 is_stmt 1 view .LVU43
  61:My_Top/Step_Motor/my_tim.cpp **** 
 152              		.loc 1 61 19 is_stmt 0 view .LVU44
 153 0062 074C     		ldr	r4, .L9+12
 154 0064 6088     		ldrh	r0, [r4, #2]
 155 0066 0749     		ldr	r1, .L9+16
 156 0068 FFF7FEFF 		bl	__aeabi_uidivmod
 157              	.LVL9:
 158 006c 89B2     		uxth	r1, r1
  61:My_Top/Step_Motor/my_tim.cpp **** 
 159              		.loc 1 61 26 view .LVU45
 160 006e 0131     		adds	r1, r1, #1
ARM GAS  /tmp/cckyrMZQ.s 			page 5


  61:My_Top/Step_Motor/my_tim.cpp **** 
 161              		.loc 1 61 11 view .LVU46
 162 0070 6180     		strh	r1, [r4, #2]
 163 0072 EFE7     		b	.L6
 164              	.L10:
 165              		.align	2
 166              	.L9:
 167 0074 00040040 		.word	1073742848
 168 0078 00000000 		.word	M1
 169 007c 00000000 		.word	M2
 170 0080 00000000 		.word	.LANCHOR0
 171 0084 10270000 		.word	10000
 172              		.cfi_endproc
 173              	.LFE1467:
 175              		.align	1
 176              		.global	_Z11My_Tim_InitP19__TIM_HandleTypeDefP17ADC_HandleTypeDef
 177              		.syntax unified
 178              		.code	16
 179              		.thumb_func
 181              	_Z11My_Tim_InitP19__TIM_HandleTypeDefP17ADC_HandleTypeDef:
 182              	.LVL10:
 183              	.LFB1468:
  64:My_Top/Step_Motor/my_tim.cpp **** 
  65:My_Top/Step_Motor/my_tim.cpp **** 
  66:My_Top/Step_Motor/my_tim.cpp **** /*
  67:My_Top/Step_Motor/my_tim.cpp **** void laji()
  68:My_Top/Step_Motor/my_tim.cpp **** {
  69:My_Top/Step_Motor/my_tim.cpp ****     static uint32_t last_time = 0;
  70:My_Top/Step_Motor/my_tim.cpp ****     uint32_t now_time =  HAL_System::get_tick_us();
  71:My_Top/Step_Motor/my_tim.cpp ****     if (last_time != 0) {
  72:My_Top/Step_Motor/my_tim.cpp ****          M1.laji = (int32_t)(now_time - last_time);  // еҚ•ж¬Ўдёӯж–ӯй—ҙйҡ”пјҢеҚ•дҪҚus
  73:My_Top/Step_Motor/my_tim.cpp ****     }
  74:My_Top/Step_Motor/my_tim.cpp ****     last_time = now_time;
  75:My_Top/Step_Motor/my_tim.cpp **** }
  76:My_Top/Step_Motor/my_tim.cpp **** */
  77:My_Top/Step_Motor/my_tim.cpp **** 
  78:My_Top/Step_Motor/my_tim.cpp **** /**
  79:My_Top/Step_Motor/my_tim.cpp ****  * @brief еҲқе§ӢеҢ–е®ҡж—¶еҷЁе№¶и®ҫзҪ®еӣһи°ғеҮҪж•°
  80:My_Top/Step_Motor/my_tim.cpp ****  * @param htim е®ҡж—¶еҷЁеҸҘжҹ„жҢҮй’ҲпјҢжҢҮеҗ‘е®ҡж—¶еҷЁй…ҚзҪ®з»“жһ„дҪ“
  81:My_Top/Step_Motor/my_tim.cpp ****  */
  82:My_Top/Step_Motor/my_tim.cpp **** 
  83:My_Top/Step_Motor/my_tim.cpp **** uint16_t ADC_Value[100]; // ADCйҮҮйӣҶеҖјж•°з»„пјҢй•ҝеәҰдёә2
  84:My_Top/Step_Motor/my_tim.cpp **** void My_Tim_Init(TIM_HandleTypeDef* htim,ADC_HandleTypeDef *hadc)
  85:My_Top/Step_Motor/my_tim.cpp **** {
 184              		.loc 1 85 1 is_stmt 1 view -0
 185              		.cfi_startproc
 186              		@ args = 0, pretend = 0, frame = 0
 187              		@ frame_needed = 0, uses_anonymous_args = 0
 188              		.loc 1 85 1 is_stmt 0 view .LVU48
 189 0088 10B5     		push	{r4, lr}
 190              		.cfi_def_cfa_offset 8
 191              		.cfi_offset 4, -8
 192              		.cfi_offset 14, -4
 193 008a 0400     		movs	r4, r0
 194 008c 0800     		movs	r0, r1
 195              	.LVL11:
  86:My_Top/Step_Motor/my_tim.cpp ****     HAL_ADC_Start_DMA(hadc,(uint32_t *)ADC_Value,100); //з”өжұ з”өеҺӢйҮҮйӣҶ
ARM GAS  /tmp/cckyrMZQ.s 			page 6


 196              		.loc 1 86 5 is_stmt 1 view .LVU49
 197              		.loc 1 86 22 is_stmt 0 view .LVU50
 198 008e 0A49     		ldr	r1, .L12
 199              	.LVL12:
 200              		.loc 1 86 22 view .LVU51
 201 0090 6422     		movs	r2, #100
 202 0092 FFF7FEFF 		bl	HAL_ADC_Start_DMA
 203              	.LVL13:
  87:My_Top/Step_Motor/my_tim.cpp ****     __HAL_TIM_SET_COMPARE(htim, TIM_CHANNEL_1, (uint32_t)(100 * 0.5f)); // и®ҫзҪ®еҚ з©әжҜ”дёә50% жҺ
 204              		.loc 1 87 5 is_stmt 1 view .LVU52
 205 0096 2368     		ldr	r3, [r4]
 206 0098 3222     		movs	r2, #50
 207 009a 5A63     		str	r2, [r3, #52]
  88:My_Top/Step_Motor/my_tim.cpp ****     HAL_TIM_Base_Start_IT(htim); //еҗҜеҠЁе®ҡж—¶еҷЁе‘Ёжңҹдёӯж–ӯ
 208              		.loc 1 88 5 view .LVU53
 209              		.loc 1 88 26 is_stmt 0 view .LVU54
 210 009c 2000     		movs	r0, r4
 211 009e FFF7FEFF 		bl	HAL_TIM_Base_Start_IT
 212              	.LVL14:
  89:My_Top/Step_Motor/my_tim.cpp ****     HAL_TIM_OC_Start_IT(htim, TIM_CHANNEL_1); //еҗҜеҠЁе®ҡж—¶еҷЁжҜ”иҫғдёӯж–ӯ
 213              		.loc 1 89 5 is_stmt 1 view .LVU55
 214              		.loc 1 89 24 is_stmt 0 view .LVU56
 215 00a2 0021     		movs	r1, #0
 216 00a4 2000     		movs	r0, r4
 217 00a6 FFF7FEFF 		bl	HAL_TIM_OC_Start_IT
 218              	.LVL15:
  90:My_Top/Step_Motor/my_tim.cpp ****     htim->PeriodElapsedCallback = My_Tim_Callback;  // и®ҫзҪ®е®ҡж—¶еҷЁе‘Ёжңҹз»“жқҹеӣһи°ғеҮҪж•°
 219              		.loc 1 90 5 is_stmt 1 view .LVU57
 220              		.loc 1 90 33 is_stmt 0 view .LVU58
 221 00aa 044B     		ldr	r3, .L12+4
 222 00ac 8422     		movs	r2, #132
 223 00ae A350     		str	r3, [r4, r2]
  91:My_Top/Step_Motor/my_tim.cpp ****     htim->PWM_PulseFinishedCallback = My_Tim_OC_Callback;// PWMзҡ„жЁЎејҸзҡ„жҜ”иҫғеҢ№й…Қеӣһи°ғеҮҪж•°
 224              		.loc 1 91 5 is_stmt 1 view .LVU59
 225              		.loc 1 91 37 is_stmt 0 view .LVU60
 226 00b0 034B     		ldr	r3, .L12+8
 227 00b2 1C32     		adds	r2, r2, #28
 228 00b4 A350     		str	r3, [r4, r2]
  92:My_Top/Step_Motor/my_tim.cpp **** }
 229              		.loc 1 92 1 view .LVU61
 230              		@ sp needed
 231              	.LVL16:
 232              		.loc 1 92 1 view .LVU62
 233 00b6 10BD     		pop	{r4, pc}
 234              	.L13:
 235              		.align	2
 236              	.L12:
 237 00b8 00000000 		.word	ADC_Value
 238 00bc 00000000 		.word	_Z15My_Tim_CallbackP19__TIM_HandleTypeDef
 239 00c0 00000000 		.word	_Z18My_Tim_OC_CallbackP19__TIM_HandleTypeDef
 240              		.cfi_endproc
 241              	.LFE1468:
 243              		.align	1
 244              		.global	_Z15M1_Tim_CallbackP19__TIM_HandleTypeDef
 245              		.syntax unified
 246              		.code	16
 247              		.thumb_func
ARM GAS  /tmp/cckyrMZQ.s 			page 7


 249              	_Z15M1_Tim_CallbackP19__TIM_HandleTypeDef:
 250              	.LVL17:
 251              	.LFB1469:
  93:My_Top/Step_Motor/my_tim.cpp **** 
  94:My_Top/Step_Motor/my_tim.cpp **** 
  95:My_Top/Step_Motor/my_tim.cpp **** 
  96:My_Top/Step_Motor/my_tim.cpp **** 
  97:My_Top/Step_Motor/my_tim.cpp **** 
  98:My_Top/Step_Motor/my_tim.cpp **** 
  99:My_Top/Step_Motor/my_tim.cpp **** // в”Җв”Җ M1 зҡ„зӢ¬з«Ӣе®ҡж—¶еҷЁе‘Ёжңҹз»“жқҹеӣһи°ғ в”Җв”Җ
 100:My_Top/Step_Motor/my_tim.cpp **** void M1_Tim_Callback(TIM_HandleTypeDef *htim)
 101:My_Top/Step_Motor/my_tim.cpp **** {
 252              		.loc 1 101 1 is_stmt 1 view -0
 253              		.cfi_startproc
 254              		@ args = 0, pretend = 0, frame = 0
 255              		@ frame_needed = 0, uses_anonymous_args = 0
 256              		.loc 1 101 1 is_stmt 0 view .LVU64
 257 00c4 10B5     		push	{r4, lr}
 258              		.cfi_def_cfa_offset 8
 259              		.cfi_offset 4, -8
 260              		.cfi_offset 14, -4
 102:My_Top/Step_Motor/my_tim.cpp ****     if (M1.control_init_flag == false) return;// еҲқе§ӢеҢ–жңӘе®ҢжҲҗж—¶пјҢдёҚжү§иЎҢ
 261              		.loc 1 102 5 is_stmt 1 view .LVU65
 262              		.loc 1 102 12 is_stmt 0 view .LVU66
 263 00c6 044B     		ldr	r3, .L17
 264 00c8 5B78     		ldrb	r3, [r3, #1]
 265              		.loc 1 102 5 view .LVU67
 266 00ca 002B     		cmp	r3, #0
 267 00cc 00D1     		bne	.L16
 268              	.LVL18:
 269              	.L14:
 103:My_Top/Step_Motor/my_tim.cpp ****     M1.Step_Handler(); 
 104:My_Top/Step_Motor/my_tim.cpp **** }
 270              		.loc 1 104 1 view .LVU68
 271              		@ sp needed
 272 00ce 10BD     		pop	{r4, pc}
 273              	.LVL19:
 274              	.L16:
 103:My_Top/Step_Motor/my_tim.cpp ****     M1.Step_Handler(); 
 275              		.loc 1 103 5 is_stmt 1 view .LVU69
 103:My_Top/Step_Motor/my_tim.cpp ****     M1.Step_Handler(); 
 276              		.loc 1 103 20 is_stmt 0 view .LVU70
 277 00d0 0148     		ldr	r0, .L17
 278              	.LVL20:
 103:My_Top/Step_Motor/my_tim.cpp ****     M1.Step_Handler(); 
 279              		.loc 1 103 20 view .LVU71
 280 00d2 FFF7FEFF 		bl	_ZN12StepperMotor12Step_HandlerEv
 281              	.LVL21:
 282 00d6 FAE7     		b	.L14
 283              	.L18:
 284              		.align	2
 285              	.L17:
 286 00d8 00000000 		.word	M1
 287              		.cfi_endproc
 288              	.LFE1469:
 290              		.align	1
 291              		.global	_Z15M2_Tim_CallbackP19__TIM_HandleTypeDef
ARM GAS  /tmp/cckyrMZQ.s 			page 8


 292              		.syntax unified
 293              		.code	16
 294              		.thumb_func
 296              	_Z15M2_Tim_CallbackP19__TIM_HandleTypeDef:
 297              	.LVL22:
 298              	.LFB1470:
 105:My_Top/Step_Motor/my_tim.cpp **** 
 106:My_Top/Step_Motor/my_tim.cpp **** // в”Җв”Җ M2з”өжңә зҡ„зӢ¬з«Ӣе®ҡж—¶еҷЁе‘Ёжңҹз»“жқҹеӣһи°ғ в”Җв”Җ
 107:My_Top/Step_Motor/my_tim.cpp **** void M2_Tim_Callback(TIM_HandleTypeDef *htim)
 108:My_Top/Step_Motor/my_tim.cpp **** {
 299              		.loc 1 108 1 is_stmt 1 view -0
 300              		.cfi_startproc
 301              		@ args = 0, pretend = 0, frame = 0
 302              		@ frame_needed = 0, uses_anonymous_args = 0
 303              		.loc 1 108 1 is_stmt 0 view .LVU73
 304 00dc 10B5     		push	{r4, lr}
 305              		.cfi_def_cfa_offset 8
 306              		.cfi_offset 4, -8
 307              		.cfi_offset 14, -4
 109:My_Top/Step_Motor/my_tim.cpp ****     if (M2.control_init_flag == false) return;
 308              		.loc 1 109 5 is_stmt 1 view .LVU74
 309              		.loc 1 109 12 is_stmt 0 view .LVU75
 310 00de 044B     		ldr	r3, .L22
 311 00e0 5B78     		ldrb	r3, [r3, #1]
 312              		.loc 1 109 5 view .LVU76
 313 00e2 002B     		cmp	r3, #0
 314 00e4 00D1     		bne	.L21
 315              	.LVL23:
 316              	.L19:
 110:My_Top/Step_Motor/my_tim.cpp ****     M2.Step_Handler(); 
 111:My_Top/Step_Motor/my_tim.cpp **** }
 317              		.loc 1 111 1 view .LVU77
 318              		@ sp needed
 319 00e6 10BD     		pop	{r4, pc}
 320              	.LVL24:
 321              	.L21:
 110:My_Top/Step_Motor/my_tim.cpp ****     M2.Step_Handler(); 
 322              		.loc 1 110 5 is_stmt 1 view .LVU78
 110:My_Top/Step_Motor/my_tim.cpp ****     M2.Step_Handler(); 
 323              		.loc 1 110 20 is_stmt 0 view .LVU79
 324 00e8 0148     		ldr	r0, .L22
 325              	.LVL25:
 110:My_Top/Step_Motor/my_tim.cpp ****     M2.Step_Handler(); 
 326              		.loc 1 110 20 view .LVU80
 327 00ea FFF7FEFF 		bl	_ZN12StepperMotor12Step_HandlerEv
 328              	.LVL26:
 329 00ee FAE7     		b	.L19
 330              	.L23:
 331              		.align	2
 332              	.L22:
 333 00f0 00000000 		.word	M2
 334              		.cfi_endproc
 335              	.LFE1470:
 337              		.global	ADC_Value
 338              		.bss
 339              		.align	2
 340              		.set	.LANCHOR0,. + 0
ARM GAS  /tmp/cckyrMZQ.s 			page 9


 343              	_ZZ15My_Tim_CallbackP19__TIM_HandleTypeDefE5count:
 344 0000 0000     		.space	2
 347              	_ZZ18My_Tim_OC_CallbackP19__TIM_HandleTypeDefE5count:
 348 0002 0000     		.space	2
 351              	ADC_Value:
 352 0004 00000000 		.space	200
 352      00000000 
 352      00000000 
 352      00000000 
 352      00000000 
 353              		.text
 354              	.Letext0:
 355              		.file 2 "/opt/arm-gnu-toolchain-14.2/arm-none-eabi/include/machine/_default_types.h"
 356              		.file 3 "/opt/arm-gnu-toolchain-14.2/arm-none-eabi/include/sys/_stdint.h"
 357              		.file 4 "Drivers/CMSIS/Device/ST/STM32G0xx/Include/stm32g071xx.h"
 358              		.file 5 "Drivers/CMSIS/Device/ST/STM32G0xx/Include/stm32g0xx.h"
 359              		.file 6 "Drivers/STM32G0xx_HAL_Driver/Inc/stm32g0xx_hal_def.h"
 360              		.file 7 "Drivers/STM32G0xx_HAL_Driver/Inc/stm32g0xx_hal_dma.h"
 361              		.file 8 "Drivers/STM32G0xx_HAL_Driver/Inc/stm32g0xx_hal_adc.h"
 362              		.file 9 "Drivers/STM32G0xx_HAL_Driver/Inc/stm32g0xx_hal_spi.h"
 363              		.file 10 "Drivers/STM32G0xx_HAL_Driver/Inc/stm32g0xx_hal_tim.h"
 364              		.file 11 "My_Top/System/pid_Increment.hpp"
 365              		.file 12 "/opt/arm-gnu-toolchain-14.2/arm-none-eabi/include/c++/14.2.1/cmath"
 366              		.file 13 "/opt/arm-gnu-toolchain-14.2/arm-none-eabi/include/c++/14.2.1/type_traits"
 367              		.file 14 "/opt/arm-gnu-toolchain-14.2/arm-none-eabi/include/c++/14.2.1/debug/debug.h"
 368              		.file 15 "/opt/arm-gnu-toolchain-14.2/arm-none-eabi/include/c++/14.2.1/bits/std_abs.h"
 369              		.file 16 "/opt/arm-gnu-toolchain-14.2/arm-none-eabi/include/c++/14.2.1/bits/predefined_ops.h"
 370              		.file 17 "/opt/arm-gnu-toolchain-14.2/arm-none-eabi/include/math.h"
 371              		.file 18 "/opt/arm-gnu-toolchain-14.2/arm-none-eabi/include/c++/14.2.1/arm-none-eabi/thumb/v6-m/no
 372              		.file 19 "/opt/arm-gnu-toolchain-14.2/arm-none-eabi/include/c++/14.2.1/math.h"
 373              		.file 20 "Lib/compute/ex_math.hpp"
 374              		.file 21 "My_Top/System/kth_read.hpp"
 375              		.file 22 "My_Top/Step_Motor/Step.hpp"
 376              		.file 23 "My_Top/Step_Motor/StepperMotor_Loop.hpp"
 377              		.file 24 "Drivers/STM32G0xx_HAL_Driver/Inc/stm32g0xx_ll_dma.h"
ARM GAS  /tmp/cckyrMZQ.s 			page 10

