ARM GAS  /tmp/ccW8ZRZU.s 			page 1


   1              		.cpu cortex-m0plus
   2              		.arch armv6s-m
   3              		.fpu softvfp
   4              		.eabi_attribute 20, 1
   5              		.eabi_attribute 21, 1
   6              		.eabi_attribute 23, 3
   7              		.eabi_attribute 24, 1
   8              		.eabi_attribute 25, 1
   9              		.eabi_attribute 26, 1
  10              		.eabi_attribute 30, 1
  11              		.eabi_attribute 34, 0
  12              		.eabi_attribute 18, 4
  13              		.file	"parameter.cpp"
  14              		.text
  15              	.Ltext0:
  16              		.cfi_sections	.debug_frame
  17              		.file 1 "Lib/parameter/parameter.cpp"
  18              		.align	1
  19              		.global	_ZN9Parameter4initEiP12param_init_t
  20              		.syntax unified
  21              		.code	16
  22              		.thumb_func
  24              	_ZN9Parameter4initEiP12param_init_t:
  25              	.LVL0:
  26              	.LFB988:
   1:Lib/parameter/parameter.cpp **** #include "parameter.hpp"
   2:Lib/parameter/parameter.cpp **** 
   3:Lib/parameter/parameter.cpp **** void Parameter::init(int index, param_init_t pi)
   4:Lib/parameter/parameter.cpp **** {
   5:Lib/parameter/parameter.cpp ****     init(index, &pi);
   6:Lib/parameter/parameter.cpp **** }
   7:Lib/parameter/parameter.cpp **** 
   8:Lib/parameter/parameter.cpp **** void Parameter::init(int index, param_init_t *pi)
   9:Lib/parameter/parameter.cpp **** {
  27              		.loc 1 9 1 view -0
  28              		.cfi_startproc
  29              		@ args = 0, pretend = 0, frame = 0
  30              		@ frame_needed = 0, uses_anonymous_args = 0
  31              		@ link register save eliminated.
  10:Lib/parameter/parameter.cpp ****     _index = index;
  32              		.loc 1 10 5 view .LVU1
  33              		.loc 1 10 12 is_stmt 0 view .LVU2
  34 0000 0160     		str	r1, [r0]
  11:Lib/parameter/parameter.cpp ****     _id = pi->id;
  35              		.loc 1 11 5 is_stmt 1 view .LVU3
  36              		.loc 1 11 15 is_stmt 0 view .LVU4
  37 0002 1368     		ldr	r3, [r2]
  38              		.loc 1 11 9 view .LVU5
  39 0004 4360     		str	r3, [r0, #4]
  12:Lib/parameter/parameter.cpp ****     _type = pi->type;
  40              		.loc 1 12 5 is_stmt 1 view .LVU6
  41              		.loc 1 12 17 is_stmt 0 view .LVU7
  42 0006 1379     		ldrb	r3, [r2, #4]
  43              		.loc 1 12 11 view .LVU8
  44 0008 0372     		strb	r3, [r0, #8]
  13:Lib/parameter/parameter.cpp ****     _dest_ptr = pi->dest_ptr;
  45              		.loc 1 13 5 is_stmt 1 view .LVU9
ARM GAS  /tmp/ccW8ZRZU.s 			page 2


  46              		.loc 1 13 21 is_stmt 0 view .LVU10
  47 000a 9368     		ldr	r3, [r2, #8]
  48              		.loc 1 13 15 view .LVU11
  49 000c 0361     		str	r3, [r0, #16]
  14:Lib/parameter/parameter.cpp ****     _default_value = pi->default_value;
  50              		.loc 1 14 5 is_stmt 1 view .LVU12
  51              		.loc 1 14 26 is_stmt 0 view .LVU13
  52 000e D368     		ldr	r3, [r2, #12]
  53              		.loc 1 14 20 view .LVU14
  54 0010 4361     		str	r3, [r0, #20]
  15:Lib/parameter/parameter.cpp ****     _min_value = pi->min_value;
  55              		.loc 1 15 5 is_stmt 1 view .LVU15
  56              		.loc 1 15 22 is_stmt 0 view .LVU16
  57 0012 1369     		ldr	r3, [r2, #16]
  58              		.loc 1 15 16 view .LVU17
  59 0014 8361     		str	r3, [r0, #24]
  16:Lib/parameter/parameter.cpp ****     _max_value = pi->max_value;
  60              		.loc 1 16 5 is_stmt 1 view .LVU18
  61              		.loc 1 16 22 is_stmt 0 view .LVU19
  62 0016 5369     		ldr	r3, [r2, #20]
  63              		.loc 1 16 16 view .LVU20
  64 0018 C361     		str	r3, [r0, #28]
  17:Lib/parameter/parameter.cpp ****     _step = pi->step;
  65              		.loc 1 17 5 is_stmt 1 view .LVU21
  66              		.loc 1 17 17 is_stmt 0 view .LVU22
  67 001a 9369     		ldr	r3, [r2, #24]
  68              		.loc 1 17 11 view .LVU23
  69 001c 0362     		str	r3, [r0, #32]
  18:Lib/parameter/parameter.cpp **** #if PARAM_USE_CN_DESCRIPTION
  19:Lib/parameter/parameter.cpp ****     _description = pi->desc_cn;
  70              		.loc 1 19 5 is_stmt 1 view .LVU24
  71              		.loc 1 19 24 is_stmt 0 view .LVU25
  72 001e 136A     		ldr	r3, [r2, #32]
  73              		.loc 1 19 18 view .LVU26
  74 0020 4362     		str	r3, [r0, #36]
  20:Lib/parameter/parameter.cpp **** #else
  21:Lib/parameter/parameter.cpp ****     _description = pi->description;
  22:Lib/parameter/parameter.cpp **** #endif
  23:Lib/parameter/parameter.cpp **** }
  75              		.loc 1 23 1 view .LVU27
  76              		@ sp needed
  77 0022 7047     		bx	lr
  78              		.cfi_endproc
  79              	.LFE988:
  81              		.align	1
  82              		.global	_ZN9Parameter4initEi12param_init_t
  83              		.syntax unified
  84              		.code	16
  85              		.thumb_func
  87              	_ZN9Parameter4initEi12param_init_t:
  88              	.LVL1:
  89              	.LFB987:
   4:Lib/parameter/parameter.cpp ****     init(index, &pi);
  90              		.loc 1 4 1 is_stmt 1 view -0
  91              		.cfi_startproc
  92              		@ args = 36, pretend = 8, frame = 0
  93              		@ frame_needed = 0, uses_anonymous_args = 0
ARM GAS  /tmp/ccW8ZRZU.s 			page 3


   4:Lib/parameter/parameter.cpp ****     init(index, &pi);
  94              		.loc 1 4 1 is_stmt 0 view .LVU29
  95 0024 82B0     		sub	sp, sp, #8
  96              		.cfi_def_cfa_offset 8
  97 0026 10B5     		push	{r4, lr}
  98              		.cfi_def_cfa_offset 16
  99              		.cfi_offset 4, -16
 100              		.cfi_offset 14, -12
 101 0028 0292     		str	r2, [sp, #8]
 102 002a 0393     		str	r3, [sp, #12]
   5:Lib/parameter/parameter.cpp **** }
 103              		.loc 1 5 5 is_stmt 1 view .LVU30
   5:Lib/parameter/parameter.cpp **** }
 104              		.loc 1 5 9 is_stmt 0 view .LVU31
 105 002c 02AA     		add	r2, sp, #8
 106 002e FFF7FEFF 		bl	_ZN9Parameter4initEiP12param_init_t
 107              	.LVL2:
   6:Lib/parameter/parameter.cpp **** 
 108              		.loc 1 6 1 view .LVU32
 109              		@ sp needed
 110 0032 10BC     		pop	{r4}
 111 0034 08BC     		pop	{r3}
 112 0036 02B0     		add	sp, sp, #8
 113 0038 1847     		bx	r3
 114              		.cfi_endproc
 115              	.LFE987:
 117              		.align	1
 118              		.global	_ZN9Parameter6updateEf
 119              		.syntax unified
 120              		.code	16
 121              		.thumb_func
 123              	_ZN9Parameter6updateEf:
 124              	.LVL3:
 125              	.LFB989:
  24:Lib/parameter/parameter.cpp **** 
  25:Lib/parameter/parameter.cpp **** void Parameter::update(float value)
  26:Lib/parameter/parameter.cpp **** {
 126              		.loc 1 26 1 is_stmt 1 view -0
 127              		.cfi_startproc
 128              		@ args = 0, pretend = 0, frame = 0
 129              		@ frame_needed = 0, uses_anonymous_args = 0
 130              		.loc 1 26 1 is_stmt 0 view .LVU34
 131 003a 70B5     		push	{r4, r5, r6, lr}
 132              		.cfi_def_cfa_offset 16
 133              		.cfi_offset 4, -16
 134              		.cfi_offset 5, -12
 135              		.cfi_offset 6, -8
 136              		.cfi_offset 14, -4
 137 003c 0400     		movs	r4, r0
 138 003e 0D1C     		adds	r5, r1, #0
  27:Lib/parameter/parameter.cpp ****     _value = constraint_value(value, _min_value, _max_value);
 139              		.loc 1 27 5 is_stmt 1 view .LVU35
 140              		.loc 1 27 14 is_stmt 0 view .LVU36
 141 0040 8669     		ldr	r6, [r0, #24]
 142 0042 301C     		adds	r0, r6, #0
 143              	.LVL4:
 144              		.loc 1 27 14 view .LVU37
ARM GAS  /tmp/ccW8ZRZU.s 			page 4


 145 0044 FFF7FEFF 		bl	__aeabi_fcmpgt
 146              	.LVL5:
 147              		.loc 1 27 14 view .LVU38
 148 0048 0028     		cmp	r0, #0
 149 004a 07D1     		bne	.L4
 150              		.loc 1 27 14 discriminator 2 view .LVU39
 151 004c E669     		ldr	r6, [r4, #28]
 152 004e 291C     		adds	r1, r5, #0
 153 0050 301C     		adds	r0, r6, #0
 154 0052 FFF7FEFF 		bl	__aeabi_fcmplt
 155              	.LVL6:
 156 0056 0028     		cmp	r0, #0
 157 0058 00D1     		bne	.L4
 158              		.loc 1 27 14 discriminator 5 view .LVU40
 159 005a 2E1C     		adds	r6, r5, #0
 160              	.L4:
 161              		.loc 1 27 12 discriminator 8 view .LVU41
 162 005c E660     		str	r6, [r4, #12]
  28:Lib/parameter/parameter.cpp **** }
 163              		.loc 1 28 1 view .LVU42
 164              		@ sp needed
 165              	.LVL7:
 166              	.LVL8:
 167              		.loc 1 28 1 view .LVU43
 168 005e 70BD     		pop	{r4, r5, r6, pc}
 169              		.cfi_endproc
 170              	.LFE989:
 172              		.align	1
 173              		.global	_ZN9Parameter4loadEv
 174              		.syntax unified
 175              		.code	16
 176              		.thumb_func
 178              	_ZN9Parameter4loadEv:
 179              	.LVL9:
 180              	.LFB990:
  29:Lib/parameter/parameter.cpp **** 
  30:Lib/parameter/parameter.cpp **** bool Parameter::load(void)
  31:Lib/parameter/parameter.cpp **** {
 181              		.loc 1 31 1 is_stmt 1 view -0
 182              		.cfi_startproc
 183              		@ args = 0, pretend = 0, frame = 0
 184              		@ frame_needed = 0, uses_anonymous_args = 0
 185              		.loc 1 31 1 is_stmt 0 view .LVU45
 186 0060 10B5     		push	{r4, lr}
 187              		.cfi_def_cfa_offset 8
 188              		.cfi_offset 4, -8
 189              		.cfi_offset 14, -4
  32:Lib/parameter/parameter.cpp ****     if (_dest_ptr == nullptr)
 190              		.loc 1 32 5 is_stmt 1 view .LVU46
 191              		.loc 1 32 9 is_stmt 0 view .LVU47
 192 0062 0469     		ldr	r4, [r0, #16]
 193              		.loc 1 32 5 view .LVU48
 194 0064 002C     		cmp	r4, #0
 195 0066 43D0     		beq	.L18
  33:Lib/parameter/parameter.cpp ****         return false;
  34:Lib/parameter/parameter.cpp **** 
  35:Lib/parameter/parameter.cpp ****     switch (_type)
ARM GAS  /tmp/ccW8ZRZU.s 			page 5


 196              		.loc 1 35 5 is_stmt 1 view .LVU49
 197              		.loc 1 35 13 is_stmt 0 view .LVU50
 198 0068 037A     		ldrb	r3, [r0, #8]
 199              		.loc 1 35 5 view .LVU51
 200 006a 0A2B     		cmp	r3, #10
 201 006c 42D8     		bhi	.L19
 202 006e 9B00     		lsls	r3, r3, #2
 203 0070 214A     		ldr	r2, .L20
 204 0072 D358     		ldr	r3, [r2, r3]
 205 0074 9F46     		mov	pc, r3
 206              		.section	.rodata
 207              		.align	2
 208              	.L8:
 209 0000 F4000000 		.word	.L19
 210 0004 76000000 		.word	.L17
 211 0008 82000000 		.word	.L16
 212 000c 8E000000 		.word	.L15
 213 0010 9A000000 		.word	.L14
 214 0014 A6000000 		.word	.L13
 215 0018 B2000000 		.word	.L12
 216 001c BE000000 		.word	.L11
 217 0020 CC000000 		.word	.L10
 218 0024 DA000000 		.word	.L9
 219 0028 E2000000 		.word	.L7
 220              		.text
 221              	.L17:
  36:Lib/parameter/parameter.cpp ****     {
  37:Lib/parameter/parameter.cpp ****     case Param_Type::U8: /* uint8_t type */
 222              		.loc 1 37 5 is_stmt 1 view .LVU52
  38:Lib/parameter/parameter.cpp ****         *(uint8_t *)_dest_ptr = (uint8_t)_value;
 223              		.loc 1 38 9 view .LVU53
 224              		.loc 1 38 42 is_stmt 0 view .LVU54
 225 0076 C068     		ldr	r0, [r0, #12]
 226              	.LVL10:
 227              		.loc 1 38 33 view .LVU55
 228 0078 FFF7FEFF 		bl	__aeabi_f2uiz
 229              	.LVL11:
 230              		.loc 1 38 31 view .LVU56
 231 007c 2070     		strb	r0, [r4]
  39:Lib/parameter/parameter.cpp ****         break;
 232              		.loc 1 39 9 is_stmt 1 view .LVU57
  40:Lib/parameter/parameter.cpp ****     case Param_Type::I8: /* int8_t type */
  41:Lib/parameter/parameter.cpp ****         *(int8_t *)_dest_ptr = (int8_t)_value;
  42:Lib/parameter/parameter.cpp ****         break;
  43:Lib/parameter/parameter.cpp ****     case Param_Type::U16: /* uint16_t type */
  44:Lib/parameter/parameter.cpp ****         *(uint16_t *)_dest_ptr = (uint16_t)_value;
  45:Lib/parameter/parameter.cpp ****         break;
  46:Lib/parameter/parameter.cpp ****     case Param_Type::I16: /* int16_t type */
  47:Lib/parameter/parameter.cpp ****         *(int16_t *)_dest_ptr = (int16_t)_value;
  48:Lib/parameter/parameter.cpp ****         break;
  49:Lib/parameter/parameter.cpp ****     case Param_Type::U32: /* uint32_t type */
  50:Lib/parameter/parameter.cpp ****         *(uint32_t *)_dest_ptr = (uint32_t)_value;
  51:Lib/parameter/parameter.cpp ****         break;
  52:Lib/parameter/parameter.cpp ****     case Param_Type::I32: /* int32_t type */
  53:Lib/parameter/parameter.cpp ****         *(int32_t *)_dest_ptr = (int32_t)_value;
  54:Lib/parameter/parameter.cpp ****         break;
  55:Lib/parameter/parameter.cpp ****     case Param_Type::U64: /* uint64_t type */
ARM GAS  /tmp/ccW8ZRZU.s 			page 6


  56:Lib/parameter/parameter.cpp ****         *(uint64_t *)_dest_ptr = (uint64_t)_value;
  57:Lib/parameter/parameter.cpp ****         break;
  58:Lib/parameter/parameter.cpp ****     case Param_Type::I64: /* int64_t type */
  59:Lib/parameter/parameter.cpp ****         *(int64_t *)_dest_ptr = (int64_t)_value;
  60:Lib/parameter/parameter.cpp ****         break;
  61:Lib/parameter/parameter.cpp ****     case Param_Type::F32: /* float type */
  62:Lib/parameter/parameter.cpp ****         *(float *)_dest_ptr = (float)_value;
  63:Lib/parameter/parameter.cpp ****         break;
  64:Lib/parameter/parameter.cpp ****     case Param_Type::F64: /* double type */
  65:Lib/parameter/parameter.cpp ****         *(double *)_dest_ptr = (double)_value;
  66:Lib/parameter/parameter.cpp ****         break;
  67:Lib/parameter/parameter.cpp ****     default:
  68:Lib/parameter/parameter.cpp ****         return false;
  69:Lib/parameter/parameter.cpp ****     }
  70:Lib/parameter/parameter.cpp **** 
  71:Lib/parameter/parameter.cpp ****     return true;
 233              		.loc 1 71 12 is_stmt 0 view .LVU58
 234 007e 0120     		movs	r0, #1
  39:Lib/parameter/parameter.cpp ****         break;
 235              		.loc 1 39 9 view .LVU59
 236 0080 37E0     		b	.L6
 237              	.LVL12:
 238              	.L16:
  40:Lib/parameter/parameter.cpp ****     case Param_Type::I8: /* int8_t type */
 239              		.loc 1 40 5 is_stmt 1 view .LVU60
  41:Lib/parameter/parameter.cpp ****         break;
 240              		.loc 1 41 9 view .LVU61
  41:Lib/parameter/parameter.cpp ****         break;
 241              		.loc 1 41 40 is_stmt 0 view .LVU62
 242 0082 C068     		ldr	r0, [r0, #12]
 243              	.LVL13:
  41:Lib/parameter/parameter.cpp ****         break;
 244              		.loc 1 41 32 view .LVU63
 245 0084 FFF7FEFF 		bl	__aeabi_f2iz
 246              	.LVL14:
  41:Lib/parameter/parameter.cpp ****         break;
 247              		.loc 1 41 30 view .LVU64
 248 0088 2070     		strb	r0, [r4]
  42:Lib/parameter/parameter.cpp ****     case Param_Type::U16: /* uint16_t type */
 249              		.loc 1 42 9 is_stmt 1 view .LVU65
 250              		.loc 1 71 12 is_stmt 0 view .LVU66
 251 008a 0120     		movs	r0, #1
  42:Lib/parameter/parameter.cpp ****     case Param_Type::U16: /* uint16_t type */
 252              		.loc 1 42 9 view .LVU67
 253 008c 31E0     		b	.L6
 254              	.LVL15:
 255              	.L15:
  43:Lib/parameter/parameter.cpp ****         *(uint16_t *)_dest_ptr = (uint16_t)_value;
 256              		.loc 1 43 5 is_stmt 1 view .LVU68
  44:Lib/parameter/parameter.cpp ****         break;
 257              		.loc 1 44 9 view .LVU69
  44:Lib/parameter/parameter.cpp ****         break;
 258              		.loc 1 44 44 is_stmt 0 view .LVU70
 259 008e C068     		ldr	r0, [r0, #12]
 260              	.LVL16:
  44:Lib/parameter/parameter.cpp ****         break;
 261              		.loc 1 44 34 view .LVU71
ARM GAS  /tmp/ccW8ZRZU.s 			page 7


 262 0090 FFF7FEFF 		bl	__aeabi_f2uiz
 263              	.LVL17:
  44:Lib/parameter/parameter.cpp ****         break;
 264              		.loc 1 44 32 view .LVU72
 265 0094 2080     		strh	r0, [r4]
  45:Lib/parameter/parameter.cpp ****     case Param_Type::I16: /* int16_t type */
 266              		.loc 1 45 9 is_stmt 1 view .LVU73
 267              		.loc 1 71 12 is_stmt 0 view .LVU74
 268 0096 0120     		movs	r0, #1
  45:Lib/parameter/parameter.cpp ****     case Param_Type::I16: /* int16_t type */
 269              		.loc 1 45 9 view .LVU75
 270 0098 2BE0     		b	.L6
 271              	.LVL18:
 272              	.L14:
  46:Lib/parameter/parameter.cpp ****         *(int16_t *)_dest_ptr = (int16_t)_value;
 273              		.loc 1 46 5 is_stmt 1 view .LVU76
  47:Lib/parameter/parameter.cpp ****         break;
 274              		.loc 1 47 9 view .LVU77
  47:Lib/parameter/parameter.cpp ****         break;
 275              		.loc 1 47 42 is_stmt 0 view .LVU78
 276 009a C068     		ldr	r0, [r0, #12]
 277              	.LVL19:
  47:Lib/parameter/parameter.cpp ****         break;
 278              		.loc 1 47 33 view .LVU79
 279 009c FFF7FEFF 		bl	__aeabi_f2iz
 280              	.LVL20:
  47:Lib/parameter/parameter.cpp ****         break;
 281              		.loc 1 47 31 view .LVU80
 282 00a0 2080     		strh	r0, [r4]
  48:Lib/parameter/parameter.cpp ****     case Param_Type::U32: /* uint32_t type */
 283              		.loc 1 48 9 is_stmt 1 view .LVU81
 284              		.loc 1 71 12 is_stmt 0 view .LVU82
 285 00a2 0120     		movs	r0, #1
  48:Lib/parameter/parameter.cpp ****     case Param_Type::U32: /* uint32_t type */
 286              		.loc 1 48 9 view .LVU83
 287 00a4 25E0     		b	.L6
 288              	.LVL21:
 289              	.L13:
  49:Lib/parameter/parameter.cpp ****         *(uint32_t *)_dest_ptr = (uint32_t)_value;
 290              		.loc 1 49 5 is_stmt 1 view .LVU84
  50:Lib/parameter/parameter.cpp ****         break;
 291              		.loc 1 50 9 view .LVU85
  50:Lib/parameter/parameter.cpp ****         break;
 292              		.loc 1 50 44 is_stmt 0 view .LVU86
 293 00a6 C068     		ldr	r0, [r0, #12]
 294              	.LVL22:
  50:Lib/parameter/parameter.cpp ****         break;
 295              		.loc 1 50 34 view .LVU87
 296 00a8 FFF7FEFF 		bl	__aeabi_f2uiz
 297              	.LVL23:
  50:Lib/parameter/parameter.cpp ****         break;
 298              		.loc 1 50 32 view .LVU88
 299 00ac 2060     		str	r0, [r4]
  51:Lib/parameter/parameter.cpp ****     case Param_Type::I32: /* int32_t type */
 300              		.loc 1 51 9 is_stmt 1 view .LVU89
 301              		.loc 1 71 12 is_stmt 0 view .LVU90
 302 00ae 0120     		movs	r0, #1
ARM GAS  /tmp/ccW8ZRZU.s 			page 8


  51:Lib/parameter/parameter.cpp ****     case Param_Type::I32: /* int32_t type */
 303              		.loc 1 51 9 view .LVU91
 304 00b0 1FE0     		b	.L6
 305              	.LVL24:
 306              	.L12:
  52:Lib/parameter/parameter.cpp ****         *(int32_t *)_dest_ptr = (int32_t)_value;
 307              		.loc 1 52 5 is_stmt 1 view .LVU92
  53:Lib/parameter/parameter.cpp ****         break;
 308              		.loc 1 53 9 view .LVU93
  53:Lib/parameter/parameter.cpp ****         break;
 309              		.loc 1 53 42 is_stmt 0 view .LVU94
 310 00b2 C068     		ldr	r0, [r0, #12]
 311              	.LVL25:
  53:Lib/parameter/parameter.cpp ****         break;
 312              		.loc 1 53 33 view .LVU95
 313 00b4 FFF7FEFF 		bl	__aeabi_f2iz
 314              	.LVL26:
  53:Lib/parameter/parameter.cpp ****         break;
 315              		.loc 1 53 31 view .LVU96
 316 00b8 2060     		str	r0, [r4]
  54:Lib/parameter/parameter.cpp ****     case Param_Type::U64: /* uint64_t type */
 317              		.loc 1 54 9 is_stmt 1 view .LVU97
 318              		.loc 1 71 12 is_stmt 0 view .LVU98
 319 00ba 0120     		movs	r0, #1
  54:Lib/parameter/parameter.cpp ****     case Param_Type::U64: /* uint64_t type */
 320              		.loc 1 54 9 view .LVU99
 321 00bc 19E0     		b	.L6
 322              	.LVL27:
 323              	.L11:
  55:Lib/parameter/parameter.cpp ****         *(uint64_t *)_dest_ptr = (uint64_t)_value;
 324              		.loc 1 55 5 is_stmt 1 view .LVU100
  56:Lib/parameter/parameter.cpp ****         break;
 325              		.loc 1 56 9 view .LVU101
  56:Lib/parameter/parameter.cpp ****         break;
 326              		.loc 1 56 44 is_stmt 0 view .LVU102
 327 00be C068     		ldr	r0, [r0, #12]
 328              	.LVL28:
  56:Lib/parameter/parameter.cpp ****         break;
 329              		.loc 1 56 34 view .LVU103
 330 00c0 FFF7FEFF 		bl	__aeabi_f2ulz
 331              	.LVL29:
  56:Lib/parameter/parameter.cpp ****         break;
 332              		.loc 1 56 32 view .LVU104
 333 00c4 2060     		str	r0, [r4]
 334 00c6 6160     		str	r1, [r4, #4]
  57:Lib/parameter/parameter.cpp ****     case Param_Type::I64: /* int64_t type */
 335              		.loc 1 57 9 is_stmt 1 view .LVU105
 336              		.loc 1 71 12 is_stmt 0 view .LVU106
 337 00c8 0120     		movs	r0, #1
  57:Lib/parameter/parameter.cpp ****     case Param_Type::I64: /* int64_t type */
 338              		.loc 1 57 9 view .LVU107
 339 00ca 12E0     		b	.L6
 340              	.LVL30:
 341              	.L10:
  58:Lib/parameter/parameter.cpp ****         *(int64_t *)_dest_ptr = (int64_t)_value;
 342              		.loc 1 58 5 is_stmt 1 view .LVU108
  59:Lib/parameter/parameter.cpp ****         break;
ARM GAS  /tmp/ccW8ZRZU.s 			page 9


 343              		.loc 1 59 9 view .LVU109
  59:Lib/parameter/parameter.cpp ****         break;
 344              		.loc 1 59 42 is_stmt 0 view .LVU110
 345 00cc C068     		ldr	r0, [r0, #12]
 346              	.LVL31:
  59:Lib/parameter/parameter.cpp ****         break;
 347              		.loc 1 59 33 view .LVU111
 348 00ce FFF7FEFF 		bl	__aeabi_f2lz
 349              	.LVL32:
  59:Lib/parameter/parameter.cpp ****         break;
 350              		.loc 1 59 31 view .LVU112
 351 00d2 2060     		str	r0, [r4]
 352 00d4 6160     		str	r1, [r4, #4]
  60:Lib/parameter/parameter.cpp ****     case Param_Type::F32: /* float type */
 353              		.loc 1 60 9 is_stmt 1 view .LVU113
 354              		.loc 1 71 12 is_stmt 0 view .LVU114
 355 00d6 0120     		movs	r0, #1
  60:Lib/parameter/parameter.cpp ****     case Param_Type::F32: /* float type */
 356              		.loc 1 60 9 view .LVU115
 357 00d8 0BE0     		b	.L6
 358              	.LVL33:
 359              	.L9:
  61:Lib/parameter/parameter.cpp ****         *(float *)_dest_ptr = (float)_value;
 360              		.loc 1 61 5 is_stmt 1 view .LVU116
  62:Lib/parameter/parameter.cpp ****         break;
 361              		.loc 1 62 9 view .LVU117
  62:Lib/parameter/parameter.cpp ****         break;
 362              		.loc 1 62 38 is_stmt 0 view .LVU118
 363 00da C368     		ldr	r3, [r0, #12]
  62:Lib/parameter/parameter.cpp ****         break;
 364              		.loc 1 62 29 view .LVU119
 365 00dc 2360     		str	r3, [r4]
  63:Lib/parameter/parameter.cpp ****     case Param_Type::F64: /* double type */
 366              		.loc 1 63 9 is_stmt 1 view .LVU120
 367              		.loc 1 71 12 is_stmt 0 view .LVU121
 368 00de 0120     		movs	r0, #1
 369              	.LVL34:
  63:Lib/parameter/parameter.cpp ****     case Param_Type::F64: /* double type */
 370              		.loc 1 63 9 view .LVU122
 371 00e0 07E0     		b	.L6
 372              	.LVL35:
 373              	.L7:
  64:Lib/parameter/parameter.cpp ****         *(double *)_dest_ptr = (double)_value;
 374              		.loc 1 64 5 is_stmt 1 view .LVU123
  65:Lib/parameter/parameter.cpp ****         break;
 375              		.loc 1 65 9 view .LVU124
  65:Lib/parameter/parameter.cpp ****         break;
 376              		.loc 1 65 40 is_stmt 0 view .LVU125
 377 00e2 C068     		ldr	r0, [r0, #12]
 378              	.LVL36:
  65:Lib/parameter/parameter.cpp ****         break;
 379              		.loc 1 65 32 view .LVU126
 380 00e4 FFF7FEFF 		bl	__aeabi_f2d
 381              	.LVL37:
  65:Lib/parameter/parameter.cpp ****         break;
 382              		.loc 1 65 30 view .LVU127
 383 00e8 2060     		str	r0, [r4]
ARM GAS  /tmp/ccW8ZRZU.s 			page 10


 384 00ea 6160     		str	r1, [r4, #4]
  66:Lib/parameter/parameter.cpp ****     default:
 385              		.loc 1 66 9 is_stmt 1 view .LVU128
 386              		.loc 1 71 12 is_stmt 0 view .LVU129
 387 00ec 0120     		movs	r0, #1
  66:Lib/parameter/parameter.cpp ****     default:
 388              		.loc 1 66 9 view .LVU130
 389 00ee 00E0     		b	.L6
 390              	.LVL38:
 391              	.L18:
  33:Lib/parameter/parameter.cpp **** 
 392              		.loc 1 33 16 view .LVU131
 393 00f0 0020     		movs	r0, #0
 394              	.LVL39:
 395              	.L6:
  72:Lib/parameter/parameter.cpp **** }
 396              		.loc 1 72 1 view .LVU132
 397              		@ sp needed
 398 00f2 10BD     		pop	{r4, pc}
 399              	.LVL40:
 400              	.L19:
  35:Lib/parameter/parameter.cpp ****     {
 401              		.loc 1 35 5 view .LVU133
 402 00f4 0020     		movs	r0, #0
 403              	.LVL41:
  35:Lib/parameter/parameter.cpp ****     {
 404              		.loc 1 35 5 view .LVU134
 405 00f6 FCE7     		b	.L6
 406              	.L21:
 407              		.align	2
 408              	.L20:
 409 00f8 00000000 		.word	.L8
 410              		.cfi_endproc
 411              	.LFE990:
 413              		.align	1
 414              		.global	_ZN9Parameter7extractEv
 415              		.syntax unified
 416              		.code	16
 417              		.thumb_func
 419              	_ZN9Parameter7extractEv:
 420              	.LVL42:
 421              	.LFB991:
  73:Lib/parameter/parameter.cpp **** 
  74:Lib/parameter/parameter.cpp **** bool Parameter::extract(void)
  75:Lib/parameter/parameter.cpp **** {
 422              		.loc 1 75 1 is_stmt 1 view -0
 423              		.cfi_startproc
 424              		@ args = 0, pretend = 0, frame = 0
 425              		@ frame_needed = 0, uses_anonymous_args = 0
 426              		.loc 1 75 1 is_stmt 0 view .LVU136
 427 00fc 10B5     		push	{r4, lr}
 428              		.cfi_def_cfa_offset 8
 429              		.cfi_offset 4, -8
 430              		.cfi_offset 14, -4
 431 00fe 0400     		movs	r4, r0
  76:Lib/parameter/parameter.cpp ****     if (_dest_ptr == nullptr)
 432              		.loc 1 76 5 is_stmt 1 view .LVU137
ARM GAS  /tmp/ccW8ZRZU.s 			page 11


 433              		.loc 1 76 9 is_stmt 0 view .LVU138
 434 0100 0269     		ldr	r2, [r0, #16]
 435              		.loc 1 76 5 view .LVU139
 436 0102 002A     		cmp	r2, #0
 437 0104 45D0     		beq	.L35
  77:Lib/parameter/parameter.cpp ****         return false;
  78:Lib/parameter/parameter.cpp **** 
  79:Lib/parameter/parameter.cpp ****     switch (_type)
 438              		.loc 1 79 5 is_stmt 1 view .LVU140
 439              		.loc 1 79 13 is_stmt 0 view .LVU141
 440 0106 037A     		ldrb	r3, [r0, #8]
 441              		.loc 1 79 5 view .LVU142
 442 0108 0A2B     		cmp	r3, #10
 443 010a 44D8     		bhi	.L36
 444 010c 9B00     		lsls	r3, r3, #2
 445 010e 2349     		ldr	r1, .L37
 446 0110 CB58     		ldr	r3, [r1, r3]
 447 0112 9F46     		mov	pc, r3
 448              		.section	.rodata
 449              		.align	2
 450              	.L25:
 451 002c 96010000 		.word	.L36
 452 0030 14010000 		.word	.L34
 453 0034 20010000 		.word	.L33
 454 0038 2E010000 		.word	.L32
 455 003c 3A010000 		.word	.L31
 456 0040 48010000 		.word	.L30
 457 0044 54010000 		.word	.L29
 458 0048 60010000 		.word	.L28
 459 004c 6E010000 		.word	.L27
 460 0050 7C010000 		.word	.L26
 461 0054 84010000 		.word	.L24
 462              		.text
 463              	.L34:
  80:Lib/parameter/parameter.cpp ****     {
  81:Lib/parameter/parameter.cpp ****     case Param_Type::U8: /* uint8_t type */
 464              		.loc 1 81 5 is_stmt 1 view .LVU143
  82:Lib/parameter/parameter.cpp ****         _value = (float)(*(uint8_t *)_dest_ptr);
 465              		.loc 1 82 9 view .LVU144
 466              		.loc 1 82 26 is_stmt 0 view .LVU145
 467 0114 1078     		ldrb	r0, [r2]
 468              	.LVL43:
 469              		.loc 1 82 18 view .LVU146
 470 0116 FFF7FEFF 		bl	__aeabi_ui2f
 471              	.LVL44:
 472              		.loc 1 82 16 view .LVU147
 473 011a E060     		str	r0, [r4, #12]
  83:Lib/parameter/parameter.cpp ****         break;
 474              		.loc 1 83 9 is_stmt 1 view .LVU148
  84:Lib/parameter/parameter.cpp ****     case Param_Type::I8: /* int8_t type */
  85:Lib/parameter/parameter.cpp ****         _value = (float)(*(int8_t *)_dest_ptr);
  86:Lib/parameter/parameter.cpp ****         break;
  87:Lib/parameter/parameter.cpp ****     case Param_Type::U16: /* uint16_t type */
  88:Lib/parameter/parameter.cpp ****         _value = (float)(*(uint16_t *)_dest_ptr);
  89:Lib/parameter/parameter.cpp ****         break;
  90:Lib/parameter/parameter.cpp ****     case Param_Type::I16: /* int16_t type */
  91:Lib/parameter/parameter.cpp ****         _value = (float)(*(int16_t *)_dest_ptr);
ARM GAS  /tmp/ccW8ZRZU.s 			page 12


  92:Lib/parameter/parameter.cpp ****         break;
  93:Lib/parameter/parameter.cpp ****     case Param_Type::U32: /* uint32_t type */
  94:Lib/parameter/parameter.cpp ****         _value = (float)(*(uint32_t *)_dest_ptr);
  95:Lib/parameter/parameter.cpp ****         break;
  96:Lib/parameter/parameter.cpp ****     case Param_Type::I32: /* int32_t type */
  97:Lib/parameter/parameter.cpp ****         _value = (float)(*(int32_t *)_dest_ptr);
  98:Lib/parameter/parameter.cpp ****         break;
  99:Lib/parameter/parameter.cpp ****     case Param_Type::U64: /* uint64_t type */
 100:Lib/parameter/parameter.cpp ****         _value = (float)(*(uint64_t *)_dest_ptr);
 101:Lib/parameter/parameter.cpp ****         break;
 102:Lib/parameter/parameter.cpp ****     case Param_Type::I64: /* int64_t type */
 103:Lib/parameter/parameter.cpp ****         _value = (float)(*(int64_t *)_dest_ptr);
 104:Lib/parameter/parameter.cpp ****         break;
 105:Lib/parameter/parameter.cpp ****     case Param_Type::F32: /* float type */
 106:Lib/parameter/parameter.cpp ****         _value = (float)(*(float *)_dest_ptr);
 107:Lib/parameter/parameter.cpp ****         break;
 108:Lib/parameter/parameter.cpp ****     case Param_Type::F64: /* double type */
 109:Lib/parameter/parameter.cpp ****         _value = (float)(*(double *)_dest_ptr);
 110:Lib/parameter/parameter.cpp ****         break;
 111:Lib/parameter/parameter.cpp ****     default:
 112:Lib/parameter/parameter.cpp ****         return false;
 113:Lib/parameter/parameter.cpp ****     }
 114:Lib/parameter/parameter.cpp **** 
 115:Lib/parameter/parameter.cpp ****     return true;
 475              		.loc 1 115 12 is_stmt 0 view .LVU149
 476 011c 0120     		movs	r0, #1
  83:Lib/parameter/parameter.cpp ****         break;
 477              		.loc 1 83 9 view .LVU150
 478 011e 39E0     		b	.L23
 479              	.LVL45:
 480              	.L33:
  84:Lib/parameter/parameter.cpp ****     case Param_Type::I8: /* int8_t type */
 481              		.loc 1 84 5 is_stmt 1 view .LVU151
  85:Lib/parameter/parameter.cpp ****         break;
 482              		.loc 1 85 9 view .LVU152
  85:Lib/parameter/parameter.cpp ****         break;
 483              		.loc 1 85 26 is_stmt 0 view .LVU153
 484 0120 0020     		movs	r0, #0
 485              	.LVL46:
  85:Lib/parameter/parameter.cpp ****         break;
 486              		.loc 1 85 26 view .LVU154
 487 0122 1056     		ldrsb	r0, [r2, r0]
  85:Lib/parameter/parameter.cpp ****         break;
 488              		.loc 1 85 18 view .LVU155
 489 0124 FFF7FEFF 		bl	__aeabi_i2f
 490              	.LVL47:
  85:Lib/parameter/parameter.cpp ****         break;
 491              		.loc 1 85 16 view .LVU156
 492 0128 E060     		str	r0, [r4, #12]
  86:Lib/parameter/parameter.cpp ****     case Param_Type::U16: /* uint16_t type */
 493              		.loc 1 86 9 is_stmt 1 view .LVU157
 494              		.loc 1 115 12 is_stmt 0 view .LVU158
 495 012a 0120     		movs	r0, #1
  86:Lib/parameter/parameter.cpp ****     case Param_Type::U16: /* uint16_t type */
 496              		.loc 1 86 9 view .LVU159
 497 012c 32E0     		b	.L23
 498              	.LVL48:
ARM GAS  /tmp/ccW8ZRZU.s 			page 13


 499              	.L32:
  87:Lib/parameter/parameter.cpp ****         _value = (float)(*(uint16_t *)_dest_ptr);
 500              		.loc 1 87 5 is_stmt 1 view .LVU160
  88:Lib/parameter/parameter.cpp ****         break;
 501              		.loc 1 88 9 view .LVU161
  88:Lib/parameter/parameter.cpp ****         break;
 502              		.loc 1 88 26 is_stmt 0 view .LVU162
 503 012e 1088     		ldrh	r0, [r2]
 504              	.LVL49:
  88:Lib/parameter/parameter.cpp ****         break;
 505              		.loc 1 88 18 view .LVU163
 506 0130 FFF7FEFF 		bl	__aeabi_ui2f
 507              	.LVL50:
  88:Lib/parameter/parameter.cpp ****         break;
 508              		.loc 1 88 16 view .LVU164
 509 0134 E060     		str	r0, [r4, #12]
  89:Lib/parameter/parameter.cpp ****     case Param_Type::I16: /* int16_t type */
 510              		.loc 1 89 9 is_stmt 1 view .LVU165
 511              		.loc 1 115 12 is_stmt 0 view .LVU166
 512 0136 0120     		movs	r0, #1
  89:Lib/parameter/parameter.cpp ****     case Param_Type::I16: /* int16_t type */
 513              		.loc 1 89 9 view .LVU167
 514 0138 2CE0     		b	.L23
 515              	.LVL51:
 516              	.L31:
  90:Lib/parameter/parameter.cpp ****         _value = (float)(*(int16_t *)_dest_ptr);
 517              		.loc 1 90 5 is_stmt 1 view .LVU168
  91:Lib/parameter/parameter.cpp ****         break;
 518              		.loc 1 91 9 view .LVU169
  91:Lib/parameter/parameter.cpp ****         break;
 519              		.loc 1 91 26 is_stmt 0 view .LVU170
 520 013a 0023     		movs	r3, #0
 521 013c D05E     		ldrsh	r0, [r2, r3]
 522              	.LVL52:
  91:Lib/parameter/parameter.cpp ****         break;
 523              		.loc 1 91 18 view .LVU171
 524 013e FFF7FEFF 		bl	__aeabi_i2f
 525              	.LVL53:
  91:Lib/parameter/parameter.cpp ****         break;
 526              		.loc 1 91 16 view .LVU172
 527 0142 E060     		str	r0, [r4, #12]
  92:Lib/parameter/parameter.cpp ****     case Param_Type::U32: /* uint32_t type */
 528              		.loc 1 92 9 is_stmt 1 view .LVU173
 529              		.loc 1 115 12 is_stmt 0 view .LVU174
 530 0144 0120     		movs	r0, #1
  92:Lib/parameter/parameter.cpp ****     case Param_Type::U32: /* uint32_t type */
 531              		.loc 1 92 9 view .LVU175
 532 0146 25E0     		b	.L23
 533              	.LVL54:
 534              	.L30:
  93:Lib/parameter/parameter.cpp ****         _value = (float)(*(uint32_t *)_dest_ptr);
 535              		.loc 1 93 5 is_stmt 1 view .LVU176
  94:Lib/parameter/parameter.cpp ****         break;
 536              		.loc 1 94 9 view .LVU177
  94:Lib/parameter/parameter.cpp ****         break;
 537              		.loc 1 94 26 is_stmt 0 view .LVU178
 538 0148 1068     		ldr	r0, [r2]
ARM GAS  /tmp/ccW8ZRZU.s 			page 14


 539              	.LVL55:
  94:Lib/parameter/parameter.cpp ****         break;
 540              		.loc 1 94 18 view .LVU179
 541 014a FFF7FEFF 		bl	__aeabi_ui2f
 542              	.LVL56:
  94:Lib/parameter/parameter.cpp ****         break;
 543              		.loc 1 94 16 view .LVU180
 544 014e E060     		str	r0, [r4, #12]
  95:Lib/parameter/parameter.cpp ****     case Param_Type::I32: /* int32_t type */
 545              		.loc 1 95 9 is_stmt 1 view .LVU181
 546              		.loc 1 115 12 is_stmt 0 view .LVU182
 547 0150 0120     		movs	r0, #1
  95:Lib/parameter/parameter.cpp ****     case Param_Type::I32: /* int32_t type */
 548              		.loc 1 95 9 view .LVU183
 549 0152 1FE0     		b	.L23
 550              	.LVL57:
 551              	.L29:
  96:Lib/parameter/parameter.cpp ****         _value = (float)(*(int32_t *)_dest_ptr);
 552              		.loc 1 96 5 is_stmt 1 view .LVU184
  97:Lib/parameter/parameter.cpp ****         break;
 553              		.loc 1 97 9 view .LVU185
  97:Lib/parameter/parameter.cpp ****         break;
 554              		.loc 1 97 26 is_stmt 0 view .LVU186
 555 0154 1068     		ldr	r0, [r2]
 556              	.LVL58:
  97:Lib/parameter/parameter.cpp ****         break;
 557              		.loc 1 97 18 view .LVU187
 558 0156 FFF7FEFF 		bl	__aeabi_i2f
 559              	.LVL59:
  97:Lib/parameter/parameter.cpp ****         break;
 560              		.loc 1 97 16 view .LVU188
 561 015a E060     		str	r0, [r4, #12]
  98:Lib/parameter/parameter.cpp ****     case Param_Type::U64: /* uint64_t type */
 562              		.loc 1 98 9 is_stmt 1 view .LVU189
 563              		.loc 1 115 12 is_stmt 0 view .LVU190
 564 015c 0120     		movs	r0, #1
  98:Lib/parameter/parameter.cpp ****     case Param_Type::U64: /* uint64_t type */
 565              		.loc 1 98 9 view .LVU191
 566 015e 19E0     		b	.L23
 567              	.LVL60:
 568              	.L28:
  99:Lib/parameter/parameter.cpp ****         _value = (float)(*(uint64_t *)_dest_ptr);
 569              		.loc 1 99 5 is_stmt 1 view .LVU192
 100:Lib/parameter/parameter.cpp ****         break;
 570              		.loc 1 100 9 view .LVU193
 100:Lib/parameter/parameter.cpp ****         break;
 571              		.loc 1 100 26 is_stmt 0 view .LVU194
 572 0160 1068     		ldr	r0, [r2]
 573 0162 5168     		ldr	r1, [r2, #4]
 574              	.LVL61:
 100:Lib/parameter/parameter.cpp ****         break;
 575              		.loc 1 100 18 view .LVU195
 576 0164 FFF7FEFF 		bl	__aeabi_ul2f
 577              	.LVL62:
 100:Lib/parameter/parameter.cpp ****         break;
 578              		.loc 1 100 16 view .LVU196
 579 0168 E060     		str	r0, [r4, #12]
ARM GAS  /tmp/ccW8ZRZU.s 			page 15


 101:Lib/parameter/parameter.cpp ****     case Param_Type::I64: /* int64_t type */
 580              		.loc 1 101 9 is_stmt 1 view .LVU197
 581              		.loc 1 115 12 is_stmt 0 view .LVU198
 582 016a 0120     		movs	r0, #1
 101:Lib/parameter/parameter.cpp ****     case Param_Type::I64: /* int64_t type */
 583              		.loc 1 101 9 view .LVU199
 584 016c 12E0     		b	.L23
 585              	.LVL63:
 586              	.L27:
 102:Lib/parameter/parameter.cpp ****         _value = (float)(*(int64_t *)_dest_ptr);
 587              		.loc 1 102 5 is_stmt 1 view .LVU200
 103:Lib/parameter/parameter.cpp ****         break;
 588              		.loc 1 103 9 view .LVU201
 103:Lib/parameter/parameter.cpp ****         break;
 589              		.loc 1 103 26 is_stmt 0 view .LVU202
 590 016e 1068     		ldr	r0, [r2]
 591 0170 5168     		ldr	r1, [r2, #4]
 592              	.LVL64:
 103:Lib/parameter/parameter.cpp ****         break;
 593              		.loc 1 103 18 view .LVU203
 594 0172 FFF7FEFF 		bl	__aeabi_l2f
 595              	.LVL65:
 103:Lib/parameter/parameter.cpp ****         break;
 596              		.loc 1 103 16 view .LVU204
 597 0176 E060     		str	r0, [r4, #12]
 104:Lib/parameter/parameter.cpp ****     case Param_Type::F32: /* float type */
 598              		.loc 1 104 9 is_stmt 1 view .LVU205
 599              		.loc 1 115 12 is_stmt 0 view .LVU206
 600 0178 0120     		movs	r0, #1
 104:Lib/parameter/parameter.cpp ****     case Param_Type::F32: /* float type */
 601              		.loc 1 104 9 view .LVU207
 602 017a 0BE0     		b	.L23
 603              	.LVL66:
 604              	.L26:
 105:Lib/parameter/parameter.cpp ****         _value = (float)(*(float *)_dest_ptr);
 605              		.loc 1 105 5 is_stmt 1 view .LVU208
 106:Lib/parameter/parameter.cpp ****         break;
 606              		.loc 1 106 9 view .LVU209
 106:Lib/parameter/parameter.cpp ****         break;
 607              		.loc 1 106 26 is_stmt 0 view .LVU210
 608 017c 1368     		ldr	r3, [r2]
 106:Lib/parameter/parameter.cpp ****         break;
 609              		.loc 1 106 16 view .LVU211
 610 017e C360     		str	r3, [r0, #12]
 107:Lib/parameter/parameter.cpp ****     case Param_Type::F64: /* double type */
 611              		.loc 1 107 9 is_stmt 1 view .LVU212
 612              		.loc 1 115 12 is_stmt 0 view .LVU213
 613 0180 0120     		movs	r0, #1
 614              	.LVL67:
 107:Lib/parameter/parameter.cpp ****     case Param_Type::F64: /* double type */
 615              		.loc 1 107 9 view .LVU214
 616 0182 07E0     		b	.L23
 617              	.LVL68:
 618              	.L24:
 108:Lib/parameter/parameter.cpp ****         _value = (float)(*(double *)_dest_ptr);
 619              		.loc 1 108 5 is_stmt 1 view .LVU215
 109:Lib/parameter/parameter.cpp ****         break;
ARM GAS  /tmp/ccW8ZRZU.s 			page 16


 620              		.loc 1 109 9 view .LVU216
 109:Lib/parameter/parameter.cpp ****         break;
 621              		.loc 1 109 26 is_stmt 0 view .LVU217
 622 0184 1068     		ldr	r0, [r2]
 623 0186 5168     		ldr	r1, [r2, #4]
 624              	.LVL69:
 109:Lib/parameter/parameter.cpp ****         break;
 625              		.loc 1 109 18 view .LVU218
 626 0188 FFF7FEFF 		bl	__aeabi_d2f
 627              	.LVL70:
 109:Lib/parameter/parameter.cpp ****         break;
 628              		.loc 1 109 16 view .LVU219
 629 018c E060     		str	r0, [r4, #12]
 110:Lib/parameter/parameter.cpp ****     default:
 630              		.loc 1 110 9 is_stmt 1 view .LVU220
 631              		.loc 1 115 12 is_stmt 0 view .LVU221
 632 018e 0120     		movs	r0, #1
 110:Lib/parameter/parameter.cpp ****     default:
 633              		.loc 1 110 9 view .LVU222
 634 0190 00E0     		b	.L23
 635              	.LVL71:
 636              	.L35:
  77:Lib/parameter/parameter.cpp **** 
 637              		.loc 1 77 16 view .LVU223
 638 0192 0020     		movs	r0, #0
 639              	.LVL72:
 640              	.L23:
 116:Lib/parameter/parameter.cpp **** }
 641              		.loc 1 116 1 view .LVU224
 642              		@ sp needed
 643              	.LVL73:
 644              		.loc 1 116 1 view .LVU225
 645 0194 10BD     		pop	{r4, pc}
 646              	.LVL74:
 647              	.L36:
  79:Lib/parameter/parameter.cpp ****     {
 648              		.loc 1 79 5 view .LVU226
 649 0196 0020     		movs	r0, #0
 650              	.LVL75:
  79:Lib/parameter/parameter.cpp ****     {
 651              		.loc 1 79 5 view .LVU227
 652 0198 FCE7     		b	.L23
 653              	.L38:
 654 019a C046     		.align	2
 655              	.L37:
 656 019c 2C000000 		.word	.L25
 657              		.cfi_endproc
 658              	.LFE991:
 660              		.align	1
 661              		.global	_ZN9Parameter19update_with_defaultEv
 662              		.syntax unified
 663              		.code	16
 664              		.thumb_func
 666              	_ZN9Parameter19update_with_defaultEv:
 667              	.LVL76:
 668              	.LFB992:
 117:Lib/parameter/parameter.cpp **** 
ARM GAS  /tmp/ccW8ZRZU.s 			page 17


 118:Lib/parameter/parameter.cpp **** void Parameter::update_with_default(void)
 119:Lib/parameter/parameter.cpp **** {
 669              		.loc 1 119 1 is_stmt 1 view -0
 670              		.cfi_startproc
 671              		@ args = 0, pretend = 0, frame = 0
 672              		@ frame_needed = 0, uses_anonymous_args = 0
 673              		.loc 1 119 1 is_stmt 0 view .LVU229
 674 01a0 10B5     		push	{r4, lr}
 675              		.cfi_def_cfa_offset 8
 676              		.cfi_offset 4, -8
 677              		.cfi_offset 14, -4
 120:Lib/parameter/parameter.cpp ****     update(_default_value);
 678              		.loc 1 120 5 is_stmt 1 view .LVU230
 679              		.loc 1 120 11 is_stmt 0 view .LVU231
 680 01a2 4169     		ldr	r1, [r0, #20]
 681 01a4 FFF7FEFF 		bl	_ZN9Parameter6updateEf
 682              	.LVL77:
 121:Lib/parameter/parameter.cpp **** }...
 683              		.loc 1 121 1 view .LVU232
 684              		@ sp needed
 685 01a8 10BD     		pop	{r4, pc}
 686              		.cfi_endproc
 687              	.LFE992:
 689              	.Letext0:
 690              		.file 2 "/opt/arm-gnu-toolchain-14.2/arm-none-eabi/include/machine/_default_types.h"
 691              		.file 3 "/opt/arm-gnu-toolchain-14.2/arm-none-eabi/include/sys/_stdint.h"
 692              		.file 4 "/opt/arm-gnu-toolchain-14.2/arm-none-eabi/include/c++/14.2.1/cmath"
 693              		.file 5 "/opt/arm-gnu-toolchain-14.2/arm-none-eabi/include/c++/14.2.1/type_traits"
 694              		.file 6 "/opt/arm-gnu-toolchain-14.2/arm-none-eabi/include/c++/14.2.1/debug/debug.h"
 695              		.file 7 "/opt/arm-gnu-toolchain-14.2/arm-none-eabi/include/c++/14.2.1/bits/std_abs.h"
 696              		.file 8 "/opt/arm-gnu-toolchain-14.2/arm-none-eabi/include/c++/14.2.1/bits/predefined_ops.h"
 697              		.file 9 "/opt/arm-gnu-toolchain-14.2/arm-none-eabi/include/math.h"
 698              		.file 10 "/opt/arm-gnu-toolchain-14.2/arm-none-eabi/include/c++/14.2.1/arm-none-eabi/thumb/v6-m/no
 699              		.file 11 "/opt/arm-gnu-toolchain-14.2/arm-none-eabi/include/c++/14.2.1/math.h"
 700              		.file 12 "Lib/parameter/parameter.hpp"
ARM GAS  /tmp/ccW8ZRZU.s 			page 18


DEFINED SYMBOLS
                            *ABS*:00000000 parameter.cpp
     /tmp/ccW8ZRZU.s:18     .text:00000000 $t
     /tmp/ccW8ZRZU.s:24     .text:00000000 _ZN9Parameter4initEiP12param_init_t
     /tmp/ccW8ZRZU.s:87     .text:00000024 _ZN9Parameter4initEi12param_init_t
     /tmp/ccW8ZRZU.s:123    .text:0000003a _ZN9Parameter6updateEf
     /tmp/ccW8ZRZU.s:178    .text:00000060 _ZN9Parameter4loadEv
     /tmp/ccW8ZRZU.s:207    .rodata:00000000 $d
     /tmp/ccW8ZRZU.s:409    .text:000000f8 $d
     /tmp/ccW8ZRZU.s:413    .text:000000fc $t
     /tmp/ccW8ZRZU.s:419    .text:000000fc _ZN9Parameter7extractEv
     /tmp/ccW8ZRZU.s:656    .text:0000019c $d
     /tmp/ccW8ZRZU.s:660    .text:000001a0 $t
     /tmp/ccW8ZRZU.s:666    .text:000001a0 _ZN9Parameter19update_with_defaultEv

UNDEFINED SYMBOLS
__aeabi_fcmpgt
__aeabi_fcmplt
__aeabi_f2uiz
__aeabi_f2iz
__aeabi_f2ulz
__aeabi_f2lz
__aeabi_f2d
__aeabi_ui2f
__aeabi_i2f
__aeabi_ul2f
__aeabi_l2f
__aeabi_d2f
