ARM GAS  /tmp/ccxFNoc9.s 			page 1


   1              		.cpu cortex-m0plus
   2              		.arch armv6s-m
   3              		.fpu softvfp
   4              		.eabi_attribute 20, 1
   5              		.eabi_attribute 21, 1
   6              		.eabi_attribute 23, 3
   7              		.eabi_attribute 24, 1
   8              		.eabi_attribute 25, 1
   9              		.eabi_attribute 26, 1
  10              		.eabi_attribute 30, 1
  11              		.eabi_attribute 34, 0
  12              		.eabi_attribute 18, 4
  13              		.file	"pid.cpp"
  14              		.text
  15              	.Ltext0:
  16              		.cfi_sections	.debug_frame
  17              		.file 1 "Lib/compute/pid/pid.cpp"
  18              		.align	1
  19              		.global	_ZN3PIDC2Ev
  20              		.syntax unified
  21              		.code	16
  22              		.thumb_func
  24              	_ZN3PIDC2Ev:
  25              	.LVL0:
  26              	.LFB1008:
   1:Lib/compute/pid/pid.cpp **** #include "pid.hpp"
   2:Lib/compute/pid/pid.cpp **** 
   3:Lib/compute/pid/pid.cpp **** #include "ex_math.hpp"
   4:Lib/compute/pid/pid.cpp **** 
   5:Lib/compute/pid/pid.cpp **** PID::PID()
  27              		.loc 1 5 1 view -0
  28              		.cfi_startproc
  29              		@ args = 0, pretend = 0, frame = 0
  30              		@ frame_needed = 0, uses_anonymous_args = 0
  31              		@ link register save eliminated.
  32              	.LBB2:
  33              		.loc 1 5 10 is_stmt 0 view .LVU1
  34 0000 0023     		movs	r3, #0
  35 0002 C361     		str	r3, [r0, #28]
   6:Lib/compute/pid/pid.cpp **** {
   7:Lib/compute/pid/pid.cpp ****     _kp = _ki = _kd = _dt = _max = _min = _i_max = 0.0f;
  36              		.loc 1 7 5 is_stmt 1 view .LVU2
  37              		.loc 1 7 50 is_stmt 0 view .LVU3
  38 0004 8361     		str	r3, [r0, #24]
  39              		.loc 1 7 41 view .LVU4
  40 0006 4361     		str	r3, [r0, #20]
  41              		.loc 1 7 34 view .LVU5
  42 0008 0361     		str	r3, [r0, #16]
  43              		.loc 1 7 27 view .LVU6
  44 000a C360     		str	r3, [r0, #12]
  45              		.loc 1 7 21 view .LVU7
  46 000c 8360     		str	r3, [r0, #8]
  47              		.loc 1 7 15 view .LVU8
  48 000e 4360     		str	r3, [r0, #4]
  49              		.loc 1 7 9 view .LVU9
  50 0010 0360     		str	r3, [r0]
  51              	.LBE2:
ARM GAS  /tmp/ccxFNoc9.s 			page 2


   8:Lib/compute/pid/pid.cpp **** }
  52              		.loc 1 8 1 view .LVU10
  53              		@ sp needed
  54 0012 7047     		bx	lr
  55              		.cfi_endproc
  56              	.LFE1008:
  58              		.global	_ZN3PIDC1Ev
  59              		.thumb_set _ZN3PIDC1Ev,_ZN3PIDC2Ev
  60              		.align	1
  61              		.global	_ZN3PIDC2Efffffff
  62              		.syntax unified
  63              		.code	16
  64              		.thumb_func
  66              	_ZN3PIDC2Efffffff:
  67              	.LVL1:
  68              	.LFB1011:
   9:Lib/compute/pid/pid.cpp **** 
  10:Lib/compute/pid/pid.cpp **** PID::PID(float kp, float ki, float kd, float dt, float max, float min, float i_max)
  69              		.loc 1 10 1 is_stmt 1 view -0
  70              		.cfi_startproc
  71              		@ args = 16, pretend = 0, frame = 0
  72              		@ frame_needed = 0, uses_anonymous_args = 0
  73              		.loc 1 10 1 is_stmt 0 view .LVU12
  74 0014 10B5     		push	{r4, lr}
  75              		.cfi_def_cfa_offset 8
  76              		.cfi_offset 4, -8
  77              		.cfi_offset 14, -4
  78              	.LBB3:
  79              		.loc 1 10 83 view .LVU13
  80 0016 0024     		movs	r4, #0
  81 0018 C461     		str	r4, [r0, #28]
  11:Lib/compute/pid/pid.cpp **** {
  12:Lib/compute/pid/pid.cpp ****     _kp = kp;
  82              		.loc 1 12 5 is_stmt 1 view .LVU14
  83              		.loc 1 12 9 is_stmt 0 view .LVU15
  84 001a 0160     		str	r1, [r0]
  13:Lib/compute/pid/pid.cpp ****     _ki = ki;
  85              		.loc 1 13 5 is_stmt 1 view .LVU16
  86              		.loc 1 13 9 is_stmt 0 view .LVU17
  87 001c 4260     		str	r2, [r0, #4]
  14:Lib/compute/pid/pid.cpp ****     _kd = kd;
  88              		.loc 1 14 5 is_stmt 1 view .LVU18
  89              		.loc 1 14 9 is_stmt 0 view .LVU19
  90 001e 8360     		str	r3, [r0, #8]
  15:Lib/compute/pid/pid.cpp ****     _dt = dt;
  91              		.loc 1 15 5 is_stmt 1 view .LVU20
  92              		.loc 1 15 9 is_stmt 0 view .LVU21
  93 0020 029B     		ldr	r3, [sp, #8]
  94              	.LVL2:
  95              		.loc 1 15 9 view .LVU22
  96 0022 C360     		str	r3, [r0, #12]
  16:Lib/compute/pid/pid.cpp ****     _max = max;
  97              		.loc 1 16 5 is_stmt 1 view .LVU23
  98              		.loc 1 16 10 is_stmt 0 view .LVU24
  99 0024 039B     		ldr	r3, [sp, #12]
 100 0026 0361     		str	r3, [r0, #16]
  17:Lib/compute/pid/pid.cpp ****     _min = min;
ARM GAS  /tmp/ccxFNoc9.s 			page 3


 101              		.loc 1 17 5 is_stmt 1 view .LVU25
 102              		.loc 1 17 10 is_stmt 0 view .LVU26
 103 0028 049B     		ldr	r3, [sp, #16]
 104 002a 4361     		str	r3, [r0, #20]
  18:Lib/compute/pid/pid.cpp ****     _i_max = i_max;
 105              		.loc 1 18 5 is_stmt 1 view .LVU27
 106              		.loc 1 18 12 is_stmt 0 view .LVU28
 107 002c 059B     		ldr	r3, [sp, #20]
 108 002e 8361     		str	r3, [r0, #24]
 109              	.LBE3:
  19:Lib/compute/pid/pid.cpp **** }
 110              		.loc 1 19 1 view .LVU29
 111              		@ sp needed
 112 0030 10BD     		pop	{r4, pc}
 113              		.cfi_endproc
 114              	.LFE1011:
 116              		.global	_ZN3PIDC1Efffffff
 117              		.thumb_set _ZN3PIDC1Efffffff,_ZN3PIDC2Efffffff
 118              		.align	1
 119              		.global	_ZN3PIDclEfffffff
 120              		.syntax unified
 121              		.code	16
 122              		.thumb_func
 124              	_ZN3PIDclEfffffff:
 125              	.LVL3:
 126              	.LFB1013:
  20:Lib/compute/pid/pid.cpp **** 
  21:Lib/compute/pid/pid.cpp **** void PID::operator()(float kp, float ki, float kd, float dt, float max, float min, float i_max)
  22:Lib/compute/pid/pid.cpp **** {
 127              		.loc 1 22 1 is_stmt 1 view -0
 128              		.cfi_startproc
 129              		@ args = 16, pretend = 0, frame = 0
 130              		@ frame_needed = 0, uses_anonymous_args = 0
 131              		@ link register save eliminated.
  23:Lib/compute/pid/pid.cpp ****     _kp = kp;
 132              		.loc 1 23 5 view .LVU31
 133              		.loc 1 23 9 is_stmt 0 view .LVU32
 134 0032 0160     		str	r1, [r0]
  24:Lib/compute/pid/pid.cpp ****     _ki = ki;
 135              		.loc 1 24 5 is_stmt 1 view .LVU33
 136              		.loc 1 24 9 is_stmt 0 view .LVU34
 137 0034 4260     		str	r2, [r0, #4]
  25:Lib/compute/pid/pid.cpp ****     _kd = kd;
 138              		.loc 1 25 5 is_stmt 1 view .LVU35
 139              		.loc 1 25 9 is_stmt 0 view .LVU36
 140 0036 8360     		str	r3, [r0, #8]
  26:Lib/compute/pid/pid.cpp ****     _dt = dt;
 141              		.loc 1 26 5 is_stmt 1 view .LVU37
 142              		.loc 1 26 9 is_stmt 0 view .LVU38
 143 0038 009B     		ldr	r3, [sp]
 144              	.LVL4:
 145              		.loc 1 26 9 view .LVU39
 146 003a C360     		str	r3, [r0, #12]
  27:Lib/compute/pid/pid.cpp ****     _max = max;
 147              		.loc 1 27 5 is_stmt 1 view .LVU40
 148              		.loc 1 27 10 is_stmt 0 view .LVU41
 149 003c 019B     		ldr	r3, [sp, #4]
ARM GAS  /tmp/ccxFNoc9.s 			page 4


 150 003e 0361     		str	r3, [r0, #16]
  28:Lib/compute/pid/pid.cpp ****     _min = min;
 151              		.loc 1 28 5 is_stmt 1 view .LVU42
 152              		.loc 1 28 10 is_stmt 0 view .LVU43
 153 0040 029B     		ldr	r3, [sp, #8]
 154 0042 4361     		str	r3, [r0, #20]
  29:Lib/compute/pid/pid.cpp ****     _i_max = i_max;
 155              		.loc 1 29 5 is_stmt 1 view .LVU44
 156              		.loc 1 29 12 is_stmt 0 view .LVU45
 157 0044 039B     		ldr	r3, [sp, #12]
 158 0046 8361     		str	r3, [r0, #24]
  30:Lib/compute/pid/pid.cpp **** }
 159              		.loc 1 30 1 view .LVU46
 160              		@ sp needed
 161 0048 7047     		bx	lr
 162              		.cfi_endproc
 163              	.LFE1013:
 165              		.align	1
 166              		.global	_ZN3PID9_update_IEf
 167              		.syntax unified
 168              		.code	16
 169              		.thumb_func
 171              	_ZN3PID9_update_IEf:
 172              	.LVL5:
 173              	.LFB1016:
  31:Lib/compute/pid/pid.cpp **** 
  32:Lib/compute/pid/pid.cpp **** float PID::update(float error, float nudge)
  33:Lib/compute/pid/pid.cpp **** {
  34:Lib/compute/pid/pid.cpp ****     _error = error;
  35:Lib/compute/pid/pid.cpp ****     _nudge = nudge;
  36:Lib/compute/pid/pid.cpp **** 
  37:Lib/compute/pid/pid.cpp ****     // Proportional term
  38:Lib/compute/pid/pid.cpp ****     _P = _kp * error;
  39:Lib/compute/pid/pid.cpp **** 
  40:Lib/compute/pid/pid.cpp ****     // Integral term
  41:Lib/compute/pid/pid.cpp ****     // _integral += error * _dt;
  42:Lib/compute/pid/pid.cpp ****     _update_I(error);
  43:Lib/compute/pid/pid.cpp **** 
  44:Lib/compute/pid/pid.cpp ****     // Derivative term
  45:Lib/compute/pid/pid.cpp ****     // float derivative = (error - _prev_error) / _dt;
  46:Lib/compute/pid/pid.cpp ****     _D = _kd * (error - _prev_error) / _dt;
  47:Lib/compute/pid/pid.cpp **** 
  48:Lib/compute/pid/pid.cpp ****     // Calculate output
  49:Lib/compute/pid/pid.cpp ****     _output = _P + _I - _D + nudge;
  50:Lib/compute/pid/pid.cpp **** 
  51:Lib/compute/pid/pid.cpp ****     // Clamp output
  52:Lib/compute/pid/pid.cpp ****     if (_output > _max)
  53:Lib/compute/pid/pid.cpp ****         _output = _max;
  54:Lib/compute/pid/pid.cpp ****     else if (_output < _min)
  55:Lib/compute/pid/pid.cpp ****         _output = _min;
  56:Lib/compute/pid/pid.cpp **** 
  57:Lib/compute/pid/pid.cpp ****     // Save error to previous error
  58:Lib/compute/pid/pid.cpp ****     _prev_error = error;
  59:Lib/compute/pid/pid.cpp **** 
  60:Lib/compute/pid/pid.cpp ****     return _output;
  61:Lib/compute/pid/pid.cpp **** }
  62:Lib/compute/pid/pid.cpp **** 
ARM GAS  /tmp/ccxFNoc9.s 			page 5


  63:Lib/compute/pid/pid.cpp **** void PID::reset(void)
  64:Lib/compute/pid/pid.cpp **** {
  65:Lib/compute/pid/pid.cpp ****     _reset_I();
  66:Lib/compute/pid/pid.cpp ****     _prev_error = 0.0f;
  67:Lib/compute/pid/pid.cpp ****     _P = _I = _D = _error = _nudge = _output = 0.0f;
  68:Lib/compute/pid/pid.cpp **** }
  69:Lib/compute/pid/pid.cpp **** 
  70:Lib/compute/pid/pid.cpp **** void PID::_update_I(float error)
  71:Lib/compute/pid/pid.cpp **** {
 174              		.loc 1 71 1 is_stmt 1 view -0
 175              		.cfi_startproc
 176              		@ args = 0, pretend = 0, frame = 0
 177              		@ frame_needed = 0, uses_anonymous_args = 0
 178              		.loc 1 71 1 is_stmt 0 view .LVU48
 179 004a F8B5     		push	{r3, r4, r5, r6, r7, lr}
 180              		.cfi_def_cfa_offset 24
 181              		.cfi_offset 3, -24
 182              		.cfi_offset 4, -20
 183              		.cfi_offset 5, -16
 184              		.cfi_offset 6, -12
 185              		.cfi_offset 7, -8
 186              		.cfi_offset 14, -4
 187 004c 0400     		movs	r4, r0
 188 004e 0D1C     		adds	r5, r1, #0
  72:Lib/compute/pid/pid.cpp ****     if ((_I > 0.0f && error < 0.0f) ||
 189              		.loc 1 72 5 is_stmt 1 view .LVU49
 190              		.loc 1 72 10 is_stmt 0 view .LVU50
 191 0050 466A     		ldr	r6, [r0, #36]
 192              		.loc 1 72 5 view .LVU51
 193 0052 0021     		movs	r1, #0
 194              	.LVL6:
 195              		.loc 1 72 5 view .LVU52
 196 0054 301C     		adds	r0, r6, #0
 197              	.LVL7:
 198              		.loc 1 72 5 view .LVU53
 199 0056 FFF7FEFF 		bl	__aeabi_fcmpgt
 200              	.LVL8:
 201 005a 0028     		cmp	r0, #0
 202 005c 05D0     		beq	.L5
 203              		.loc 1 72 20 discriminator 1 view .LVU54
 204 005e 0021     		movs	r1, #0
 205 0060 281C     		adds	r0, r5, #0
 206 0062 FFF7FEFF 		bl	__aeabi_fcmplt
 207              	.LVL9:
 208 0066 0028     		cmp	r0, #0
 209 0068 2BD1     		bne	.L7
 210              	.L5:
 211              		.loc 1 72 37 discriminator 3 view .LVU55
 212 006a 0021     		movs	r1, #0
 213 006c 301C     		adds	r0, r6, #0
 214 006e FFF7FEFF 		bl	__aeabi_fcmplt
 215              	.LVL10:
 216 0072 0028     		cmp	r0, #0
 217 0074 1FD1     		bne	.L19
 218              	.L8:
  73:Lib/compute/pid/pid.cpp ****         (_I < 0.0f && error > 0.0f))
  74:Lib/compute/pid/pid.cpp ****     {
ARM GAS  /tmp/ccxFNoc9.s 			page 6


  75:Lib/compute/pid/pid.cpp ****         _I += _ki * error * _dt * 1.4f;
  76:Lib/compute/pid/pid.cpp ****     }
  77:Lib/compute/pid/pid.cpp ****     else
  78:Lib/compute/pid/pid.cpp ****     {
  79:Lib/compute/pid/pid.cpp ****         _I += _ki * error * _dt;
 219              		.loc 1 79 9 is_stmt 1 view .LVU56
 220              		.loc 1 79 15 is_stmt 0 view .LVU57
 221 0076 6068     		ldr	r0, [r4, #4]
 222              		.loc 1 79 19 view .LVU58
 223 0078 291C     		adds	r1, r5, #0
 224 007a FFF7FEFF 		bl	__aeabi_fmul
 225              	.LVL11:
 226              		.loc 1 79 29 view .LVU59
 227 007e E168     		ldr	r1, [r4, #12]
 228              		.loc 1 79 27 view .LVU60
 229 0080 FFF7FEFF 		bl	__aeabi_fmul
 230              	.LVL12:
 231 0084 011C     		adds	r1, r0, #0
 232              		.loc 1 79 12 view .LVU61
 233 0086 301C     		adds	r0, r6, #0
 234 0088 FFF7FEFF 		bl	__aeabi_fadd
 235              	.LVL13:
 236 008c 6062     		str	r0, [r4, #36]
 237              	.L11:
  80:Lib/compute/pid/pid.cpp ****     }
  81:Lib/compute/pid/pid.cpp ****     _I = constraint_value(_I, -_i_max, _i_max);
 238              		.loc 1 81 5 is_stmt 1 view .LVU62
 239              		.loc 1 81 10 is_stmt 0 view .LVU63
 240 008e 666A     		ldr	r6, [r4, #36]
 241 0090 A769     		ldr	r7, [r4, #24]
 242 0092 8023     		movs	r3, #128
 243 0094 1B06     		lsls	r3, r3, #24
 244 0096 FD18     		adds	r5, r7, r3
 245              	.LVL14:
 246              		.loc 1 81 10 view .LVU64
 247 0098 291C     		adds	r1, r5, #0
 248 009a 301C     		adds	r0, r6, #0
 249 009c FFF7FEFF 		bl	__aeabi_fcmplt
 250              	.LVL15:
 251 00a0 0028     		cmp	r0, #0
 252 00a2 06D1     		bne	.L12
 253              		.loc 1 81 10 discriminator 2 view .LVU65
 254 00a4 391C     		adds	r1, r7, #0
 255 00a6 301C     		adds	r0, r6, #0
 256 00a8 FFF7FEFF 		bl	__aeabi_fcmpgt
 257              	.LVL16:
 258 00ac 0028     		cmp	r0, #0
 259 00ae 18D0     		beq	.L18
 260              		.loc 1 81 10 discriminator 4 view .LVU66
 261 00b0 3D1C     		adds	r5, r7, #0
 262              	.L12:
 263              		.loc 1 81 8 discriminator 8 view .LVU67
 264 00b2 6562     		str	r5, [r4, #36]
  82:Lib/compute/pid/pid.cpp **** }
 265              		.loc 1 82 1 view .LVU68
 266              		@ sp needed
 267              	.LVL17:
ARM GAS  /tmp/ccxFNoc9.s 			page 7


 268              		.loc 1 82 1 view .LVU69
 269 00b4 F8BD     		pop	{r3, r4, r5, r6, r7, pc}
 270              	.LVL18:
 271              	.L19:
  73:Lib/compute/pid/pid.cpp ****         (_I < 0.0f && error > 0.0f))
 272              		.loc 1 73 20 view .LVU70
 273 00b6 0021     		movs	r1, #0
 274 00b8 281C     		adds	r0, r5, #0
 275 00ba FFF7FEFF 		bl	__aeabi_fcmpgt
 276              	.LVL19:
 277 00be 0028     		cmp	r0, #0
 278 00c0 D9D0     		beq	.L8
 279              	.L7:
  75:Lib/compute/pid/pid.cpp ****     }
 280              		.loc 1 75 9 is_stmt 1 view .LVU71
  75:Lib/compute/pid/pid.cpp ****     }
 281              		.loc 1 75 15 is_stmt 0 view .LVU72
 282 00c2 6068     		ldr	r0, [r4, #4]
  75:Lib/compute/pid/pid.cpp ****     }
 283              		.loc 1 75 19 view .LVU73
 284 00c4 291C     		adds	r1, r5, #0
 285 00c6 FFF7FEFF 		bl	__aeabi_fmul
 286              	.LVL20:
  75:Lib/compute/pid/pid.cpp ****     }
 287              		.loc 1 75 29 view .LVU74
 288 00ca E168     		ldr	r1, [r4, #12]
  75:Lib/compute/pid/pid.cpp ****     }
 289              		.loc 1 75 27 view .LVU75
 290 00cc FFF7FEFF 		bl	__aeabi_fmul
 291              	.LVL21:
  75:Lib/compute/pid/pid.cpp ****     }
 292              		.loc 1 75 33 view .LVU76
 293 00d0 0549     		ldr	r1, .L20
 294 00d2 FFF7FEFF 		bl	__aeabi_fmul
 295              	.LVL22:
 296 00d6 011C     		adds	r1, r0, #0
  75:Lib/compute/pid/pid.cpp ****     }
 297              		.loc 1 75 12 view .LVU77
 298 00d8 301C     		adds	r0, r6, #0
 299 00da FFF7FEFF 		bl	__aeabi_fadd
 300              	.LVL23:
 301 00de 6062     		str	r0, [r4, #36]
 302 00e0 D5E7     		b	.L11
 303              	.LVL24:
 304              	.L18:
  81:Lib/compute/pid/pid.cpp **** }
 305              		.loc 1 81 10 discriminator 5 view .LVU78
 306 00e2 351C     		adds	r5, r6, #0
 307 00e4 E5E7     		b	.L12
 308              	.L21:
 309 00e6 C046     		.align	2
 310              	.L20:
 311 00e8 3333B33F 		.word	1068708659
 312              		.cfi_endproc
 313              	.LFE1016:
 315              		.align	1
 316              		.global	_ZN3PID6updateEff
ARM GAS  /tmp/ccxFNoc9.s 			page 8


 317              		.syntax unified
 318              		.code	16
 319              		.thumb_func
 321              	_ZN3PID6updateEff:
 322              	.LVL25:
 323              	.LFB1014:
  33:Lib/compute/pid/pid.cpp ****     _error = error;
 324              		.loc 1 33 1 is_stmt 1 view -0
 325              		.cfi_startproc
 326              		@ args = 0, pretend = 0, frame = 0
 327              		@ frame_needed = 0, uses_anonymous_args = 0
  33:Lib/compute/pid/pid.cpp ****     _error = error;
 328              		.loc 1 33 1 is_stmt 0 view .LVU80
 329 00ec F8B5     		push	{r3, r4, r5, r6, r7, lr}
 330              		.cfi_def_cfa_offset 24
 331              		.cfi_offset 3, -24
 332              		.cfi_offset 4, -20
 333              		.cfi_offset 5, -16
 334              		.cfi_offset 6, -12
 335              		.cfi_offset 7, -8
 336              		.cfi_offset 14, -4
 337 00ee 0400     		movs	r4, r0
 338 00f0 0D1C     		adds	r5, r1, #0
 339 00f2 161C     		adds	r6, r2, #0
  34:Lib/compute/pid/pid.cpp ****     _nudge = nudge;
 340              		.loc 1 34 5 is_stmt 1 view .LVU81
  34:Lib/compute/pid/pid.cpp ****     _nudge = nudge;
 341              		.loc 1 34 12 is_stmt 0 view .LVU82
 342 00f4 C162     		str	r1, [r0, #44]
  35:Lib/compute/pid/pid.cpp **** 
 343              		.loc 1 35 5 is_stmt 1 view .LVU83
  35:Lib/compute/pid/pid.cpp **** 
 344              		.loc 1 35 12 is_stmt 0 view .LVU84
 345 00f6 0263     		str	r2, [r0, #48]
  38:Lib/compute/pid/pid.cpp **** 
 346              		.loc 1 38 5 is_stmt 1 view .LVU85
  38:Lib/compute/pid/pid.cpp **** 
 347              		.loc 1 38 10 is_stmt 0 view .LVU86
 348 00f8 0068     		ldr	r0, [r0]
 349              	.LVL26:
  38:Lib/compute/pid/pid.cpp **** 
 350              		.loc 1 38 14 view .LVU87
 351 00fa FFF7FEFF 		bl	__aeabi_fmul
 352              	.LVL27:
  38:Lib/compute/pid/pid.cpp **** 
 353              		.loc 1 38 8 view .LVU88
 354 00fe 2062     		str	r0, [r4, #32]
  42:Lib/compute/pid/pid.cpp **** 
 355              		.loc 1 42 5 is_stmt 1 view .LVU89
  42:Lib/compute/pid/pid.cpp **** 
 356              		.loc 1 42 14 is_stmt 0 view .LVU90
 357 0100 291C     		adds	r1, r5, #0
 358 0102 2000     		movs	r0, r4
 359 0104 FFF7FEFF 		bl	_ZN3PID9_update_IEf
 360              	.LVL28:
  46:Lib/compute/pid/pid.cpp **** 
 361              		.loc 1 46 5 is_stmt 1 view .LVU91
ARM GAS  /tmp/ccxFNoc9.s 			page 9


  46:Lib/compute/pid/pid.cpp **** 
 362              		.loc 1 46 10 is_stmt 0 view .LVU92
 363 0108 A768     		ldr	r7, [r4, #8]
  46:Lib/compute/pid/pid.cpp **** 
 364              		.loc 1 46 25 view .LVU93
 365 010a E169     		ldr	r1, [r4, #28]
  46:Lib/compute/pid/pid.cpp **** 
 366              		.loc 1 46 23 view .LVU94
 367 010c 281C     		adds	r0, r5, #0
 368 010e FFF7FEFF 		bl	__aeabi_fsub
 369              	.LVL29:
 370 0112 011C     		adds	r1, r0, #0
  46:Lib/compute/pid/pid.cpp **** 
 371              		.loc 1 46 14 view .LVU95
 372 0114 381C     		adds	r0, r7, #0
 373 0116 FFF7FEFF 		bl	__aeabi_fmul
 374              	.LVL30:
  46:Lib/compute/pid/pid.cpp **** 
 375              		.loc 1 46 40 view .LVU96
 376 011a E168     		ldr	r1, [r4, #12]
  46:Lib/compute/pid/pid.cpp **** 
 377              		.loc 1 46 38 view .LVU97
 378 011c FFF7FEFF 		bl	__aeabi_fdiv
 379              	.LVL31:
 380 0120 071C     		adds	r7, r0, #0
  46:Lib/compute/pid/pid.cpp **** 
 381              		.loc 1 46 8 view .LVU98
 382 0122 A062     		str	r0, [r4, #40]
  49:Lib/compute/pid/pid.cpp **** 
 383              		.loc 1 49 5 is_stmt 1 view .LVU99
  49:Lib/compute/pid/pid.cpp **** 
 384              		.loc 1 49 15 is_stmt 0 view .LVU100
 385 0124 206A     		ldr	r0, [r4, #32]
  49:Lib/compute/pid/pid.cpp **** 
 386              		.loc 1 49 20 view .LVU101
 387 0126 616A     		ldr	r1, [r4, #36]
  49:Lib/compute/pid/pid.cpp **** 
 388              		.loc 1 49 18 view .LVU102
 389 0128 FFF7FEFF 		bl	__aeabi_fadd
 390              	.LVL32:
  49:Lib/compute/pid/pid.cpp **** 
 391              		.loc 1 49 23 view .LVU103
 392 012c 391C     		adds	r1, r7, #0
 393 012e FFF7FEFF 		bl	__aeabi_fsub
 394              	.LVL33:
  49:Lib/compute/pid/pid.cpp **** 
 395              		.loc 1 49 28 view .LVU104
 396 0132 311C     		adds	r1, r6, #0
 397 0134 FFF7FEFF 		bl	__aeabi_fadd
 398              	.LVL34:
 399 0138 061C     		adds	r6, r0, #0
 400              	.LVL35:
  49:Lib/compute/pid/pid.cpp **** 
 401              		.loc 1 49 13 view .LVU105
 402 013a 6063     		str	r0, [r4, #52]
  52:Lib/compute/pid/pid.cpp ****         _output = _max;
 403              		.loc 1 52 5 is_stmt 1 view .LVU106
ARM GAS  /tmp/ccxFNoc9.s 			page 10


  52:Lib/compute/pid/pid.cpp ****         _output = _max;
 404              		.loc 1 52 19 is_stmt 0 view .LVU107
 405 013c 2769     		ldr	r7, [r4, #16]
  52:Lib/compute/pid/pid.cpp ****         _output = _max;
 406              		.loc 1 52 5 view .LVU108
 407 013e 391C     		adds	r1, r7, #0
 408 0140 FFF7FEFF 		bl	__aeabi_fcmpgt
 409              	.LVL36:
 410 0144 0028     		cmp	r0, #0
 411 0146 03D0     		beq	.L29
  53:Lib/compute/pid/pid.cpp ****     else if (_output < _min)
 412              		.loc 1 53 9 is_stmt 1 view .LVU109
  53:Lib/compute/pid/pid.cpp ****     else if (_output < _min)
 413              		.loc 1 53 17 is_stmt 0 view .LVU110
 414 0148 6763     		str	r7, [r4, #52]
 415              	.L25:
  58:Lib/compute/pid/pid.cpp **** 
 416              		.loc 1 58 5 is_stmt 1 view .LVU111
  58:Lib/compute/pid/pid.cpp **** 
 417              		.loc 1 58 17 is_stmt 0 view .LVU112
 418 014a E561     		str	r5, [r4, #28]
  60:Lib/compute/pid/pid.cpp **** }
 419              		.loc 1 60 5 is_stmt 1 view .LVU113
  60:Lib/compute/pid/pid.cpp **** }
 420              		.loc 1 60 12 is_stmt 0 discriminator 1 view .LVU114
 421 014c 606B     		ldr	r0, [r4, #52]
  61:Lib/compute/pid/pid.cpp **** 
 422              		.loc 1 61 1 view .LVU115
 423              		@ sp needed
 424              	.LVL37:
 425              	.LVL38:
  61:Lib/compute/pid/pid.cpp **** 
 426              		.loc 1 61 1 view .LVU116
 427 014e F8BD     		pop	{r3, r4, r5, r6, r7, pc}
 428              	.LVL39:
 429              	.L29:
  54:Lib/compute/pid/pid.cpp ****         _output = _min;
 430              		.loc 1 54 10 is_stmt 1 view .LVU117
  54:Lib/compute/pid/pid.cpp ****         _output = _min;
 431              		.loc 1 54 24 is_stmt 0 view .LVU118
 432 0150 6769     		ldr	r7, [r4, #20]
  54:Lib/compute/pid/pid.cpp ****         _output = _min;
 433              		.loc 1 54 10 view .LVU119
 434 0152 391C     		adds	r1, r7, #0
 435 0154 301C     		adds	r0, r6, #0
 436 0156 FFF7FEFF 		bl	__aeabi_fcmplt
 437              	.LVL40:
 438 015a 0028     		cmp	r0, #0
 439 015c F5D0     		beq	.L25
  55:Lib/compute/pid/pid.cpp **** 
 440              		.loc 1 55 9 is_stmt 1 view .LVU120
  55:Lib/compute/pid/pid.cpp **** 
 441              		.loc 1 55 17 is_stmt 0 view .LVU121
 442 015e 6763     		str	r7, [r4, #52]
 443 0160 F3E7     		b	.L25
 444              		.cfi_endproc
 445              	.LFE1014:
ARM GAS  /tmp/ccxFNoc9.s 			page 11


 447              		.align	1
 448              		.global	_ZN3PID8_reset_IEv
 449              		.syntax unified
 450              		.code	16
 451              		.thumb_func
 453              	_ZN3PID8_reset_IEv:
 454              	.LVL41:
 455              	.LFB1017:
  83:Lib/compute/pid/pid.cpp **** 
  84:Lib/compute/pid/pid.cpp **** void PID::_reset_I(void)
  85:Lib/compute/pid/pid.cpp **** {
 456              		.loc 1 85 1 is_stmt 1 view -0
 457              		.cfi_startproc
 458              		@ args = 0, pretend = 0, frame = 0
 459              		@ frame_needed = 0, uses_anonymous_args = 0
 460              		@ link register save eliminated.
  86:Lib/compute/pid/pid.cpp ****     _I = 0.0f;
 461              		.loc 1 86 5 view .LVU123
 462              		.loc 1 86 8 is_stmt 0 view .LVU124
 463 0162 0023     		movs	r3, #0
 464 0164 4362     		str	r3, [r0, #36]
  87:Lib/compute/pid/pid.cpp **** }...
 465              		.loc 1 87 1 view .LVU125
 466              		@ sp needed
 467 0166 7047     		bx	lr
 468              		.cfi_endproc
 469              	.LFE1017:
 471              		.align	1
 472              		.global	_ZN3PID5resetEv
 473              		.syntax unified
 474              		.code	16
 475              		.thumb_func
 477              	_ZN3PID5resetEv:
 478              	.LVL42:
 479              	.LFB1015:
  64:Lib/compute/pid/pid.cpp **** {
 480              		.loc 1 64 1 is_stmt 1 view -0
 481              		.cfi_startproc
 482              		@ args = 0, pretend = 0, frame = 0
 483              		@ frame_needed = 0, uses_anonymous_args = 0
  64:Lib/compute/pid/pid.cpp **** {
 484              		.loc 1 64 1 is_stmt 0 view .LVU127
 485 0168 10B5     		push	{r4, lr}
 486              		.cfi_def_cfa_offset 8
 487              		.cfi_offset 4, -8
 488              		.cfi_offset 14, -4
 489 016a 0400     		movs	r4, r0
  65:Lib/compute/pid/pid.cpp ****     _reset_I();
 490              		.loc 1 65 5 is_stmt 1 view .LVU128
  65:Lib/compute/pid/pid.cpp ****     _reset_I();
 491              		.loc 1 65 13 is_stmt 0 view .LVU129
 492 016c FFF7FEFF 		bl	_ZN3PID8_reset_IEv
 493              	.LVL43:
  66:Lib/compute/pid/pid.cpp ****     _prev_error = 0.0f;
 494              		.loc 1 66 5 is_stmt 1 view .LVU130
  66:Lib/compute/pid/pid.cpp ****     _prev_error = 0.0f;
 495              		.loc 1 66 17 is_stmt 0 view .LVU131
ARM GAS  /tmp/ccxFNoc9.s 			page 12


 496 0170 0023     		movs	r3, #0
 497 0172 E361     		str	r3, [r4, #28]
  67:Lib/compute/pid/pid.cpp ****     _P = _I = _D = _error = _nudge = _output = 0.0f;
 498              		.loc 1 67 5 is_stmt 1 view .LVU132
  67:Lib/compute/pid/pid.cpp ****     _P = _I = _D = _error = _nudge = _output = 0.0f;
 499              		.loc 1 67 46 is_stmt 0 view .LVU133
 500 0174 6363     		str	r3, [r4, #52]
  67:Lib/compute/pid/pid.cpp ****     _P = _I = _D = _error = _nudge = _output = 0.0f;
 501              		.loc 1 67 36 view .LVU134
 502 0176 2363     		str	r3, [r4, #48]
  67:Lib/compute/pid/pid.cpp ****     _P = _I = _D = _error = _nudge = _output = 0.0f;
 503              		.loc 1 67 27 view .LVU135
 504 0178 E362     		str	r3, [r4, #44]
  67:Lib/compute/pid/pid.cpp ****     _P = _I = _D = _error = _nudge = _output = 0.0f;
 505              		.loc 1 67 18 view .LVU136
 506 017a A362     		str	r3, [r4, #40]
  67:Lib/compute/pid/pid.cpp ****     _P = _I = _D = _error = _nudge = _output = 0.0f;
 507              		.loc 1 67 13 view .LVU137
 508 017c 6362     		str	r3, [r4, #36]
  67:Lib/compute/pid/pid.cpp ****     _P = _I = _D = _error = _nudge = _output = 0.0f;
 509              		.loc 1 67 8 view .LVU138
 510 017e 2362     		str	r3, [r4, #32]
  68:Lib/compute/pid/pid.cpp **** }
 511              		.loc 1 68 1 view .LVU139
 512              		@ sp needed
 513              	.LVL44:
  68:Lib/compute/pid/pid.cpp **** }
 514              		.loc 1 68 1 view .LVU140
 515 0180 10BD     		pop	{r4, pc}
 516              		.cfi_endproc
 517              	.LFE1015:
 519              	.Letext0:
 520              		.file 2 "Lib/compute/pid/pid.hpp"
 521              		.file 3 "/opt/arm-gnu-toolchain-14.2/arm-none-eabi/include/c++/14.2.1/cmath"
 522              		.file 4 "/opt/arm-gnu-toolchain-14.2/arm-none-eabi/include/c++/14.2.1/type_traits"
 523              		.file 5 "/opt/arm-gnu-toolchain-14.2/arm-none-eabi/include/c++/14.2.1/debug/debug.h"
 524              		.file 6 "/opt/arm-gnu-toolchain-14.2/arm-none-eabi/include/c++/14.2.1/bits/std_abs.h"
 525              		.file 7 "/opt/arm-gnu-toolchain-14.2/arm-none-eabi/include/c++/14.2.1/bits/predefined_ops.h"
 526              		.file 8 "/opt/arm-gnu-toolchain-14.2/arm-none-eabi/include/math.h"
 527              		.file 9 "/opt/arm-gnu-toolchain-14.2/arm-none-eabi/include/c++/14.2.1/arm-none-eabi/thumb/v6-m/nof
 528              		.file 10 "/opt/arm-gnu-toolchain-14.2/arm-none-eabi/include/c++/14.2.1/math.h"
ARM GAS  /tmp/ccxFNoc9.s 			page 13


DEFINED SYMBOLS
                            *ABS*:00000000 pid.cpp
     /tmp/ccxFNoc9.s:18     .text:00000000 $t
     /tmp/ccxFNoc9.s:24     .text:00000000 _ZN3PIDC2Ev
     /tmp/ccxFNoc9.s:24     .text:00000000 _ZN3PIDC1Ev
     /tmp/ccxFNoc9.s:66     .text:00000014 _ZN3PIDC2Efffffff
     /tmp/ccxFNoc9.s:66     .text:00000014 _ZN3PIDC1Efffffff
     /tmp/ccxFNoc9.s:124    .text:00000032 _ZN3PIDclEfffffff
     /tmp/ccxFNoc9.s:171    .text:0000004a _ZN3PID9_update_IEf
     /tmp/ccxFNoc9.s:311    .text:000000e8 $d
     /tmp/ccxFNoc9.s:315    .text:000000ec $t
     /tmp/ccxFNoc9.s:321    .text:000000ec _ZN3PID6updateEff
     /tmp/ccxFNoc9.s:453    .text:00000162 _ZN3PID8_reset_IEv
     /tmp/ccxFNoc9.s:477    .text:00000168 _ZN3PID5resetEv

UNDEFINED SYMBOLS
__aeabi_fcmpgt
__aeabi_fcmplt
__aeabi_fmul
__aeabi_fadd
__aeabi_fsub
__aeabi_fdiv
