ARM GAS  /tmp/ccUDp7dI.s 			page 1


   1              		.cpu cortex-m0plus
   2              		.arch armv6s-m
   3              		.fpu softvfp
   4              		.eabi_attribute 20, 1
   5              		.eabi_attribute 21, 1
   6              		.eabi_attribute 23, 3
   7              		.eabi_attribute 24, 1
   8              		.eabi_attribute 25, 1
   9              		.eabi_attribute 26, 1
  10              		.eabi_attribute 30, 1
  11              		.eabi_attribute 34, 0
  12              		.eabi_attribute 18, 4
  13              		.file	"serial.cpp"
  14              		.text
  15              	.Ltext0:
  16              		.cfi_sections	.debug_frame
  17              		.file 1 "Lib/serial/serial.cpp"
  18              		.align	1
  19              		.global	_ZN6Serial10get_serialEP20__UART_HandleTypeDef
  20              		.syntax unified
  21              		.code	16
  22              		.thumb_func
  24              	_ZN6Serial10get_serialEP20__UART_HandleTypeDef:
  25              	.LVL0:
  26              	.LFB461:
   1:Lib/serial/serial.cpp **** // ============================================================
   2:Lib/serial/serial.cpp **** // Serial 串口驱动层 - 统一管理 STM32 UART 的收发
   3:Lib/serial/serial.cpp **** // 支持 DMA / IT 两种接收模式，支持 FreeRTOS 任务安全调用
   4:Lib/serial/serial.cpp **** // ============================================================
   5:Lib/serial/serial.cpp **** 
   6:Lib/serial/serial.cpp **** #include "serial.hpp"
   7:Lib/serial/serial.cpp **** 
   8:Lib/serial/serial.cpp **** #include <string.h>
   9:Lib/serial/serial.cpp **** #include "printf.h"
  10:Lib/serial/serial.cpp **** 
  11:Lib/serial/serial.cpp **** #include "HAL_System.hpp"
  12:Lib/serial/serial.cpp **** 
  13:Lib/serial/serial.cpp **** // ============================================================
  14:Lib/serial/serial.cpp **** // 静态成员 - 维护全局串口列表，用于回调函数中快速查找对应 Serial 实例
  15:Lib/serial/serial.cpp **** // sr_list 是一个固定大小的数组，通过 UART 句柄找到对应的 Serial 对象
  16:Lib/serial/serial.cpp **** // ============================================================
  17:Lib/serial/serial.cpp **** Serial *Serial::sr_list[SERIAL_MAX_COUNT] = {
  18:Lib/serial/serial.cpp ****     NULL,  // 预留给串口 0
  19:Lib/serial/serial.cpp ****     // NULL,  // 预留给串口 1...（取决于 SERIAL_MAX_COUNT 大小）
  20:Lib/serial/serial.cpp **** };
  21:Lib/serial/serial.cpp **** uint8_t Serial::sr_count = 0;  // 已注册的串口数量计数器
  22:Lib/serial/serial.cpp **** 
  23:Lib/serial/serial.cpp **** // ============================================================
  24:Lib/serial/serial.cpp **** // get_serial - 通过 UART 句柄查找对应的 Serial 实例
  25:Lib/serial/serial.cpp **** // 参数：uart - 指向 UART_HandleTypeDef 的指针
  26:Lib/serial/serial.cpp **** // 返回：找到返回 Serial 指针，未找到返回 NULL
  27:Lib/serial/serial.cpp **** // ============================================================
  28:Lib/serial/serial.cpp **** Serial *Serial::get_serial(UART_HandleTypeDef *uart)
  29:Lib/serial/serial.cpp **** {
  27              		.loc 1 29 1 view -0
  28              		.cfi_startproc
  29              		@ args = 0, pretend = 0, frame = 0
ARM GAS  /tmp/ccUDp7dI.s 			page 2


  30              		@ frame_needed = 0, uses_anonymous_args = 0
  31              		.loc 1 29 1 is_stmt 0 view .LVU1
  32 0000 10B5     		push	{r4, lr}
  33              		.cfi_def_cfa_offset 8
  34              		.cfi_offset 4, -8
  35              		.cfi_offset 14, -4
  36 0002 0400     		movs	r4, r0
  30:Lib/serial/serial.cpp ****     // 遍历已注册的串口列表
  31:Lib/serial/serial.cpp ****     for (uint8_t i = 0; i < sr_count; i++)
  37              		.loc 1 31 5 is_stmt 1 view .LVU2
  38              	.LVL1:
  39              	.LBB18:
  40              		.loc 1 31 18 is_stmt 0 view .LVU3
  41 0004 0023     		movs	r3, #0
  42              		.loc 1 31 5 view .LVU4
  43 0006 01E0     		b	.L2
  44              	.LVL2:
  45              	.L6:
  46              		.loc 1 31 5 is_stmt 1 discriminator 2 view .LVU5
  47 0008 0133     		adds	r3, r3, #1
  48              	.LVL3:
  49              		.loc 1 31 5 is_stmt 0 discriminator 2 view .LVU6
  50 000a DBB2     		uxtb	r3, r3
  51              	.LVL4:
  52              	.L2:
  53              		.loc 1 31 27 is_stmt 1 discriminator 1 view .LVU7
  54 000c 064A     		ldr	r2, .L7
  55 000e 2021     		movs	r1, #32
  56 0010 525C     		ldrb	r2, [r2, r1]
  57 0012 9A42     		cmp	r2, r3
  58 0014 06D9     		bls	.L5
  32:Lib/serial/serial.cpp ****     {
  33:Lib/serial/serial.cpp ****         // 比较句柄地址是否匹配
  34:Lib/serial/serial.cpp ****         if (uart == sr_list[i]->_uart)
  59              		.loc 1 34 9 view .LVU8
  60              		.loc 1 34 30 is_stmt 0 view .LVU9
  61 0016 044A     		ldr	r2, .L7
  62 0018 9900     		lsls	r1, r3, #2
  63 001a 8858     		ldr	r0, [r1, r2]
  64              		.loc 1 34 33 view .LVU10
  65 001c 4269     		ldr	r2, [r0, #20]
  66              		.loc 1 34 9 view .LVU11
  67 001e A242     		cmp	r2, r4
  68 0020 F2D1     		bne	.L6
  69 0022 00E0     		b	.L1
  70              	.L5:
  71              	.LBE18:
  35:Lib/serial/serial.cpp ****             return sr_list[i];  // 找到对应的 Serial 实例
  36:Lib/serial/serial.cpp ****     }
  37:Lib/serial/serial.cpp ****     return NULL;  // 未找到
  72              		.loc 1 37 12 view .LVU12
  73 0024 0020     		movs	r0, #0
  74              	.L1:
  38:Lib/serial/serial.cpp **** }
  75              		.loc 1 38 1 view .LVU13
  76              		@ sp needed
  77              	.LVL5:
ARM GAS  /tmp/ccUDp7dI.s 			page 3


  78              		.loc 1 38 1 view .LVU14
  79 0026 10BD     		pop	{r4, pc}
  80              	.L8:
  81              		.align	2
  82              	.L7:
  83 0028 00000000 		.word	.LANCHOR0
  84              		.cfi_endproc
  85              	.LFE461:
  87              		.align	1
  88              		.global	_ZN6Serial23generate_default_configEP13Serial_Config
  89              		.syntax unified
  90              		.code	16
  91              		.thumb_func
  93              	_ZN6Serial23generate_default_configEP13Serial_Config:
  94              	.LVL6:
  95              	.LFB464:
  39:Lib/serial/serial.cpp **** 
  40:Lib/serial/serial.cpp **** // ============================================================
  41:Lib/serial/serial.cpp **** // init - 完整初始化串口（需要所有参数）
  42:Lib/serial/serial.cpp **** // 参数：
  43:Lib/serial/serial.cpp **** //   name   - 串口名称（用于任务命名，最大 SERIAL_NAME_SIZE 字符）
  44:Lib/serial/serial.cpp **** //   config - 串口配置结构体指针
  45:Lib/serial/serial.cpp **** //   uart   - CubeMX 生成的 UART 句柄指针
  46:Lib/serial/serial.cpp **** // 返回：true 成功，false 失败
  47:Lib/serial/serial.cpp **** // ============================================================
  48:Lib/serial/serial.cpp **** bool Serial::init(const char *name, Serial_Config *config, UART_HandleTypeDef *uart)
  49:Lib/serial/serial.cpp **** {
  50:Lib/serial/serial.cpp ****     // -------------------- 1. 参数合法性检查 --------------------
  51:Lib/serial/serial.cpp ****     if (name == NULL || config == NULL || uart == NULL)
  52:Lib/serial/serial.cpp ****     {
  53:Lib/serial/serial.cpp ****         _error = Serial_Error::Init_Error;  // 记录错误类型
  54:Lib/serial/serial.cpp ****         return false;
  55:Lib/serial/serial.cpp ****     }
  56:Lib/serial/serial.cpp **** 
  57:Lib/serial/serial.cpp ****     // -------------------- 2. 配置参数合理性检查 --------------------
  58:Lib/serial/serial.cpp ****     // 名称长度检查（防止溢出）
  59:Lib/serial/serial.cpp ****     // strnlen 返回字符串长度，超过 SERIAL_NAME_SIZE 则报错
  60:Lib/serial/serial.cpp ****     if (strnlen(name, SERIAL_NAME_SIZE * 2) >= SERIAL_NAME_SIZE ||
  61:Lib/serial/serial.cpp ****         // 接收/发送模式不能是 None（否则无法工作）
  62:Lib/serial/serial.cpp ****         config->rx_mode == Serial_Mode::None || config->tx_mode == Serial_Mode::None ||
  63:Lib/serial/serial.cpp ****         // 数据包大小必须 > 0
  64:Lib/serial/serial.cpp ****         config->rx_pack_size == 0 || config->tx_pack_size == 0 ||
  65:Lib/serial/serial.cpp ****         // 队列长度必须 > 0
  66:Lib/serial/serial.cpp ****         config->rx_queue_len == 0 || config->tx_queue_len == 0)
  67:Lib/serial/serial.cpp ****     {
  68:Lib/serial/serial.cpp ****         _error = Serial_Error::Init_Error;
  69:Lib/serial/serial.cpp ****         return false;
  70:Lib/serial/serial.cpp ****     }
  71:Lib/serial/serial.cpp **** 
  72:Lib/serial/serial.cpp ****     // -------------------- 3. 清零实例成员 --------------------
  73:Lib/serial/serial.cpp ****     memset(_name, 0, sizeof(_name));      // 清零名称缓冲区
  74:Lib/serial/serial.cpp ****     memset(&_config, 0, sizeof(_config)); // 清零配置结构体
  75:Lib/serial/serial.cpp ****     memset(&_info, 0, sizeof(_info));    // 清零统计信息结构体
  76:Lib/serial/serial.cpp **** 
  77:Lib/serial/serial.cpp ****     // -------------------- 4. 复制配置 --------------------
  78:Lib/serial/serial.cpp ****     strncpy(_name, name, SERIAL_NAME_SIZE);  // 复制串口名称
  79:Lib/serial/serial.cpp ****     _config = *config;                        // 复制配置参数
ARM GAS  /tmp/ccUDp7dI.s 			page 4


  80:Lib/serial/serial.cpp ****     _uart = uart;                             // 保存 UART 句柄
  81:Lib/serial/serial.cpp **** 
  82:Lib/serial/serial.cpp ****     // -------------------- 5. 注册到全局串口列表 --------------------
  83:Lib/serial/serial.cpp ****     // 防止同一个 UART 句柄被注册两次
  84:Lib/serial/serial.cpp ****     if (get_serial(uart) != NULL)
  85:Lib/serial/serial.cpp ****     {
  86:Lib/serial/serial.cpp ****         _error = Serial_Error::Init_Error;
  87:Lib/serial/serial.cpp ****         return false;
  88:Lib/serial/serial.cpp ****     }
  89:Lib/serial/serial.cpp ****     sr_list[sr_count] = this;  // 将当前实例加入全局列表
  90:Lib/serial/serial.cpp ****     sr_count++;                // 计数器加一
  91:Lib/serial/serial.cpp **** 
  92:Lib/serial/serial.cpp ****     // -------------------- 6. 初始化子模块（任一失败则整体失败） ----------------
  93:Lib/serial/serial.cpp ****     // 缓冲区初始化
  94:Lib/serial/serial.cpp ****     if (!_init_buf())
  95:Lib/serial/serial.cpp ****     {
  96:Lib/serial/serial.cpp ****         _error = Serial_Error::Init_Error;
  97:Lib/serial/serial.cpp ****         return false;
  98:Lib/serial/serial.cpp ****     }
  99:Lib/serial/serial.cpp ****     // 队列初始化（FreeRTOS 消息队列，用于任务间通信）
 100:Lib/serial/serial.cpp ****     if (!_init_queue())
 101:Lib/serial/serial.cpp ****     {
 102:Lib/serial/serial.cpp ****         _error = Serial_Error::Init_Error;
 103:Lib/serial/serial.cpp ****         return false;
 104:Lib/serial/serial.cpp ****     }
 105:Lib/serial/serial.cpp ****     // 信号量初始化（二值信号量，保护发送资源）
 106:Lib/serial/serial.cpp ****     if (!_init_semaphore())
 107:Lib/serial/serial.cpp ****     {
 108:Lib/serial/serial.cpp ****         _error = Serial_Error::Init_Error;
 109:Lib/serial/serial.cpp ****         return false;
 110:Lib/serial/serial.cpp ****     }
 111:Lib/serial/serial.cpp ****     // FreeRTOS 任务初始化（接收/发送任务）
 112:Lib/serial/serial.cpp ****     if (!_init_task())
 113:Lib/serial/serial.cpp ****     {
 114:Lib/serial/serial.cpp ****         _error = Serial_Error::Init_Error;
 115:Lib/serial/serial.cpp ****         return false;
 116:Lib/serial/serial.cpp ****     }
 117:Lib/serial/serial.cpp ****     // 回调函数注册（HAL 库回调）
 118:Lib/serial/serial.cpp ****     if (!_init_callback())
 119:Lib/serial/serial.cpp ****     {
 120:Lib/serial/serial.cpp ****         _error = Serial_Error::Init_Error;
 121:Lib/serial/serial.cpp ****         return false;
 122:Lib/serial/serial.cpp ****     }
 123:Lib/serial/serial.cpp **** 
 124:Lib/serial/serial.cpp ****     // -------------------- 7. 开启串口接收 --------------------
 125:Lib/serial/serial.cpp ****     // 根据 rx_mode 选择 IT 或 DMA 模式启动接收
 126:Lib/serial/serial.cpp ****     if (!_rx_irq_start())
 127:Lib/serial/serial.cpp ****     {
 128:Lib/serial/serial.cpp ****         _error = Serial_Error::Start_Error;
 129:Lib/serial/serial.cpp ****         return false;
 130:Lib/serial/serial.cpp ****     }
 131:Lib/serial/serial.cpp **** 
 132:Lib/serial/serial.cpp ****     // -------------------- 8. 标记就绪 --------------------
 133:Lib/serial/serial.cpp ****     _ready = true;
 134:Lib/serial/serial.cpp ****     return true;
 135:Lib/serial/serial.cpp **** }
 136:Lib/serial/serial.cpp **** 
ARM GAS  /tmp/ccUDp7dI.s 			page 5


 137:Lib/serial/serial.cpp **** // ============================================================
 138:Lib/serial/serial.cpp **** // init_with_default - 使用默认配置快速初始化
 139:Lib/serial/serial.cpp **** // 参数：
 140:Lib/serial/serial.cpp **** //   name - 串口名称
 141:Lib/serial/serial.cpp **** //   uart - UART 句柄
 142:Lib/serial/serial.cpp **** // 返回：true 成功，false 失败
 143:Lib/serial/serial.cpp **** // 说明：自动生成默认配置（DMA 模式，1KB 缓冲区等）
 144:Lib/serial/serial.cpp **** // ============================================================
 145:Lib/serial/serial.cpp **** bool Serial::init_with_default(const char *name, UART_HandleTypeDef *uart)
 146:Lib/serial/serial.cpp **** {
 147:Lib/serial/serial.cpp ****     Serial_Config config;
 148:Lib/serial/serial.cpp ****     generate_default_config(&config);  // 生成默认配置
 149:Lib/serial/serial.cpp ****     return init(name, &config, uart);  // 调用完整初始化
 150:Lib/serial/serial.cpp **** }
 151:Lib/serial/serial.cpp **** 
 152:Lib/serial/serial.cpp **** // ============================================================
 153:Lib/serial/serial.cpp **** // generate_default_config - 生成默认串口配置
 154:Lib/serial/serial.cpp **** // 参数：config - 输出参数，填充默认配置
 155:Lib/serial/serial.cpp **** // 返回：true 成功
 156:Lib/serial/serial.cpp **** // ============================================================
 157:Lib/serial/serial.cpp **** bool Serial::generate_default_config(Serial_Config *config)
 158:Lib/serial/serial.cpp **** {
  96              		.loc 1 158 1 is_stmt 1 view -0
  97              		.cfi_startproc
  98              		@ args = 0, pretend = 0, frame = 0
  99              		@ frame_needed = 0, uses_anonymous_args = 0
 100              		@ link register save eliminated.
 159:Lib/serial/serial.cpp ****     if (config == NULL)
 101              		.loc 1 159 5 view .LVU16
 102 002c 0028     		cmp	r0, #0
 103 002e 0FD0     		beq	.L11
 160:Lib/serial/serial.cpp ****         return false;
 161:Lib/serial/serial.cpp **** 
 162:Lib/serial/serial.cpp ****     // 接收模式：DMA（Direct Memory Access，直接内存访问，不占用 CPU）
 163:Lib/serial/serial.cpp ****     // DMA 模式适合高速通信，减少 CPU 中断次数
 164:Lib/serial/serial.cpp ****     config->rx_mode = Serial_Mode::DMA;
 104              		.loc 1 164 5 view .LVU17
 105              		.loc 1 164 21 is_stmt 0 view .LVU18
 106 0030 0223     		movs	r3, #2
 107 0032 0370     		strb	r3, [r0]
 165:Lib/serial/serial.cpp **** 
 166:Lib/serial/serial.cpp ****     // 发送模式：DMA
 167:Lib/serial/serial.cpp ****     config->tx_mode = Serial_Mode::DMA;
 108              		.loc 1 167 5 is_stmt 1 view .LVU19
 109              		.loc 1 167 21 is_stmt 0 view .LVU20
 110 0034 4370     		strb	r3, [r0, #1]
 168:Lib/serial/serial.cpp **** 
 169:Lib/serial/serial.cpp ****     // 接收/发送缓冲区大小：1KB
 170:Lib/serial/serial.cpp ****     // 缓冲区用于临时存储数据，DMA 接收的数据先存入这里
 171:Lib/serial/serial.cpp ****     config->rx_buf_size = 1024;  // 接收缓冲区 1KB
 111              		.loc 1 171 5 is_stmt 1 view .LVU21
 112              		.loc 1 171 25 is_stmt 0 view .LVU22
 113 0036 8023     		movs	r3, #128
 114 0038 DB00     		lsls	r3, r3, #3
 115 003a 4380     		strh	r3, [r0, #2]
 172:Lib/serial/serial.cpp ****     config->tx_buf_size = 1024;  // 发送缓冲区 1KB
 116              		.loc 1 172 5 is_stmt 1 view .LVU23
ARM GAS  /tmp/ccUDp7dI.s 			page 6


 117              		.loc 1 172 25 is_stmt 0 view .LVU24
 118 003c 8380     		strh	r3, [r0, #4]
 173:Lib/serial/serial.cpp **** 
 174:Lib/serial/serial.cpp ****     // 单次数据包最大长度：256 字节
 175:Lib/serial/serial.cpp ****     // DMA/IT 每次接收的最大数据量
 176:Lib/serial/serial.cpp ****     config->rx_pack_size = 256;  // 接收数据包大小
 119              		.loc 1 176 5 is_stmt 1 view .LVU25
 120              		.loc 1 176 26 is_stmt 0 view .LVU26
 121 003e 8023     		movs	r3, #128
 122 0040 5B00     		lsls	r3, r3, #1
 123 0042 C380     		strh	r3, [r0, #6]
 177:Lib/serial/serial.cpp ****     config->tx_pack_size = 256;  // 发送数据包大小
 124              		.loc 1 177 5 is_stmt 1 view .LVU27
 125              		.loc 1 177 26 is_stmt 0 view .LVU28
 126 0044 0381     		strh	r3, [r0, #8]
 178:Lib/serial/serial.cpp **** 
 179:Lib/serial/serial.cpp ****     // FreeRTOS 队列长度：100
 180:Lib/serial/serial.cpp ****     // 队列用于在中断和任务之间传递数据包
 181:Lib/serial/serial.cpp ****     // 队列满时会阻塞发送任务，直到队列有空间
 182:Lib/serial/serial.cpp ****     config->rx_queue_len = 100;  // 接收队列可存储 100 个数据包
 127              		.loc 1 182 5 is_stmt 1 view .LVU29
 128              		.loc 1 182 26 is_stmt 0 view .LVU30
 129 0046 9C3B     		subs	r3, r3, #156
 130 0048 4381     		strh	r3, [r0, #10]
 183:Lib/serial/serial.cpp ****     config->tx_queue_len = 100;  // 发送队列可存储 100 个数据包
 131              		.loc 1 183 5 is_stmt 1 view .LVU31
 132              		.loc 1 183 26 is_stmt 0 view .LVU32
 133 004a 8381     		strh	r3, [r0, #12]
 184:Lib/serial/serial.cpp **** 
 185:Lib/serial/serial.cpp ****     return true;
 134              		.loc 1 185 5 is_stmt 1 view .LVU33
 135              		.loc 1 185 12 is_stmt 0 view .LVU34
 136 004c 0120     		movs	r0, #1
 137              	.LVL7:
 138              	.L10:
 186:Lib/serial/serial.cpp **** }
 139              		.loc 1 186 1 view .LVU35
 140              		@ sp needed
 141 004e 7047     		bx	lr
 142              	.LVL8:
 143              	.L11:
 160:Lib/serial/serial.cpp **** 
 144              		.loc 1 160 16 view .LVU36
 145 0050 0020     		movs	r0, #0
 146              	.LVL9:
 160:Lib/serial/serial.cpp **** 
 147              		.loc 1 160 16 view .LVU37
 148 0052 FCE7     		b	.L10
 149              		.cfi_endproc
 150              	.LFE464:
 152              		.align	1
 153              		.global	_ZN6Serial9_init_bufEv
 154              		.syntax unified
 155              		.code	16
 156              		.thumb_func
 158              	_ZN6Serial9_init_bufEv:
 159              	.LVL10:
ARM GAS  /tmp/ccUDp7dI.s 			page 7


 160              	.LFB465:
 187:Lib/serial/serial.cpp **** 
 188:Lib/serial/serial.cpp **** // ============================================================
 189:Lib/serial/serial.cpp **** // _init_buf - 初始化收发缓冲区
 190:Lib/serial/serial.cpp **** // 返回：true 成功，false 失败（内存分配失败）
 191:Lib/serial/serial.cpp **** // 说明：使用 FreeRTOS 的 pvPortMalloc 分配内存（从堆中分配）
 192:Lib/serial/serial.cpp **** // ============================================================
 193:Lib/serial/serial.cpp **** bool Serial::_init_buf(void)
 194:Lib/serial/serial.cpp **** {
 161              		.loc 1 194 1 is_stmt 1 view -0
 162              		.cfi_startproc
 163              		@ args = 0, pretend = 0, frame = 0
 164              		@ frame_needed = 0, uses_anonymous_args = 0
 165              		.loc 1 194 1 is_stmt 0 view .LVU39
 166 0054 70B5     		push	{r4, r5, r6, lr}
 167              		.cfi_def_cfa_offset 16
 168              		.cfi_offset 4, -16
 169              		.cfi_offset 5, -12
 170              		.cfi_offset 6, -8
 171              		.cfi_offset 14, -4
 172 0056 0400     		movs	r4, r0
 195:Lib/serial/serial.cpp ****     // -------------------- 接收缓冲区 --------------------
 196:Lib/serial/serial.cpp ****     // 为接收缓冲区分配内存，大小由配置决定
 197:Lib/serial/serial.cpp ****     _rx_buf.pBuffer = (uint8_t *)pvPortMalloc(_config.rx_buf_size);
 173              		.loc 1 197 5 is_stmt 1 view .LVU40
 174              		.loc 1 197 55 is_stmt 0 view .LVU41
 175 0058 7825     		movs	r5, #120
 176 005a 405B     		ldrh	r0, [r0, r5]
 177              	.LVL11:
 178              		.loc 1 197 46 view .LVU42
 179 005c FFF7FEFF 		bl	pvPortMalloc
 180              	.LVL12:
 181              		.loc 1 197 21 discriminator 1 view .LVU43
 182 0060 A061     		str	r0, [r4, #24]
 198:Lib/serial/serial.cpp ****     _rx_buf.pData = _rx_buf.pBuffer;  // 数据指针初始指向缓冲区开头
 183              		.loc 1 198 5 is_stmt 1 view .LVU44
 184              		.loc 1 198 19 is_stmt 0 view .LVU45
 185 0062 2062     		str	r0, [r4, #32]
 199:Lib/serial/serial.cpp ****     _rx_buf.size = _config.rx_buf_size;  // 保存缓冲区大小
 186              		.loc 1 199 5 is_stmt 1 view .LVU46
 187              		.loc 1 199 28 is_stmt 0 view .LVU47
 188 0064 635B     		ldrh	r3, [r4, r5]
 189              		.loc 1 199 18 view .LVU48
 190 0066 A383     		strh	r3, [r4, #28]
 200:Lib/serial/serial.cpp ****     _rx_buf.status = 0;                // 状态清零
 191              		.loc 1 200 5 is_stmt 1 view .LVU49
 192              		.loc 1 200 20 is_stmt 0 view .LVU50
 193 0068 0025     		movs	r5, #0
 194 006a A577     		strb	r5, [r4, #30]
 201:Lib/serial/serial.cpp ****     _rx_buf.index = 0;                  // 读写索引清零
 195              		.loc 1 201 5 is_stmt 1 view .LVU51
 196              		.loc 1 201 19 is_stmt 0 view .LVU52
 197 006c A584     		strh	r5, [r4, #36]
 202:Lib/serial/serial.cpp **** 
 203:Lib/serial/serial.cpp ****     // -------------------- 发送缓冲区 --------------------
 204:Lib/serial/serial.cpp ****     _tx_buf.pBuffer = (uint8_t *)pvPortMalloc(_config.tx_buf_size);
 198              		.loc 1 204 5 is_stmt 1 view .LVU53
ARM GAS  /tmp/ccUDp7dI.s 			page 8


 199              		.loc 1 204 55 is_stmt 0 view .LVU54
 200 006e 7A26     		movs	r6, #122
 201 0070 A05B     		ldrh	r0, [r4, r6]
 202              		.loc 1 204 46 view .LVU55
 203 0072 FFF7FEFF 		bl	pvPortMalloc
 204              	.LVL13:
 205              		.loc 1 204 21 discriminator 1 view .LVU56
 206 0076 A062     		str	r0, [r4, #40]
 205:Lib/serial/serial.cpp ****     _tx_buf.pData = _tx_buf.pBuffer;
 207              		.loc 1 205 5 is_stmt 1 view .LVU57
 208              		.loc 1 205 19 is_stmt 0 view .LVU58
 209 0078 2063     		str	r0, [r4, #48]
 206:Lib/serial/serial.cpp ****     _tx_buf.size = _config.tx_buf_size;
 210              		.loc 1 206 5 is_stmt 1 view .LVU59
 211              		.loc 1 206 28 is_stmt 0 view .LVU60
 212 007a A35B     		ldrh	r3, [r4, r6]
 213              		.loc 1 206 18 view .LVU61
 214 007c A385     		strh	r3, [r4, #44]
 207:Lib/serial/serial.cpp ****     _tx_buf.status = 0;
 215              		.loc 1 207 5 is_stmt 1 view .LVU62
 216              		.loc 1 207 20 is_stmt 0 view .LVU63
 217 007e 0022     		movs	r2, #0
 218 0080 2E23     		movs	r3, #46
 219 0082 E254     		strb	r2, [r4, r3]
 208:Lib/serial/serial.cpp ****     _tx_buf.index = 0;
 220              		.loc 1 208 5 is_stmt 1 view .LVU64
 221              		.loc 1 208 19 is_stmt 0 view .LVU65
 222 0084 A586     		strh	r5, [r4, #52]
 209:Lib/serial/serial.cpp **** 
 210:Lib/serial/serial.cpp ****     // -------------------- 内存分配检查 --------------------
 211:Lib/serial/serial.cpp ****     // 如果任一分配失败，返回 false
 212:Lib/serial/serial.cpp ****     if (_rx_buf.pBuffer == NULL || _tx_buf.pBuffer == NULL)
 223              		.loc 1 212 5 is_stmt 1 view .LVU66
 224              		.loc 1 212 17 is_stmt 0 view .LVU67
 225 0086 A369     		ldr	r3, [r4, #24]
 226              		.loc 1 212 5 view .LVU68
 227 0088 002B     		cmp	r3, #0
 228 008a 03D0     		beq	.L14
 229              		.loc 1 212 33 discriminator 1 view .LVU69
 230 008c 0028     		cmp	r0, #0
 231 008e 03D0     		beq	.L15
 213:Lib/serial/serial.cpp ****         return false;
 214:Lib/serial/serial.cpp **** 
 215:Lib/serial/serial.cpp ****     return true;
 232              		.loc 1 215 12 view .LVU70
 233 0090 0120     		movs	r0, #1
 234              	.L13:
 216:Lib/serial/serial.cpp **** }
 235              		.loc 1 216 1 view .LVU71
 236              		@ sp needed
 237              	.LVL14:
 238              		.loc 1 216 1 view .LVU72
 239 0092 70BD     		pop	{r4, r5, r6, pc}
 240              	.LVL15:
 241              	.L14:
 213:Lib/serial/serial.cpp ****         return false;
 242              		.loc 1 213 16 view .LVU73
ARM GAS  /tmp/ccUDp7dI.s 			page 9


 243 0094 0020     		movs	r0, #0
 244 0096 FCE7     		b	.L13
 245              	.L15:
 246 0098 0020     		movs	r0, #0
 247 009a FAE7     		b	.L13
 248              		.cfi_endproc
 249              	.LFE465:
 251              		.align	1
 252              		.global	_ZN6Serial11_init_queueEv
 253              		.syntax unified
 254              		.code	16
 255              		.thumb_func
 257              	_ZN6Serial11_init_queueEv:
 258              	.LVL16:
 259              	.LFB466:
 217:Lib/serial/serial.cpp **** 
 218:Lib/serial/serial.cpp **** // ============================================================
 219:Lib/serial/serial.cpp **** // _init_queue - 初始化 FreeRTOS 消息队列
 220:Lib/serial/serial.cpp **** // 返回：true 成功，false 失败
 221:Lib/serial/serial.cpp **** // 说明：队列用于在中断回调和任务之间传递 DataPack_t 数据包
 222:Lib/serial/serial.cpp **** // ============================================================
 223:Lib/serial/serial.cpp **** bool Serial::_init_queue(void)
 224:Lib/serial/serial.cpp **** {
 260              		.loc 1 224 1 is_stmt 1 view -0
 261              		.cfi_startproc
 262              		@ args = 0, pretend = 0, frame = 0
 263              		@ frame_needed = 0, uses_anonymous_args = 0
 264              		.loc 1 224 1 is_stmt 0 view .LVU75
 265 009c 10B5     		push	{r4, lr}
 266              		.cfi_def_cfa_offset 8
 267              		.cfi_offset 4, -8
 268              		.cfi_offset 14, -4
 269 009e 0400     		movs	r4, r0
 225:Lib/serial/serial.cpp ****     // 创建接收队列：长度为 rx_queue_len，每个元素大小为 DataPack_t
 226:Lib/serial/serial.cpp ****     // xQueueCreate(队列长度, 每个元素字节数)
 227:Lib/serial/serial.cpp ****     _rx_queue = xQueueCreate(_config.rx_queue_len, sizeof(DataPack_t));
 270              		.loc 1 227 5 is_stmt 1 view .LVU76
 271              		.loc 1 227 17 is_stmt 0 view .LVU77
 272 00a0 8023     		movs	r3, #128
 273 00a2 C05A     		ldrh	r0, [r0, r3]
 274              	.LVL17:
 275              		.loc 1 227 17 view .LVU78
 276 00a4 0022     		movs	r2, #0
 277 00a6 0C21     		movs	r1, #12
 278 00a8 FFF7FEFF 		bl	xQueueGenericCreate
 279              	.LVL18:
 280              		.loc 1 227 15 discriminator 1 view .LVU79
 281 00ac A063     		str	r0, [r4, #56]
 228:Lib/serial/serial.cpp **** 
 229:Lib/serial/serial.cpp ****     // 创建发送队列
 230:Lib/serial/serial.cpp ****     _tx_queue = xQueueCreate(_config.tx_queue_len, sizeof(DataPack_t));
 282              		.loc 1 230 5 is_stmt 1 view .LVU80
 283              		.loc 1 230 17 is_stmt 0 view .LVU81
 284 00ae 8223     		movs	r3, #130
 285 00b0 E05A     		ldrh	r0, [r4, r3]
 286 00b2 0022     		movs	r2, #0
 287 00b4 0C21     		movs	r1, #12
ARM GAS  /tmp/ccUDp7dI.s 			page 10


 288 00b6 FFF7FEFF 		bl	xQueueGenericCreate
 289              	.LVL19:
 290              		.loc 1 230 15 discriminator 1 view .LVU82
 291 00ba E063     		str	r0, [r4, #60]
 231:Lib/serial/serial.cpp **** 
 232:Lib/serial/serial.cpp ****     // 如果任一队列创建失败，返回 false
 233:Lib/serial/serial.cpp ****     if (_rx_queue == NULL || _tx_queue == NULL)
 292              		.loc 1 233 5 is_stmt 1 view .LVU83
 293              		.loc 1 233 9 is_stmt 0 view .LVU84
 294 00bc A36B     		ldr	r3, [r4, #56]
 295              		.loc 1 233 5 view .LVU85
 296 00be 002B     		cmp	r3, #0
 297 00c0 03D0     		beq	.L18
 298              		.loc 1 233 27 discriminator 1 view .LVU86
 299 00c2 0028     		cmp	r0, #0
 300 00c4 03D0     		beq	.L19
 234:Lib/serial/serial.cpp ****         return false;
 235:Lib/serial/serial.cpp **** 
 236:Lib/serial/serial.cpp ****     return true;
 301              		.loc 1 236 12 view .LVU87
 302 00c6 0120     		movs	r0, #1
 303              	.L17:
 237:Lib/serial/serial.cpp **** }
 304              		.loc 1 237 1 view .LVU88
 305              		@ sp needed
 306              	.LVL20:
 307              		.loc 1 237 1 view .LVU89
 308 00c8 10BD     		pop	{r4, pc}
 309              	.LVL21:
 310              	.L18:
 234:Lib/serial/serial.cpp ****         return false;
 311              		.loc 1 234 16 view .LVU90
 312 00ca 0020     		movs	r0, #0
 313 00cc FCE7     		b	.L17
 314              	.L19:
 315 00ce 0020     		movs	r0, #0
 316 00d0 FAE7     		b	.L17
 317              		.cfi_endproc
 318              	.LFE466:
 320              		.align	1
 321              		.global	_ZN6Serial15_init_semaphoreEv
 322              		.syntax unified
 323              		.code	16
 324              		.thumb_func
 326              	_ZN6Serial15_init_semaphoreEv:
 327              	.LVL22:
 328              	.LFB467:
 238:Lib/serial/serial.cpp **** 
 239:Lib/serial/serial.cpp **** // ============================================================
 240:Lib/serial/serial.cpp **** // _init_semaphore - 初始化二值信号量
 241:Lib/serial/serial.cpp **** // 返回：true 成功，false 失败
 242:Lib/serial/serial.cpp **** // 说明：
 243:Lib/serial/serial.cpp **** //   - _tx_src_sem：控制 UART 发送硬件资源（防止多任务同时发送）
 244:Lib/serial/serial.cpp **** //   - _tx_buf_sem：控制发送缓冲区的读写权限
 245:Lib/serial/serial.cpp **** // ============================================================
 246:Lib/serial/serial.cpp **** bool Serial::_init_semaphore(void)
 247:Lib/serial/serial.cpp **** {
ARM GAS  /tmp/ccUDp7dI.s 			page 11


 329              		.loc 1 247 1 is_stmt 1 view -0
 330              		.cfi_startproc
 331              		@ args = 0, pretend = 0, frame = 0
 332              		@ frame_needed = 0, uses_anonymous_args = 0
 333              		.loc 1 247 1 is_stmt 0 view .LVU92
 334 00d2 10B5     		push	{r4, lr}
 335              		.cfi_def_cfa_offset 8
 336              		.cfi_offset 4, -8
 337              		.cfi_offset 14, -4
 338 00d4 0400     		movs	r4, r0
 248:Lib/serial/serial.cpp ****     // 创建二值信号量（初始值为 1，表示资源可用）
 249:Lib/serial/serial.cpp ****     // 二值信号量 = 互斥锁的一种简化形式
 250:Lib/serial/serial.cpp ****     _tx_src_sem = xSemaphoreCreateBinary();
 339              		.loc 1 250 5 is_stmt 1 view .LVU93
 340              		.loc 1 250 19 is_stmt 0 view .LVU94
 341 00d6 0322     		movs	r2, #3
 342 00d8 0021     		movs	r1, #0
 343 00da 0120     		movs	r0, #1
 344              	.LVL23:
 345              		.loc 1 250 19 view .LVU95
 346 00dc FFF7FEFF 		bl	xQueueGenericCreate
 347              	.LVL24:
 348              		.loc 1 250 17 discriminator 1 view .LVU96
 349 00e0 2064     		str	r0, [r4, #64]
 251:Lib/serial/serial.cpp **** 
 252:Lib/serial/serial.cpp ****     // 创建发送缓冲区信号量
 253:Lib/serial/serial.cpp ****     _tx_buf_sem = xSemaphoreCreateBinary();
 350              		.loc 1 253 5 is_stmt 1 view .LVU97
 351              		.loc 1 253 19 is_stmt 0 view .LVU98
 352 00e2 0322     		movs	r2, #3
 353 00e4 0021     		movs	r1, #0
 354 00e6 0120     		movs	r0, #1
 355 00e8 FFF7FEFF 		bl	xQueueGenericCreate
 356              	.LVL25:
 357 00ec 0300     		movs	r3, r0
 358              		.loc 1 253 17 discriminator 1 view .LVU99
 359 00ee 6064     		str	r0, [r4, #68]
 254:Lib/serial/serial.cpp **** 
 255:Lib/serial/serial.cpp ****     // 检查创建是否成功
 256:Lib/serial/serial.cpp ****     if (_tx_src_sem == NULL || _tx_buf_sem == NULL)
 360              		.loc 1 256 5 is_stmt 1 view .LVU100
 361              		.loc 1 256 9 is_stmt 0 view .LVU101
 362 00f0 206C     		ldr	r0, [r4, #64]
 363              		.loc 1 256 5 view .LVU102
 364 00f2 0028     		cmp	r0, #0
 365 00f4 0ED0     		beq	.L22
 366              		.loc 1 256 29 discriminator 1 view .LVU103
 367 00f6 002B     		cmp	r3, #0
 368 00f8 0ED0     		beq	.L23
 257:Lib/serial/serial.cpp ****         return false;
 258:Lib/serial/serial.cpp **** 
 259:Lib/serial/serial.cpp ****     // 初始化时释放信号量（资源可用状态）
 260:Lib/serial/serial.cpp ****     xSemaphoreGive(_tx_src_sem);
 369              		.loc 1 260 5 is_stmt 1 view .LVU104
 370 00fa 0023     		movs	r3, #0
 371 00fc 0022     		movs	r2, #0
 372 00fe 0021     		movs	r1, #0
ARM GAS  /tmp/ccUDp7dI.s 			page 12


 373 0100 FFF7FEFF 		bl	xQueueGenericSend
 374              	.LVL26:
 261:Lib/serial/serial.cpp ****     xSemaphoreGive(_tx_buf_sem);
 375              		.loc 1 261 5 view .LVU105
 376 0104 606C     		ldr	r0, [r4, #68]
 377 0106 0023     		movs	r3, #0
 378 0108 0022     		movs	r2, #0
 379 010a 0021     		movs	r1, #0
 380 010c FFF7FEFF 		bl	xQueueGenericSend
 381              	.LVL27:
 262:Lib/serial/serial.cpp **** 
 263:Lib/serial/serial.cpp ****     return true;
 382              		.loc 1 263 5 view .LVU106
 383              		.loc 1 263 12 is_stmt 0 view .LVU107
 384 0110 0120     		movs	r0, #1
 385              	.L21:
 264:Lib/serial/serial.cpp **** }
 386              		.loc 1 264 1 view .LVU108
 387              		@ sp needed
 388              	.LVL28:
 389              		.loc 1 264 1 view .LVU109
 390 0112 10BD     		pop	{r4, pc}
 391              	.LVL29:
 392              	.L22:
 257:Lib/serial/serial.cpp **** 
 393              		.loc 1 257 16 view .LVU110
 394 0114 0020     		movs	r0, #0
 395 0116 FCE7     		b	.L21
 396              	.L23:
 397 0118 0020     		movs	r0, #0
 398 011a FAE7     		b	.L21
 399              		.cfi_endproc
 400              	.LFE467:
 402              		.section	.rodata.str1.4,"aMS",%progbits,1
 403              		.align	2
 404              	.LC1:
 405 0000 72785F25 		.ascii	"rx_%s\000"
 405      7300
 406 0006 0000     		.align	2
 407              	.LC4:
 408 0008 74785F25 		.ascii	"tx_%s\000"
 408      7300
 409              		.text
 410              		.align	1
 411              		.global	_ZN6Serial10_init_taskEv
 412              		.syntax unified
 413              		.code	16
 414              		.thumb_func
 416              	_ZN6Serial10_init_taskEv:
 417              	.LVL30:
 418              	.LFB468:
 265:Lib/serial/serial.cpp **** 
 266:Lib/serial/serial.cpp **** // ============================================================
 267:Lib/serial/serial.cpp **** // _init_task - 初始化 FreeRTOS 接收/发送任务
 268:Lib/serial/serial.cpp **** // 返回：true 成功，false 失败
 269:Lib/serial/serial.cpp **** // 说明：
 270:Lib/serial/serial.cpp **** //   - _rx_task：接收任务，从队列取数据，调用用户注册的回调
ARM GAS  /tmp/ccUDp7dI.s 			page 13


 271:Lib/serial/serial.cpp **** //   - _tx_task：发送任务，从队列取数据，触发 DMA/IT 发送
 272:Lib/serial/serial.cpp **** // ============================================================
 273:Lib/serial/serial.cpp **** bool Serial::_init_task(void)
 274:Lib/serial/serial.cpp **** {
 419              		.loc 1 274 1 is_stmt 1 view -0
 420              		.cfi_startproc
 421              		@ args = 0, pretend = 0, frame = 0
 422              		@ frame_needed = 0, uses_anonymous_args = 0
 423              		.loc 1 274 1 is_stmt 0 view .LVU112
 424 011c F0B5     		push	{r4, r5, r6, r7, lr}
 425              		.cfi_def_cfa_offset 20
 426              		.cfi_offset 4, -20
 427              		.cfi_offset 5, -16
 428              		.cfi_offset 6, -12
 429              		.cfi_offset 7, -8
 430              		.cfi_offset 14, -4
 431 011e C646     		mov	lr, r8
 432 0120 00B5     		push	{lr}
 433              		.cfi_def_cfa_offset 24
 434              		.cfi_offset 8, -24
 435 0122 82B0     		sub	sp, sp, #8
 436              		.cfi_def_cfa_offset 32
 437 0124 0400     		movs	r4, r0
 275:Lib/serial/serial.cpp ****     BaseType_t status = pdPASS;  // 任务创建状态，pdPASS 表示成功
 438              		.loc 1 275 5 is_stmt 1 view .LVU113
 439              	.LVL31:
 276:Lib/serial/serial.cpp **** 
 277:Lib/serial/serial.cpp ****     // -------------------- 接收任务 --------------------
 278:Lib/serial/serial.cpp ****     // 使用 lambda 封装 C++ 成员函数调用
 279:Lib/serial/serial.cpp ****     // FreeRTOS 任务函数必须是静态函数或普通函数，不能是成员函数
 280:Lib/serial/serial.cpp ****     TaskFunction_t rx_task_lambda = [](void *args)
 440              		.loc 1 280 5 view .LVU114
 281:Lib/serial/serial.cpp ****     {
 282:Lib/serial/serial.cpp ****         // args 传入 this 指针，强转回 Serial* 后调用成员函数
 283:Lib/serial/serial.cpp ****         Serial *sr = (Serial *)args;
 284:Lib/serial/serial.cpp ****         sr->_rx_task();  // 进入接收任务主循环
 285:Lib/serial/serial.cpp ****     };
 286:Lib/serial/serial.cpp **** 
 287:Lib/serial/serial.cpp ****     // 生成任务名称：rx_<串口名>
 288:Lib/serial/serial.cpp ****     snprintf(_rx_task_name, sizeof(_rx_task_name), "rx_%s", _name);
 441              		.loc 1 288 5 view .LVU115
 442              		.loc 1 288 14 is_stmt 0 view .LVU116
 443 0126 0500     		movs	r5, r0
 444 0128 5035     		adds	r5, r5, #80
 445              		.loc 1 288 13 view .LVU117
 446 012a 184A     		ldr	r2, .L27
 447 012c 0300     		movs	r3, r0
 448 012e 1321     		movs	r1, #19
 449 0130 2800     		movs	r0, r5
 450              	.LVL32:
 451              		.loc 1 288 13 view .LVU118
 452 0132 FFF7FEFF 		bl	snprintf_
 453              	.LVL33:
 289:Lib/serial/serial.cpp **** 
 290:Lib/serial/serial.cpp ****     // 创建 FreeRTOS 任务
 291:Lib/serial/serial.cpp ****     // xTaskCreate(任务函数, 任务名, 栈大小(Words), 参数, 优先级, 句柄)
 292:Lib/serial/serial.cpp ****     // 256 Words = 1KB 栈空间（STM32 是 32 位，1 Word = 4 字节）
ARM GAS  /tmp/ccUDp7dI.s 			page 14


 293:Lib/serial/serial.cpp ****     // 优先级 osPriorityNormal = 普通优先级
 294:Lib/serial/serial.cpp ****     status &= xTaskCreate(rx_task_lambda, _rx_task_name, 256, this, osPriorityNormal, &_rx_task_han
 454              		.loc 1 294 5 is_stmt 1 view .LVU119
 455              		.loc 1 294 26 is_stmt 0 view .LVU120
 456 0136 8026     		movs	r6, #128
 457 0138 7600     		lsls	r6, r6, #1
 458 013a 1548     		ldr	r0, .L27+4
 459 013c 2300     		movs	r3, r4
 460 013e 4833     		adds	r3, r3, #72
 461 0140 0193     		str	r3, [sp, #4]
 462 0142 1827     		movs	r7, #24
 463 0144 0097     		str	r7, [sp]
 464 0146 2300     		movs	r3, r4
 465 0148 3200     		movs	r2, r6
 466 014a 2900     		movs	r1, r5
 467 014c FFF7FEFF 		bl	xTaskCreate
 468              	.LVL34:
 469              		.loc 1 294 12 discriminator 1 view .LVU121
 470 0150 0125     		movs	r5, #1
 471 0152 0540     		ands	r5, r0
 472              	.LVL35:
 295:Lib/serial/serial.cpp **** 
 296:Lib/serial/serial.cpp ****     // -------------------- 发送任务 --------------------
 297:Lib/serial/serial.cpp ****     TaskFunction_t tx_task_lambda = [](void *args)
 473              		.loc 1 297 5 is_stmt 1 view .LVU122
 298:Lib/serial/serial.cpp ****     {
 299:Lib/serial/serial.cpp ****         Serial *sr = (Serial *)args;
 300:Lib/serial/serial.cpp ****         sr->_tx_task();  // 进入发送任务主循环
 301:Lib/serial/serial.cpp ****     };
 302:Lib/serial/serial.cpp **** 
 303:Lib/serial/serial.cpp ****     snprintf(_tx_task_name, sizeof(_tx_task_name), "tx_%s", _name);
 474              		.loc 1 303 5 view .LVU123
 475              		.loc 1 303 14 is_stmt 0 view .LVU124
 476 0154 6323     		movs	r3, #99
 477 0156 9846     		mov	r8, r3
 478 0158 A044     		add	r8, r8, r4
 479              		.loc 1 303 13 view .LVU125
 480 015a 0E4A     		ldr	r2, .L27+8
 481 015c 2300     		movs	r3, r4
 482 015e 1321     		movs	r1, #19
 483 0160 4046     		mov	r0, r8
 484 0162 FFF7FEFF 		bl	snprintf_
 485              	.LVL36:
 304:Lib/serial/serial.cpp ****     status &= xTaskCreate(tx_task_lambda, _tx_task_name, 256, this, osPriorityNormal, &_tx_task_han
 486              		.loc 1 304 5 is_stmt 1 view .LVU126
 487              		.loc 1 304 26 is_stmt 0 view .LVU127
 488 0166 0C48     		ldr	r0, .L27+12
 489 0168 2300     		movs	r3, r4
 490 016a 4C33     		adds	r3, r3, #76
 491 016c 0193     		str	r3, [sp, #4]
 492 016e 0097     		str	r7, [sp]
 493 0170 2300     		movs	r3, r4
 494 0172 3200     		movs	r2, r6
 495 0174 4146     		mov	r1, r8
 496 0176 FFF7FEFF 		bl	xTaskCreate
 497              	.LVL37:
 305:Lib/serial/serial.cpp **** 
ARM GAS  /tmp/ccUDp7dI.s 			page 15


 306:Lib/serial/serial.cpp ****     // 如果任一任务创建失败，返回 false
 307:Lib/serial/serial.cpp ****     if (status != pdPASS)
 498              		.loc 1 307 5 is_stmt 1 view .LVU128
 499 017a 2842     		tst	r0, r5
 500 017c 04D0     		beq	.L26
 308:Lib/serial/serial.cpp ****         return false;
 309:Lib/serial/serial.cpp **** 
 310:Lib/serial/serial.cpp ****     return true;
 501              		.loc 1 310 12 is_stmt 0 view .LVU129
 502 017e 0120     		movs	r0, #1
 503              	.LVL38:
 504              	.L25:
 311:Lib/serial/serial.cpp **** }
 505              		.loc 1 311 1 view .LVU130
 506 0180 02B0     		add	sp, sp, #8
 507              		@ sp needed
 508              	.LVL39:
 509              		.loc 1 311 1 view .LVU131
 510 0182 80BC     		pop	{r7}
 511 0184 B846     		mov	r8, r7
 512 0186 F0BD     		pop	{r4, r5, r6, r7, pc}
 513              	.LVL40:
 514              	.L26:
 308:Lib/serial/serial.cpp ****         return false;
 515              		.loc 1 308 16 view .LVU132
 516 0188 0020     		movs	r0, #0
 517              	.LVL41:
 308:Lib/serial/serial.cpp ****         return false;
 518              		.loc 1 308 16 view .LVU133
 519 018a F9E7     		b	.L25
 520              	.L28:
 521              		.align	2
 522              	.L27:
 523 018c 00000000 		.word	.LC1
 524 0190 00000000 		.word	_ZZN6Serial10_init_taskEvENUlPvE_4_FUNES0_
 525 0194 08000000 		.word	.LC4
 526 0198 00000000 		.word	_ZZN6Serial10_init_taskEvENUlPvE0_4_FUNES0_
 527              		.cfi_endproc
 528              	.LFE468:
 530              		.align	1
 531              		.global	_ZN6Serial14_init_callbackEv
 532              		.syntax unified
 533              		.code	16
 534              		.thumb_func
 536              	_ZN6Serial14_init_callbackEv:
 537              	.LVL42:
 538              	.LFB475:
 312:Lib/serial/serial.cpp **** 
 313:Lib/serial/serial.cpp **** // ============================================================
 314:Lib/serial/serial.cpp **** // _init_callback - 注册 UART 的 HAL 回调函数
 315:Lib/serial/serial.cpp **** // 返回：true 成功，false 失败
 316:Lib/serial/serial.cpp **** // 说明：需要 CubeMX 开启 USE_HAL_UART_REGISTER_CALLBACKS
 317:Lib/serial/serial.cpp **** // ============================================================
 318:Lib/serial/serial.cpp **** bool Serial::_init_callback(void)
 319:Lib/serial/serial.cpp **** {
 539              		.loc 1 319 1 is_stmt 1 view -0
 540              		.cfi_startproc
ARM GAS  /tmp/ccUDp7dI.s 			page 16


 541              		@ args = 0, pretend = 0, frame = 0
 542              		@ frame_needed = 0, uses_anonymous_args = 0
 543              		.loc 1 319 1 is_stmt 0 view .LVU135
 544 019c 70B5     		push	{r4, r5, r6, lr}
 545              		.cfi_def_cfa_offset 16
 546              		.cfi_offset 4, -16
 547              		.cfi_offset 5, -12
 548              		.cfi_offset 6, -8
 549              		.cfi_offset 14, -4
 550 019e 0500     		movs	r5, r0
 320:Lib/serial/serial.cpp ****     uint8_t status = HAL_OK;  // HAL 状态，HAL_OK = 成功
 551              		.loc 1 320 5 is_stmt 1 view .LVU136
 552              	.LVL43:
 321:Lib/serial/serial.cpp **** 
 322:Lib/serial/serial.cpp ****     // -------------------- 接收完成回调 --------------------
 323:Lib/serial/serial.cpp ****     // RxEventCallback：在 DMA/IT 接收到数据或空闲时触发
 324:Lib/serial/serial.cpp ****     // 接收模式为 DMA 时，使用 RxEventCallback
 325:Lib/serial/serial.cpp ****     // 接收模式为 IT 时，可能使用 RxCpltCallback
 326:Lib/serial/serial.cpp ****     static auto rx_callback_lambda = [](UART_HandleTypeDef *huart, uint16_t size) -> void
 553              		.loc 1 326 5 view .LVU137
 327:Lib/serial/serial.cpp ****     {
 328:Lib/serial/serial.cpp ****         // 通过 UART 句柄查找对应的 Serial 实例
 329:Lib/serial/serial.cpp ****         Serial *sr = Serial::get_serial(huart);
 330:Lib/serial/serial.cpp ****         if (sr != NULL)
 331:Lib/serial/serial.cpp ****             sr->_rx_callback(size);  // 调用成员函数处理接收数据
 332:Lib/serial/serial.cpp ****         else
 333:Lib/serial/serial.cpp ****             sr->_error_handler(Serial_Error::Init_Error);  // 未找到，报错
 334:Lib/serial/serial.cpp ****     };
 335:Lib/serial/serial.cpp ****     // 向 HAL 库注册接收回调
 336:Lib/serial/serial.cpp ****     status |= HAL_UART_RegisterRxEventCallback(_uart, rx_callback_lambda);
 554              		.loc 1 336 5 view .LVU138
 555              		.loc 1 336 47 is_stmt 0 view .LVU139
 556 01a0 0C49     		ldr	r1, .L32
 557 01a2 4069     		ldr	r0, [r0, #20]
 558              	.LVL44:
 559              		.loc 1 336 47 view .LVU140
 560 01a4 FFF7FEFF 		bl	HAL_UART_RegisterRxEventCallback
 561              	.LVL45:
 562 01a8 0400     		movs	r4, r0
 563              	.LVL46:
 337:Lib/serial/serial.cpp **** 
 338:Lib/serial/serial.cpp ****     // -------------------- 发送完成回调 --------------------
 339:Lib/serial/serial.cpp ****     // TxCompleteCallback：在 DMA/IT 发送完成后触发
 340:Lib/serial/serial.cpp ****     static auto tx_callback_lambda = [](UART_HandleTypeDef *huart) -> void
 564              		.loc 1 340 5 is_stmt 1 view .LVU141
 341:Lib/serial/serial.cpp ****     {
 342:Lib/serial/serial.cpp ****         Serial *sr = Serial::get_serial(huart);
 343:Lib/serial/serial.cpp ****         if (sr != NULL)
 344:Lib/serial/serial.cpp ****             sr->_tx_callback();  // 通知发送任务数据已发送完毕
 345:Lib/serial/serial.cpp ****         else
 346:Lib/serial/serial.cpp ****             sr->_error_handler(Serial_Error::Init_Error);
 347:Lib/serial/serial.cpp ****     };
 348:Lib/serial/serial.cpp ****     // 注册发送完成回调，HAL_UART_TX_COMPLETE_CB_ID 指定回调类型
 349:Lib/serial/serial.cpp ****     status |= HAL_UART_RegisterCallback(_uart, HAL_UART_TX_COMPLETE_CB_ID, tx_callback_lambda);
 565              		.loc 1 349 5 view .LVU142
 566              		.loc 1 349 40 is_stmt 0 view .LVU143
 567 01aa 0B4A     		ldr	r2, .L32+4
ARM GAS  /tmp/ccUDp7dI.s 			page 17


 568 01ac 6869     		ldr	r0, [r5, #20]
 569 01ae 0121     		movs	r1, #1
 570 01b0 FFF7FEFF 		bl	HAL_UART_RegisterCallback
 571              	.LVL47:
 572              		.loc 1 349 12 discriminator 1 view .LVU144
 573 01b4 0443     		orrs	r4, r0
 574              	.LVL48:
 575              		.loc 1 349 12 discriminator 1 view .LVU145
 576 01b6 E4B2     		uxtb	r4, r4
 577              	.LVL49:
 350:Lib/serial/serial.cpp **** 
 351:Lib/serial/serial.cpp ****     // -------------------- 错误回调 --------------------
 352:Lib/serial/serial.cpp ****     // ErrorCallback：当 UART 发生错误时触发（噪声错误、帧错误等）
 353:Lib/serial/serial.cpp ****     static auto error_callback_lambda = [](UART_HandleTypeDef *huart) -> void
 578              		.loc 1 353 5 is_stmt 1 view .LVU146
 354:Lib/serial/serial.cpp ****     {
 355:Lib/serial/serial.cpp ****         Serial *sr = Serial::get_serial(huart);
 356:Lib/serial/serial.cpp ****         if (sr != NULL)
 357:Lib/serial/serial.cpp ****             sr->_error_callback();  // 清除错误标志并重启接收
 358:Lib/serial/serial.cpp ****         else
 359:Lib/serial/serial.cpp ****             sr->_error_handler(Serial_Error::Init_Error);
 360:Lib/serial/serial.cpp ****     };
 361:Lib/serial/serial.cpp ****     status |= HAL_UART_RegisterCallback(_uart, HAL_UART_ERROR_CB_ID, error_callback_lambda);
 579              		.loc 1 361 5 view .LVU147
 580              		.loc 1 361 40 is_stmt 0 view .LVU148
 581 01b8 084A     		ldr	r2, .L32+8
 582 01ba 6869     		ldr	r0, [r5, #20]
 583 01bc 0421     		movs	r1, #4
 584 01be FFF7FEFF 		bl	HAL_UART_RegisterCallback
 585              	.LVL50:
 586              		.loc 1 361 12 discriminator 1 view .LVU149
 587 01c2 0443     		orrs	r4, r0
 588              	.LVL51:
 589              		.loc 1 361 12 discriminator 1 view .LVU150
 590 01c4 E4B2     		uxtb	r4, r4
 591              	.LVL52:
 362:Lib/serial/serial.cpp **** 
 363:Lib/serial/serial.cpp ****     // 如果任一注册失败，返回 false
 364:Lib/serial/serial.cpp ****     if (status != HAL_OK)
 592              		.loc 1 364 5 is_stmt 1 view .LVU151
 593 01c6 002C     		cmp	r4, #0
 594 01c8 01D1     		bne	.L31
 365:Lib/serial/serial.cpp ****         return false;
 366:Lib/serial/serial.cpp **** 
 367:Lib/serial/serial.cpp ****     return true;
 595              		.loc 1 367 12 is_stmt 0 view .LVU152
 596 01ca 0120     		movs	r0, #1
 597              	.L30:
 368:Lib/serial/serial.cpp **** }
 598              		.loc 1 368 1 view .LVU153
 599              		@ sp needed
 600              	.LVL53:
 601              	.LVL54:
 602              		.loc 1 368 1 view .LVU154
 603 01cc 70BD     		pop	{r4, r5, r6, pc}
 604              	.LVL55:
 605              	.L31:
ARM GAS  /tmp/ccUDp7dI.s 			page 18


 365:Lib/serial/serial.cpp ****         return false;
 606              		.loc 1 365 16 view .LVU155
 607 01ce 0020     		movs	r0, #0
 608 01d0 FCE7     		b	.L30
 609              	.L33:
 610 01d2 C046     		.align	2
 611              	.L32:
 612 01d4 00000000 		.word	_ZZN6Serial14_init_callbackEvENUlP20__UART_HandleTypeDeftE_4_FUNES1_t
 613 01d8 00000000 		.word	_ZZN6Serial14_init_callbackEvENUlP20__UART_HandleTypeDefE_4_FUNES1_
 614 01dc 00000000 		.word	_ZZN6Serial14_init_callbackEvENUlP20__UART_HandleTypeDefE0_4_FUNES1_
 615              		.cfi_endproc
 616              	.LFE475:
 618              		.align	1
 619              		.global	_ZN6Serial11_is_tx_busyEb
 620              		.syntax unified
 621              		.code	16
 622              		.thumb_func
 624              	_ZN6Serial11_is_tx_busyEb:
 625              	.LVL56:
 626              	.LFB485:
 369:Lib/serial/serial.cpp **** 
 370:Lib/serial/serial.cpp **** // ============================================================
 371:Lib/serial/serial.cpp **** // _is_tx_busy - 判断发送是否忙碌（不能接收新数据）
 372:Lib/serial/serial.cpp **** // 参数：from_isr - 是否在中断上下文中调用
 373:Lib/serial/serial.cpp **** // 返回：true 忙碌（不能发送），false 空闲（可以发送）
 374:Lib/serial/serial.cpp **** // 说明：检查两个条件：
 375:Lib/serial/serial.cpp **** //   1. 待发送数据量超过缓冲区的 80%（发送来不及）
 376:Lib/serial/serial.cpp **** //   2. 发送队列剩余空间小于 2（队列快满了）
 377:Lib/serial/serial.cpp **** // ============================================================
 378:Lib/serial/serial.cpp **** bool Serial::_is_tx_busy(bool from_isr)
 379:Lib/serial/serial.cpp **** {
 627              		.loc 1 379 1 is_stmt 1 view -0
 628              		.cfi_startproc
 629              		@ args = 0, pretend = 0, frame = 0
 630              		@ frame_needed = 0, uses_anonymous_args = 0
 631              		.loc 1 379 1 is_stmt 0 view .LVU157
 632 01e0 F8B5     		push	{r3, r4, r5, r6, r7, lr}
 633              		.cfi_def_cfa_offset 24
 634              		.cfi_offset 3, -24
 635              		.cfi_offset 4, -20
 636              		.cfi_offset 5, -16
 637              		.cfi_offset 6, -12
 638              		.cfi_offset 7, -8
 639              		.cfi_offset 14, -4
 640 01e2 0700     		movs	r7, r0
 641 01e4 0E00     		movs	r6, r1
 380:Lib/serial/serial.cpp ****     // -------------------- 条件 1：发送缓冲区积压过多 --------------------
 381:Lib/serial/serial.cpp ****     // _info.tx_to_process_size 表示待发送的字节数
 382:Lib/serial/serial.cpp ****     // 如果超过缓冲区的 80%，说明发送速度跟不上，返回忙碌
 383:Lib/serial/serial.cpp ****     if (_info.tx_to_process_size > _config.tx_buf_size * 0.8)
 642              		.loc 1 383 5 is_stmt 1 view .LVU158
 643              		.loc 1 383 15 is_stmt 0 view .LVU159
 644 01e6 9223     		movs	r3, #146
 645 01e8 C05A     		ldrh	r0, [r0, r3]
 646              	.LVL57:
 647              		.loc 1 383 34 view .LVU160
 648 01ea FFF7FEFF 		bl	__aeabi_i2d
ARM GAS  /tmp/ccUDp7dI.s 			page 19


 649              	.LVL58:
 650              		.loc 1 383 34 view .LVU161
 651 01ee 0400     		movs	r4, r0
 652 01f0 0D00     		movs	r5, r1
 653              		.loc 1 383 44 view .LVU162
 654 01f2 7A23     		movs	r3, #122
 655 01f4 F85A     		ldrh	r0, [r7, r3]
 656              		.loc 1 383 56 view .LVU163
 657 01f6 FFF7FEFF 		bl	__aeabi_i2d
 658              	.LVL59:
 659 01fa 104A     		ldr	r2, .L40
 660 01fc 104B     		ldr	r3, .L40+4
 661 01fe FFF7FEFF 		bl	__aeabi_dmul
 662              	.LVL60:
 663 0202 0200     		movs	r2, r0
 664 0204 0B00     		movs	r3, r1
 665              		.loc 1 383 5 view .LVU164
 666 0206 2000     		movs	r0, r4
 667 0208 2900     		movs	r1, r5
 668 020a FFF7FEFF 		bl	__aeabi_dcmpgt
 669              	.LVL61:
 670 020e 0028     		cmp	r0, #0
 671 0210 0FD1     		bne	.L38
 384:Lib/serial/serial.cpp ****         return true;
 385:Lib/serial/serial.cpp **** 
 386:Lib/serial/serial.cpp ****     // -------------------- 条件 2：发送队列空间不足 --------------------
 387:Lib/serial/serial.cpp ****     UBaseType_t tx_queue_wait;  // 队列中等待的消息数
 672              		.loc 1 387 5 is_stmt 1 view .LVU165
 388:Lib/serial/serial.cpp **** 
 389:Lib/serial/serial.cpp ****     if (from_isr)
 673              		.loc 1 389 5 view .LVU166
 674 0212 002E     		cmp	r6, #0
 675 0214 09D0     		beq	.L36
 390:Lib/serial/serial.cpp ****         // 中断上下文：从 ISR 安全版本查询队列
 391:Lib/serial/serial.cpp ****         tx_queue_wait = uxQueueMessagesWaitingFromISR(_tx_queue);
 676              		.loc 1 391 9 view .LVU167
 677              		.loc 1 391 54 is_stmt 0 view .LVU168
 678 0216 F86B     		ldr	r0, [r7, #60]
 679 0218 FFF7FEFF 		bl	uxQueueMessagesWaitingFromISR
 680              	.LVL62:
 681              	.L37:
 392:Lib/serial/serial.cpp ****     else
 393:Lib/serial/serial.cpp ****         // 任务上下文：普通版本查询队列
 394:Lib/serial/serial.cpp ****         tx_queue_wait = uxQueueMessagesWaiting(_tx_queue);
 395:Lib/serial/serial.cpp **** 
 396:Lib/serial/serial.cpp ****     // 计算队列剩余空间
 397:Lib/serial/serial.cpp ****     if (_config.tx_queue_len - tx_queue_wait < 2)
 682              		.loc 1 397 5 is_stmt 1 view .LVU169
 683              		.loc 1 397 17 is_stmt 0 view .LVU170
 684 021c 8223     		movs	r3, #130
 685 021e FB5A     		ldrh	r3, [r7, r3]
 686              		.loc 1 397 30 view .LVU171
 687 0220 181A     		subs	r0, r3, r0
 688              	.LVL63:
 689              		.loc 1 397 5 view .LVU172
 690 0222 0128     		cmp	r0, #1
 691 0224 07D9     		bls	.L39
ARM GAS  /tmp/ccUDp7dI.s 			page 20


 398:Lib/serial/serial.cpp ****         return true;  // 剩余空间 < 2，返回忙碌
 399:Lib/serial/serial.cpp **** 
 400:Lib/serial/serial.cpp ****     return false;  // 两个条件都不满足，表示可以发送
 692              		.loc 1 400 12 view .LVU173
 693 0226 0020     		movs	r0, #0
 694              	.LVL64:
 695              	.L35:
 401:Lib/serial/serial.cpp **** }
 696              		.loc 1 401 1 view .LVU174
 697              		@ sp needed
 698              	.LVL65:
 699              	.LVL66:
 700              		.loc 1 401 1 view .LVU175
 701 0228 F8BD     		pop	{r3, r4, r5, r6, r7, pc}
 702              	.LVL67:
 703              	.L36:
 394:Lib/serial/serial.cpp **** 
 704              		.loc 1 394 9 is_stmt 1 view .LVU176
 394:Lib/serial/serial.cpp **** 
 705              		.loc 1 394 47 is_stmt 0 view .LVU177
 706 022a F86B     		ldr	r0, [r7, #60]
 707 022c FFF7FEFF 		bl	uxQueueMessagesWaiting
 708              	.LVL68:
 709 0230 F4E7     		b	.L37
 710              	.L38:
 384:Lib/serial/serial.cpp **** 
 711              		.loc 1 384 16 view .LVU178
 712 0232 0120     		movs	r0, #1
 713 0234 F8E7     		b	.L35
 714              	.LVL69:
 715              	.L39:
 398:Lib/serial/serial.cpp **** 
 716              		.loc 1 398 16 view .LVU179
 717 0236 0120     		movs	r0, #1
 718 0238 F6E7     		b	.L35
 719              	.L41:
 720 023a C046     		.align	2
 721              	.L40:
 722 023c 9A999999 		.word	-1717986918
 723 0240 9999E93F 		.word	1072273817
 724              		.cfi_endproc
 725              	.LFE485:
 727              		.align	1
 728              		.global	_ZN6Serial12_update_infoEss
 729              		.syntax unified
 730              		.code	16
 731              		.thumb_func
 733              	_ZN6Serial12_update_infoEss:
 734              	.LVL70:
 735              	.LFB486:
 402:Lib/serial/serial.cpp **** 
 403:Lib/serial/serial.cpp **** // ============================================================
 404:Lib/serial/serial.cpp **** // _update_info - 更新串口统计信息
 405:Lib/serial/serial.cpp **** // 参数：
 406:Lib/serial/serial.cpp **** //   rx_size - 本次接收的字节数（负数表示已发送）
 407:Lib/serial/serial.cpp **** //   tx_size - 本次发送的字节数（负数表示已发送）
 408:Lib/serial/serial.cpp **** // ============================================================
ARM GAS  /tmp/ccUDp7dI.s 			page 21


 409:Lib/serial/serial.cpp **** void Serial::_update_info(int16_t rx_size, int16_t tx_size)
 410:Lib/serial/serial.cpp **** {
 736              		.loc 1 410 1 is_stmt 1 view -0
 737              		.cfi_startproc
 738              		@ args = 0, pretend = 0, frame = 0
 739              		@ frame_needed = 0, uses_anonymous_args = 0
 740              		.loc 1 410 1 is_stmt 0 view .LVU181
 741 0244 10B5     		push	{r4, lr}
 742              		.cfi_def_cfa_offset 8
 743              		.cfi_offset 4, -8
 744              		.cfi_offset 14, -4
 411:Lib/serial/serial.cpp ****     // 更新总收发字节数（累计）
 412:Lib/serial/serial.cpp ****     if (rx_size > 0)
 745              		.loc 1 412 5 is_stmt 1 view .LVU182
 746 0246 0029     		cmp	r1, #0
 747 0248 03DD     		ble	.L43
 413:Lib/serial/serial.cpp ****         _info.rx_total_size += rx_size;  // 累计接收字节数
 748              		.loc 1 413 9 view .LVU183
 749              		.loc 1 413 15 is_stmt 0 view .LVU184
 750 024a 8824     		movs	r4, #136
 751 024c 0359     		ldr	r3, [r0, r4]
 752              		.loc 1 413 29 view .LVU185
 753 024e 5B18     		adds	r3, r3, r1
 754 0250 0351     		str	r3, [r0, r4]
 755              	.L43:
 414:Lib/serial/serial.cpp ****     if (tx_size > 0)
 756              		.loc 1 414 5 is_stmt 1 view .LVU186
 757 0252 002A     		cmp	r2, #0
 758 0254 03DD     		ble	.L44
 415:Lib/serial/serial.cpp ****         _info.tx_total_size += tx_size;  // 累计发送字节数
 759              		.loc 1 415 9 view .LVU187
 760              		.loc 1 415 15 is_stmt 0 view .LVU188
 761 0256 8C24     		movs	r4, #140
 762 0258 0359     		ldr	r3, [r0, r4]
 763              		.loc 1 415 29 view .LVU189
 764 025a 9B18     		adds	r3, r3, r2
 765 025c 0351     		str	r3, [r0, r4]
 766              	.L44:
 416:Lib/serial/serial.cpp **** 
 417:Lib/serial/serial.cpp ****     // 更新待处理字节数（正数=新增，负数=已处理）
 418:Lib/serial/serial.cpp ****     _info.rx_to_process_size += rx_size;  // 待处理接收数据
 767              		.loc 1 418 5 is_stmt 1 view .LVU190
 768              		.loc 1 418 11 is_stmt 0 view .LVU191
 769 025e 9024     		movs	r4, #144
 770 0260 035B     		ldrh	r3, [r0, r4]
 771              		.loc 1 418 30 view .LVU192
 772 0262 5B18     		adds	r3, r3, r1
 773 0264 0353     		strh	r3, [r0, r4]
 419:Lib/serial/serial.cpp ****     _info.tx_to_process_size += tx_size;  // 待处理发送数据
 774              		.loc 1 419 5 is_stmt 1 view .LVU193
 775              		.loc 1 419 11 is_stmt 0 view .LVU194
 776 0266 9221     		movs	r1, #146
 777              	.LVL71:
 778              		.loc 1 419 11 view .LVU195
 779 0268 435A     		ldrh	r3, [r0, r1]
 780              		.loc 1 419 30 view .LVU196
 781 026a 9B18     		adds	r3, r3, r2
ARM GAS  /tmp/ccUDp7dI.s 			page 22


 782 026c 4352     		strh	r3, [r0, r1]
 420:Lib/serial/serial.cpp **** }
 783              		.loc 1 420 1 view .LVU197
 784              		@ sp needed
 785 026e 10BD     		pop	{r4, pc}
 786              		.cfi_endproc
 787              	.LFE486:
 789              		.align	1
 790              		.global	_ZN6Serial13_rx_irq_startEv
 791              		.syntax unified
 792              		.code	16
 793              		.thumb_func
 795              	_ZN6Serial13_rx_irq_startEv:
 796              	.LVL72:
 797              	.LFB487:
 421:Lib/serial/serial.cpp **** 
 422:Lib/serial/serial.cpp **** // ============================================================
 423:Lib/serial/serial.cpp **** // _rx_irq_start - 开启 UART 接收中断/DMA
 424:Lib/serial/serial.cpp **** // 返回：true 成功，false 失败
 425:Lib/serial/serial.cpp **** // 说明：根据 rx_mode 选择 IT 或 DMA 模式启动接收
 426:Lib/serial/serial.cpp **** // ============================================================
 427:Lib/serial/serial.cpp **** bool Serial::_rx_irq_start(void)
 428:Lib/serial/serial.cpp **** {
 798              		.loc 1 428 1 is_stmt 1 view -0
 799              		.cfi_startproc
 800              		@ args = 0, pretend = 0, frame = 0
 801              		@ frame_needed = 0, uses_anonymous_args = 0
 802              		.loc 1 428 1 is_stmt 0 view .LVU199
 803 0270 70B5     		push	{r4, r5, r6, lr}
 804              		.cfi_def_cfa_offset 16
 805              		.cfi_offset 4, -16
 806              		.cfi_offset 5, -12
 807              		.cfi_offset 6, -8
 808              		.cfi_offset 14, -4
 809 0272 0400     		movs	r4, r0
 429:Lib/serial/serial.cpp ****     uint8_t status;  // HAL 状态
 810              		.loc 1 429 5 is_stmt 1 view .LVU200
 430:Lib/serial/serial.cpp **** 
 431:Lib/serial/serial.cpp ****     // -------------------- IT 模式（中断模式） --------------------
 432:Lib/serial/serial.cpp ****     if (_config.rx_mode == Serial_Mode::IT)
 811              		.loc 1 432 5 view .LVU201
 812              		.loc 1 432 17 is_stmt 0 view .LVU202
 813 0274 7623     		movs	r3, #118
 814 0276 C35C     		ldrb	r3, [r0, r3]
 815              		.loc 1 432 5 view .LVU203
 816 0278 012B     		cmp	r3, #1
 817 027a 03D0     		beq	.L51
 433:Lib/serial/serial.cpp ****     {
 434:Lib/serial/serial.cpp ****         // HAL_UARTEx_ReceiveToIdle_IT：
 435:Lib/serial/serial.cpp ****         // 接收数据直到：
 436:Lib/serial/serial.cpp ****         //   1. 收到 rx_pack_size 个字节，或
 437:Lib/serial/serial.cpp ****         //   2. 检测到 UART 空闲线（数据发送完毕）
 438:Lib/serial/serial.cpp ****         // 收到 rx_pack_size 字节会触发 RxCpltCallback
 439:Lib/serial/serial.cpp ****         // 空闲检测会触发 RxEventCallback
 440:Lib/serial/serial.cpp ****         status = HAL_UARTEx_ReceiveToIdle_IT(_uart, _rx_buf.pData, _config.rx_pack_size);
 441:Lib/serial/serial.cpp **** 
 442:Lib/serial/serial.cpp ****         // 如果 UART 正在忙碌（上次接收未完成），重试
ARM GAS  /tmp/ccUDp7dI.s 			page 23


 443:Lib/serial/serial.cpp ****         if (status == HAL_BUSY)
 444:Lib/serial/serial.cpp ****         {
 445:Lib/serial/serial.cpp ****             _uart->Lock = HAL_UNLOCKED;  // 解锁 UART 句柄
 446:Lib/serial/serial.cpp ****             status = HAL_UARTEx_ReceiveToIdle_IT(_uart, _rx_buf.pData, _config.rx_pack_size);
 447:Lib/serial/serial.cpp ****             _info.error_cnt++;  // 错误计数加一
 448:Lib/serial/serial.cpp ****         }
 449:Lib/serial/serial.cpp ****     }
 450:Lib/serial/serial.cpp ****     // -------------------- DMA 模式（直接内存访问） --------------------
 451:Lib/serial/serial.cpp ****     else if (_config.rx_mode == Serial_Mode::DMA)
 818              		.loc 1 451 10 is_stmt 1 view .LVU204
 819 027c 022B     		cmp	r3, #2
 820 027e 17D0     		beq	.L52
 821              	.LVL73:
 822              	.L48:
 452:Lib/serial/serial.cpp ****     {
 453:Lib/serial/serial.cpp ****         // HAL_UARTEx_ReceiveToIdle_DMA：
 454:Lib/serial/serial.cpp ****         // 与 IT 模式相同，但数据直接通过 DMA 传到内存，不占用 CPU 中断
 455:Lib/serial/serial.cpp ****         // DMA 优点：CPU 不参与数据传输，效率高，适合高速通信
 456:Lib/serial/serial.cpp ****         status = HAL_UARTEx_ReceiveToIdle_DMA(_uart, _rx_buf.pData, _config.rx_pack_size);
 457:Lib/serial/serial.cpp **** 
 458:Lib/serial/serial.cpp ****         if (status == HAL_BUSY)
 459:Lib/serial/serial.cpp ****         {
 460:Lib/serial/serial.cpp ****             _uart->Lock = HAL_UNLOCKED;
 461:Lib/serial/serial.cpp ****             status = HAL_UARTEx_ReceiveToIdle_DMA(_uart, _rx_buf.pData, _config.rx_pack_size);
 462:Lib/serial/serial.cpp ****             _info.error_cnt++;
 463:Lib/serial/serial.cpp ****         }
 464:Lib/serial/serial.cpp ****     }
 465:Lib/serial/serial.cpp ****     // -------------------- 模式无效 --------------------
 466:Lib/serial/serial.cpp ****     else
 467:Lib/serial/serial.cpp ****     {
 468:Lib/serial/serial.cpp ****         status = HAL_ERROR;
 469:Lib/serial/serial.cpp ****     }
 470:Lib/serial/serial.cpp **** 
 471:Lib/serial/serial.cpp ****     if (status != HAL_OK)
 472:Lib/serial/serial.cpp ****         return false;
 823              		.loc 1 472 9 view .LVU205
 824              		.loc 1 472 16 is_stmt 0 view .LVU206
 825 0280 0020     		movs	r0, #0
 826              	.L49:
 473:Lib/serial/serial.cpp **** 
 474:Lib/serial/serial.cpp ****     return true;
 475:Lib/serial/serial.cpp **** }
 827              		.loc 1 475 1 view .LVU207
 828              		@ sp needed
 829              	.LVL74:
 830              		.loc 1 475 1 view .LVU208
 831 0282 70BD     		pop	{r4, r5, r6, pc}
 832              	.LVL75:
 833              	.L51:
 440:Lib/serial/serial.cpp **** 
 834              		.loc 1 440 9 is_stmt 1 view .LVU209
 440:Lib/serial/serial.cpp **** 
 835              		.loc 1 440 45 is_stmt 0 view .LVU210
 836 0284 7B33     		adds	r3, r3, #123
 837 0286 C25A     		ldrh	r2, [r0, r3]
 838 0288 016A     		ldr	r1, [r0, #32]
 839 028a 4069     		ldr	r0, [r0, #20]
ARM GAS  /tmp/ccUDp7dI.s 			page 24


 840              	.LVL76:
 440:Lib/serial/serial.cpp **** 
 841              		.loc 1 440 45 view .LVU211
 842 028c FFF7FEFF 		bl	HAL_UARTEx_ReceiveToIdle_IT
 843              	.LVL77:
 443:Lib/serial/serial.cpp ****         {
 844              		.loc 1 443 9 is_stmt 1 view .LVU212
 845 0290 0228     		cmp	r0, #2
 846 0292 15D1     		bne	.L47
 445:Lib/serial/serial.cpp ****             status = HAL_UARTEx_ReceiveToIdle_IT(_uart, _rx_buf.pData, _config.rx_pack_size);
 847              		.loc 1 445 13 view .LVU213
 848 0294 6369     		ldr	r3, [r4, #20]
 445:Lib/serial/serial.cpp ****             status = HAL_UARTEx_ReceiveToIdle_IT(_uart, _rx_buf.pData, _config.rx_pack_size);
 849              		.loc 1 445 25 is_stmt 0 view .LVU214
 850 0296 8425     		movs	r5, #132
 851 0298 0022     		movs	r2, #0
 852 029a 5A55     		strb	r2, [r3, r5]
 446:Lib/serial/serial.cpp ****             _info.error_cnt++;  // 错误计数加一
 853              		.loc 1 446 13 is_stmt 1 view .LVU215
 446:Lib/serial/serial.cpp ****             _info.error_cnt++;  // 错误计数加一
 854              		.loc 1 446 49 is_stmt 0 view .LVU216
 855 029c 7C23     		movs	r3, #124
 856 029e E25A     		ldrh	r2, [r4, r3]
 857 02a0 216A     		ldr	r1, [r4, #32]
 858 02a2 6069     		ldr	r0, [r4, #20]
 859              	.LVL78:
 446:Lib/serial/serial.cpp ****             _info.error_cnt++;  // 错误计数加一
 860              		.loc 1 446 49 view .LVU217
 861 02a4 FFF7FEFF 		bl	HAL_UARTEx_ReceiveToIdle_IT
 862              	.LVL79:
 447:Lib/serial/serial.cpp ****         }
 863              		.loc 1 447 13 is_stmt 1 view .LVU218
 447:Lib/serial/serial.cpp ****         }
 864              		.loc 1 447 19 is_stmt 0 view .LVU219
 865 02a8 635B     		ldrh	r3, [r4, r5]
 447:Lib/serial/serial.cpp ****         }
 866              		.loc 1 447 28 view .LVU220
 867 02aa 0133     		adds	r3, r3, #1
 868 02ac 6353     		strh	r3, [r4, r5]
 869 02ae 07E0     		b	.L47
 870              	.LVL80:
 871              	.L52:
 456:Lib/serial/serial.cpp **** 
 872              		.loc 1 456 9 is_stmt 1 view .LVU221
 456:Lib/serial/serial.cpp **** 
 873              		.loc 1 456 46 is_stmt 0 view .LVU222
 874 02b0 7A33     		adds	r3, r3, #122
 875 02b2 C25A     		ldrh	r2, [r0, r3]
 876 02b4 016A     		ldr	r1, [r0, #32]
 877 02b6 4069     		ldr	r0, [r0, #20]
 878              	.LVL81:
 456:Lib/serial/serial.cpp **** 
 879              		.loc 1 456 46 view .LVU223
 880 02b8 FFF7FEFF 		bl	HAL_UARTEx_ReceiveToIdle_DMA
 881              	.LVL82:
 458:Lib/serial/serial.cpp ****         {
 882              		.loc 1 458 9 is_stmt 1 view .LVU224
ARM GAS  /tmp/ccUDp7dI.s 			page 25


 883 02bc 0228     		cmp	r0, #2
 884 02be 03D0     		beq	.L53
 885              	.LVL83:
 886              	.L47:
 471:Lib/serial/serial.cpp ****         return false;
 887              		.loc 1 471 5 view .LVU225
 888 02c0 0028     		cmp	r0, #0
 889 02c2 DDD1     		bne	.L48
 474:Lib/serial/serial.cpp **** }
 890              		.loc 1 474 12 is_stmt 0 view .LVU226
 891 02c4 0120     		movs	r0, #1
 892              	.LVL84:
 474:Lib/serial/serial.cpp **** }
 893              		.loc 1 474 12 view .LVU227
 894 02c6 DCE7     		b	.L49
 895              	.LVL85:
 896              	.L53:
 460:Lib/serial/serial.cpp ****             status = HAL_UARTEx_ReceiveToIdle_DMA(_uart, _rx_buf.pData, _config.rx_pack_size);
 897              		.loc 1 460 13 is_stmt 1 view .LVU228
 898 02c8 6369     		ldr	r3, [r4, #20]
 460:Lib/serial/serial.cpp ****             status = HAL_UARTEx_ReceiveToIdle_DMA(_uart, _rx_buf.pData, _config.rx_pack_size);
 899              		.loc 1 460 25 is_stmt 0 view .LVU229
 900 02ca 8425     		movs	r5, #132
 901 02cc 0022     		movs	r2, #0
 902 02ce 5A55     		strb	r2, [r3, r5]
 461:Lib/serial/serial.cpp ****             _info.error_cnt++;
 903              		.loc 1 461 13 is_stmt 1 view .LVU230
 461:Lib/serial/serial.cpp ****             _info.error_cnt++;
 904              		.loc 1 461 50 is_stmt 0 view .LVU231
 905 02d0 7C23     		movs	r3, #124
 906 02d2 E25A     		ldrh	r2, [r4, r3]
 907 02d4 216A     		ldr	r1, [r4, #32]
 908 02d6 6069     		ldr	r0, [r4, #20]
 909              	.LVL86:
 461:Lib/serial/serial.cpp ****             _info.error_cnt++;
 910              		.loc 1 461 50 view .LVU232
 911 02d8 FFF7FEFF 		bl	HAL_UARTEx_ReceiveToIdle_DMA
 912              	.LVL87:
 462:Lib/serial/serial.cpp ****         }
 913              		.loc 1 462 13 is_stmt 1 view .LVU233
 462:Lib/serial/serial.cpp ****         }
 914              		.loc 1 462 19 is_stmt 0 view .LVU234
 915 02dc 635B     		ldrh	r3, [r4, r5]
 462:Lib/serial/serial.cpp ****         }
 916              		.loc 1 462 28 view .LVU235
 917 02de 0133     		adds	r3, r3, #1
 918 02e0 6353     		strh	r3, [r4, r5]
 919 02e2 EDE7     		b	.L47
 920              		.cfi_endproc
 921              	.LFE487:
 923              		.align	1
 924              		.global	_ZN6Serial4initEPKcP13Serial_ConfigP20__UART_HandleTypeDef
 925              		.syntax unified
 926              		.code	16
 927              		.thumb_func
 929              	_ZN6Serial4initEPKcP13Serial_ConfigP20__UART_HandleTypeDef:
 930              	.LVL88:
ARM GAS  /tmp/ccUDp7dI.s 			page 26


 931              	.LFB462:
  49:Lib/serial/serial.cpp ****     // -------------------- 1. 参数合法性检查 --------------------
 932              		.loc 1 49 1 is_stmt 1 view -0
 933              		.cfi_startproc
 934              		@ args = 0, pretend = 0, frame = 0
 935              		@ frame_needed = 0, uses_anonymous_args = 0
  49:Lib/serial/serial.cpp ****     // -------------------- 1. 参数合法性检查 --------------------
 936              		.loc 1 49 1 is_stmt 0 view .LVU237
 937 02e4 F0B5     		push	{r4, r5, r6, r7, lr}
 938              		.cfi_def_cfa_offset 20
 939              		.cfi_offset 4, -20
 940              		.cfi_offset 5, -16
 941              		.cfi_offset 6, -12
 942              		.cfi_offset 7, -8
 943              		.cfi_offset 14, -4
 944 02e6 C646     		mov	lr, r8
 945 02e8 00B5     		push	{lr}
 946              		.cfi_def_cfa_offset 24
 947              		.cfi_offset 8, -24
 948 02ea 0500     		movs	r5, r0
 949 02ec 0E00     		movs	r6, r1
 950 02ee 1400     		movs	r4, r2
 951 02f0 1F00     		movs	r7, r3
  51:Lib/serial/serial.cpp ****     {
 952              		.loc 1 51 5 is_stmt 1 view .LVU238
 953 02f2 0029     		cmp	r1, #0
 954 02f4 21D0     		beq	.L55
  51:Lib/serial/serial.cpp ****     {
 955              		.loc 1 51 22 is_stmt 0 discriminator 1 view .LVU239
 956 02f6 002A     		cmp	r2, #0
 957 02f8 1FD0     		beq	.L55
  51:Lib/serial/serial.cpp ****     {
 958              		.loc 1 51 40 discriminator 2 view .LVU240
 959 02fa 002B     		cmp	r3, #0
 960 02fc 1DD0     		beq	.L55
  60:Lib/serial/serial.cpp ****         // 接收/发送模式不能是 None（否则无法工作）
 961              		.loc 1 60 5 is_stmt 1 view .LVU241
  60:Lib/serial/serial.cpp ****         // 接收/发送模式不能是 None（否则无法工作）
 962              		.loc 1 60 16 is_stmt 0 view .LVU242
 963 02fe 2021     		movs	r1, #32
 964              	.LVL89:
  60:Lib/serial/serial.cpp ****         // 接收/发送模式不能是 None（否则无法工作）
 965              		.loc 1 60 16 view .LVU243
 966 0300 3000     		movs	r0, r6
 967              	.LVL90:
  60:Lib/serial/serial.cpp ****         // 接收/发送模式不能是 None（否则无法工作）
 968              		.loc 1 60 16 view .LVU244
 969 0302 FFF7FEFF 		bl	strnlen
 970              	.LVL91:
  60:Lib/serial/serial.cpp ****         // 接收/发送模式不能是 None（否则无法工作）
 971              		.loc 1 60 5 discriminator 1 view .LVU245
 972 0306 0F28     		cmp	r0, #15
 973 0308 11D8     		bhi	.L58
  62:Lib/serial/serial.cpp ****         // 数据包大小必须 > 0
 974              		.loc 1 62 17 view .LVU246
 975 030a 2378     		ldrb	r3, [r4]
  60:Lib/serial/serial.cpp ****         // 接收/发送模式不能是 None（否则无法工作）
ARM GAS  /tmp/ccUDp7dI.s 			page 27


 976              		.loc 1 60 65 discriminator 1 view .LVU247
 977 030c 002B     		cmp	r3, #0
 978 030e 0ED0     		beq	.L58
  62:Lib/serial/serial.cpp ****         // 数据包大小必须 > 0
 979              		.loc 1 62 57 view .LVU248
 980 0310 6378     		ldrb	r3, [r4, #1]
  62:Lib/serial/serial.cpp ****         // 数据包大小必须 > 0
 981              		.loc 1 62 46 view .LVU249
 982 0312 002B     		cmp	r3, #0
 983 0314 0BD0     		beq	.L58
  64:Lib/serial/serial.cpp ****         // 队列长度必须 > 0
 984              		.loc 1 64 17 view .LVU250
 985 0316 E388     		ldrh	r3, [r4, #6]
  62:Lib/serial/serial.cpp ****         // 数据包大小必须 > 0
 986              		.loc 1 62 86 discriminator 1 view .LVU251
 987 0318 002B     		cmp	r3, #0
 988 031a 08D0     		beq	.L58
  64:Lib/serial/serial.cpp ****         // 队列长度必须 > 0
 989              		.loc 1 64 46 view .LVU252
 990 031c 2389     		ldrh	r3, [r4, #8]
  64:Lib/serial/serial.cpp ****         // 队列长度必须 > 0
 991              		.loc 1 64 35 view .LVU253
 992 031e 002B     		cmp	r3, #0
 993 0320 05D0     		beq	.L58
  66:Lib/serial/serial.cpp ****     {
 994              		.loc 1 66 17 view .LVU254
 995 0322 6389     		ldrh	r3, [r4, #10]
  64:Lib/serial/serial.cpp ****         // 队列长度必须 > 0
 996              		.loc 1 64 64 discriminator 1 view .LVU255
 997 0324 002B     		cmp	r3, #0
 998 0326 02D0     		beq	.L58
  66:Lib/serial/serial.cpp ****     {
 999              		.loc 1 66 46 view .LVU256
 1000 0328 A389     		ldrh	r3, [r4, #12]
  66:Lib/serial/serial.cpp ****     {
 1001              		.loc 1 66 35 view .LVU257
 1002 032a 002B     		cmp	r3, #0
 1003 032c 09D1     		bne	.L59
 1004              	.L58:
  68:Lib/serial/serial.cpp ****         return false;
 1005              		.loc 1 68 9 is_stmt 1 view .LVU258
  68:Lib/serial/serial.cpp ****         return false;
 1006              		.loc 1 68 16 is_stmt 0 view .LVU259
 1007 032e 0123     		movs	r3, #1
 1008 0330 6B74     		strb	r3, [r5, #17]
  69:Lib/serial/serial.cpp ****     }
 1009              		.loc 1 69 9 is_stmt 1 view .LVU260
  69:Lib/serial/serial.cpp ****     }
 1010              		.loc 1 69 16 is_stmt 0 view .LVU261
 1011 0332 0020     		movs	r0, #0
 1012              	.L57:
 135:Lib/serial/serial.cpp **** 
 1013              		.loc 1 135 1 view .LVU262
 1014              		@ sp needed
 1015              	.LVL92:
 1016              	.LVL93:
 1017              	.LVL94:
ARM GAS  /tmp/ccUDp7dI.s 			page 28


 1018              	.LVL95:
 135:Lib/serial/serial.cpp **** 
 1019              		.loc 1 135 1 view .LVU263
 1020 0334 80BC     		pop	{r7}
 1021 0336 B846     		mov	r8, r7
 1022 0338 F0BD     		pop	{r4, r5, r6, r7, pc}
 1023              	.LVL96:
 1024              	.L55:
  53:Lib/serial/serial.cpp ****         return false;
 1025              		.loc 1 53 9 is_stmt 1 view .LVU264
  53:Lib/serial/serial.cpp ****         return false;
 1026              		.loc 1 53 16 is_stmt 0 view .LVU265
 1027 033a 0123     		movs	r3, #1
 1028              	.LVL97:
  53:Lib/serial/serial.cpp ****         return false;
 1029              		.loc 1 53 16 view .LVU266
 1030 033c 6B74     		strb	r3, [r5, #17]
  54:Lib/serial/serial.cpp ****     }
 1031              		.loc 1 54 9 is_stmt 1 view .LVU267
  54:Lib/serial/serial.cpp ****     }
 1032              		.loc 1 54 16 is_stmt 0 view .LVU268
 1033 033e 0020     		movs	r0, #0
 1034              	.LVL98:
  54:Lib/serial/serial.cpp ****     }
 1035              		.loc 1 54 16 view .LVU269
 1036 0340 F8E7     		b	.L57
 1037              	.LVL99:
 1038              	.L59:
  73:Lib/serial/serial.cpp ****     memset(&_config, 0, sizeof(_config)); // 清零配置结构体
 1039              		.loc 1 73 5 is_stmt 1 view .LVU270
  73:Lib/serial/serial.cpp ****     memset(&_config, 0, sizeof(_config)); // 清零配置结构体
 1040              		.loc 1 73 11 is_stmt 0 view .LVU271
 1041 0342 1022     		movs	r2, #16
 1042 0344 0021     		movs	r1, #0
 1043 0346 2800     		movs	r0, r5
 1044 0348 FFF7FEFF 		bl	memset
 1045              	.LVL100:
  74:Lib/serial/serial.cpp ****     memset(&_info, 0, sizeof(_info));    // 清零统计信息结构体
 1046              		.loc 1 74 5 is_stmt 1 view .LVU272
  74:Lib/serial/serial.cpp ****     memset(&_info, 0, sizeof(_info));    // 清零统计信息结构体
 1047              		.loc 1 74 11 is_stmt 0 view .LVU273
 1048 034c 0E22     		movs	r2, #14
 1049 034e 0021     		movs	r1, #0
 1050 0350 7623     		movs	r3, #118
 1051 0352 9846     		mov	r8, r3
 1052 0354 A844     		add	r8, r8, r5
 1053 0356 4046     		mov	r0, r8
 1054 0358 FFF7FEFF 		bl	memset
 1055              	.LVL101:
  75:Lib/serial/serial.cpp **** 
 1056              		.loc 1 75 5 is_stmt 1 view .LVU274
  75:Lib/serial/serial.cpp **** 
 1057              		.loc 1 75 12 is_stmt 0 view .LVU275
 1058 035c 2800     		movs	r0, r5
 1059 035e 8430     		adds	r0, r0, #132
  75:Lib/serial/serial.cpp **** 
 1060              		.loc 1 75 11 view .LVU276
ARM GAS  /tmp/ccUDp7dI.s 			page 29


 1061 0360 1022     		movs	r2, #16
 1062 0362 0021     		movs	r1, #0
 1063 0364 FFF7FEFF 		bl	memset
 1064              	.LVL102:
  78:Lib/serial/serial.cpp ****     _config = *config;                        // 复制配置参数
 1065              		.loc 1 78 5 is_stmt 1 view .LVU277
  78:Lib/serial/serial.cpp ****     _config = *config;                        // 复制配置参数
 1066              		.loc 1 78 12 is_stmt 0 view .LVU278
 1067 0368 1022     		movs	r2, #16
 1068 036a 3100     		movs	r1, r6
 1069 036c 2800     		movs	r0, r5
 1070 036e FFF7FEFF 		bl	strncpy
 1071              	.LVL103:
  79:Lib/serial/serial.cpp ****     _uart = uart;                             // 保存 UART 句柄
 1072              		.loc 1 79 5 is_stmt 1 view .LVU279
  79:Lib/serial/serial.cpp ****     _uart = uart;                             // 保存 UART 句柄
 1073              		.loc 1 79 13 is_stmt 0 view .LVU280
 1074 0372 0E22     		movs	r2, #14
 1075 0374 2100     		movs	r1, r4
 1076 0376 4046     		mov	r0, r8
 1077 0378 FFF7FEFF 		bl	memcpy
 1078              	.LVL104:
  80:Lib/serial/serial.cpp **** 
 1079              		.loc 1 80 5 is_stmt 1 view .LVU281
  80:Lib/serial/serial.cpp **** 
 1080              		.loc 1 80 11 is_stmt 0 view .LVU282
 1081 037c 6F61     		str	r7, [r5, #20]
  84:Lib/serial/serial.cpp ****     {
 1082              		.loc 1 84 5 is_stmt 1 view .LVU283
  84:Lib/serial/serial.cpp ****     {
 1083              		.loc 1 84 19 is_stmt 0 view .LVU284
 1084 037e 3800     		movs	r0, r7
 1085 0380 FFF7FEFF 		bl	_ZN6Serial10get_serialEP20__UART_HandleTypeDef
 1086              	.LVL105:
  84:Lib/serial/serial.cpp ****     {
 1087              		.loc 1 84 5 discriminator 1 view .LVU285
 1088 0384 0028     		cmp	r0, #0
 1089 0386 03D0     		beq	.L60
  86:Lib/serial/serial.cpp ****         return false;
 1090              		.loc 1 86 9 is_stmt 1 view .LVU286
  86:Lib/serial/serial.cpp ****         return false;
 1091              		.loc 1 86 16 is_stmt 0 view .LVU287
 1092 0388 0123     		movs	r3, #1
 1093 038a 6B74     		strb	r3, [r5, #17]
  87:Lib/serial/serial.cpp ****     }
 1094              		.loc 1 87 9 is_stmt 1 view .LVU288
  87:Lib/serial/serial.cpp ****     }
 1095              		.loc 1 87 16 is_stmt 0 view .LVU289
 1096 038c 0020     		movs	r0, #0
 1097 038e D1E7     		b	.L57
 1098              	.L60:
  89:Lib/serial/serial.cpp ****     sr_count++;                // 计数器加一
 1099              		.loc 1 89 5 is_stmt 1 view .LVU290
  89:Lib/serial/serial.cpp ****     sr_count++;                // 计数器加一
 1100              		.loc 1 89 13 is_stmt 0 view .LVU291
 1101 0390 1C4B     		ldr	r3, .L68
 1102 0392 2021     		movs	r1, #32
ARM GAS  /tmp/ccUDp7dI.s 			page 30


 1103 0394 5A5C     		ldrb	r2, [r3, r1]
  89:Lib/serial/serial.cpp ****     sr_count++;                // 计数器加一
 1104              		.loc 1 89 23 view .LVU292
 1105 0396 9000     		lsls	r0, r2, #2
 1106 0398 C550     		str	r5, [r0, r3]
  90:Lib/serial/serial.cpp **** 
 1107              		.loc 1 90 5 is_stmt 1 view .LVU293
  90:Lib/serial/serial.cpp **** 
 1108              		.loc 1 90 13 is_stmt 0 view .LVU294
 1109 039a 0132     		adds	r2, r2, #1
 1110 039c 5A54     		strb	r2, [r3, r1]
  94:Lib/serial/serial.cpp ****     {
 1111              		.loc 1 94 5 is_stmt 1 view .LVU295
  94:Lib/serial/serial.cpp ****     {
 1112              		.loc 1 94 19 is_stmt 0 view .LVU296
 1113 039e 2800     		movs	r0, r5
 1114 03a0 FFF7FEFF 		bl	_ZN6Serial9_init_bufEv
 1115              	.LVL106:
  94:Lib/serial/serial.cpp ****     {
 1116              		.loc 1 94 5 discriminator 1 view .LVU297
 1117 03a4 0028     		cmp	r0, #0
 1118 03a6 02D1     		bne	.L61
  96:Lib/serial/serial.cpp ****         return false;
 1119              		.loc 1 96 9 is_stmt 1 view .LVU298
  96:Lib/serial/serial.cpp ****         return false;
 1120              		.loc 1 96 16 is_stmt 0 view .LVU299
 1121 03a8 0123     		movs	r3, #1
 1122 03aa 6B74     		strb	r3, [r5, #17]
  97:Lib/serial/serial.cpp ****     }
 1123              		.loc 1 97 9 is_stmt 1 view .LVU300
  97:Lib/serial/serial.cpp ****     }
 1124              		.loc 1 97 16 is_stmt 0 view .LVU301
 1125 03ac C2E7     		b	.L57
 1126              	.L61:
 100:Lib/serial/serial.cpp ****     {
 1127              		.loc 1 100 5 is_stmt 1 view .LVU302
 100:Lib/serial/serial.cpp ****     {
 1128              		.loc 1 100 21 is_stmt 0 view .LVU303
 1129 03ae 2800     		movs	r0, r5
 1130 03b0 FFF7FEFF 		bl	_ZN6Serial11_init_queueEv
 1131              	.LVL107:
 100:Lib/serial/serial.cpp ****     {
 1132              		.loc 1 100 5 discriminator 1 view .LVU304
 1133 03b4 0028     		cmp	r0, #0
 1134 03b6 02D1     		bne	.L62
 102:Lib/serial/serial.cpp ****         return false;
 1135              		.loc 1 102 9 is_stmt 1 view .LVU305
 102:Lib/serial/serial.cpp ****         return false;
 1136              		.loc 1 102 16 is_stmt 0 view .LVU306
 1137 03b8 0123     		movs	r3, #1
 1138 03ba 6B74     		strb	r3, [r5, #17]
 103:Lib/serial/serial.cpp ****     }
 1139              		.loc 1 103 9 is_stmt 1 view .LVU307
 103:Lib/serial/serial.cpp ****     }
 1140              		.loc 1 103 16 is_stmt 0 view .LVU308
 1141 03bc BAE7     		b	.L57
 1142              	.L62:
ARM GAS  /tmp/ccUDp7dI.s 			page 31


 106:Lib/serial/serial.cpp ****     {
 1143              		.loc 1 106 5 is_stmt 1 view .LVU309
 106:Lib/serial/serial.cpp ****     {
 1144              		.loc 1 106 25 is_stmt 0 view .LVU310
 1145 03be 2800     		movs	r0, r5
 1146 03c0 FFF7FEFF 		bl	_ZN6Serial15_init_semaphoreEv
 1147              	.LVL108:
 106:Lib/serial/serial.cpp ****     {
 1148              		.loc 1 106 5 discriminator 1 view .LVU311
 1149 03c4 0028     		cmp	r0, #0
 1150 03c6 02D1     		bne	.L63
 108:Lib/serial/serial.cpp ****         return false;
 1151              		.loc 1 108 9 is_stmt 1 view .LVU312
 108:Lib/serial/serial.cpp ****         return false;
 1152              		.loc 1 108 16 is_stmt 0 view .LVU313
 1153 03c8 0123     		movs	r3, #1
 1154 03ca 6B74     		strb	r3, [r5, #17]
 109:Lib/serial/serial.cpp ****     }
 1155              		.loc 1 109 9 is_stmt 1 view .LVU314
 109:Lib/serial/serial.cpp ****     }
 1156              		.loc 1 109 16 is_stmt 0 view .LVU315
 1157 03cc B2E7     		b	.L57
 1158              	.L63:
 112:Lib/serial/serial.cpp ****     {
 1159              		.loc 1 112 5 is_stmt 1 view .LVU316
 112:Lib/serial/serial.cpp ****     {
 1160              		.loc 1 112 20 is_stmt 0 view .LVU317
 1161 03ce 2800     		movs	r0, r5
 1162 03d0 FFF7FEFF 		bl	_ZN6Serial10_init_taskEv
 1163              	.LVL109:
 112:Lib/serial/serial.cpp ****     {
 1164              		.loc 1 112 5 discriminator 1 view .LVU318
 1165 03d4 0028     		cmp	r0, #0
 1166 03d6 02D1     		bne	.L64
 114:Lib/serial/serial.cpp ****         return false;
 1167              		.loc 1 114 9 is_stmt 1 view .LVU319
 114:Lib/serial/serial.cpp ****         return false;
 1168              		.loc 1 114 16 is_stmt 0 view .LVU320
 1169 03d8 0123     		movs	r3, #1
 1170 03da 6B74     		strb	r3, [r5, #17]
 115:Lib/serial/serial.cpp ****     }
 1171              		.loc 1 115 9 is_stmt 1 view .LVU321
 115:Lib/serial/serial.cpp ****     }
 1172              		.loc 1 115 16 is_stmt 0 view .LVU322
 1173 03dc AAE7     		b	.L57
 1174              	.L64:
 118:Lib/serial/serial.cpp ****     {
 1175              		.loc 1 118 5 is_stmt 1 view .LVU323
 118:Lib/serial/serial.cpp ****     {
 1176              		.loc 1 118 24 is_stmt 0 view .LVU324
 1177 03de 2800     		movs	r0, r5
 1178 03e0 FFF7FEFF 		bl	_ZN6Serial14_init_callbackEv
 1179              	.LVL110:
 118:Lib/serial/serial.cpp ****     {
 1180              		.loc 1 118 5 discriminator 1 view .LVU325
 1181 03e4 0028     		cmp	r0, #0
 1182 03e6 02D1     		bne	.L65
ARM GAS  /tmp/ccUDp7dI.s 			page 32


 120:Lib/serial/serial.cpp ****         return false;
 1183              		.loc 1 120 9 is_stmt 1 view .LVU326
 120:Lib/serial/serial.cpp ****         return false;
 1184              		.loc 1 120 16 is_stmt 0 view .LVU327
 1185 03e8 0123     		movs	r3, #1
 1186 03ea 6B74     		strb	r3, [r5, #17]
 121:Lib/serial/serial.cpp ****     }
 1187              		.loc 1 121 9 is_stmt 1 view .LVU328
 121:Lib/serial/serial.cpp ****     }
 1188              		.loc 1 121 16 is_stmt 0 view .LVU329
 1189 03ec A2E7     		b	.L57
 1190              	.L65:
 126:Lib/serial/serial.cpp ****     {
 1191              		.loc 1 126 5 is_stmt 1 view .LVU330
 126:Lib/serial/serial.cpp ****     {
 1192              		.loc 1 126 23 is_stmt 0 view .LVU331
 1193 03ee 2800     		movs	r0, r5
 1194 03f0 FFF7FEFF 		bl	_ZN6Serial13_rx_irq_startEv
 1195              	.LVL111:
 126:Lib/serial/serial.cpp ****     {
 1196              		.loc 1 126 5 discriminator 1 view .LVU332
 1197 03f4 0028     		cmp	r0, #0
 1198 03f6 02D0     		beq	.L67
 133:Lib/serial/serial.cpp ****     return true;
 1199              		.loc 1 133 5 is_stmt 1 view .LVU333
 133:Lib/serial/serial.cpp ****     return true;
 1200              		.loc 1 133 12 is_stmt 0 view .LVU334
 1201 03f8 0123     		movs	r3, #1
 1202 03fa 2B74     		strb	r3, [r5, #16]
 134:Lib/serial/serial.cpp **** }
 1203              		.loc 1 134 5 is_stmt 1 view .LVU335
 134:Lib/serial/serial.cpp **** }
 1204              		.loc 1 134 12 is_stmt 0 view .LVU336
 1205 03fc 9AE7     		b	.L57
 1206              	.L67:
 128:Lib/serial/serial.cpp ****         return false;
 1207              		.loc 1 128 9 is_stmt 1 view .LVU337
 128:Lib/serial/serial.cpp ****         return false;
 1208              		.loc 1 128 16 is_stmt 0 view .LVU338
 1209 03fe 0223     		movs	r3, #2
 1210 0400 6B74     		strb	r3, [r5, #17]
 129:Lib/serial/serial.cpp ****     }
 1211              		.loc 1 129 9 is_stmt 1 view .LVU339
 129:Lib/serial/serial.cpp ****     }
 1212              		.loc 1 129 16 is_stmt 0 view .LVU340
 1213 0402 97E7     		b	.L57
 1214              	.L69:
 1215              		.align	2
 1216              	.L68:
 1217 0404 00000000 		.word	.LANCHOR0
 1218              		.cfi_endproc
 1219              	.LFE462:
 1221              		.align	1
 1222              		.global	_ZN6Serial17init_with_defaultEPKcP20__UART_HandleTypeDef
 1223              		.syntax unified
 1224              		.code	16
 1225              		.thumb_func
ARM GAS  /tmp/ccUDp7dI.s 			page 33


 1227              	_ZN6Serial17init_with_defaultEPKcP20__UART_HandleTypeDef:
 1228              	.LVL112:
 1229              	.LFB463:
 146:Lib/serial/serial.cpp ****     Serial_Config config;
 1230              		.loc 1 146 1 is_stmt 1 view -0
 1231              		.cfi_startproc
 1232              		@ args = 0, pretend = 0, frame = 16
 1233              		@ frame_needed = 0, uses_anonymous_args = 0
 146:Lib/serial/serial.cpp ****     Serial_Config config;
 1234              		.loc 1 146 1 is_stmt 0 view .LVU342
 1235 0408 F0B5     		push	{r4, r5, r6, r7, lr}
 1236              		.cfi_def_cfa_offset 20
 1237              		.cfi_offset 4, -20
 1238              		.cfi_offset 5, -16
 1239              		.cfi_offset 6, -12
 1240              		.cfi_offset 7, -8
 1241              		.cfi_offset 14, -4
 1242 040a 85B0     		sub	sp, sp, #20
 1243              		.cfi_def_cfa_offset 40
 1244 040c 0400     		movs	r4, r0
 1245 040e 0D00     		movs	r5, r1
 1246 0410 1600     		movs	r6, r2
 147:Lib/serial/serial.cpp ****     generate_default_config(&config);  // 生成默认配置
 1247              		.loc 1 147 5 is_stmt 1 view .LVU343
 148:Lib/serial/serial.cpp ****     return init(name, &config, uart);  // 调用完整初始化
 1248              		.loc 1 148 5 view .LVU344
 148:Lib/serial/serial.cpp ****     return init(name, &config, uart);  // 调用完整初始化
 1249              		.loc 1 148 28 is_stmt 0 view .LVU345
 1250 0412 6846     		mov	r0, sp
 1251              	.LVL113:
 148:Lib/serial/serial.cpp ****     return init(name, &config, uart);  // 调用完整初始化
 1252              		.loc 1 148 28 view .LVU346
 1253 0414 FFF7FEFF 		bl	_ZN6Serial23generate_default_configEP13Serial_Config
 1254              	.LVL114:
 149:Lib/serial/serial.cpp **** }
 1255              		.loc 1 149 5 is_stmt 1 view .LVU347
 149:Lib/serial/serial.cpp **** }
 1256              		.loc 1 149 16 is_stmt 0 view .LVU348
 1257 0418 3300     		movs	r3, r6
 1258 041a 6A46     		mov	r2, sp
 1259 041c 2900     		movs	r1, r5
 1260 041e 2000     		movs	r0, r4
 1261 0420 FFF7FEFF 		bl	_ZN6Serial4initEPKcP13Serial_ConfigP20__UART_HandleTypeDef
 1262              	.LVL115:
 150:Lib/serial/serial.cpp **** 
 1263              		.loc 1 150 1 view .LVU349
 1264 0424 05B0     		add	sp, sp, #20
 1265              		@ sp needed
 1266              	.LVL116:
 1267              	.LVL117:
 1268              	.LVL118:
 150:Lib/serial/serial.cpp **** 
 1269              		.loc 1 150 1 view .LVU350
 1270 0426 F0BD     		pop	{r4, r5, r6, r7, pc}
 1271              		.cfi_endproc
 1272              	.LFE463:
 1274              		.align	1
ARM GAS  /tmp/ccUDp7dI.s 			page 34


 1275              		.global	_ZN6Serial13_tx_irq_startEP12__DataPack_t
 1276              		.syntax unified
 1277              		.code	16
 1278              		.thumb_func
 1280              	_ZN6Serial13_tx_irq_startEP12__DataPack_t:
 1281              	.LVL119:
 1282              	.LFB488:
 476:Lib/serial/serial.cpp **** 
 477:Lib/serial/serial.cpp **** // ============================================================
 478:Lib/serial/serial.cpp **** // _tx_irq_start - 开启 UART 发送中断/DMA
 479:Lib/serial/serial.cpp **** // 参数：tx_pack - 要发送的数据包指针
 480:Lib/serial/serial.cpp **** // 返回：true 成功，false 失败
 481:Lib/serial/serial.cpp **** // ============================================================
 482:Lib/serial/serial.cpp **** bool Serial::_tx_irq_start(DataPack_t *tx_pack)
 483:Lib/serial/serial.cpp **** {
 1283              		.loc 1 483 1 is_stmt 1 view -0
 1284              		.cfi_startproc
 1285              		@ args = 0, pretend = 0, frame = 0
 1286              		@ frame_needed = 0, uses_anonymous_args = 0
 1287              		.loc 1 483 1 is_stmt 0 view .LVU352
 1288 0428 70B5     		push	{r4, r5, r6, lr}
 1289              		.cfi_def_cfa_offset 16
 1290              		.cfi_offset 4, -16
 1291              		.cfi_offset 5, -12
 1292              		.cfi_offset 6, -8
 1293              		.cfi_offset 14, -4
 1294 042a 0400     		movs	r4, r0
 1295 042c 0D00     		movs	r5, r1
 484:Lib/serial/serial.cpp ****     uint8_t status = HAL_ERROR;
 1296              		.loc 1 484 5 is_stmt 1 view .LVU353
 1297              	.LVL120:
 485:Lib/serial/serial.cpp **** 
 486:Lib/serial/serial.cpp ****     // -------------------- IT 模式 --------------------
 487:Lib/serial/serial.cpp ****     if (_config.tx_mode == Serial_Mode::IT)
 1298              		.loc 1 487 5 view .LVU354
 1299              		.loc 1 487 17 is_stmt 0 view .LVU355
 1300 042e 7723     		movs	r3, #119
 1301 0430 C35C     		ldrb	r3, [r0, r3]
 1302              		.loc 1 487 5 view .LVU356
 1303 0432 012B     		cmp	r3, #1
 1304 0434 03D0     		beq	.L77
 488:Lib/serial/serial.cpp ****     {
 489:Lib/serial/serial.cpp ****         // HAL_UART_Transmit_IT：中断方式发送，不阻塞
 490:Lib/serial/serial.cpp ****         status = HAL_UART_Transmit_IT(_uart, tx_pack->pData, tx_pack->size);
 491:Lib/serial/serial.cpp ****         if (status == HAL_BUSY)
 492:Lib/serial/serial.cpp ****         {
 493:Lib/serial/serial.cpp ****             _uart->Lock = HAL_UNLOCKED;
 494:Lib/serial/serial.cpp ****             status = HAL_UART_Transmit_IT(_uart, tx_pack->pData, tx_pack->size);
 495:Lib/serial/serial.cpp ****             _info.error_cnt++;
 496:Lib/serial/serial.cpp ****         }
 497:Lib/serial/serial.cpp ****     }
 498:Lib/serial/serial.cpp ****     // -------------------- DMA 模式 --------------------
 499:Lib/serial/serial.cpp ****     else if (_config.tx_mode == Serial_Mode::DMA)
 1305              		.loc 1 499 10 is_stmt 1 view .LVU357
 1306 0436 022B     		cmp	r3, #2
 1307 0438 15D0     		beq	.L78
 1308              	.LVL121:
ARM GAS  /tmp/ccUDp7dI.s 			page 35


 1309              	.L74:
 500:Lib/serial/serial.cpp ****     {
 501:Lib/serial/serial.cpp ****         // HAL_UART_Transmit_DMA：DMA 方式发送，不占用 CPU
 502:Lib/serial/serial.cpp ****         status = HAL_UART_Transmit_DMA(_uart, tx_pack->pData, tx_pack->size);
 503:Lib/serial/serial.cpp ****         if (status == HAL_BUSY)
 504:Lib/serial/serial.cpp ****         {
 505:Lib/serial/serial.cpp ****             _uart->Lock = HAL_UNLOCKED;
 506:Lib/serial/serial.cpp ****             status = HAL_UART_Transmit_DMA(_uart, tx_pack->pData, tx_pack->size);
 507:Lib/serial/serial.cpp ****             _info.error_cnt++;
 508:Lib/serial/serial.cpp ****         }
 509:Lib/serial/serial.cpp ****     }
 510:Lib/serial/serial.cpp ****     // -------------------- 模式为 None --------------------
 511:Lib/serial/serial.cpp ****     else if (_config.tx_mode == Serial_Mode::None)
 512:Lib/serial/serial.cpp ****     {
 513:Lib/serial/serial.cpp ****         // 发送模式为 None 是配置错误，进入错误处理
 514:Lib/serial/serial.cpp ****         _error_handler(Serial_Error::Start_Error);
 515:Lib/serial/serial.cpp ****     }
 516:Lib/serial/serial.cpp **** 
 517:Lib/serial/serial.cpp ****     if (status != HAL_OK)
 518:Lib/serial/serial.cpp ****         return false;
 1310              		.loc 1 518 9 view .LVU358
 1311              		.loc 1 518 16 is_stmt 0 view .LVU359
 1312 043a 0020     		movs	r0, #0
 1313              	.L75:
 519:Lib/serial/serial.cpp **** 
 520:Lib/serial/serial.cpp ****     return true;
 521:Lib/serial/serial.cpp **** }
 1314              		.loc 1 521 1 view .LVU360
 1315              		@ sp needed
 1316              	.LVL122:
 1317              	.LVL123:
 1318              		.loc 1 521 1 view .LVU361
 1319 043c 70BD     		pop	{r4, r5, r6, pc}
 1320              	.LVL124:
 1321              	.L77:
 490:Lib/serial/serial.cpp ****         if (status == HAL_BUSY)
 1322              		.loc 1 490 9 is_stmt 1 view .LVU362
 490:Lib/serial/serial.cpp ****         if (status == HAL_BUSY)
 1323              		.loc 1 490 55 is_stmt 0 view .LVU363
 1324 043e 0968     		ldr	r1, [r1]
 1325              	.LVL125:
 490:Lib/serial/serial.cpp ****         if (status == HAL_BUSY)
 1326              		.loc 1 490 38 view .LVU364
 1327 0440 AA88     		ldrh	r2, [r5, #4]
 1328 0442 4069     		ldr	r0, [r0, #20]
 1329              	.LVL126:
 490:Lib/serial/serial.cpp ****         if (status == HAL_BUSY)
 1330              		.loc 1 490 38 view .LVU365
 1331 0444 FFF7FEFF 		bl	HAL_UART_Transmit_IT
 1332              	.LVL127:
 491:Lib/serial/serial.cpp ****         {
 1333              		.loc 1 491 9 is_stmt 1 view .LVU366
 1334 0448 0228     		cmp	r0, #2
 1335 044a 13D1     		bne	.L73
 493:Lib/serial/serial.cpp ****             status = HAL_UART_Transmit_IT(_uart, tx_pack->pData, tx_pack->size);
 1336              		.loc 1 493 13 view .LVU367
 1337 044c 6369     		ldr	r3, [r4, #20]
ARM GAS  /tmp/ccUDp7dI.s 			page 36


 493:Lib/serial/serial.cpp ****             status = HAL_UART_Transmit_IT(_uart, tx_pack->pData, tx_pack->size);
 1338              		.loc 1 493 25 is_stmt 0 view .LVU368
 1339 044e 8426     		movs	r6, #132
 1340 0450 0022     		movs	r2, #0
 1341 0452 9A55     		strb	r2, [r3, r6]
 494:Lib/serial/serial.cpp ****             _info.error_cnt++;
 1342              		.loc 1 494 13 is_stmt 1 view .LVU369
 494:Lib/serial/serial.cpp ****             _info.error_cnt++;
 1343              		.loc 1 494 59 is_stmt 0 view .LVU370
 1344 0454 2968     		ldr	r1, [r5]
 494:Lib/serial/serial.cpp ****             _info.error_cnt++;
 1345              		.loc 1 494 42 view .LVU371
 1346 0456 AA88     		ldrh	r2, [r5, #4]
 1347 0458 6069     		ldr	r0, [r4, #20]
 1348              	.LVL128:
 494:Lib/serial/serial.cpp ****             _info.error_cnt++;
 1349              		.loc 1 494 42 view .LVU372
 1350 045a FFF7FEFF 		bl	HAL_UART_Transmit_IT
 1351              	.LVL129:
 495:Lib/serial/serial.cpp ****         }
 1352              		.loc 1 495 13 is_stmt 1 view .LVU373
 495:Lib/serial/serial.cpp ****         }
 1353              		.loc 1 495 19 is_stmt 0 view .LVU374
 1354 045e A35B     		ldrh	r3, [r4, r6]
 495:Lib/serial/serial.cpp ****         }
 1355              		.loc 1 495 28 view .LVU375
 1356 0460 0133     		adds	r3, r3, #1
 1357 0462 A353     		strh	r3, [r4, r6]
 1358 0464 06E0     		b	.L73
 1359              	.LVL130:
 1360              	.L78:
 502:Lib/serial/serial.cpp ****         if (status == HAL_BUSY)
 1361              		.loc 1 502 9 is_stmt 1 view .LVU376
 502:Lib/serial/serial.cpp ****         if (status == HAL_BUSY)
 1362              		.loc 1 502 56 is_stmt 0 view .LVU377
 1363 0466 0968     		ldr	r1, [r1]
 1364              	.LVL131:
 502:Lib/serial/serial.cpp ****         if (status == HAL_BUSY)
 1365              		.loc 1 502 39 view .LVU378
 1366 0468 AA88     		ldrh	r2, [r5, #4]
 1367 046a 4069     		ldr	r0, [r0, #20]
 1368              	.LVL132:
 502:Lib/serial/serial.cpp ****         if (status == HAL_BUSY)
 1369              		.loc 1 502 39 view .LVU379
 1370 046c FFF7FEFF 		bl	HAL_UART_Transmit_DMA
 1371              	.LVL133:
 503:Lib/serial/serial.cpp ****         {
 1372              		.loc 1 503 9 is_stmt 1 view .LVU380
 1373 0470 0228     		cmp	r0, #2
 1374 0472 03D0     		beq	.L79
 1375              	.LVL134:
 1376              	.L73:
 517:Lib/serial/serial.cpp ****         return false;
 1377              		.loc 1 517 5 view .LVU381
 1378 0474 0028     		cmp	r0, #0
 1379 0476 E0D1     		bne	.L74
 520:Lib/serial/serial.cpp **** }
ARM GAS  /tmp/ccUDp7dI.s 			page 37


 1380              		.loc 1 520 12 is_stmt 0 view .LVU382
 1381 0478 0120     		movs	r0, #1
 1382              	.LVL135:
 520:Lib/serial/serial.cpp **** }
 1383              		.loc 1 520 12 view .LVU383
 1384 047a DFE7     		b	.L75
 1385              	.LVL136:
 1386              	.L79:
 505:Lib/serial/serial.cpp ****             status = HAL_UART_Transmit_DMA(_uart, tx_pack->pData, tx_pack->size);
 1387              		.loc 1 505 13 is_stmt 1 view .LVU384
 1388 047c 6369     		ldr	r3, [r4, #20]
 505:Lib/serial/serial.cpp ****             status = HAL_UART_Transmit_DMA(_uart, tx_pack->pData, tx_pack->size);
 1389              		.loc 1 505 25 is_stmt 0 view .LVU385
 1390 047e 8426     		movs	r6, #132
 1391 0480 0022     		movs	r2, #0
 1392 0482 9A55     		strb	r2, [r3, r6]
 506:Lib/serial/serial.cpp ****             _info.error_cnt++;
 1393              		.loc 1 506 13 is_stmt 1 view .LVU386
 506:Lib/serial/serial.cpp ****             _info.error_cnt++;
 1394              		.loc 1 506 60 is_stmt 0 view .LVU387
 1395 0484 2968     		ldr	r1, [r5]
 506:Lib/serial/serial.cpp ****             _info.error_cnt++;
 1396              		.loc 1 506 43 view .LVU388
 1397 0486 AA88     		ldrh	r2, [r5, #4]
 1398 0488 6069     		ldr	r0, [r4, #20]
 1399              	.LVL137:
 506:Lib/serial/serial.cpp ****             _info.error_cnt++;
 1400              		.loc 1 506 43 view .LVU389
 1401 048a FFF7FEFF 		bl	HAL_UART_Transmit_DMA
 1402              	.LVL138:
 507:Lib/serial/serial.cpp ****         }
 1403              		.loc 1 507 13 is_stmt 1 view .LVU390
 507:Lib/serial/serial.cpp ****         }
 1404              		.loc 1 507 19 is_stmt 0 view .LVU391
 1405 048e A35B     		ldrh	r3, [r4, r6]
 507:Lib/serial/serial.cpp ****         }
 1406              		.loc 1 507 28 view .LVU392
 1407 0490 0133     		adds	r3, r3, #1
 1408 0492 A353     		strh	r3, [r4, r6]
 1409 0494 EEE7     		b	.L73
 1410              		.cfi_endproc
 1411              	.LFE488:
 1413              		.align	1
 1414              		.global	_ZN6Serial23register_rx_msg_handlerEPFvP12__DataPack_tPS_PvES3_
 1415              		.syntax unified
 1416              		.code	16
 1417              		.thumb_func
 1419              	_ZN6Serial23register_rx_msg_handlerEPFvP12__DataPack_tPS_PvES3_:
 1420              	.LVL139:
 1421              	.LFB489:
 522:Lib/serial/serial.cpp **** 
 523:Lib/serial/serial.cpp **** // ============================================================
 524:Lib/serial/serial.cpp **** // register_rx_msg_handler - 注册用户的消息回调函数
 525:Lib/serial/serial.cpp **** // 参数：
 526:Lib/serial/serial.cpp **** //   rx_msg_handler - 用户回调函数指针
 527:Lib/serial/serial.cpp **** //   args - 用户自定义参数（透传到回调中）
 528:Lib/serial/serial.cpp **** // 返回：true 成功，false 失败
ARM GAS  /tmp/ccUDp7dI.s 			page 38


 529:Lib/serial/serial.cpp **** // 说明：用户注册后，每收到一包数据会调用此回调
 530:Lib/serial/serial.cpp **** // ============================================================
 531:Lib/serial/serial.cpp **** bool Serial::register_rx_msg_handler(Serial_RX_Msg_Handler rx_msg_handler, void *args)
 532:Lib/serial/serial.cpp **** {
 1422              		.loc 1 532 1 is_stmt 1 view -0
 1423              		.cfi_startproc
 1424              		@ args = 0, pretend = 0, frame = 0
 1425              		@ frame_needed = 0, uses_anonymous_args = 0
 1426              		@ link register save eliminated.
 533:Lib/serial/serial.cpp ****     if (rx_msg_handler == NULL)
 1427              		.loc 1 533 5 view .LVU394
 1428 0496 0029     		cmp	r1, #0
 1429 0498 05D0     		beq	.L82
 534:Lib/serial/serial.cpp ****         return false;
 535:Lib/serial/serial.cpp **** 
 536:Lib/serial/serial.cpp ****     _rx_msg_handler = rx_msg_handler;      // 保存回调函数指针
 1430              		.loc 1 536 5 view .LVU395
 1431              		.loc 1 536 21 is_stmt 0 view .LVU396
 1432 049a 9423     		movs	r3, #148
 1433 049c C150     		str	r1, [r0, r3]
 537:Lib/serial/serial.cpp ****     _rx_msg_handler_args = args;           // 保存用户参数
 1434              		.loc 1 537 5 is_stmt 1 view .LVU397
 1435              		.loc 1 537 26 is_stmt 0 view .LVU398
 1436 049e 0433     		adds	r3, r3, #4
 1437 04a0 C250     		str	r2, [r0, r3]
 538:Lib/serial/serial.cpp **** 
 539:Lib/serial/serial.cpp ****     return true;
 1438              		.loc 1 539 5 is_stmt 1 view .LVU399
 1439              		.loc 1 539 12 is_stmt 0 view .LVU400
 1440 04a2 0120     		movs	r0, #1
 1441              	.LVL140:
 1442              	.L81:
 540:Lib/serial/serial.cpp **** }
 1443              		.loc 1 540 1 view .LVU401
 1444              		@ sp needed
 1445 04a4 7047     		bx	lr
 1446              	.LVL141:
 1447              	.L82:
 534:Lib/serial/serial.cpp **** 
 1448              		.loc 1 534 16 view .LVU402
 1449 04a6 0020     		movs	r0, #0
 1450              	.LVL142:
 534:Lib/serial/serial.cpp **** 
 1451              		.loc 1 534 16 view .LVU403
 1452 04a8 FCE7     		b	.L81
 1453              		.cfi_endproc
 1454              	.LFE489:
 1456              		.align	1
 1457              		.global	_ZN6Serial12_rx_callbackEt
 1458              		.syntax unified
 1459              		.code	16
 1460              		.thumb_func
 1462              	_ZN6Serial12_rx_callbackEt:
 1463              	.LVL143:
 1464              	.LFB490:
 541:Lib/serial/serial.cpp **** 
 542:Lib/serial/serial.cpp **** // ============================================================
ARM GAS  /tmp/ccUDp7dI.s 			page 39


 543:Lib/serial/serial.cpp **** // _rx_callback - UART 接收完成回调（由 HAL 库调用）
 544:Lib/serial/serial.cpp **** // 参数：size - 本次接收到的字节数
 545:Lib/serial/serial.cpp **** // 说明：
 546:Lib/serial/serial.cpp **** //   - 在 DMA 半传输完成时只跳过，不处理
 547:Lib/serial/serial.cpp **** //   - 将数据封装成 DataPack_t 放入接收队列
 548:Lib/serial/serial.cpp **** //   - 由 _rx_task 从队列取走处理
 549:Lib/serial/serial.cpp **** // ============================================================
 550:Lib/serial/serial.cpp **** void Serial::_rx_callback(uint16_t size)
 551:Lib/serial/serial.cpp **** {
 1465              		.loc 1 551 1 is_stmt 1 view -0
 1466              		.cfi_startproc
 1467              		@ args = 0, pretend = 0, frame = 16
 1468              		@ frame_needed = 0, uses_anonymous_args = 0
 1469              		.loc 1 551 1 is_stmt 0 view .LVU405
 1470 04aa 30B5     		push	{r4, r5, lr}
 1471              		.cfi_def_cfa_offset 12
 1472              		.cfi_offset 4, -12
 1473              		.cfi_offset 5, -8
 1474              		.cfi_offset 14, -4
 1475 04ac 85B0     		sub	sp, sp, #20
 1476              		.cfi_def_cfa_offset 32
 1477 04ae 0400     		movs	r4, r0
 1478 04b0 0D00     		movs	r5, r1
 552:Lib/serial/serial.cpp ****     BaseType_t pxHigherPriorityTaskWoken = pdFALSE;  // 是否需要任务切换
 1479              		.loc 1 552 5 is_stmt 1 view .LVU406
 1480              		.loc 1 552 16 is_stmt 0 view .LVU407
 1481 04b2 0023     		movs	r3, #0
 1482 04b4 0393     		str	r3, [sp, #12]
 553:Lib/serial/serial.cpp ****     DataPack_t rx_pack;                               // 接收数据包
 1483              		.loc 1 553 5 is_stmt 1 view .LVU408
 554:Lib/serial/serial.cpp **** 
 555:Lib/serial/serial.cpp ****     // -------------------- DMA 半传输完成跳过 --------------------
 556:Lib/serial/serial.cpp ****     // DMA 模式下，如果 rx_pack_size 设置较大（如 256 字节），
 557:Lib/serial/serial.cpp ****     // DMA 会分两次传输：前半部 → RxEventCallback → 后半部 → RxEventCallback
 558:Lib/serial/serial.cpp ****     // 这里跳过前半部，只在后半部（完整包）时处理
 559:Lib/serial/serial.cpp ****     if (_config.rx_mode == Serial_Mode::DMA)
 1484              		.loc 1 559 5 view .LVU409
 1485              		.loc 1 559 17 is_stmt 0 view .LVU410
 1486 04b6 7633     		adds	r3, r3, #118
 1487 04b8 C35C     		ldrb	r3, [r0, r3]
 1488              		.loc 1 559 5 view .LVU411
 1489 04ba 022B     		cmp	r3, #2
 1490 04bc 07D1     		bne	.L84
 560:Lib/serial/serial.cpp ****     {
 561:Lib/serial/serial.cpp ****         // _uart->RxXferSize 是配置的 DMA 传输总大小
 562:Lib/serial/serial.cpp ****         // 如果 size = 总大小/2 且 _half_cplt = false，说明是前半部
 563:Lib/serial/serial.cpp ****         if (size == _uart->RxXferSize / 2 && _half_cplt == false)
 1491              		.loc 1 563 9 is_stmt 1 view .LVU412
 1492              		.loc 1 563 21 is_stmt 0 view .LVU413
 1493 04be 4269     		ldr	r2, [r0, #20]
 1494              		.loc 1 563 28 view .LVU414
 1495 04c0 5A33     		adds	r3, r3, #90
 1496 04c2 D35A     		ldrh	r3, [r2, r3]
 1497              		.loc 1 563 39 view .LVU415
 1498 04c4 5B08     		lsrs	r3, r3, #1
 1499              		.loc 1 563 9 view .LVU416
 1500 04c6 8B42     		cmp	r3, r1
ARM GAS  /tmp/ccUDp7dI.s 			page 40


 1501 04c8 2FD0     		beq	.L89
 1502              	.L85:
 564:Lib/serial/serial.cpp ****         {
 565:Lib/serial/serial.cpp ****             _half_cplt = true;   // 标记已收到前半部
 566:Lib/serial/serial.cpp ****             return;              // 跳过，等待后半部
 567:Lib/serial/serial.cpp ****         }
 568:Lib/serial/serial.cpp ****         _half_cplt = false;      // 收到后半部，重置标志
 1503              		.loc 1 568 9 is_stmt 1 view .LVU417
 1504              		.loc 1 568 20 is_stmt 0 view .LVU418
 1505 04ca 0023     		movs	r3, #0
 1506 04cc A374     		strb	r3, [r4, #18]
 1507              	.L84:
 569:Lib/serial/serial.cpp ****     }
 570:Lib/serial/serial.cpp **** 
 571:Lib/serial/serial.cpp ****     // -------------------- 更新统计信息 --------------------
 572:Lib/serial/serial.cpp ****     _update_info(size, 0);  // 本次收到 size 字节
 1508              		.loc 1 572 5 is_stmt 1 view .LVU419
 1509              		.loc 1 572 17 is_stmt 0 view .LVU420
 1510 04ce 29B2     		sxth	r1, r5
 1511              	.LVL144:
 1512              		.loc 1 572 17 view .LVU421
 1513 04d0 0022     		movs	r2, #0
 1514 04d2 2000     		movs	r0, r4
 1515              	.LVL145:
 1516              		.loc 1 572 17 view .LVU422
 1517 04d4 FFF7FEFF 		bl	_ZN6Serial12_update_infoEss
 1518              	.LVL146:
 573:Lib/serial/serial.cpp **** 
 574:Lib/serial/serial.cpp ****     // -------------------- 获取时间戳 --------------------
 575:Lib/serial/serial.cpp ****     // 使用 HAL_System 的毫秒计时器记录收到数据的时间
 576:Lib/serial/serial.cpp ****     rx_pack.tick = HAL_System::get_tick_ms();
 1519              		.loc 1 576 5 is_stmt 1 view .LVU423
 1520              		.loc 1 576 43 is_stmt 0 view .LVU424
 1521 04d8 FFF7FEFF 		bl	_ZN10HAL_System11get_tick_msEv
 1522              	.LVL147:
 1523              		.loc 1 576 18 discriminator 1 view .LVU425
 1524 04dc 6A46     		mov	r2, sp
 1525 04de 0290     		str	r0, [sp, #8]
 577:Lib/serial/serial.cpp **** 
 578:Lib/serial/serial.cpp ****     // -------------------- 更新缓冲区状态 --------------------
 579:Lib/serial/serial.cpp ****     // 数据已复制到 _rx_buf.pData 指向的位置
 580:Lib/serial/serial.cpp ****     _rx_buf.index += size;       // 缓冲区已用长度增加
 1526              		.loc 1 580 5 is_stmt 1 view .LVU426
 1527              		.loc 1 580 13 is_stmt 0 view .LVU427
 1528 04e0 A38C     		ldrh	r3, [r4, #36]
 1529              		.loc 1 580 19 view .LVU428
 1530 04e2 5B19     		adds	r3, r3, r5
 1531 04e4 9BB2     		uxth	r3, r3
 1532 04e6 A384     		strh	r3, [r4, #36]
 581:Lib/serial/serial.cpp ****     rx_pack.pData = _rx_buf.pData;  // 数据包指向缓冲区
 1533              		.loc 1 581 5 is_stmt 1 view .LVU429
 1534              		.loc 1 581 29 is_stmt 0 view .LVU430
 1535 04e8 216A     		ldr	r1, [r4, #32]
 1536              		.loc 1 581 19 view .LVU431
 1537 04ea 0091     		str	r1, [sp]
 582:Lib/serial/serial.cpp ****     rx_pack.size = size;           // 记录数据长度
 1538              		.loc 1 582 5 is_stmt 1 view .LVU432
ARM GAS  /tmp/ccUDp7dI.s 			page 41


 1539              		.loc 1 582 18 is_stmt 0 view .LVU433
 1540 04ec 9580     		strh	r5, [r2, #4]
 583:Lib/serial/serial.cpp **** 
 584:Lib/serial/serial.cpp ****     // -------------------- 环形缓冲区指针回绕 --------------------
 585:Lib/serial/serial.cpp ****     // 如果剩余空间不足一个最大数据包，将指针回到缓冲区开头
 586:Lib/serial/serial.cpp ****     // 实现环形缓冲区的效果
 587:Lib/serial/serial.cpp ****     if (_rx_buf.size - _rx_buf.index < _config.rx_pack_size)
 1541              		.loc 1 587 5 is_stmt 1 view .LVU434
 1542              		.loc 1 587 17 is_stmt 0 view .LVU435
 1543 04ee A28B     		ldrh	r2, [r4, #28]
 1544              		.loc 1 587 22 view .LVU436
 1545 04f0 D31A     		subs	r3, r2, r3
 1546              		.loc 1 587 48 view .LVU437
 1547 04f2 7C22     		movs	r2, #124
 1548 04f4 A25A     		ldrh	r2, [r4, r2]
 1549              		.loc 1 587 5 view .LVU438
 1550 04f6 9342     		cmp	r3, r2
 1551 04f8 01DA     		bge	.L87
 588:Lib/serial/serial.cpp ****     {
 589:Lib/serial/serial.cpp ****         _rx_buf.index = 0;  // 回绕到开头
 1552              		.loc 1 589 9 is_stmt 1 view .LVU439
 1553              		.loc 1 589 23 is_stmt 0 view .LVU440
 1554 04fa 0023     		movs	r3, #0
 1555 04fc A384     		strh	r3, [r4, #36]
 1556              	.L87:
 590:Lib/serial/serial.cpp ****     }
 591:Lib/serial/serial.cpp ****     _rx_buf.pData = _rx_buf.pBuffer + _rx_buf.index;  // 更新下次写入位置
 1557              		.loc 1 591 5 is_stmt 1 view .LVU441
 1558              		.loc 1 591 29 is_stmt 0 view .LVU442
 1559 04fe A369     		ldr	r3, [r4, #24]
 1560              		.loc 1 591 47 view .LVU443
 1561 0500 A28C     		ldrh	r2, [r4, #36]
 1562              		.loc 1 591 37 view .LVU444
 1563 0502 9B18     		adds	r3, r3, r2
 1564              		.loc 1 591 19 view .LVU445
 1565 0504 2362     		str	r3, [r4, #32]
 592:Lib/serial/serial.cpp **** 
 593:Lib/serial/serial.cpp ****     // -------------------- 重新开启接收 --------------------
 594:Lib/serial/serial.cpp ****     // 接收完一包后，重新启动 DMA/IT，准备下一包
 595:Lib/serial/serial.cpp ****     _rx_irq_start();
 1566              		.loc 1 595 5 is_stmt 1 view .LVU446
 1567              		.loc 1 595 18 is_stmt 0 view .LVU447
 1568 0506 2000     		movs	r0, r4
 1569 0508 FFF7FEFF 		bl	_ZN6Serial13_rx_irq_startEv
 1570              	.LVL148:
 596:Lib/serial/serial.cpp **** 
 597:Lib/serial/serial.cpp ****     // -------------------- 放入接收队列 --------------------
 598:Lib/serial/serial.cpp ****     // xQueueSendFromISR：将数据包放入队列，通知 _rx_task 处理
 599:Lib/serial/serial.cpp ****     // 第二个参数是要发送的数据，第三个参数用于返回是否需要任务切换
 600:Lib/serial/serial.cpp ****     xQueueSendFromISR(_rx_queue, &rx_pack, &pxHigherPriorityTaskWoken);
 1571              		.loc 1 600 5 is_stmt 1 view .LVU448
 1572 050c A06B     		ldr	r0, [r4, #56]
 1573 050e 0023     		movs	r3, #0
 1574 0510 03AA     		add	r2, sp, #12
 1575 0512 6946     		mov	r1, sp
 1576 0514 FFF7FEFF 		bl	xQueueGenericSendFromISR
 1577              	.LVL149:
ARM GAS  /tmp/ccUDp7dI.s 			page 42


 601:Lib/serial/serial.cpp **** 
 602:Lib/serial/serial.cpp ****     // -------------------- 触发任务切换（如有必要） --------------------
 603:Lib/serial/serial.cpp ****     // 如果放入队列后，有更高优先级的任务等待执行，触发调度
 604:Lib/serial/serial.cpp ****     portYIELD_FROM_ISR(pxHigherPriorityTaskWoken);
 1578              		.loc 1 604 5 view .LVU449
 1579 0518 039B     		ldr	r3, [sp, #12]
 1580 051a 002B     		cmp	r3, #0
 1581 051c 03D0     		beq	.L83
 1582              		.loc 1 604 5 discriminator 1 view .LVU450
 1583 051e 064B     		ldr	r3, .L90
 1584 0520 8022     		movs	r2, #128
 1585 0522 5205     		lsls	r2, r2, #21
 1586 0524 1A60     		str	r2, [r3]
 1587              	.L83:
 605:Lib/serial/serial.cpp **** }
 1588              		.loc 1 605 1 is_stmt 0 view .LVU451
 1589 0526 05B0     		add	sp, sp, #20
 1590              		@ sp needed
 1591              	.LVL150:
 1592              	.LVL151:
 1593              		.loc 1 605 1 view .LVU452
 1594 0528 30BD     		pop	{r4, r5, pc}
 1595              	.LVL152:
 1596              	.L89:
 563:Lib/serial/serial.cpp ****         {
 1597              		.loc 1 563 46 discriminator 1 view .LVU453
 1598 052a 837C     		ldrb	r3, [r0, #18]
 563:Lib/serial/serial.cpp ****         {
 1599              		.loc 1 563 43 discriminator 1 view .LVU454
 1600 052c 002B     		cmp	r3, #0
 1601 052e CCD1     		bne	.L85
 565:Lib/serial/serial.cpp ****             return;              // 跳过，等待后半部
 1602              		.loc 1 565 13 is_stmt 1 view .LVU455
 565:Lib/serial/serial.cpp ****             return;              // 跳过，等待后半部
 1603              		.loc 1 565 24 is_stmt 0 view .LVU456
 1604 0530 0133     		adds	r3, r3, #1
 1605 0532 8374     		strb	r3, [r0, #18]
 566:Lib/serial/serial.cpp ****         }
 1606              		.loc 1 566 13 is_stmt 1 view .LVU457
 1607 0534 F7E7     		b	.L83
 1608              	.L91:
 1609 0536 C046     		.align	2
 1610              	.L90:
 1611 0538 04ED00E0 		.word	-536810236
 1612              		.cfi_endproc
 1613              	.LFE490:
 1615              		.align	1
 1616              		.syntax unified
 1617              		.code	16
 1618              		.thumb_func
 1620              	_ZZN6Serial14_init_callbackEvENKUlP20__UART_HandleTypeDeftE_clES1_t:
 1621              	.LVL153:
 1622              	.LFB476:
 326:Lib/serial/serial.cpp ****     {
 1623              		.loc 1 326 38 view -0
 1624              		.cfi_startproc
 1625              		@ args = 0, pretend = 0, frame = 0
ARM GAS  /tmp/ccUDp7dI.s 			page 43


 1626              		@ frame_needed = 0, uses_anonymous_args = 0
 326:Lib/serial/serial.cpp ****     {
 1627              		.loc 1 326 38 is_stmt 0 view .LVU459
 1628 053c 10B5     		push	{r4, lr}
 1629              		.cfi_def_cfa_offset 8
 1630              		.cfi_offset 4, -8
 1631              		.cfi_offset 14, -4
 1632 053e 0800     		movs	r0, r1
 1633              	.LVL154:
 326:Lib/serial/serial.cpp ****     {
 1634              		.loc 1 326 38 view .LVU460
 1635 0540 1400     		movs	r4, r2
 1636              	.LBB19:
 329:Lib/serial/serial.cpp ****         if (sr != NULL)
 1637              		.loc 1 329 9 is_stmt 1 view .LVU461
 329:Lib/serial/serial.cpp ****         if (sr != NULL)
 1638              		.loc 1 329 40 is_stmt 0 view .LVU462
 1639 0542 FFF7FEFF 		bl	_ZN6Serial10get_serialEP20__UART_HandleTypeDef
 1640              	.LVL155:
 330:Lib/serial/serial.cpp ****             sr->_rx_callback(size);  // 调用成员函数处理接收数据
 1641              		.loc 1 330 9 is_stmt 1 view .LVU463
 1642 0546 0028     		cmp	r0, #0
 1643 0548 02D0     		beq	.L92
 331:Lib/serial/serial.cpp ****         else
 1644              		.loc 1 331 13 view .LVU464
 331:Lib/serial/serial.cpp ****         else
 1645              		.loc 1 331 29 is_stmt 0 view .LVU465
 1646 054a 2100     		movs	r1, r4
 1647 054c FFF7FEFF 		bl	_ZN6Serial12_rx_callbackEt
 1648              	.LVL156:
 1649              	.L92:
 331:Lib/serial/serial.cpp ****         else
 1650              		.loc 1 331 29 view .LVU466
 1651              	.LBE19:
 334:Lib/serial/serial.cpp ****     // 向 HAL 库注册接收回调
 1652              		.loc 1 334 5 view .LVU467
 1653              		@ sp needed
 1654              	.LVL157:
 334:Lib/serial/serial.cpp ****     // 向 HAL 库注册接收回调
 1655              		.loc 1 334 5 view .LVU468
 1656 0550 10BD     		pop	{r4, pc}
 1657              		.cfi_endproc
 1658              	.LFE476:
 1660              		.align	1
 1661              		.syntax unified
 1662              		.code	16
 1663              		.thumb_func
 1665              	_ZZN6Serial14_init_callbackEvENUlP20__UART_HandleTypeDeftE_4_FUNES1_t:
 1666              	.LFB477:
 326:Lib/serial/serial.cpp ****     {
 1667              		.loc 1 326 38 is_stmt 1 view -0
 1668              		.cfi_startproc
 1669              		@ args = 0, pretend = 0, frame = 0
 1670              		@ frame_needed = 0, uses_anonymous_args = 0
 1671 0552 10B5     		push	{r4, lr}
 1672              		.cfi_def_cfa_offset 8
 1673              		.cfi_offset 4, -8
ARM GAS  /tmp/ccUDp7dI.s 			page 44


 1674              		.cfi_offset 14, -4
 1675 0554 0A00     		movs	r2, r1
 334:Lib/serial/serial.cpp ****     // 向 HAL 库注册接收回调
 1676              		.loc 1 334 5 is_stmt 0 view .LVU470
 1677 0556 0100     		movs	r1, r0
 1678 0558 0020     		movs	r0, #0
 1679 055a FFF7EFFF 		bl	_ZZN6Serial14_init_callbackEvENKUlP20__UART_HandleTypeDeftE_clES1_t
 1680              	.LVL158:
 1681              		@ sp needed
 1682 055e 10BD     		pop	{r4, pc}
 1683              		.cfi_endproc
 1684              	.LFE477:
 1686              		.align	1
 1687              		.global	_ZN6Serial12_tx_callbackEv
 1688              		.syntax unified
 1689              		.code	16
 1690              		.thumb_func
 1692              	_ZN6Serial12_tx_callbackEv:
 1693              	.LVL159:
 1694              	.LFB491:
 606:Lib/serial/serial.cpp **** 
 607:Lib/serial/serial.cpp **** // ============================================================
 608:Lib/serial/serial.cpp **** // _tx_callback - UART 发送完成回调（由 HAL 库调用）
 609:Lib/serial/serial.cpp **** // 说明：
 610:Lib/serial/serial.cpp **** //   - 通知 _tx_task 可以发送下一包数据
 611:Lib/serial/serial.cpp **** //   - 释放 _tx_src_sem 信号量（发送硬件资源）
 612:Lib/serial/serial.cpp **** // ============================================================
 613:Lib/serial/serial.cpp **** void Serial::_tx_callback(void)
 614:Lib/serial/serial.cpp **** {
 1695              		.loc 1 614 1 is_stmt 1 view -0
 1696              		.cfi_startproc
 1697              		@ args = 0, pretend = 0, frame = 8
 1698              		@ frame_needed = 0, uses_anonymous_args = 0
 1699              		.loc 1 614 1 is_stmt 0 view .LVU472
 1700 0560 10B5     		push	{r4, lr}
 1701              		.cfi_def_cfa_offset 8
 1702              		.cfi_offset 4, -8
 1703              		.cfi_offset 14, -4
 1704 0562 82B0     		sub	sp, sp, #8
 1705              		.cfi_def_cfa_offset 16
 1706 0564 0400     		movs	r4, r0
 615:Lib/serial/serial.cpp ****     // -------------------- 更新统计信息 --------------------
 616:Lib/serial/serial.cpp ****     // 发送 size 字节（取负表示已完成）
 617:Lib/serial/serial.cpp ****     _update_info(0, -(int16_t)_uart->TxXferSize);
 1707              		.loc 1 617 5 is_stmt 1 view .LVU473
 1708              		.loc 1 617 31 is_stmt 0 view .LVU474
 1709 0566 4269     		ldr	r2, [r0, #20]
 1710              		.loc 1 617 38 view .LVU475
 1711 0568 5423     		movs	r3, #84
 1712 056a D25A     		ldrh	r2, [r2, r3]
 1713              		.loc 1 617 17 view .LVU476
 1714 056c 5242     		rsbs	r2, r2, #0
 1715 056e 12B2     		sxth	r2, r2
 1716 0570 0021     		movs	r1, #0
 1717 0572 FFF7FEFF 		bl	_ZN6Serial12_update_infoEss
 1718              	.LVL160:
 618:Lib/serial/serial.cpp **** 
ARM GAS  /tmp/ccUDp7dI.s 			page 45


 619:Lib/serial/serial.cpp ****     // -------------------- 释放发送信号量 --------------------
 620:Lib/serial/serial.cpp ****     // 发送完成，UART 硬件资源可用，释放信号量
 621:Lib/serial/serial.cpp ****     // _tx_task 会等待此信号量，收到后才发下一包
 622:Lib/serial/serial.cpp ****     BaseType_t pxHigherPriorityTaskWoken = pdFALSE;
 1719              		.loc 1 622 5 is_stmt 1 view .LVU477
 1720              		.loc 1 622 16 is_stmt 0 view .LVU478
 1721 0576 0023     		movs	r3, #0
 1722 0578 0193     		str	r3, [sp, #4]
 623:Lib/serial/serial.cpp ****     xSemaphoreGiveFromISR(_tx_src_sem, &pxHigherPriorityTaskWoken);
 1723              		.loc 1 623 5 is_stmt 1 view .LVU479
 1724 057a 206C     		ldr	r0, [r4, #64]
 1725 057c 01A9     		add	r1, sp, #4
 1726 057e FFF7FEFF 		bl	xQueueGiveFromISR
 1727              	.LVL161:
 624:Lib/serial/serial.cpp **** 
 625:Lib/serial/serial.cpp ****     // 触发任务切换
 626:Lib/serial/serial.cpp ****     portYIELD_FROM_ISR(pxHigherPriorityTaskWoken);
 1728              		.loc 1 626 5 view .LVU480
 1729 0582 019B     		ldr	r3, [sp, #4]
 1730 0584 002B     		cmp	r3, #0
 1731 0586 03D0     		beq	.L95
 1732              		.loc 1 626 5 discriminator 1 view .LVU481
 1733 0588 024B     		ldr	r3, .L97
 1734 058a 8022     		movs	r2, #128
 1735 058c 5205     		lsls	r2, r2, #21
 1736 058e 1A60     		str	r2, [r3]
 1737              	.L95:
 627:Lib/serial/serial.cpp **** }
 1738              		.loc 1 627 1 is_stmt 0 view .LVU482
 1739 0590 02B0     		add	sp, sp, #8
 1740              		@ sp needed
 1741              	.LVL162:
 1742              		.loc 1 627 1 view .LVU483
 1743 0592 10BD     		pop	{r4, pc}
 1744              	.L98:
 1745              		.align	2
 1746              	.L97:
 1747 0594 04ED00E0 		.word	-536810236
 1748              		.cfi_endproc
 1749              	.LFE491:
 1751              		.align	1
 1752              		.syntax unified
 1753              		.code	16
 1754              		.thumb_func
 1756              	_ZZN6Serial14_init_callbackEvENKUlP20__UART_HandleTypeDefE_clES1_:
 1757              	.LVL163:
 1758              	.LFB479:
 340:Lib/serial/serial.cpp ****     {
 1759              		.loc 1 340 38 is_stmt 1 view -0
 1760              		.cfi_startproc
 1761              		@ args = 0, pretend = 0, frame = 0
 1762              		@ frame_needed = 0, uses_anonymous_args = 0
 340:Lib/serial/serial.cpp ****     {
 1763              		.loc 1 340 38 is_stmt 0 view .LVU485
 1764 0598 10B5     		push	{r4, lr}
 1765              		.cfi_def_cfa_offset 8
 1766              		.cfi_offset 4, -8
ARM GAS  /tmp/ccUDp7dI.s 			page 46


 1767              		.cfi_offset 14, -4
 1768 059a 0800     		movs	r0, r1
 1769              	.LVL164:
 1770              	.LBB20:
 342:Lib/serial/serial.cpp ****         if (sr != NULL)
 1771              		.loc 1 342 9 is_stmt 1 view .LVU486
 342:Lib/serial/serial.cpp ****         if (sr != NULL)
 1772              		.loc 1 342 40 is_stmt 0 view .LVU487
 1773 059c FFF7FEFF 		bl	_ZN6Serial10get_serialEP20__UART_HandleTypeDef
 1774              	.LVL165:
 343:Lib/serial/serial.cpp ****             sr->_tx_callback();  // 通知发送任务数据已发送完毕
 1775              		.loc 1 343 9 is_stmt 1 view .LVU488
 1776 05a0 0028     		cmp	r0, #0
 1777 05a2 01D0     		beq	.L99
 344:Lib/serial/serial.cpp ****         else
 1778              		.loc 1 344 13 view .LVU489
 344:Lib/serial/serial.cpp ****         else
 1779              		.loc 1 344 29 is_stmt 0 view .LVU490
 1780 05a4 FFF7FEFF 		bl	_ZN6Serial12_tx_callbackEv
 1781              	.LVL166:
 1782              	.L99:
 344:Lib/serial/serial.cpp ****         else
 1783              		.loc 1 344 29 view .LVU491
 1784              	.LBE20:
 347:Lib/serial/serial.cpp ****     // 注册发送完成回调，HAL_UART_TX_COMPLETE_CB_ID 指定回调类型
 1785              		.loc 1 347 5 view .LVU492
 1786              		@ sp needed
 1787 05a8 10BD     		pop	{r4, pc}
 1788              		.cfi_endproc
 1789              	.LFE479:
 1791              		.align	1
 1792              		.syntax unified
 1793              		.code	16
 1794              		.thumb_func
 1796              	_ZZN6Serial14_init_callbackEvENUlP20__UART_HandleTypeDefE_4_FUNES1_:
 1797              	.LFB480:
 340:Lib/serial/serial.cpp ****     {
 1798              		.loc 1 340 38 is_stmt 1 view -0
 1799              		.cfi_startproc
 1800              		@ args = 0, pretend = 0, frame = 0
 1801              		@ frame_needed = 0, uses_anonymous_args = 0
 1802 05aa 10B5     		push	{r4, lr}
 1803              		.cfi_def_cfa_offset 8
 1804              		.cfi_offset 4, -8
 1805              		.cfi_offset 14, -4
 1806 05ac 0100     		movs	r1, r0
 347:Lib/serial/serial.cpp ****     // 注册发送完成回调，HAL_UART_TX_COMPLETE_CB_ID 指定回调类型
 1807              		.loc 1 347 5 is_stmt 0 view .LVU494
 1808 05ae 0020     		movs	r0, #0
 1809 05b0 FFF7F2FF 		bl	_ZZN6Serial14_init_callbackEvENKUlP20__UART_HandleTypeDefE_clES1_
 1810              	.LVL167:
 1811              		@ sp needed
 1812 05b4 10BD     		pop	{r4, pc}
 1813              		.cfi_endproc
 1814              	.LFE480:
 1816              		.align	1
 1817              		.global	_ZN6Serial15_error_callbackEv
ARM GAS  /tmp/ccUDp7dI.s 			page 47


 1818              		.syntax unified
 1819              		.code	16
 1820              		.thumb_func
 1822              	_ZN6Serial15_error_callbackEv:
 1823              	.LVL168:
 1824              	.LFB492:
 628:Lib/serial/serial.cpp **** 
 629:Lib/serial/serial.cpp **** // ============================================================
 630:Lib/serial/serial.cpp **** // _error_callback - UART 错误回调（由 HAL 库调用）
 631:Lib/serial/serial.cpp **** // 说明：处理噪声错误、帧错误等，清除标志并重启接收
 632:Lib/serial/serial.cpp **** // ============================================================
 633:Lib/serial/serial.cpp **** void Serial::_error_callback(void)
 634:Lib/serial/serial.cpp **** {
 1825              		.loc 1 634 1 is_stmt 1 view -0
 1826              		.cfi_startproc
 1827              		@ args = 0, pretend = 0, frame = 0
 1828              		@ frame_needed = 0, uses_anonymous_args = 0
 1829              		.loc 1 634 1 is_stmt 0 view .LVU496
 1830 05b6 10B5     		push	{r4, lr}
 1831              		.cfi_def_cfa_offset 8
 1832              		.cfi_offset 4, -8
 1833              		.cfi_offset 14, -4
 635:Lib/serial/serial.cpp ****     // -------------------- 清除错误标志 --------------------
 636:Lib/serial/serial.cpp ****     if (_uart->ErrorCode != HAL_UART_ERROR_NONE)
 1834              		.loc 1 636 5 is_stmt 1 view .LVU497
 1835              		.loc 1 636 9 is_stmt 0 view .LVU498
 1836 05b8 4369     		ldr	r3, [r0, #20]
 1837              		.loc 1 636 16 view .LVU499
 1838 05ba 9022     		movs	r2, #144
 1839 05bc 9A58     		ldr	r2, [r3, r2]
 1840              		.loc 1 636 5 view .LVU500
 1841 05be 002A     		cmp	r2, #0
 1842 05c0 0CD0     		beq	.L103
 637:Lib/serial/serial.cpp ****     {
 638:Lib/serial/serial.cpp ****         // 噪声错误（Noise Error）：接收到噪声
 639:Lib/serial/serial.cpp ****         if (__HAL_UART_GET_FLAG(_uart, UART_FLAG_NE))
 1843              		.loc 1 639 9 is_stmt 1 view .LVU501
 1844              		.loc 1 639 13 is_stmt 0 view .LVU502
 1845 05c2 1A68     		ldr	r2, [r3]
 1846 05c4 D369     		ldr	r3, [r2, #28]
 1847              		.loc 1 639 9 view .LVU503
 1848 05c6 5B07     		lsls	r3, r3, #29
 1849 05c8 01D5     		bpl	.L104
 640:Lib/serial/serial.cpp ****         {
 641:Lib/serial/serial.cpp ****             __HAL_UART_CLEAR_NEFLAG(_uart);  // 清除噪声错误标志
 1850              		.loc 1 641 13 is_stmt 1 view .LVU504
 1851 05ca 0423     		movs	r3, #4
 1852 05cc 1362     		str	r3, [r2, #32]
 1853              	.L104:
 642:Lib/serial/serial.cpp ****         }
 643:Lib/serial/serial.cpp **** 
 644:Lib/serial/serial.cpp ****         // 帧错误（Framing Error）：停止位不对
 645:Lib/serial/serial.cpp ****         if (__HAL_UART_GET_FLAG(_uart, UART_FLAG_FE))
 1854              		.loc 1 645 9 view .LVU505
 1855              		.loc 1 645 13 is_stmt 0 view .LVU506
 1856 05ce 4369     		ldr	r3, [r0, #20]
 1857 05d0 1A68     		ldr	r2, [r3]
ARM GAS  /tmp/ccUDp7dI.s 			page 48


 1858 05d2 D369     		ldr	r3, [r2, #28]
 1859              		.loc 1 645 9 view .LVU507
 1860 05d4 9B07     		lsls	r3, r3, #30
 1861 05d6 01D5     		bpl	.L103
 646:Lib/serial/serial.cpp ****         {
 647:Lib/serial/serial.cpp ****             __HAL_UART_CLEAR_FEFLAG(_uart);  // 清除帧错误标志
 1862              		.loc 1 647 13 is_stmt 1 view .LVU508
 1863 05d8 0223     		movs	r3, #2
 1864 05da 1362     		str	r3, [r2, #32]
 1865              	.L103:
 648:Lib/serial/serial.cpp ****         }
 649:Lib/serial/serial.cpp ****     }
 650:Lib/serial/serial.cpp **** 
 651:Lib/serial/serial.cpp ****     // -------------------- 重新开启接收 --------------------
 652:Lib/serial/serial.cpp ****     // 发生错误后，DMA/IT 可能已停止，需要重新启动
 653:Lib/serial/serial.cpp ****     _rx_irq_start();
 1866              		.loc 1 653 5 view .LVU509
 1867              		.loc 1 653 18 is_stmt 0 view .LVU510
 1868 05dc FFF7FEFF 		bl	_ZN6Serial13_rx_irq_startEv
 1869              	.LVL169:
 654:Lib/serial/serial.cpp **** }
 1870              		.loc 1 654 1 view .LVU511
 1871              		@ sp needed
 1872 05e0 10BD     		pop	{r4, pc}
 1873              		.cfi_endproc
 1874              	.LFE492:
 1876              		.align	1
 1877              		.syntax unified
 1878              		.code	16
 1879              		.thumb_func
 1881              	_ZZN6Serial14_init_callbackEvENKUlP20__UART_HandleTypeDefE0_clES1_:
 1882              	.LVL170:
 1883              	.LFB482:
 353:Lib/serial/serial.cpp ****     {
 1884              		.loc 1 353 41 is_stmt 1 view -0
 1885              		.cfi_startproc
 1886              		@ args = 0, pretend = 0, frame = 0
 1887              		@ frame_needed = 0, uses_anonymous_args = 0
 353:Lib/serial/serial.cpp ****     {
 1888              		.loc 1 353 41 is_stmt 0 view .LVU513
 1889 05e2 10B5     		push	{r4, lr}
 1890              		.cfi_def_cfa_offset 8
 1891              		.cfi_offset 4, -8
 1892              		.cfi_offset 14, -4
 1893 05e4 0800     		movs	r0, r1
 1894              	.LVL171:
 1895              	.LBB21:
 355:Lib/serial/serial.cpp ****         if (sr != NULL)
 1896              		.loc 1 355 9 is_stmt 1 view .LVU514
 355:Lib/serial/serial.cpp ****         if (sr != NULL)
 1897              		.loc 1 355 40 is_stmt 0 view .LVU515
 1898 05e6 FFF7FEFF 		bl	_ZN6Serial10get_serialEP20__UART_HandleTypeDef
 1899              	.LVL172:
 356:Lib/serial/serial.cpp ****             sr->_error_callback();  // 清除错误标志并重启接收
 1900              		.loc 1 356 9 is_stmt 1 view .LVU516
 1901 05ea 0028     		cmp	r0, #0
 1902 05ec 01D0     		beq	.L107
ARM GAS  /tmp/ccUDp7dI.s 			page 49


 357:Lib/serial/serial.cpp ****         else
 1903              		.loc 1 357 13 view .LVU517
 357:Lib/serial/serial.cpp ****         else
 1904              		.loc 1 357 32 is_stmt 0 view .LVU518
 1905 05ee FFF7FEFF 		bl	_ZN6Serial15_error_callbackEv
 1906              	.LVL173:
 1907              	.L107:
 357:Lib/serial/serial.cpp ****         else
 1908              		.loc 1 357 32 view .LVU519
 1909              	.LBE21:
 360:Lib/serial/serial.cpp ****     status |= HAL_UART_RegisterCallback(_uart, HAL_UART_ERROR_CB_ID, error_callback_lambda);
 1910              		.loc 1 360 5 view .LVU520
 1911              		@ sp needed
 1912 05f2 10BD     		pop	{r4, pc}
 1913              		.cfi_endproc
 1914              	.LFE482:
 1916              		.align	1
 1917              		.syntax unified
 1918              		.code	16
 1919              		.thumb_func
 1921              	_ZZN6Serial14_init_callbackEvENUlP20__UART_HandleTypeDefE0_4_FUNES1_:
 1922              	.LFB483:
 353:Lib/serial/serial.cpp ****     {
 1923              		.loc 1 353 41 is_stmt 1 view -0
 1924              		.cfi_startproc
 1925              		@ args = 0, pretend = 0, frame = 0
 1926              		@ frame_needed = 0, uses_anonymous_args = 0
 1927 05f4 10B5     		push	{r4, lr}
 1928              		.cfi_def_cfa_offset 8
 1929              		.cfi_offset 4, -8
 1930              		.cfi_offset 14, -4
 1931 05f6 0100     		movs	r1, r0
 360:Lib/serial/serial.cpp ****     status |= HAL_UART_RegisterCallback(_uart, HAL_UART_ERROR_CB_ID, error_callback_lambda);
 1932              		.loc 1 360 5 is_stmt 0 view .LVU522
 1933 05f8 0020     		movs	r0, #0
 1934 05fa FFF7F2FF 		bl	_ZZN6Serial14_init_callbackEvENKUlP20__UART_HandleTypeDefE0_clES1_
 1935              	.LVL174:
 1936              		@ sp needed
 1937 05fe 10BD     		pop	{r4, pc}
 1938              		.cfi_endproc
 1939              	.LFE483:
 1941              		.align	1
 1942              		.global	_ZN6Serial9send_dataEP12__DataPack_tb
 1943              		.syntax unified
 1944              		.code	16
 1945              		.thumb_func
 1947              	_ZN6Serial9send_dataEP12__DataPack_tb:
 1948              	.LVL175:
 1949              	.LFB493:
 655:Lib/serial/serial.cpp **** 
 656:Lib/serial/serial.cpp **** // ============================================================
 657:Lib/serial/serial.cpp **** // send_data - 发送数据（任务安全版本）
 658:Lib/serial/serial.cpp **** // 参数：
 659:Lib/serial/serial.cpp **** //   pack - 数据包指针（包含数据地址、大小、时间戳）
 660:Lib/serial/serial.cpp **** //   auto_gen_tick - 是否自动生成时间戳
 661:Lib/serial/serial.cpp **** // 返回：true 成功，false 失败
 662:Lib/serial/serial.cpp **** // 说明：
ARM GAS  /tmp/ccUDp7dI.s 			page 50


 663:Lib/serial/serial.cpp **** //   - 线程安全，可在任意任务中调用
 664:Lib/serial/serial.cpp **** //   - 内部使用信号量保护发送资源
 665:Lib/serial/serial.cpp **** //   - 如果发送忙碌会等待，最多等待 100 次 × 1ms
 666:Lib/serial/serial.cpp **** // ============================================================
 667:Lib/serial/serial.cpp **** bool Serial::send_data(DataPack_t *pack, bool auto_gen_tick)
 668:Lib/serial/serial.cpp **** {
 1950              		.loc 1 668 1 is_stmt 1 view -0
 1951              		.cfi_startproc
 1952              		@ args = 0, pretend = 0, frame = 24
 1953              		@ frame_needed = 0, uses_anonymous_args = 0
 1954              		.loc 1 668 1 is_stmt 0 view .LVU524
 1955 0600 F0B5     		push	{r4, r5, r6, r7, lr}
 1956              		.cfi_def_cfa_offset 20
 1957              		.cfi_offset 4, -20
 1958              		.cfi_offset 5, -16
 1959              		.cfi_offset 6, -12
 1960              		.cfi_offset 7, -8
 1961              		.cfi_offset 14, -4
 1962 0602 DE46     		mov	lr, fp
 1963 0604 5746     		mov	r7, r10
 1964 0606 4E46     		mov	r6, r9
 1965 0608 4546     		mov	r5, r8
 1966 060a E0B5     		push	{r5, r6, r7, lr}
 1967              		.cfi_def_cfa_offset 36
 1968              		.cfi_offset 8, -36
 1969              		.cfi_offset 9, -32
 1970              		.cfi_offset 10, -28
 1971              		.cfi_offset 11, -24
 1972 060c 87B0     		sub	sp, sp, #28
 1973              		.cfi_def_cfa_offset 64
 1974 060e 0700     		movs	r7, r0
 1975 0610 0C00     		movs	r4, r1
 1976 0612 1600     		movs	r6, r2
 669:Lib/serial/serial.cpp ****     DataPack_t tx_pack;  // 本地数据包副本
 1977              		.loc 1 669 5 is_stmt 1 view .LVU525
 670:Lib/serial/serial.cpp **** 
 671:Lib/serial/serial.cpp ****     // -------------------- 参数检查 --------------------
 672:Lib/serial/serial.cpp ****     if (pack == NULL || pack->pData == NULL)
 1978              		.loc 1 672 5 view .LVU526
 1979 0614 0029     		cmp	r1, #0
 1980 0616 00D1     		bne	.LCB1649
 1981 0618 99E0     		b	.L116	@long jump
 1982              	.LCB1649:
 1983              		.loc 1 672 31 is_stmt 0 discriminator 1 view .LVU527
 1984 061a 0B68     		ldr	r3, [r1]
 1985              		.loc 1 672 22 discriminator 1 view .LVU528
 1986 061c 002B     		cmp	r3, #0
 1987 061e 00D1     		bne	.LCB1652
 1988 0620 97E0     		b	.L117	@long jump
 1989              	.LCB1652:
 673:Lib/serial/serial.cpp ****         return false;
 674:Lib/serial/serial.cpp **** 
 675:Lib/serial/serial.cpp ****     // -------------------- 就绪状态和大小检查 --------------------
 676:Lib/serial/serial.cpp ****     if (pack->size == 0 || !is_ready())
 1990              		.loc 1 676 5 is_stmt 1 view .LVU529
 1991              		.loc 1 676 15 is_stmt 0 view .LVU530
 1992 0622 8888     		ldrh	r0, [r1, #4]
ARM GAS  /tmp/ccUDp7dI.s 			page 51


 1993              	.LVL176:
 1994              		.loc 1 676 25 view .LVU531
 1995 0624 0028     		cmp	r0, #0
 1996 0626 00D1     		bne	.LCB1657
 1997 0628 95E0     		b	.L118	@long jump
 1998              	.LCB1657:
 1999              	.LVL177:
 2000              	.LBB22:
 2001              	.LBI22:
 2002              		.file 2 "Lib/serial/serial.hpp"
   1:Lib/serial/serial.hpp **** #pragma once
   2:Lib/serial/serial.hpp **** 
   3:Lib/serial/serial.hpp **** #include <stdint.h>
   4:Lib/serial/serial.hpp **** #include <stdarg.h>
   5:Lib/serial/serial.hpp **** 
   6:Lib/serial/serial.hpp **** #include "usart.h"
   7:Lib/serial/serial.hpp **** #if (USE_HAL_UART_REGISTER_CALLBACKS != 1)
   8:Lib/serial/serial.hpp **** #error "请在STM32CubeMX中开启UART的回调函数功能"
   9:Lib/serial/serial.hpp **** #endif
  10:Lib/serial/serial.hpp **** 
  11:Lib/serial/serial.hpp **** #include "cmsis_os2.h"
  12:Lib/serial/serial.hpp **** #include "FreeRTOS.h"
  13:Lib/serial/serial.hpp **** #include "queue.h"
  14:Lib/serial/serial.hpp **** #include "semphr.h"
  15:Lib/serial/serial.hpp **** 
  16:Lib/serial/serial.hpp **** #define SERIAL_NAME_SIZE 16
  17:Lib/serial/serial.hpp **** #define SERIAL_MAX_COUNT 8
  18:Lib/serial/serial.hpp **** #define SERIAL_PRINT_SIZE 200
  19:Lib/serial/serial.hpp **** 
  20:Lib/serial/serial.hpp **** typedef struct __DataPack_t
  21:Lib/serial/serial.hpp **** {
  22:Lib/serial/serial.hpp ****     uint8_t *pData; // 数据包首地址
  23:Lib/serial/serial.hpp ****     uint16_t size;  // 数据包大小
  24:Lib/serial/serial.hpp ****     uint32_t tick;  // 时间戳
  25:Lib/serial/serial.hpp **** } DataPack_t;
  26:Lib/serial/serial.hpp **** 
  27:Lib/serial/serial.hpp **** typedef struct __BufferHandle_t
  28:Lib/serial/serial.hpp **** {
  29:Lib/serial/serial.hpp ****     uint8_t *pBuffer; // 数据缓冲区首地址
  30:Lib/serial/serial.hpp ****     uint16_t size;    // 数据缓冲区最大长度
  31:Lib/serial/serial.hpp ****     uint8_t status;   // 数据缓冲区状态
  32:Lib/serial/serial.hpp ****     uint8_t *pData;   // 已有数据首指针
  33:Lib/serial/serial.hpp ****     uint16_t index;   // 已有数据尾指针索引
  34:Lib/serial/serial.hpp **** } BufferHandle_t;
  35:Lib/serial/serial.hpp **** 
  36:Lib/serial/serial.hpp **** enum class Serial_Mode : uint8_t
  37:Lib/serial/serial.hpp **** {
  38:Lib/serial/serial.hpp ****     None,
  39:Lib/serial/serial.hpp ****     IT,
  40:Lib/serial/serial.hpp ****     DMA
  41:Lib/serial/serial.hpp **** };
  42:Lib/serial/serial.hpp **** 
  43:Lib/serial/serial.hpp **** enum class Serial_Error : uint8_t
  44:Lib/serial/serial.hpp **** {
  45:Lib/serial/serial.hpp ****     None,
  46:Lib/serial/serial.hpp ****     Init_Error,
  47:Lib/serial/serial.hpp ****     Start_Error,
ARM GAS  /tmp/ccUDp7dI.s 			page 52


  48:Lib/serial/serial.hpp ****     RX_Error,
  49:Lib/serial/serial.hpp ****     TX_Error
  50:Lib/serial/serial.hpp **** };
  51:Lib/serial/serial.hpp **** 
  52:Lib/serial/serial.hpp **** 
  53:Lib/serial/serial.hpp **** typedef struct
  54:Lib/serial/serial.hpp **** {
  55:Lib/serial/serial.hpp ****     Serial_Mode rx_mode;   // 接收模式（IT、DMA）
  56:Lib/serial/serial.hpp ****     Serial_Mode tx_mode;   // 发送模式（IT、DMA）
  57:Lib/serial/serial.hpp ****     uint16_t rx_buf_size;  // 接收缓冲区大小
  58:Lib/serial/serial.hpp ****     uint16_t tx_buf_size;  // 发送缓冲区大小
  59:Lib/serial/serial.hpp ****     uint16_t rx_pack_size; // 接收数据包大小
  60:Lib/serial/serial.hpp ****     uint16_t tx_pack_size; // 发送数据包大小
  61:Lib/serial/serial.hpp ****     uint16_t rx_queue_len; // 接收队列长度
  62:Lib/serial/serial.hpp ****     uint16_t tx_queue_len; // 发送队列长度
  63:Lib/serial/serial.hpp **** } Serial_Config;
  64:Lib/serial/serial.hpp **** 
  65:Lib/serial/serial.hpp **** typedef struct
  66:Lib/serial/serial.hpp **** {
  67:Lib/serial/serial.hpp ****     uint16_t error_cnt;          // 串口错误计数
  68:Lib/serial/serial.hpp ****     uint32_t rx_total_size;      // 总接收字节数
  69:Lib/serial/serial.hpp ****     uint32_t tx_total_size;      // 总发送字节数
  70:Lib/serial/serial.hpp ****     uint16_t rx_to_process_size; // 待处理接收字节数
  71:Lib/serial/serial.hpp ****     uint16_t tx_to_process_size; // 待处理发送字节数
  72:Lib/serial/serial.hpp **** } Serial_Info;
  73:Lib/serial/serial.hpp **** 
  74:Lib/serial/serial.hpp **** class Serial;
  75:Lib/serial/serial.hpp **** 
  76:Lib/serial/serial.hpp **** typedef struct
  77:Lib/serial/serial.hpp **** {
  78:Lib/serial/serial.hpp ****     UART_HandleTypeDef *uart;
  79:Lib/serial/serial.hpp ****     Serial *serial;
  80:Lib/serial/serial.hpp **** } Serial_Map;
  81:Lib/serial/serial.hpp **** 
  82:Lib/serial/serial.hpp **** typedef void (*Serial_RX_Msg_Handler)(DataPack_t *pack, Serial *serial, void *args);
  83:Lib/serial/serial.hpp **** 
  84:Lib/serial/serial.hpp **** class Serial
  85:Lib/serial/serial.hpp **** {
  86:Lib/serial/serial.hpp **** private:
  87:Lib/serial/serial.hpp ****     char _name[SERIAL_NAME_SIZE] = "";             // 串口名称
  88:Lib/serial/serial.hpp ****     bool _ready = false;                           // 串口就绪
  89:Lib/serial/serial.hpp ****     Serial_Error _error = Serial_Error::None;      // 串口错误
  90:Lib/serial/serial.hpp ****     bool _half_cplt = false;                       // DMA半传输标志位
  91:Lib/serial/serial.hpp ****     UART_HandleTypeDef *_uart;                     // HAL库串口句柄
  92:Lib/serial/serial.hpp ****     BufferHandle_t _rx_buf;                        // 接收缓冲区
  93:Lib/serial/serial.hpp ****     BufferHandle_t _tx_buf;                        // 发送缓冲区
  94:Lib/serial/serial.hpp ****     QueueHandle_t _rx_queue;                       // 接收队列
  95:Lib/serial/serial.hpp ****     QueueHandle_t _tx_queue;                       // 发送队列
  96:Lib/serial/serial.hpp ****     SemaphoreHandle_t _tx_src_sem;                 // 发送资源占用信号量
  97:Lib/serial/serial.hpp ****     SemaphoreHandle_t _tx_buf_sem;                 // 发送缓冲区读写信号量
  98:Lib/serial/serial.hpp ****     TaskHandle_t _rx_task_handle;                  // 接收任务句柄
  99:Lib/serial/serial.hpp ****     TaskHandle_t _tx_task_handle;                  // 发送任务句柄
 100:Lib/serial/serial.hpp ****     char _rx_task_name[SERIAL_NAME_SIZE + 3] = ""; // 接收任务名称
 101:Lib/serial/serial.hpp ****     char _tx_task_name[SERIAL_NAME_SIZE + 3] = ""; // 发送任务名称
 102:Lib/serial/serial.hpp ****     Serial_Config _config;                         // 串口配置
 103:Lib/serial/serial.hpp ****     Serial_Info _info;                             // 串口信息
 104:Lib/serial/serial.hpp **** 
ARM GAS  /tmp/ccUDp7dI.s 			page 53


 105:Lib/serial/serial.hpp ****     Serial_RX_Msg_Handler _rx_msg_handler = NULL;
 106:Lib/serial/serial.hpp ****     void *_rx_msg_handler_args = NULL;
 107:Lib/serial/serial.hpp **** 
 108:Lib/serial/serial.hpp **** public:
 109:Lib/serial/serial.hpp ****     static Serial *sr_list[SERIAL_MAX_COUNT];
 110:Lib/serial/serial.hpp ****     static uint8_t sr_count;
 111:Lib/serial/serial.hpp **** 
 112:Lib/serial/serial.hpp **** public:
 113:Lib/serial/serial.hpp ****     static Serial *get_serial(UART_HandleTypeDef *uart);
 114:Lib/serial/serial.hpp ****     static bool generate_default_config(Serial_Config *config);
 115:Lib/serial/serial.hpp **** 
 116:Lib/serial/serial.hpp ****     bool init(const char *name, Serial_Config *config, UART_HandleTypeDef *uart);
 117:Lib/serial/serial.hpp ****     bool init_with_default(const char *name, UART_HandleTypeDef *uart);
 118:Lib/serial/serial.hpp **** 
 119:Lib/serial/serial.hpp ****     UART_HandleTypeDef *get_uart(void) { return _uart; }
 120:Lib/serial/serial.hpp **** 
 121:Lib/serial/serial.hpp ****     bool is_ready(void) { return _ready; };
 2003              		.loc 2 121 10 is_stmt 1 view .LVU532
 2004              	.LBB23:
 2005              		.loc 2 121 27 view .LVU533
 2006              		.loc 2 121 34 is_stmt 0 view .LVU534
 2007 062a 3D7C     		ldrb	r5, [r7, #16]
 2008              	.LVL178:
 2009              		.loc 2 121 34 view .LVU535
 2010              	.LBE23:
 2011              	.LBE22:
 2012              		.loc 1 676 25 discriminator 1 view .LVU536
 2013 062c 002D     		cmp	r5, #0
 2014 062e 00D1     		bne	.LCB1668
 2015 0630 92E0     		b	.L111	@long jump
 2016              	.LCB1668:
 677:Lib/serial/serial.cpp ****         return false;
 678:Lib/serial/serial.cpp **** 
 679:Lib/serial/serial.cpp ****     // -------------------- 单次发送大小限制 --------------------
 680:Lib/serial/serial.cpp ****     // 单次最多发送缓冲区 80% 的数据，防止阻塞
 681:Lib/serial/serial.cpp ****     if (pack->size > _config.tx_buf_size * 0.8)
 2017              		.loc 1 681 5 is_stmt 1 view .LVU537
 2018              		.loc 1 681 20 is_stmt 0 view .LVU538
 2019 0632 FFF7FEFF 		bl	__aeabi_i2d
 2020              	.LVL179:
 2021              		.loc 1 681 20 view .LVU539
 2022 0636 0090     		str	r0, [sp]
 2023 0638 0191     		str	r1, [sp, #4]
 2024              		.loc 1 681 30 view .LVU540
 2025 063a 7A23     		movs	r3, #122
 2026 063c F85A     		ldrh	r0, [r7, r3]
 2027              		.loc 1 681 42 view .LVU541
 2028 063e FFF7FEFF 		bl	__aeabi_i2d
 2029              	.LVL180:
 2030 0642 494A     		ldr	r2, .L124
 2031 0644 494B     		ldr	r3, .L124+4
 2032 0646 FFF7FEFF 		bl	__aeabi_dmul
 2033              	.LVL181:
 2034 064a 0200     		movs	r2, r0
 2035 064c 0B00     		movs	r3, r1
 2036              		.loc 1 681 5 view .LVU542
 2037 064e 0098     		ldr	r0, [sp]
ARM GAS  /tmp/ccUDp7dI.s 			page 54


 2038 0650 0199     		ldr	r1, [sp, #4]
 2039 0652 FFF7FEFF 		bl	__aeabi_dcmpgt
 2040              	.LVL182:
 2041 0656 0028     		cmp	r0, #0
 2042 0658 01D0     		beq	.L121
 682:Lib/serial/serial.cpp ****         return false;
 2043              		.loc 1 682 16 view .LVU543
 2044 065a 0025     		movs	r5, #0
 2045 065c 7CE0     		b	.L111
 2046              	.L121:
 683:Lib/serial/serial.cpp **** 
 684:Lib/serial/serial.cpp ****     // -------------------- 检查发送是否忙碌 --------------------
 685:Lib/serial/serial.cpp ****     if (_is_tx_busy())
 2047              		.loc 1 685 5 is_stmt 1 view .LVU544
 2048              		.loc 1 685 20 is_stmt 0 view .LVU545
 2049 065e 0021     		movs	r1, #0
 2050 0660 3800     		movs	r0, r7
 2051 0662 FFF7FEFF 		bl	_ZN6Serial11_is_tx_busyEb
 2052              	.LVL183:
 2053              		.loc 1 685 5 discriminator 1 view .LVU546
 2054 0666 0028     		cmp	r0, #0
 2055 0668 01D0     		beq	.L122
 686:Lib/serial/serial.cpp ****         return false;
 2056              		.loc 1 686 16 view .LVU547
 2057 066a 0025     		movs	r5, #0
 2058 066c 74E0     		b	.L111
 2059              	.L122:
 687:Lib/serial/serial.cpp **** 
 688:Lib/serial/serial.cpp ****     // -------------------- 占用发送缓冲区 --------------------
 689:Lib/serial/serial.cpp ****     // 获取信号量，阻塞直到可用
 690:Lib/serial/serial.cpp ****     // portMAX_DELAY = 无限等待
 691:Lib/serial/serial.cpp ****     xSemaphoreTake(_tx_buf_sem, portMAX_DELAY);
 2060              		.loc 1 691 5 is_stmt 1 view .LVU548
 2061 066e 0121     		movs	r1, #1
 2062 0670 786C     		ldr	r0, [r7, #68]
 2063 0672 4942     		rsbs	r1, r1, #0
 2064 0674 FFF7FEFF 		bl	xQueueSemaphoreTake
 2065              	.LVL184:
 692:Lib/serial/serial.cpp **** 
 693:Lib/serial/serial.cpp ****     // -------------------- 生成时间戳 --------------------
 694:Lib/serial/serial.cpp ****     if (auto_gen_tick)
 2066              		.loc 1 694 5 view .LVU549
 2067 0678 002E     		cmp	r6, #0
 2068 067a 35D1     		bne	.L123
 2069              	.L112:
 695:Lib/serial/serial.cpp ****     {
 696:Lib/serial/serial.cpp ****         tx_pack.tick = HAL_System::get_tick_ms();
 697:Lib/serial/serial.cpp ****     }
 698:Lib/serial/serial.cpp **** 
 699:Lib/serial/serial.cpp ****     // -------------------- 计算发送缓冲区剩余空间 --------------------
 700:Lib/serial/serial.cpp ****     uint16_t rest_buf_size = _tx_buf.size - _tx_buf.index;
 2070              		.loc 1 700 5 view .LVU550
 2071              		.loc 1 700 38 is_stmt 0 view .LVU551
 2072 067c BE8D     		ldrh	r6, [r7, #44]
 2073              	.LVL185:
 2074              		.loc 1 700 53 view .LVU552
 2075 067e BB8E     		ldrh	r3, [r7, #52]
ARM GAS  /tmp/ccUDp7dI.s 			page 55


 2076 0680 9946     		mov	r9, r3
 2077              		.loc 1 700 14 view .LVU553
 2078 0682 F31A     		subs	r3, r6, r3
 2079 0684 9BB2     		uxth	r3, r3
 2080 0686 9846     		mov	r8, r3
 2081              	.LVL186:
 701:Lib/serial/serial.cpp **** 
 702:Lib/serial/serial.cpp ****     // -------------------- 分情况复制数据 --------------------
 703:Lib/serial/serial.cpp ****     // 情况 1：剩余空间足够，直接复制
 704:Lib/serial/serial.cpp ****     if (pack->size <= rest_buf_size)
 2082              		.loc 1 704 5 is_stmt 1 view .LVU554
 2083              	.LBB24:
 2084              		.loc 1 704 15 is_stmt 0 view .LVU555
 2085 0688 A288     		ldrh	r2, [r4, #4]
 2086              		.loc 1 704 5 view .LVU556
 2087 068a 9A42     		cmp	r2, r3
 2088 068c 30D8     		bhi	.L113
 705:Lib/serial/serial.cpp ****     {
 706:Lib/serial/serial.cpp ****         // 将数据复制到发送缓冲区
 707:Lib/serial/serial.cpp ****         memcpy(_tx_buf.pData, pack->pData, pack->size);
 2089              		.loc 1 707 9 is_stmt 1 view .LVU557
 2090              		.loc 1 707 24 is_stmt 0 view .LVU558
 2091 068e 386B     		ldr	r0, [r7, #48]
 2092              		.loc 1 707 37 view .LVU559
 2093 0690 2168     		ldr	r1, [r4]
 2094              		.loc 1 707 15 view .LVU560
 2095 0692 FFF7FEFF 		bl	memcpy
 2096              	.LVL187:
 708:Lib/serial/serial.cpp **** 
 709:Lib/serial/serial.cpp ****         tx_pack.pData = _tx_buf.pData;  // 数据包指向发送缓冲区
 2097              		.loc 1 709 9 is_stmt 1 view .LVU561
 2098              		.loc 1 709 33 is_stmt 0 view .LVU562
 2099 0696 3B6B     		ldr	r3, [r7, #48]
 2100              		.loc 1 709 23 view .LVU563
 2101 0698 03A9     		add	r1, sp, #12
 2102 069a 0393     		str	r3, [sp, #12]
 710:Lib/serial/serial.cpp ****         tx_pack.size = pack->size;      // 数据长度
 2103              		.loc 1 710 9 is_stmt 1 view .LVU564
 2104              		.loc 1 710 30 is_stmt 0 view .LVU565
 2105 069c A388     		ldrh	r3, [r4, #4]
 2106              		.loc 1 710 22 view .LVU566
 2107 069e 8B80     		strh	r3, [r1, #4]
 711:Lib/serial/serial.cpp **** 
 712:Lib/serial/serial.cpp ****         // 将数据包放入发送队列
 713:Lib/serial/serial.cpp ****         xQueueSend(_tx_queue, &tx_pack, portMAX_DELAY);
 2108              		.loc 1 713 9 is_stmt 1 view .LVU567
 2109 06a0 0122     		movs	r2, #1
 2110 06a2 F86B     		ldr	r0, [r7, #60]
 2111 06a4 0023     		movs	r3, #0
 2112 06a6 5242     		rsbs	r2, r2, #0
 2113 06a8 FFF7FEFF 		bl	xQueueGenericSend
 2114              	.LVL188:
 714:Lib/serial/serial.cpp **** 
 715:Lib/serial/serial.cpp ****         _tx_buf.index += pack->size;  // 更新写入位置
 2115              		.loc 1 715 9 view .LVU568
 2116              		.loc 1 715 17 is_stmt 0 view .LVU569
 2117 06ac BB8E     		ldrh	r3, [r7, #52]
ARM GAS  /tmp/ccUDp7dI.s 			page 56


 2118              		.loc 1 715 32 view .LVU570
 2119 06ae A288     		ldrh	r2, [r4, #4]
 2120              		.loc 1 715 23 view .LVU571
 2121 06b0 9B18     		adds	r3, r3, r2
 2122 06b2 9BB2     		uxth	r3, r3
 2123 06b4 BB86     		strh	r3, [r7, #52]
 716:Lib/serial/serial.cpp **** 
 717:Lib/serial/serial.cpp ****         // 如果剩余空间不足，回绕到开头
 718:Lib/serial/serial.cpp ****         if (_tx_buf.size - _tx_buf.index < _config.tx_pack_size)
 2124              		.loc 1 718 9 is_stmt 1 view .LVU572
 2125              		.loc 1 718 21 is_stmt 0 view .LVU573
 2126 06b6 BA8D     		ldrh	r2, [r7, #44]
 2127              		.loc 1 718 26 view .LVU574
 2128 06b8 D31A     		subs	r3, r2, r3
 2129              		.loc 1 718 52 view .LVU575
 2130 06ba 7E22     		movs	r2, #126
 2131 06bc BA5A     		ldrh	r2, [r7, r2]
 2132              		.loc 1 718 9 view .LVU576
 2133 06be 9342     		cmp	r3, r2
 2134 06c0 01DA     		bge	.L114
 719:Lib/serial/serial.cpp ****         {
 720:Lib/serial/serial.cpp ****             _tx_buf.index = 0;
 2135              		.loc 1 720 13 is_stmt 1 view .LVU577
 2136              		.loc 1 720 27 is_stmt 0 view .LVU578
 2137 06c2 0023     		movs	r3, #0
 2138 06c4 BB86     		strh	r3, [r7, #52]
 2139              	.L114:
 721:Lib/serial/serial.cpp ****         }
 722:Lib/serial/serial.cpp ****         _tx_buf.pData = _tx_buf.pBuffer + _tx_buf.index;
 2140              		.loc 1 722 9 is_stmt 1 view .LVU579
 2141              		.loc 1 722 33 is_stmt 0 view .LVU580
 2142 06c6 BB6A     		ldr	r3, [r7, #40]
 2143              		.loc 1 722 51 view .LVU581
 2144 06c8 BA8E     		ldrh	r2, [r7, #52]
 2145              		.loc 1 722 41 view .LVU582
 2146 06ca 9B18     		adds	r3, r3, r2
 2147              		.loc 1 722 23 view .LVU583
 2148 06cc 3B63     		str	r3, [r7, #48]
 2149              	.L115:
 2150              		.loc 1 722 23 view .LVU584
 2151              	.LBE24:
 723:Lib/serial/serial.cpp ****     }
 724:Lib/serial/serial.cpp ****     // 情况 2：剩余空间不足，分两部分复制
 725:Lib/serial/serial.cpp ****     else
 726:Lib/serial/serial.cpp ****     {
 727:Lib/serial/serial.cpp ****         // 第一部分：填满剩余空间
 728:Lib/serial/serial.cpp ****         memcpy(_tx_buf.pData, pack->pData, rest_buf_size);
 729:Lib/serial/serial.cpp **** 
 730:Lib/serial/serial.cpp ****         tx_pack.pData = _tx_buf.pData;
 731:Lib/serial/serial.cpp ****         tx_pack.size = rest_buf_size;
 732:Lib/serial/serial.cpp **** 
 733:Lib/serial/serial.cpp ****         // 发送第一部分
 734:Lib/serial/serial.cpp ****         xQueueSend(_tx_queue, &tx_pack, portMAX_DELAY);
 735:Lib/serial/serial.cpp **** 
 736:Lib/serial/serial.cpp ****         // 第二部分长度
 737:Lib/serial/serial.cpp ****         uint16_t rest_pack_size = pack->size - rest_buf_size;
 738:Lib/serial/serial.cpp **** 
ARM GAS  /tmp/ccUDp7dI.s 			page 57


 739:Lib/serial/serial.cpp ****         // 第二部分：从缓冲区开头继续复制
 740:Lib/serial/serial.cpp ****         memcpy(_tx_buf.pBuffer, pack->pData + rest_buf_size, rest_pack_size);
 741:Lib/serial/serial.cpp **** 
 742:Lib/serial/serial.cpp ****         tx_pack.pData = _tx_buf.pBuffer;
 743:Lib/serial/serial.cpp ****         tx_pack.size = rest_pack_size;
 744:Lib/serial/serial.cpp **** 
 745:Lib/serial/serial.cpp ****         // 发送第二部分
 746:Lib/serial/serial.cpp ****         xQueueSend(_tx_queue, &tx_pack, portMAX_DELAY);
 747:Lib/serial/serial.cpp **** 
 748:Lib/serial/serial.cpp ****         _tx_buf.index = rest_pack_size;
 749:Lib/serial/serial.cpp ****         _tx_buf.pData = _tx_buf.pBuffer + _tx_buf.index;
 750:Lib/serial/serial.cpp ****     }
 751:Lib/serial/serial.cpp **** 
 752:Lib/serial/serial.cpp ****     // -------------------- 更新统计 --------------------
 753:Lib/serial/serial.cpp ****     _update_info(0, pack->size);
 2152              		.loc 1 753 5 is_stmt 1 view .LVU585
 2153              		.loc 1 753 17 is_stmt 0 view .LVU586
 2154 06ce 0423     		movs	r3, #4
 2155 06d0 E25E     		ldrsh	r2, [r4, r3]
 2156 06d2 0021     		movs	r1, #0
 2157 06d4 3800     		movs	r0, r7
 2158 06d6 FFF7FEFF 		bl	_ZN6Serial12_update_infoEss
 2159              	.LVL189:
 754:Lib/serial/serial.cpp **** 
 755:Lib/serial/serial.cpp ****     // -------------------- 释放发送缓冲区 --------------------
 756:Lib/serial/serial.cpp ****     xSemaphoreGive(_tx_buf_sem);
 2160              		.loc 1 756 5 is_stmt 1 view .LVU587
 2161 06da 786C     		ldr	r0, [r7, #68]
 2162 06dc 0023     		movs	r3, #0
 2163 06de 0022     		movs	r2, #0
 2164 06e0 0021     		movs	r1, #0
 2165 06e2 FFF7FEFF 		bl	xQueueGenericSend
 2166              	.LVL190:
 757:Lib/serial/serial.cpp **** 
 758:Lib/serial/serial.cpp ****     return true;
 2167              		.loc 1 758 5 view .LVU588
 2168              		.loc 1 758 12 is_stmt 0 view .LVU589
 2169 06e6 37E0     		b	.L111
 2170              	.LVL191:
 2171              	.L123:
 696:Lib/serial/serial.cpp ****     }
 2172              		.loc 1 696 9 is_stmt 1 view .LVU590
 696:Lib/serial/serial.cpp ****     }
 2173              		.loc 1 696 47 is_stmt 0 view .LVU591
 2174 06e8 FFF7FEFF 		bl	_ZN10HAL_System11get_tick_msEv
 2175              	.LVL192:
 696:Lib/serial/serial.cpp ****     }
 2176              		.loc 1 696 22 discriminator 1 view .LVU592
 2177 06ec 0590     		str	r0, [sp, #20]
 2178 06ee C5E7     		b	.L112
 2179              	.LVL193:
 2180              	.L113:
 2181              	.LBB26:
 2182              	.LBB25:
 728:Lib/serial/serial.cpp **** 
 2183              		.loc 1 728 9 is_stmt 1 view .LVU593
 728:Lib/serial/serial.cpp **** 
ARM GAS  /tmp/ccUDp7dI.s 			page 58


 2184              		.loc 1 728 24 is_stmt 0 view .LVU594
 2185 06f0 386B     		ldr	r0, [r7, #48]
 728:Lib/serial/serial.cpp **** 
 2186              		.loc 1 728 37 view .LVU595
 2187 06f2 2168     		ldr	r1, [r4]
 728:Lib/serial/serial.cpp **** 
 2188              		.loc 1 728 15 view .LVU596
 2189 06f4 1A00     		movs	r2, r3
 2190 06f6 FFF7FEFF 		bl	memcpy
 2191              	.LVL194:
 730:Lib/serial/serial.cpp ****         tx_pack.size = rest_buf_size;
 2192              		.loc 1 730 9 is_stmt 1 view .LVU597
 730:Lib/serial/serial.cpp ****         tx_pack.size = rest_buf_size;
 2193              		.loc 1 730 33 is_stmt 0 view .LVU598
 2194 06fa 3B6B     		ldr	r3, [r7, #48]
 730:Lib/serial/serial.cpp ****         tx_pack.size = rest_buf_size;
 2195              		.loc 1 730 23 view .LVU599
 2196 06fc 03AA     		add	r2, sp, #12
 2197 06fe 9246     		mov	r10, r2
 2198 0700 0393     		str	r3, [sp, #12]
 731:Lib/serial/serial.cpp **** 
 2199              		.loc 1 731 9 is_stmt 1 view .LVU600
 731:Lib/serial/serial.cpp **** 
 2200              		.loc 1 731 22 is_stmt 0 view .LVU601
 2201 0702 1300     		movs	r3, r2
 2202 0704 4246     		mov	r2, r8
 2203 0706 9A80     		strh	r2, [r3, #4]
 734:Lib/serial/serial.cpp **** 
 2204              		.loc 1 734 9 is_stmt 1 view .LVU602
 2205 0708 0123     		movs	r3, #1
 2206 070a 5B42     		rsbs	r3, r3, #0
 2207 070c 9B46     		mov	fp, r3
 2208 070e F86B     		ldr	r0, [r7, #60]
 2209 0710 0023     		movs	r3, #0
 2210 0712 5A46     		mov	r2, fp
 2211 0714 5146     		mov	r1, r10
 2212 0716 FFF7FEFF 		bl	xQueueGenericSend
 2213              	.LVL195:
 737:Lib/serial/serial.cpp **** 
 2214              		.loc 1 737 9 view .LVU603
 737:Lib/serial/serial.cpp **** 
 2215              		.loc 1 737 41 is_stmt 0 view .LVU604
 2216 071a A388     		ldrh	r3, [r4, #4]
 737:Lib/serial/serial.cpp **** 
 2217              		.loc 1 737 18 view .LVU605
 2218 071c 4A46     		mov	r2, r9
 2219 071e 921B     		subs	r2, r2, r6
 2220 0720 9E18     		adds	r6, r3, r2
 2221 0722 B6B2     		uxth	r6, r6
 2222              	.LVL196:
 740:Lib/serial/serial.cpp **** 
 2223              		.loc 1 740 9 is_stmt 1 view .LVU606
 740:Lib/serial/serial.cpp **** 
 2224              		.loc 1 740 24 is_stmt 0 view .LVU607
 2225 0724 B86A     		ldr	r0, [r7, #40]
 740:Lib/serial/serial.cpp **** 
 2226              		.loc 1 740 39 view .LVU608
ARM GAS  /tmp/ccUDp7dI.s 			page 59


 2227 0726 2168     		ldr	r1, [r4]
 740:Lib/serial/serial.cpp **** 
 2228              		.loc 1 740 45 view .LVU609
 2229 0728 4144     		add	r1, r1, r8
 740:Lib/serial/serial.cpp **** 
 2230              		.loc 1 740 15 view .LVU610
 2231 072a 3200     		movs	r2, r6
 2232 072c FFF7FEFF 		bl	memcpy
 2233              	.LVL197:
 742:Lib/serial/serial.cpp ****         tx_pack.size = rest_pack_size;
 2234              		.loc 1 742 9 is_stmt 1 view .LVU611
 742:Lib/serial/serial.cpp ****         tx_pack.size = rest_pack_size;
 2235              		.loc 1 742 33 is_stmt 0 view .LVU612
 2236 0730 BB6A     		ldr	r3, [r7, #40]
 742:Lib/serial/serial.cpp ****         tx_pack.size = rest_pack_size;
 2237              		.loc 1 742 23 view .LVU613
 2238 0732 0393     		str	r3, [sp, #12]
 743:Lib/serial/serial.cpp **** 
 2239              		.loc 1 743 9 is_stmt 1 view .LVU614
 743:Lib/serial/serial.cpp **** 
 2240              		.loc 1 743 22 is_stmt 0 view .LVU615
 2241 0734 5346     		mov	r3, r10
 2242 0736 9E80     		strh	r6, [r3, #4]
 746:Lib/serial/serial.cpp **** 
 2243              		.loc 1 746 9 is_stmt 1 view .LVU616
 2244 0738 F86B     		ldr	r0, [r7, #60]
 2245 073a 0023     		movs	r3, #0
 2246 073c 5A46     		mov	r2, fp
 2247 073e 5146     		mov	r1, r10
 2248 0740 FFF7FEFF 		bl	xQueueGenericSend
 2249              	.LVL198:
 748:Lib/serial/serial.cpp ****         _tx_buf.pData = _tx_buf.pBuffer + _tx_buf.index;
 2250              		.loc 1 748 9 view .LVU617
 748:Lib/serial/serial.cpp ****         _tx_buf.pData = _tx_buf.pBuffer + _tx_buf.index;
 2251              		.loc 1 748 23 is_stmt 0 view .LVU618
 2252 0744 BE86     		strh	r6, [r7, #52]
 749:Lib/serial/serial.cpp ****     }
 2253              		.loc 1 749 9 is_stmt 1 view .LVU619
 749:Lib/serial/serial.cpp ****     }
 2254              		.loc 1 749 33 is_stmt 0 view .LVU620
 2255 0746 BB6A     		ldr	r3, [r7, #40]
 749:Lib/serial/serial.cpp ****     }
 2256              		.loc 1 749 41 view .LVU621
 2257 0748 9B19     		adds	r3, r3, r6
 749:Lib/serial/serial.cpp ****     }
 2258              		.loc 1 749 23 view .LVU622
 2259 074a 3B63     		str	r3, [r7, #48]
 2260 074c BFE7     		b	.L115
 2261              	.LVL199:
 2262              	.L116:
 749:Lib/serial/serial.cpp ****     }
 2263              		.loc 1 749 23 view .LVU623
 2264              	.LBE25:
 2265              	.LBE26:
 673:Lib/serial/serial.cpp **** 
 2266              		.loc 1 673 16 view .LVU624
 2267 074e 0025     		movs	r5, #0
ARM GAS  /tmp/ccUDp7dI.s 			page 60


 2268 0750 02E0     		b	.L111
 2269              	.L117:
 2270 0752 0025     		movs	r5, #0
 2271 0754 00E0     		b	.L111
 2272              	.LVL200:
 2273              	.L118:
 677:Lib/serial/serial.cpp **** 
 2274              		.loc 1 677 16 view .LVU625
 2275 0756 0025     		movs	r5, #0
 2276              	.LVL201:
 2277              	.L111:
 759:Lib/serial/serial.cpp **** }
 2278              		.loc 1 759 1 view .LVU626
 2279 0758 2800     		movs	r0, r5
 2280 075a 07B0     		add	sp, sp, #28
 2281              		@ sp needed
 2282              	.LVL202:
 2283              	.LVL203:
 2284              		.loc 1 759 1 view .LVU627
 2285 075c F0BC     		pop	{r4, r5, r6, r7}
 2286 075e BB46     		mov	fp, r7
 2287 0760 B246     		mov	r10, r6
 2288 0762 A946     		mov	r9, r5
 2289 0764 A046     		mov	r8, r4
 2290 0766 F0BD     		pop	{r4, r5, r6, r7, pc}
 2291              	.L125:
 2292              		.align	2
 2293              	.L124:
 2294 0768 9A999999 		.word	-1717986918
 2295 076c 9999E93F 		.word	1072273817
 2296              		.cfi_endproc
 2297              	.LFE493:
 2299              		.align	1
 2300              		.global	_ZN6Serial9send_dataEPhtm
 2301              		.syntax unified
 2302              		.code	16
 2303              		.thumb_func
 2305              	_ZN6Serial9send_dataEPhtm:
 2306              	.LVL204:
 2307              	.LFB494:
 760:Lib/serial/serial.cpp **** 
 761:Lib/serial/serial.cpp **** // ============================================================
 762:Lib/serial/serial.cpp **** // send_data - 简化版发送（直接传数据和长度）
 763:Lib/serial/serial.cpp **** // 参数：
 764:Lib/serial/serial.cpp **** //   data - 数据指针
 765:Lib/serial/serial.cpp **** //   size - 数据长度
 766:Lib/serial/serial.cpp **** //   tick - 时间戳（0 = 自动生成）
 767:Lib/serial/serial.cpp **** // 返回：true 成功，false 失败
 768:Lib/serial/serial.cpp **** // ============================================================
 769:Lib/serial/serial.cpp **** bool Serial::send_data(uint8_t *data, uint16_t size, uint32_t tick)
 770:Lib/serial/serial.cpp **** {
 2308              		.loc 1 770 1 is_stmt 1 view -0
 2309              		.cfi_startproc
 2310              		@ args = 0, pretend = 0, frame = 16
 2311              		@ frame_needed = 0, uses_anonymous_args = 0
 2312              		.loc 1 770 1 is_stmt 0 view .LVU629
 2313 0770 10B5     		push	{r4, lr}
ARM GAS  /tmp/ccUDp7dI.s 			page 61


 2314              		.cfi_def_cfa_offset 8
 2315              		.cfi_offset 4, -8
 2316              		.cfi_offset 14, -4
 2317 0772 84B0     		sub	sp, sp, #16
 2318              		.cfi_def_cfa_offset 24
 2319 0774 0C00     		movs	r4, r1
 771:Lib/serial/serial.cpp ****     DataPack_t tx_pack = {
 2320              		.loc 1 771 5 is_stmt 1 view .LVU630
 772:Lib/serial/serial.cpp ****         .pData = data,    // 数据指针
 773:Lib/serial/serial.cpp ****         .size = size,     // 数据长度
 774:Lib/serial/serial.cpp ****         .tick = tick      // 时间戳
 775:Lib/serial/serial.cpp ****     };
 2321              		.loc 1 775 5 is_stmt 0 view .LVU631
 2322 0776 01A9     		add	r1, sp, #4
 2323              	.LVL205:
 2324              		.loc 1 775 5 view .LVU632
 2325 0778 0194     		str	r4, [sp, #4]
 2326 077a 8A80     		strh	r2, [r1, #4]
 2327 077c 8B60     		str	r3, [r1, #8]
 776:Lib/serial/serial.cpp **** 
 777:Lib/serial/serial.cpp ****     // tick = 0 则使用自动生成的时间戳
 778:Lib/serial/serial.cpp ****     return send_data(&tx_pack, (tick == 0));
 2328              		.loc 1 778 5 is_stmt 1 view .LVU633
 2329              		.loc 1 778 21 is_stmt 0 view .LVU634
 2330 077e 5A42     		rsbs	r2, r3, #0
 2331 0780 5341     		adcs	r3, r3, r2
 2332              	.LVL206:
 2333              		.loc 1 778 21 view .LVU635
 2334 0782 DAB2     		uxtb	r2, r3
 2335 0784 FFF7FEFF 		bl	_ZN6Serial9send_dataEP12__DataPack_tb
 2336              	.LVL207:
 779:Lib/serial/serial.cpp **** }
 2337              		.loc 1 779 1 view .LVU636
 2338 0788 04B0     		add	sp, sp, #16
 2339              		@ sp needed
 2340              	.LVL208:
 2341              		.loc 1 779 1 view .LVU637
 2342 078a 10BD     		pop	{r4, pc}
 2343              		.cfi_endproc
 2344              	.LFE494:
 2346              		.align	1
 2347              		.global	_ZN6Serial18send_data_from_isrEPhtm
 2348              		.syntax unified
 2349              		.code	16
 2350              		.thumb_func
 2352              	_ZN6Serial18send_data_from_isrEPhtm:
 2353              	.LVL209:
 2354              	.LFB495:
 780:Lib/serial/serial.cpp **** 
 781:Lib/serial/serial.cpp **** // ============================================================
 782:Lib/serial/serial.cpp **** // send_data_from_isr - 中断安全版本的发送函数
 783:Lib/serial/serial.cpp **** // 参数：同 send_data
 784:Lib/serial/serial.cpp **** // 返回：true 成功，false 失败
 785:Lib/serial/serial.cpp **** // 说明：
 786:Lib/serial/serial.cpp **** //   - 可在中断回调中调用
 787:Lib/serial/serial.cpp **** //   - 使用 FromISR 后缀的 FreeRTOS 函数
 788:Lib/serial/serial.cpp **** // ============================================================
ARM GAS  /tmp/ccUDp7dI.s 			page 62


 789:Lib/serial/serial.cpp **** bool Serial::send_data_from_isr(uint8_t *data, uint16_t size, uint32_t tick)
 790:Lib/serial/serial.cpp **** {
 2355              		.loc 1 790 1 is_stmt 1 view -0
 2356              		.cfi_startproc
 2357              		@ args = 0, pretend = 0, frame = 32
 2358              		@ frame_needed = 0, uses_anonymous_args = 0
 2359              		.loc 1 790 1 is_stmt 0 view .LVU639
 2360 078c F0B5     		push	{r4, r5, r6, r7, lr}
 2361              		.cfi_def_cfa_offset 20
 2362              		.cfi_offset 4, -20
 2363              		.cfi_offset 5, -16
 2364              		.cfi_offset 6, -12
 2365              		.cfi_offset 7, -8
 2366              		.cfi_offset 14, -4
 2367 078e DE46     		mov	lr, fp
 2368 0790 5746     		mov	r7, r10
 2369 0792 4E46     		mov	r6, r9
 2370 0794 4546     		mov	r5, r8
 2371 0796 E0B5     		push	{r5, r6, r7, lr}
 2372              		.cfi_def_cfa_offset 36
 2373              		.cfi_offset 8, -36
 2374              		.cfi_offset 9, -32
 2375              		.cfi_offset 10, -28
 2376              		.cfi_offset 11, -24
 2377 0798 89B0     		sub	sp, sp, #36
 2378              		.cfi_def_cfa_offset 72
 2379 079a 0500     		movs	r5, r0
 2380 079c 0091     		str	r1, [sp]
 2381 079e 171E     		subs	r7, r2, #0
 2382 07a0 0193     		str	r3, [sp, #4]
 791:Lib/serial/serial.cpp ****     DataPack_t tx_pack;
 2383              		.loc 1 791 5 is_stmt 1 view .LVU640
 792:Lib/serial/serial.cpp ****     BaseType_t pxHigherPriorityTaskWoken;  // 任务切换标记
 2384              		.loc 1 792 5 view .LVU641
 793:Lib/serial/serial.cpp **** 
 794:Lib/serial/serial.cpp ****     // -------------------- 基本检查 --------------------
 795:Lib/serial/serial.cpp ****     if (size == 0 || !is_ready())
 2385              		.loc 1 795 5 view .LVU642
 2386              		.loc 1 795 19 is_stmt 0 view .LVU643
 2387 07a2 00D1     		bne	.LCB1992
 2388 07a4 98E0     		b	.L133	@long jump
 2389              	.LCB1992:
 2390              	.LVL210:
 2391              	.LBB27:
 2392              	.LBI27:
 2393              		.loc 2 121 10 is_stmt 1 view .LVU644
 2394              	.LBB28:
 2395              		.loc 2 121 27 view .LVU645
 2396              		.loc 2 121 34 is_stmt 0 view .LVU646
 2397 07a6 047C     		ldrb	r4, [r0, #16]
 2398              	.LVL211:
 2399              		.loc 2 121 34 view .LVU647
 2400              	.LBE28:
 2401              	.LBE27:
 2402              		.loc 1 795 19 discriminator 1 view .LVU648
 2403 07a8 002C     		cmp	r4, #0
 2404 07aa 00D1     		bne	.LCB2003
ARM GAS  /tmp/ccUDp7dI.s 			page 63


 2405 07ac 95E0     		b	.L128	@long jump
 2406              	.LCB2003:
 796:Lib/serial/serial.cpp ****         return false;
 797:Lib/serial/serial.cpp **** 
 798:Lib/serial/serial.cpp ****     if (size > _config.tx_buf_size * 0.8)
 2407              		.loc 1 798 5 is_stmt 1 view .LVU649
 2408              		.loc 1 798 14 is_stmt 0 view .LVU650
 2409 07ae 1000     		movs	r0, r2
 2410              	.LVL212:
 2411              		.loc 1 798 14 view .LVU651
 2412 07b0 FFF7FEFF 		bl	__aeabi_i2d
 2413              	.LVL213:
 2414              		.loc 1 798 14 view .LVU652
 2415 07b4 0290     		str	r0, [sp, #8]
 2416 07b6 0391     		str	r1, [sp, #12]
 2417              		.loc 1 798 24 view .LVU653
 2418 07b8 7A23     		movs	r3, #122
 2419 07ba E85A     		ldrh	r0, [r5, r3]
 2420              		.loc 1 798 36 view .LVU654
 2421 07bc FFF7FEFF 		bl	__aeabi_i2d
 2422              	.LVL214:
 2423 07c0 4B4A     		ldr	r2, .L140
 2424 07c2 4C4B     		ldr	r3, .L140+4
 2425 07c4 FFF7FEFF 		bl	__aeabi_dmul
 2426              	.LVL215:
 2427 07c8 0200     		movs	r2, r0
 2428 07ca 0B00     		movs	r3, r1
 2429              		.loc 1 798 5 view .LVU655
 2430 07cc 0298     		ldr	r0, [sp, #8]
 2431 07ce 0399     		ldr	r1, [sp, #12]
 2432 07d0 FFF7FEFF 		bl	__aeabi_dcmpgt
 2433              	.LVL216:
 2434 07d4 0028     		cmp	r0, #0
 2435 07d6 01D0     		beq	.L137
 799:Lib/serial/serial.cpp ****         return false;
 2436              		.loc 1 799 16 view .LVU656
 2437 07d8 0024     		movs	r4, #0
 2438 07da 7EE0     		b	.L128
 2439              	.L137:
 800:Lib/serial/serial.cpp **** 
 801:Lib/serial/serial.cpp ****     if (_is_tx_busy(true))  // true = from_isr 模式
 2440              		.loc 1 801 5 is_stmt 1 view .LVU657
 2441              		.loc 1 801 20 is_stmt 0 view .LVU658
 2442 07dc 0121     		movs	r1, #1
 2443 07de 2800     		movs	r0, r5
 2444 07e0 FFF7FEFF 		bl	_ZN6Serial11_is_tx_busyEb
 2445              	.LVL217:
 2446 07e4 061E     		subs	r6, r0, #0
 2447              		.loc 1 801 5 discriminator 1 view .LVU659
 2448 07e6 01D0     		beq	.L138
 802:Lib/serial/serial.cpp ****         return false;
 2449              		.loc 1 802 16 view .LVU660
 2450 07e8 0024     		movs	r4, #0
 2451 07ea 76E0     		b	.L128
 2452              	.L138:
 803:Lib/serial/serial.cpp **** 
 804:Lib/serial/serial.cpp ****     // -------------------- 获取信号量（中断安全版本） --------------------
ARM GAS  /tmp/ccUDp7dI.s 			page 64


 805:Lib/serial/serial.cpp ****     if (xSemaphoreTakeFromISR(_tx_buf_sem, &pxHigherPriorityTaskWoken) != pdTRUE)
 2453              		.loc 1 805 5 is_stmt 1 view .LVU661
 2454              		.loc 1 805 9 is_stmt 0 view .LVU662
 2455 07ec 686C     		ldr	r0, [r5, #68]
 2456 07ee 04AA     		add	r2, sp, #16
 2457 07f0 0021     		movs	r1, #0
 2458 07f2 FFF7FEFF 		bl	xQueueReceiveFromISR
 2459              	.LVL218:
 2460              		.loc 1 805 5 discriminator 1 view .LVU663
 2461 07f6 0128     		cmp	r0, #1
 2462 07f8 00D0     		beq	.LCB2051
 2463 07fa 76E0     		b	.L136	@long jump
 2464              	.LCB2051:
 806:Lib/serial/serial.cpp ****         return false;
 807:Lib/serial/serial.cpp **** 
 808:Lib/serial/serial.cpp ****     // -------------------- 生成时间戳 --------------------
 809:Lib/serial/serial.cpp ****     if (tick == 0)
 2465              		.loc 1 809 5 is_stmt 1 view .LVU664
 2466 07fc 019B     		ldr	r3, [sp, #4]
 2467 07fe 002B     		cmp	r3, #0
 2468 0800 38D0     		beq	.L139
 2469              	.L129:
 810:Lib/serial/serial.cpp ****     {
 811:Lib/serial/serial.cpp ****         tx_pack.tick = HAL_System::get_tick_ms();
 812:Lib/serial/serial.cpp ****     }
 813:Lib/serial/serial.cpp **** 
 814:Lib/serial/serial.cpp ****     // -------------------- 复制数据到发送缓冲区 --------------------
 815:Lib/serial/serial.cpp ****     uint16_t rest_buf_size = _tx_buf.size - _tx_buf.index;
 2470              		.loc 1 815 5 view .LVU665
 2471              		.loc 1 815 38 is_stmt 0 view .LVU666
 2472 0802 AB8D     		ldrh	r3, [r5, #44]
 2473 0804 9B46     		mov	fp, r3
 2474              		.loc 1 815 53 view .LVU667
 2475 0806 AB8E     		ldrh	r3, [r5, #52]
 2476 0808 9846     		mov	r8, r3
 2477              		.loc 1 815 14 view .LVU668
 2478 080a 5B46     		mov	r3, fp
 2479 080c 4246     		mov	r2, r8
 2480 080e 9E1A     		subs	r6, r3, r2
 2481 0810 B6B2     		uxth	r6, r6
 2482              	.LVL219:
 816:Lib/serial/serial.cpp **** 
 817:Lib/serial/serial.cpp ****     if (size <= rest_buf_size)
 2483              		.loc 1 817 5 is_stmt 1 view .LVU669
 2484              	.LBB29:
 2485 0812 B742     		cmp	r7, r6
 2486 0814 32D8     		bhi	.L130
 818:Lib/serial/serial.cpp ****     {
 819:Lib/serial/serial.cpp ****         memcpy(_tx_buf.pData, data, size);
 2487              		.loc 1 819 9 view .LVU670
 2488              		.loc 1 819 24 is_stmt 0 view .LVU671
 2489 0816 286B     		ldr	r0, [r5, #48]
 2490              		.loc 1 819 15 view .LVU672
 2491 0818 3A00     		movs	r2, r7
 2492 081a 0099     		ldr	r1, [sp]
 2493 081c FFF7FEFF 		bl	memcpy
 2494              	.LVL220:
ARM GAS  /tmp/ccUDp7dI.s 			page 65


 820:Lib/serial/serial.cpp ****         tx_pack.pData = _tx_buf.pData;
 2495              		.loc 1 820 9 is_stmt 1 view .LVU673
 2496              		.loc 1 820 33 is_stmt 0 view .LVU674
 2497 0820 2B6B     		ldr	r3, [r5, #48]
 2498              		.loc 1 820 23 view .LVU675
 2499 0822 05A9     		add	r1, sp, #20
 2500 0824 0593     		str	r3, [sp, #20]
 821:Lib/serial/serial.cpp ****         tx_pack.size = size;
 2501              		.loc 1 821 9 is_stmt 1 view .LVU676
 2502              		.loc 1 821 22 is_stmt 0 view .LVU677
 2503 0826 8F80     		strh	r7, [r1, #4]
 822:Lib/serial/serial.cpp **** 
 823:Lib/serial/serial.cpp ****         // 放入队列（FromISR 版本）
 824:Lib/serial/serial.cpp ****         xQueueSendFromISR(_tx_queue, &tx_pack, &pxHigherPriorityTaskWoken);
 2504              		.loc 1 824 9 is_stmt 1 view .LVU678
 2505 0828 E86B     		ldr	r0, [r5, #60]
 2506 082a 0023     		movs	r3, #0
 2507 082c 04AA     		add	r2, sp, #16
 2508 082e FFF7FEFF 		bl	xQueueGenericSendFromISR
 2509              	.LVL221:
 825:Lib/serial/serial.cpp **** 
 826:Lib/serial/serial.cpp ****         _tx_buf.index += size;
 2510              		.loc 1 826 9 view .LVU679
 2511              		.loc 1 826 17 is_stmt 0 view .LVU680
 2512 0832 AB8E     		ldrh	r3, [r5, #52]
 2513              		.loc 1 826 23 view .LVU681
 2514 0834 DB19     		adds	r3, r3, r7
 2515 0836 9BB2     		uxth	r3, r3
 2516 0838 AB86     		strh	r3, [r5, #52]
 827:Lib/serial/serial.cpp **** 
 828:Lib/serial/serial.cpp ****         if (_tx_buf.size - _tx_buf.index < _config.tx_pack_size)
 2517              		.loc 1 828 9 is_stmt 1 view .LVU682
 2518              		.loc 1 828 21 is_stmt 0 view .LVU683
 2519 083a AA8D     		ldrh	r2, [r5, #44]
 2520              		.loc 1 828 26 view .LVU684
 2521 083c D31A     		subs	r3, r2, r3
 2522              		.loc 1 828 52 view .LVU685
 2523 083e 7E22     		movs	r2, #126
 2524 0840 AA5A     		ldrh	r2, [r5, r2]
 2525              		.loc 1 828 9 view .LVU686
 2526 0842 9342     		cmp	r3, r2
 2527 0844 01DA     		bge	.L131
 829:Lib/serial/serial.cpp ****         {
 830:Lib/serial/serial.cpp ****             _tx_buf.index = 0;
 2528              		.loc 1 830 13 is_stmt 1 view .LVU687
 2529              		.loc 1 830 27 is_stmt 0 view .LVU688
 2530 0846 0023     		movs	r3, #0
 2531 0848 AB86     		strh	r3, [r5, #52]
 2532              	.L131:
 831:Lib/serial/serial.cpp ****         }
 832:Lib/serial/serial.cpp ****         _tx_buf.pData = _tx_buf.pBuffer + _tx_buf.index;
 2533              		.loc 1 832 9 is_stmt 1 view .LVU689
 2534              		.loc 1 832 33 is_stmt 0 view .LVU690
 2535 084a AB6A     		ldr	r3, [r5, #40]
 2536              		.loc 1 832 51 view .LVU691
 2537 084c AA8E     		ldrh	r2, [r5, #52]
 2538              		.loc 1 832 41 view .LVU692
ARM GAS  /tmp/ccUDp7dI.s 			page 66


 2539 084e 9B18     		adds	r3, r3, r2
 2540              		.loc 1 832 23 view .LVU693
 2541 0850 2B63     		str	r3, [r5, #48]
 2542              	.L132:
 2543              		.loc 1 832 23 view .LVU694
 2544              	.LBE29:
 833:Lib/serial/serial.cpp ****     }
 834:Lib/serial/serial.cpp ****     else
 835:Lib/serial/serial.cpp ****     {
 836:Lib/serial/serial.cpp ****         memcpy(_tx_buf.pData, data, rest_buf_size);
 837:Lib/serial/serial.cpp ****         tx_pack.pData = _tx_buf.pData;
 838:Lib/serial/serial.cpp ****         tx_pack.size = rest_buf_size;
 839:Lib/serial/serial.cpp **** 
 840:Lib/serial/serial.cpp ****         xQueueSendFromISR(_tx_queue, &tx_pack, &pxHigherPriorityTaskWoken);
 841:Lib/serial/serial.cpp **** 
 842:Lib/serial/serial.cpp ****         uint16_t rest_pack_size = size - rest_buf_size;
 843:Lib/serial/serial.cpp **** 
 844:Lib/serial/serial.cpp ****         memcpy(_tx_buf.pBuffer, data + rest_buf_size, rest_pack_size);
 845:Lib/serial/serial.cpp **** 
 846:Lib/serial/serial.cpp ****         tx_pack.pData = _tx_buf.pBuffer;
 847:Lib/serial/serial.cpp ****         tx_pack.size = rest_pack_size;
 848:Lib/serial/serial.cpp **** 
 849:Lib/serial/serial.cpp ****         xQueueSendFromISR(_tx_queue, &tx_pack, &pxHigherPriorityTaskWoken);
 850:Lib/serial/serial.cpp **** 
 851:Lib/serial/serial.cpp ****         _tx_buf.index = rest_pack_size;
 852:Lib/serial/serial.cpp ****         _tx_buf.pData = _tx_buf.pBuffer + _tx_buf.index;
 853:Lib/serial/serial.cpp ****     }
 854:Lib/serial/serial.cpp **** 
 855:Lib/serial/serial.cpp ****     // -------------------- 更新统计 --------------------
 856:Lib/serial/serial.cpp ****     _update_info(0, size);
 2545              		.loc 1 856 5 is_stmt 1 view .LVU695
 2546              		.loc 1 856 17 is_stmt 0 view .LVU696
 2547 0852 3AB2     		sxth	r2, r7
 2548 0854 0021     		movs	r1, #0
 2549 0856 2800     		movs	r0, r5
 2550 0858 FFF7FEFF 		bl	_ZN6Serial12_update_infoEss
 2551              	.LVL222:
 857:Lib/serial/serial.cpp **** 
 858:Lib/serial/serial.cpp ****     // -------------------- 释放信号量 --------------------
 859:Lib/serial/serial.cpp ****     xSemaphoreGiveFromISR(_tx_buf_sem, &pxHigherPriorityTaskWoken);
 2552              		.loc 1 859 5 is_stmt 1 view .LVU697
 2553 085c 686C     		ldr	r0, [r5, #68]
 2554 085e 04A9     		add	r1, sp, #16
 2555 0860 FFF7FEFF 		bl	xQueueGiveFromISR
 2556              	.LVL223:
 860:Lib/serial/serial.cpp **** 
 861:Lib/serial/serial.cpp ****     // -------------------- 触发任务切换 --------------------
 862:Lib/serial/serial.cpp ****     portYIELD_FROM_ISR(pxHigherPriorityTaskWoken);
 2557              		.loc 1 862 5 view .LVU698
 2558 0864 049B     		ldr	r3, [sp, #16]
 2559 0866 002B     		cmp	r3, #0
 2560 0868 37D0     		beq	.L128
 2561              		.loc 1 862 5 discriminator 1 view .LVU699
 2562 086a 234B     		ldr	r3, .L140+8
 2563 086c 8022     		movs	r2, #128
 2564 086e 5205     		lsls	r2, r2, #21
 2565 0870 1A60     		str	r2, [r3]
ARM GAS  /tmp/ccUDp7dI.s 			page 67


 2566              	.LVL224:
 2567              		.loc 1 862 5 is_stmt 0 discriminator 1 view .LVU700
 2568 0872 32E0     		b	.L128
 2569              	.LVL225:
 2570              	.L139:
 811:Lib/serial/serial.cpp ****     }
 2571              		.loc 1 811 9 is_stmt 1 view .LVU701
 811:Lib/serial/serial.cpp ****     }
 2572              		.loc 1 811 47 is_stmt 0 view .LVU702
 2573 0874 FFF7FEFF 		bl	_ZN10HAL_System11get_tick_msEv
 2574              	.LVL226:
 811:Lib/serial/serial.cpp ****     }
 2575              		.loc 1 811 22 discriminator 1 view .LVU703
 2576 0878 0790     		str	r0, [sp, #28]
 2577 087a C2E7     		b	.L129
 2578              	.LVL227:
 2579              	.L130:
 2580              	.LBB31:
 2581              	.LBB30:
 836:Lib/serial/serial.cpp ****         tx_pack.pData = _tx_buf.pData;
 2582              		.loc 1 836 9 is_stmt 1 view .LVU704
 836:Lib/serial/serial.cpp ****         tx_pack.pData = _tx_buf.pData;
 2583              		.loc 1 836 24 is_stmt 0 view .LVU705
 2584 087c 286B     		ldr	r0, [r5, #48]
 836:Lib/serial/serial.cpp ****         tx_pack.pData = _tx_buf.pData;
 2585              		.loc 1 836 15 view .LVU706
 2586 087e 3200     		movs	r2, r6
 2587 0880 0099     		ldr	r1, [sp]
 2588 0882 FFF7FEFF 		bl	memcpy
 2589              	.LVL228:
 837:Lib/serial/serial.cpp ****         tx_pack.size = rest_buf_size;
 2590              		.loc 1 837 9 is_stmt 1 view .LVU707
 837:Lib/serial/serial.cpp ****         tx_pack.size = rest_buf_size;
 2591              		.loc 1 837 33 is_stmt 0 view .LVU708
 2592 0886 2B6B     		ldr	r3, [r5, #48]
 837:Lib/serial/serial.cpp ****         tx_pack.size = rest_buf_size;
 2593              		.loc 1 837 23 view .LVU709
 2594 0888 05AA     		add	r2, sp, #20
 2595 088a 9146     		mov	r9, r2
 2596 088c 0593     		str	r3, [sp, #20]
 838:Lib/serial/serial.cpp **** 
 2597              		.loc 1 838 9 is_stmt 1 view .LVU710
 838:Lib/serial/serial.cpp **** 
 2598              		.loc 1 838 22 is_stmt 0 view .LVU711
 2599 088e 9680     		strh	r6, [r2, #4]
 840:Lib/serial/serial.cpp **** 
 2600              		.loc 1 840 9 is_stmt 1 view .LVU712
 2601 0890 04AB     		add	r3, sp, #16
 2602 0892 9A46     		mov	r10, r3
 2603 0894 E86B     		ldr	r0, [r5, #60]
 2604 0896 0023     		movs	r3, #0
 2605 0898 5246     		mov	r2, r10
 2606 089a 4946     		mov	r1, r9
 2607 089c FFF7FEFF 		bl	xQueueGenericSendFromISR
 2608              	.LVL229:
 842:Lib/serial/serial.cpp **** 
 2609              		.loc 1 842 9 view .LVU713
ARM GAS  /tmp/ccUDp7dI.s 			page 68


 842:Lib/serial/serial.cpp **** 
 2610              		.loc 1 842 18 is_stmt 0 view .LVU714
 2611 08a0 4246     		mov	r2, r8
 2612 08a2 5846     		mov	r0, fp
 2613 08a4 131A     		subs	r3, r2, r0
 2614 08a6 FB18     		adds	r3, r7, r3
 2615 08a8 9AB2     		uxth	r2, r3
 2616 08aa 9046     		mov	r8, r2
 2617              	.LVL230:
 844:Lib/serial/serial.cpp **** 
 2618              		.loc 1 844 9 is_stmt 1 view .LVU715
 844:Lib/serial/serial.cpp **** 
 2619              		.loc 1 844 24 is_stmt 0 view .LVU716
 2620 08ac A86A     		ldr	r0, [r5, #40]
 844:Lib/serial/serial.cpp **** 
 2621              		.loc 1 844 38 view .LVU717
 2622 08ae 009B     		ldr	r3, [sp]
 2623 08b0 9919     		adds	r1, r3, r6
 844:Lib/serial/serial.cpp **** 
 2624              		.loc 1 844 15 view .LVU718
 2625 08b2 FFF7FEFF 		bl	memcpy
 2626              	.LVL231:
 846:Lib/serial/serial.cpp ****         tx_pack.size = rest_pack_size;
 2627              		.loc 1 846 9 is_stmt 1 view .LVU719
 846:Lib/serial/serial.cpp ****         tx_pack.size = rest_pack_size;
 2628              		.loc 1 846 33 is_stmt 0 view .LVU720
 2629 08b6 AB6A     		ldr	r3, [r5, #40]
 846:Lib/serial/serial.cpp ****         tx_pack.size = rest_pack_size;
 2630              		.loc 1 846 23 view .LVU721
 2631 08b8 0593     		str	r3, [sp, #20]
 847:Lib/serial/serial.cpp **** 
 2632              		.loc 1 847 9 is_stmt 1 view .LVU722
 847:Lib/serial/serial.cpp **** 
 2633              		.loc 1 847 22 is_stmt 0 view .LVU723
 2634 08ba 4B46     		mov	r3, r9
 2635 08bc 4246     		mov	r2, r8
 2636 08be 9A80     		strh	r2, [r3, #4]
 849:Lib/serial/serial.cpp **** 
 2637              		.loc 1 849 9 is_stmt 1 view .LVU724
 2638 08c0 E86B     		ldr	r0, [r5, #60]
 2639 08c2 0023     		movs	r3, #0
 2640 08c4 5246     		mov	r2, r10
 2641 08c6 4946     		mov	r1, r9
 2642 08c8 FFF7FEFF 		bl	xQueueGenericSendFromISR
 2643              	.LVL232:
 851:Lib/serial/serial.cpp ****         _tx_buf.pData = _tx_buf.pBuffer + _tx_buf.index;
 2644              		.loc 1 851 9 view .LVU725
 851:Lib/serial/serial.cpp ****         _tx_buf.pData = _tx_buf.pBuffer + _tx_buf.index;
 2645              		.loc 1 851 23 is_stmt 0 view .LVU726
 2646 08cc 4346     		mov	r3, r8
 2647 08ce AB86     		strh	r3, [r5, #52]
 852:Lib/serial/serial.cpp ****     }
 2648              		.loc 1 852 9 is_stmt 1 view .LVU727
 852:Lib/serial/serial.cpp ****     }
 2649              		.loc 1 852 33 is_stmt 0 view .LVU728
 2650 08d0 AB6A     		ldr	r3, [r5, #40]
 852:Lib/serial/serial.cpp ****     }
ARM GAS  /tmp/ccUDp7dI.s 			page 69


 2651              		.loc 1 852 41 view .LVU729
 2652 08d2 4344     		add	r3, r3, r8
 852:Lib/serial/serial.cpp ****     }
 2653              		.loc 1 852 23 view .LVU730
 2654 08d4 2B63     		str	r3, [r5, #48]
 2655 08d6 BCE7     		b	.L132
 2656              	.LVL233:
 2657              	.L133:
 852:Lib/serial/serial.cpp ****     }
 2658              		.loc 1 852 23 view .LVU731
 2659              	.LBE30:
 2660              	.LBE31:
 796:Lib/serial/serial.cpp **** 
 2661              		.loc 1 796 16 view .LVU732
 2662 08d8 0024     		movs	r4, #0
 2663              	.LVL234:
 2664              	.L128:
 863:Lib/serial/serial.cpp **** 
 864:Lib/serial/serial.cpp ****     return true;
 865:Lib/serial/serial.cpp **** }
 2665              		.loc 1 865 1 view .LVU733
 2666 08da 2000     		movs	r0, r4
 2667 08dc 09B0     		add	sp, sp, #36
 2668              		@ sp needed
 2669              	.LVL235:
 2670              	.LVL236:
 2671              		.loc 1 865 1 view .LVU734
 2672 08de F0BC     		pop	{r4, r5, r6, r7}
 2673 08e0 BB46     		mov	fp, r7
 2674 08e2 B246     		mov	r10, r6
 2675 08e4 A946     		mov	r9, r5
 2676 08e6 A046     		mov	r8, r4
 2677 08e8 F0BD     		pop	{r4, r5, r6, r7, pc}
 2678              	.LVL237:
 2679              	.L136:
 806:Lib/serial/serial.cpp **** 
 2680              		.loc 1 806 16 view .LVU735
 2681 08ea 3400     		movs	r4, r6
 2682 08ec F5E7     		b	.L128
 2683              	.L141:
 2684 08ee C046     		.align	2
 2685              	.L140:
 2686 08f0 9A999999 		.word	-1717986918
 2687 08f4 9999E93F 		.word	1072273817
 2688 08f8 04ED00E0 		.word	-536810236
 2689              		.cfi_endproc
 2690              	.LFE495:
 2692              		.align	1
 2693              		.global	_ZN6Serial14send_data_fastEPht
 2694              		.syntax unified
 2695              		.code	16
 2696              		.thumb_func
 2698              	_ZN6Serial14send_data_fastEPht:
 2699              	.LVL238:
 2700              	.LFB496:
 866:Lib/serial/serial.cpp **** 
 867:Lib/serial/serial.cpp **** // ============================================================
ARM GAS  /tmp/ccUDp7dI.s 			page 70


 868:Lib/serial/serial.cpp **** // send_data_fast - 快速发送（直接调用 DMA/IT，不排队）
 869:Lib/serial/serial.cpp **** // 参数：
 870:Lib/serial/serial.cpp **** //   data - 数据指针
 871:Lib/serial/serial.cpp **** //   size - 数据长度
 872:Lib/serial/serial.cpp **** // 返回：true 成功
 873:Lib/serial/serial.cpp **** // 说明：
 874:Lib/serial/serial.cpp **** //   - 不检查忙碌状态，不排队，直接发送
 875:Lib/serial/serial.cpp **** //   - 如果上一次发送未完成，会覆盖正在发送的数据
 876:Lib/serial/serial.cpp **** //   - 适合实时性要求高的场景
 877:Lib/serial/serial.cpp **** // ============================================================
 878:Lib/serial/serial.cpp **** bool Serial::send_data_fast(uint8_t *data, uint16_t size)
 879:Lib/serial/serial.cpp **** {
 2701              		.loc 1 879 1 is_stmt 1 view -0
 2702              		.cfi_startproc
 2703              		@ args = 0, pretend = 0, frame = 0
 2704              		@ frame_needed = 0, uses_anonymous_args = 0
 2705              		.loc 1 879 1 is_stmt 0 view .LVU737
 2706 08fc 10B5     		push	{r4, lr}
 2707              		.cfi_def_cfa_offset 8
 2708              		.cfi_offset 4, -8
 2709              		.cfi_offset 14, -4
 880:Lib/serial/serial.cpp ****     if (data == NULL || size == 0 || !is_ready())
 2710              		.loc 1 880 5 is_stmt 1 view .LVU738
 2711              		.loc 1 880 35 is_stmt 0 view .LVU739
 2712 08fe 0029     		cmp	r1, #0
 2713 0900 12D0     		beq	.L145
 2714              		.loc 1 880 22 discriminator 2 view .LVU740
 2715 0902 002A     		cmp	r2, #0
 2716 0904 12D0     		beq	.L146
 2717              	.LVL239:
 2718              	.LBB32:
 2719              	.LBI32:
 2720              		.loc 2 121 10 is_stmt 1 view .LVU741
 2721              	.LBB33:
 2722              		.loc 2 121 27 view .LVU742
 2723              		.loc 2 121 34 is_stmt 0 view .LVU743
 2724 0906 047C     		ldrb	r4, [r0, #16]
 2725              	.LVL240:
 2726              		.loc 2 121 34 view .LVU744
 2727              	.LBE33:
 2728              	.LBE32:
 2729              		.loc 1 880 35 discriminator 1 view .LVU745
 2730 0908 002C     		cmp	r4, #0
 2731 090a 10D0     		beq	.L143
 881:Lib/serial/serial.cpp ****         return false;
 882:Lib/serial/serial.cpp **** 
 883:Lib/serial/serial.cpp ****     if (_config.tx_mode == Serial_Mode::IT)
 2732              		.loc 1 883 5 is_stmt 1 view .LVU746
 2733              		.loc 1 883 17 is_stmt 0 view .LVU747
 2734 090c 7723     		movs	r3, #119
 2735 090e C35C     		ldrb	r3, [r0, r3]
 2736              		.loc 1 883 5 view .LVU748
 2737 0910 012B     		cmp	r3, #1
 2738 0912 05D0     		beq	.L147
 884:Lib/serial/serial.cpp ****     {
 885:Lib/serial/serial.cpp ****         // IT 方式发送
 886:Lib/serial/serial.cpp ****         HAL_UART_Transmit_IT(_uart, data, size);
ARM GAS  /tmp/ccUDp7dI.s 			page 71


 887:Lib/serial/serial.cpp ****     }
 888:Lib/serial/serial.cpp ****     else if (_config.tx_mode == Serial_Mode::DMA)
 2739              		.loc 1 888 10 is_stmt 1 view .LVU749
 2740 0914 022B     		cmp	r3, #2
 2741 0916 0AD1     		bne	.L143
 889:Lib/serial/serial.cpp ****     {
 890:Lib/serial/serial.cpp ****         // DMA 方式发送
 891:Lib/serial/serial.cpp ****         HAL_UART_Transmit_DMA(_uart, data, size);
 2742              		.loc 1 891 9 view .LVU750
 2743              		.loc 1 891 30 is_stmt 0 view .LVU751
 2744 0918 4069     		ldr	r0, [r0, #20]
 2745              	.LVL241:
 2746              		.loc 1 891 30 view .LVU752
 2747 091a FFF7FEFF 		bl	HAL_UART_Transmit_DMA
 2748              	.LVL242:
 2749              		.loc 1 891 30 view .LVU753
 2750 091e 06E0     		b	.L143
 2751              	.LVL243:
 2752              	.L147:
 886:Lib/serial/serial.cpp ****     }
 2753              		.loc 1 886 9 is_stmt 1 view .LVU754
 886:Lib/serial/serial.cpp ****     }
 2754              		.loc 1 886 29 is_stmt 0 view .LVU755
 2755 0920 4069     		ldr	r0, [r0, #20]
 2756              	.LVL244:
 886:Lib/serial/serial.cpp ****     }
 2757              		.loc 1 886 29 view .LVU756
 2758 0922 FFF7FEFF 		bl	HAL_UART_Transmit_IT
 2759              	.LVL245:
 886:Lib/serial/serial.cpp ****     }
 2760              		.loc 1 886 29 view .LVU757
 2761 0926 02E0     		b	.L143
 2762              	.LVL246:
 2763              	.L145:
 881:Lib/serial/serial.cpp **** 
 2764              		.loc 1 881 16 view .LVU758
 2765 0928 0024     		movs	r4, #0
 2766 092a 00E0     		b	.L143
 2767              	.L146:
 2768 092c 0024     		movs	r4, #0
 2769              	.LVL247:
 2770              	.L143:
 892:Lib/serial/serial.cpp ****     }
 893:Lib/serial/serial.cpp **** 
 894:Lib/serial/serial.cpp ****     return true;
 895:Lib/serial/serial.cpp **** }
 2771              		.loc 1 895 1 view .LVU759
 2772 092e 2000     		movs	r0, r4
 2773              		@ sp needed
 2774 0930 10BD     		pop	{r4, pc}
 2775              		.cfi_endproc
 2776              	.LFE496:
 2778              		.align	1
 2779              		.global	_ZN6Serial5printEPKcz
 2780              		.syntax unified
 2781              		.code	16
 2782              		.thumb_func
ARM GAS  /tmp/ccUDp7dI.s 			page 72


 2784              	_ZN6Serial5printEPKcz:
 2785              	.LVL248:
 2786              	.LFB497:
 896:Lib/serial/serial.cpp **** 
 897:Lib/serial/serial.cpp **** // ============================================================
 898:Lib/serial/serial.cpp **** // print - 格式化打印（类似 printf，但通过串口发送）
 899:Lib/serial/serial.cpp **** // 参数：format - 格式化字符串（同 printf）
 900:Lib/serial/serial.cpp **** // 返回：发送的字符数，-1 表示失败
 901:Lib/serial/serial.cpp **** // 说明：
 902:Lib/serial/serial.cpp **** //   - 支持 %d、%f、%s 等格式化输出
 903:Lib/serial/serial.cpp **** //   - 内部使用 vsnprintf 格式化，然后调用 send_data
 904:Lib/serial/serial.cpp **** //   - 发送失败会重试 100 次 × 1ms
 905:Lib/serial/serial.cpp **** // ============================================================
 906:Lib/serial/serial.cpp **** int Serial::print(const char *format, ...)
 907:Lib/serial/serial.cpp **** {
 2787              		.loc 1 907 1 is_stmt 1 view -0
 2788              		.cfi_startproc
 2789              		@ args = 4, pretend = 12, frame = 16
 2790              		@ frame_needed = 0, uses_anonymous_args = 1
 2791              		.loc 1 907 1 is_stmt 0 view .LVU761
 2792 0932 0EB4     		push	{r1, r2, r3}
 2793              		.cfi_def_cfa_offset 12
 2794 0934 F0B5     		push	{r4, r5, r6, r7, lr}
 2795              		.cfi_def_cfa_offset 32
 2796              		.cfi_offset 4, -32
 2797              		.cfi_offset 5, -28
 2798              		.cfi_offset 6, -24
 2799              		.cfi_offset 7, -20
 2800              		.cfi_offset 14, -16
 2801 0936 84B0     		sub	sp, sp, #16
 2802              		.cfi_def_cfa_offset 48
 2803 0938 0600     		movs	r6, r0
 2804 093a 0025     		movs	r5, #0
 908:Lib/serial/serial.cpp ****     // 分配临时缓冲区存储格式化后的字符串
 909:Lib/serial/serial.cpp ****     uint8_t *print_buf = (uint8_t *)pvPortMalloc(SERIAL_PRINT_SIZE);
 2805              		.loc 1 909 5 is_stmt 1 view .LVU762
 2806              		.loc 1 909 49 is_stmt 0 view .LVU763
 2807 093c C820     		movs	r0, #200
 2808              	.LVL249:
 2809              		.loc 1 909 49 view .LVU764
 2810 093e FFF7FEFF 		bl	pvPortMalloc
 2811              	.LVL250:
 2812 0942 071E     		subs	r7, r0, #0
 2813              	.LVL251:
 910:Lib/serial/serial.cpp **** 
 911:Lib/serial/serial.cpp ****     if (print_buf == NULL)
 2814              		.loc 1 911 5 is_stmt 1 view .LVU765
 2815 0944 26D0     		beq	.L154
 912:Lib/serial/serial.cpp ****         return -1;  // 内存分配失败
 913:Lib/serial/serial.cpp **** 
 914:Lib/serial/serial.cpp ****     // -------------------- 格式化字符串 --------------------
 915:Lib/serial/serial.cpp ****     va_list args;
 2816              		.loc 1 915 5 view .LVU766
 916:Lib/serial/serial.cpp ****     va_start(args, format);  // 开始解析可变参数
 2817              		.loc 1 916 5 view .LVU767
 2818 0946 0AAB     		add	r3, sp, #40
 2819 0948 0393     		str	r3, [sp, #12]
ARM GAS  /tmp/ccUDp7dI.s 			page 73


 917:Lib/serial/serial.cpp ****     // vsnprintf：安全版本的 snprintf，防止缓冲区溢出
 918:Lib/serial/serial.cpp ****     int len = vsnprintf((char *)print_buf, SERIAL_PRINT_SIZE, format, args);
 2820              		.loc 1 918 5 view .LVU768
 2821              		.loc 1 918 24 is_stmt 0 view .LVU769
 2822 094a 099A     		ldr	r2, [sp, #36]
 2823 094c C821     		movs	r1, #200
 2824 094e FFF7FEFF 		bl	vsnprintf_
 2825              	.LVL252:
 2826              		.loc 1 918 24 view .LVU770
 2827 0952 0190     		str	r0, [sp, #4]
 2828              	.LVL253:
 919:Lib/serial/serial.cpp ****     va_end(args);  // 结束解析
 2829              		.loc 1 919 5 is_stmt 1 view .LVU771
 920:Lib/serial/serial.cpp **** 
 921:Lib/serial/serial.cpp ****     // -------------------- 发送（失败重试） --------------------
 922:Lib/serial/serial.cpp ****     bool status;
 2830              		.loc 1 922 5 view .LVU772
 923:Lib/serial/serial.cpp ****     for (uint8_t i = 0; i < 100; i++)  // 最多重试 100 次
 2831              		.loc 1 923 5 view .LVU773
 2832              	.LBB34:
 2833              		.loc 1 923 18 is_stmt 0 view .LVU774
 2834 0954 0024     		movs	r4, #0
 2835              	.LVL254:
 2836              	.L150:
 2837              		.loc 1 923 27 is_stmt 1 discriminator 1 view .LVU775
 2838 0956 632C     		cmp	r4, #99
 2839 0958 0ED8     		bhi	.L151
 924:Lib/serial/serial.cpp ****     {
 925:Lib/serial/serial.cpp ****         status = send_data(print_buf, len);  // 调用已有的 send_data
 2840              		.loc 1 925 9 view .LVU776
 2841              		.loc 1 925 27 is_stmt 0 view .LVU777
 2842 095a 6B46     		mov	r3, sp
 2843 095c 9A88     		ldrh	r2, [r3, #4]
 2844 095e 0023     		movs	r3, #0
 2845 0960 3900     		movs	r1, r7
 2846 0962 3000     		movs	r0, r6
 2847 0964 FFF7FEFF 		bl	_ZN6Serial9send_dataEPhtm
 2848              	.LVL255:
 2849 0968 051E     		subs	r5, r0, #0
 2850              	.LVL256:
 926:Lib/serial/serial.cpp ****         if (status)
 2851              		.loc 1 926 9 is_stmt 1 view .LVU778
 2852 096a 05D1     		bne	.L151
 927:Lib/serial/serial.cpp ****             break;  // 发送成功，退出重试循环
 928:Lib/serial/serial.cpp ****         vTaskDelay(pdMS_TO_TICKS(1));  // 等待 1ms 后重试
 2853              		.loc 1 928 9 view .LVU779
 2854              		.loc 1 928 19 is_stmt 0 view .LVU780
 2855 096c 0120     		movs	r0, #1
 2856              	.LVL257:
 2857              		.loc 1 928 19 view .LVU781
 2858 096e FFF7FEFF 		bl	vTaskDelay
 2859              	.LVL258:
 923:Lib/serial/serial.cpp ****     {
 2860              		.loc 1 923 5 is_stmt 1 discriminator 2 view .LVU782
 2861 0972 0134     		adds	r4, r4, #1
 2862              	.LVL259:
 923:Lib/serial/serial.cpp ****     {
ARM GAS  /tmp/ccUDp7dI.s 			page 74


 2863              		.loc 1 923 5 is_stmt 0 discriminator 2 view .LVU783
 2864 0974 E4B2     		uxtb	r4, r4
 2865              	.LVL260:
 923:Lib/serial/serial.cpp ****     {
 2866              		.loc 1 923 5 discriminator 2 view .LVU784
 2867 0976 EEE7     		b	.L150
 2868              	.LVL261:
 2869              	.L151:
 923:Lib/serial/serial.cpp ****     {
 2870              		.loc 1 923 5 discriminator 2 view .LVU785
 2871              	.LBE34:
 929:Lib/serial/serial.cpp ****     }
 930:Lib/serial/serial.cpp **** 
 931:Lib/serial/serial.cpp ****     if (!status)
 2872              		.loc 1 931 5 is_stmt 1 view .LVU786
 2873 0978 002D     		cmp	r5, #0
 2874 097a 02D1     		bne	.L153
 932:Lib/serial/serial.cpp ****         len = -1;  // 100 次都失败，标记失败
 2875              		.loc 1 932 13 is_stmt 0 view .LVU787
 2876 097c 0123     		movs	r3, #1
 2877 097e 5B42     		rsbs	r3, r3, #0
 2878 0980 0193     		str	r3, [sp, #4]
 2879              	.LVL262:
 2880              	.L153:
 933:Lib/serial/serial.cpp **** 
 934:Lib/serial/serial.cpp ****     // -------------------- 释放临时缓冲区 --------------------
 935:Lib/serial/serial.cpp ****     vPortFree(print_buf);
 2881              		.loc 1 935 5 is_stmt 1 view .LVU788
 2882              		.loc 1 935 14 is_stmt 0 view .LVU789
 2883 0982 3800     		movs	r0, r7
 2884 0984 FFF7FEFF 		bl	vPortFree
 2885              	.LVL263:
 936:Lib/serial/serial.cpp **** 
 937:Lib/serial/serial.cpp ****     return len;
 2886              		.loc 1 937 5 is_stmt 1 view .LVU790
 2887              	.L148:
 938:Lib/serial/serial.cpp **** }
 2888              		.loc 1 938 1 is_stmt 0 view .LVU791
 2889 0988 0198     		ldr	r0, [sp, #4]
 2890 098a 04B0     		add	sp, sp, #16
 2891              		@ sp needed
 2892              	.LVL264:
 2893              	.LVL265:
 2894              		.loc 1 938 1 view .LVU792
 2895 098c F0BC     		pop	{r4, r5, r6, r7}
 2896 098e 08BC     		pop	{r3}
 2897 0990 03B0     		add	sp, sp, #12
 2898 0992 1847     		bx	r3
 2899              	.LVL266:
 2900              	.L154:
 912:Lib/serial/serial.cpp **** 
 2901              		.loc 1 912 17 view .LVU793
 2902 0994 0123     		movs	r3, #1
 2903 0996 5B42     		rsbs	r3, r3, #0
 2904 0998 0193     		str	r3, [sp, #4]
 2905 099a F5E7     		b	.L148
 2906              		.cfi_endproc
ARM GAS  /tmp/ccUDp7dI.s 			page 75


 2907              	.LFE497:
 2909              		.align	1
 2910              		.global	_ZN6Serial14print_from_isrEPKcz
 2911              		.syntax unified
 2912              		.code	16
 2913              		.thumb_func
 2915              	_ZN6Serial14print_from_isrEPKcz:
 2916              	.LVL267:
 2917              	.LFB498:
 939:Lib/serial/serial.cpp **** 
 940:Lib/serial/serial.cpp **** // ============================================================
 941:Lib/serial/serial.cpp **** // print_from_isr - 中断安全版本的格式化打印
 942:Lib/serial/serial.cpp **** // 说明：同 print，但可在中断中使用，不重试
 943:Lib/serial/serial.cpp **** // ============================================================
 944:Lib/serial/serial.cpp **** int Serial::print_from_isr(const char *format, ...)
 945:Lib/serial/serial.cpp **** {
 2918              		.loc 1 945 1 is_stmt 1 view -0
 2919              		.cfi_startproc
 2920              		@ args = 4, pretend = 12, frame = 8
 2921              		@ frame_needed = 0, uses_anonymous_args = 1
 2922              		.loc 1 945 1 is_stmt 0 view .LVU795
 2923 099c 0EB4     		push	{r1, r2, r3}
 2924              		.cfi_def_cfa_offset 12
 2925 099e 70B5     		push	{r4, r5, r6, lr}
 2926              		.cfi_def_cfa_offset 28
 2927              		.cfi_offset 4, -28
 2928              		.cfi_offset 5, -24
 2929              		.cfi_offset 6, -20
 2930              		.cfi_offset 14, -16
 2931 09a0 83B0     		sub	sp, sp, #12
 2932              		.cfi_def_cfa_offset 40
 2933 09a2 0600     		movs	r6, r0
 946:Lib/serial/serial.cpp ****     uint8_t *print_buf = (uint8_t *)pvPortMalloc(SERIAL_PRINT_SIZE);
 2934              		.loc 1 946 5 is_stmt 1 view .LVU796
 2935              		.loc 1 946 49 is_stmt 0 view .LVU797
 2936 09a4 C820     		movs	r0, #200
 2937              	.LVL268:
 2938              		.loc 1 946 49 view .LVU798
 2939 09a6 FFF7FEFF 		bl	pvPortMalloc
 2940              	.LVL269:
 2941 09aa 041E     		subs	r4, r0, #0
 2942              	.LVL270:
 947:Lib/serial/serial.cpp **** 
 948:Lib/serial/serial.cpp ****     if (print_buf == NULL)
 2943              		.loc 1 948 5 is_stmt 1 view .LVU799
 2944 09ac 19D0     		beq	.L159
 949:Lib/serial/serial.cpp ****         return -1;
 950:Lib/serial/serial.cpp **** 
 951:Lib/serial/serial.cpp ****     // 格式化
 952:Lib/serial/serial.cpp ****     va_list args;
 2945              		.loc 1 952 5 view .LVU800
 953:Lib/serial/serial.cpp ****     va_start(args, format);
 2946              		.loc 1 953 5 view .LVU801
 2947 09ae 08AB     		add	r3, sp, #32
 2948 09b0 0193     		str	r3, [sp, #4]
 954:Lib/serial/serial.cpp ****     int len = vsnprintf((char *)print_buf, SERIAL_PRINT_SIZE, format, args);
 2949              		.loc 1 954 5 view .LVU802
ARM GAS  /tmp/ccUDp7dI.s 			page 76


 2950              		.loc 1 954 24 is_stmt 0 view .LVU803
 2951 09b2 079A     		ldr	r2, [sp, #28]
 2952 09b4 C821     		movs	r1, #200
 2953 09b6 FFF7FEFF 		bl	vsnprintf_
 2954              	.LVL271:
 2955              		.loc 1 954 24 view .LVU804
 2956 09ba 0500     		movs	r5, r0
 2957              	.LVL272:
 955:Lib/serial/serial.cpp ****     va_end(args);
 2958              		.loc 1 955 5 is_stmt 1 view .LVU805
 956:Lib/serial/serial.cpp **** 
 957:Lib/serial/serial.cpp ****     // 发送（中断版本，不重试）
 958:Lib/serial/serial.cpp ****     bool status;
 2959              		.loc 1 958 5 view .LVU806
 959:Lib/serial/serial.cpp ****     status = send_data_from_isr(print_buf, len);
 2960              		.loc 1 959 5 view .LVU807
 2961              		.loc 1 959 32 is_stmt 0 view .LVU808
 2962 09bc 82B2     		uxth	r2, r0
 2963 09be 0023     		movs	r3, #0
 2964 09c0 2100     		movs	r1, r4
 2965 09c2 3000     		movs	r0, r6
 2966              	.LVL273:
 2967              		.loc 1 959 32 view .LVU809
 2968 09c4 FFF7FEFF 		bl	_ZN6Serial18send_data_from_isrEPhtm
 2969              	.LVL274:
 960:Lib/serial/serial.cpp **** 
 961:Lib/serial/serial.cpp ****     if (!status)
 2970              		.loc 1 961 5 is_stmt 1 view .LVU810
 2971 09c8 0028     		cmp	r0, #0
 2972 09ca 01D1     		bne	.L158
 962:Lib/serial/serial.cpp ****         len = -1;
 2973              		.loc 1 962 13 is_stmt 0 view .LVU811
 2974 09cc 0125     		movs	r5, #1
 2975              	.LVL275:
 2976              		.loc 1 962 13 view .LVU812
 2977 09ce 6D42     		rsbs	r5, r5, #0
 2978              	.L158:
 2979              	.LVL276:
 963:Lib/serial/serial.cpp **** 
 964:Lib/serial/serial.cpp ****     vPortFree(print_buf);
 2980              		.loc 1 964 5 is_stmt 1 view .LVU813
 2981              		.loc 1 964 14 is_stmt 0 view .LVU814
 2982 09d0 2000     		movs	r0, r4
 2983              	.LVL277:
 2984              		.loc 1 964 14 view .LVU815
 2985 09d2 FFF7FEFF 		bl	vPortFree
 2986              	.LVL278:
 965:Lib/serial/serial.cpp **** 
 966:Lib/serial/serial.cpp ****     return len;
 2987              		.loc 1 966 5 is_stmt 1 view .LVU816
 2988              	.L156:
 967:Lib/serial/serial.cpp **** }
 2989              		.loc 1 967 1 is_stmt 0 view .LVU817
 2990 09d6 2800     		movs	r0, r5
 2991 09d8 03B0     		add	sp, sp, #12
 2992              		@ sp needed
 2993              	.LVL279:
ARM GAS  /tmp/ccUDp7dI.s 			page 77


 2994              	.LVL280:
 2995              		.loc 1 967 1 view .LVU818
 2996 09da 70BC     		pop	{r4, r5, r6}
 2997 09dc 08BC     		pop	{r3}
 2998 09de 03B0     		add	sp, sp, #12
 2999 09e0 1847     		bx	r3
 3000              	.LVL281:
 3001              	.L159:
 949:Lib/serial/serial.cpp **** 
 3002              		.loc 1 949 17 view .LVU819
 3003 09e2 0125     		movs	r5, #1
 3004 09e4 6D42     		rsbs	r5, r5, #0
 3005 09e6 F6E7     		b	.L156
 3006              		.cfi_endproc
 3007              	.LFE498:
 3009              		.align	1
 3010              		.global	_ZN6Serial8_rx_taskEv
 3011              		.syntax unified
 3012              		.code	16
 3013              		.thumb_func
 3015              	_ZN6Serial8_rx_taskEv:
 3016              	.LVL282:
 3017              	.LFB499:
 968:Lib/serial/serial.cpp **** 
 969:Lib/serial/serial.cpp **** // ============================================================
 970:Lib/serial/serial.cpp **** // _rx_task - 接收任务主循环（FreeRTOS 任务入口）
 971:Lib/serial/serial.cpp **** // 说明：
 972:Lib/serial/serial.cpp **** //   - 阻塞等待接收队列
 973:Lib/serial/serial.cpp **** //   - 收到数据包后，调用用户注册的回调函数
 974:Lib/serial/serial.cpp **** // ============================================================
 975:Lib/serial/serial.cpp **** void Serial::_rx_task(void)
 976:Lib/serial/serial.cpp **** {
 3018              		.loc 1 976 1 is_stmt 1 view -0
 3019              		.cfi_startproc
 3020              		@ Volatile: function does not return.
 3021              		@ args = 0, pretend = 0, frame = 16
 3022              		@ frame_needed = 0, uses_anonymous_args = 0
 3023              		.loc 1 976 1 is_stmt 0 view .LVU821
 3024 09e8 10B5     		push	{r4, lr}
 3025              		.cfi_def_cfa_offset 8
 3026              		.cfi_offset 4, -8
 3027              		.cfi_offset 14, -4
 3028 09ea 84B0     		sub	sp, sp, #16
 3029              		.cfi_def_cfa_offset 24
 3030 09ec 0400     		movs	r4, r0
 3031              	.LVL283:
 3032              	.L162:
 977:Lib/serial/serial.cpp ****     DataPack_t pack;  // 本地数据包
 3033              		.loc 1 977 5 is_stmt 1 view .LVU822
 978:Lib/serial/serial.cpp **** 
 979:Lib/serial/serial.cpp ****     while (1)  // FreeRTOS 任务必须是无限循环
 3034              		.loc 1 979 5 view .LVU823
 980:Lib/serial/serial.cpp ****     {
 981:Lib/serial/serial.cpp ****         // -------------------- 阻塞等待接收队列 --------------------
 982:Lib/serial/serial.cpp ****         // xQueueReceive：从队列中取出数据包
 983:Lib/serial/serial.cpp ****         // portMAX_DELAY = 无限等待，直到队列有数据
 984:Lib/serial/serial.cpp ****         xQueueReceive(_rx_queue, &pack, portMAX_DELAY);
ARM GAS  /tmp/ccUDp7dI.s 			page 78


 3035              		.loc 1 984 9 view .LVU824
 3036              		.loc 1 984 22 is_stmt 0 view .LVU825
 3037 09ee 0122     		movs	r2, #1
 3038 09f0 A06B     		ldr	r0, [r4, #56]
 3039 09f2 5242     		rsbs	r2, r2, #0
 3040 09f4 01A9     		add	r1, sp, #4
 3041 09f6 FFF7FEFF 		bl	xQueueReceive
 3042              	.LVL284:
 985:Lib/serial/serial.cpp **** 
 986:Lib/serial/serial.cpp ****         // -------------------- 调用用户回调 --------------------
 987:Lib/serial/serial.cpp ****         if (_rx_msg_handler != NULL)
 3043              		.loc 1 987 9 is_stmt 1 view .LVU826
 3044              		.loc 1 987 13 is_stmt 0 view .LVU827
 3045 09fa 9423     		movs	r3, #148
 3046 09fc E358     		ldr	r3, [r4, r3]
 3047              		.loc 1 987 9 view .LVU828
 3048 09fe 002B     		cmp	r3, #0
 3049 0a00 F5D0     		beq	.L162
 988:Lib/serial/serial.cpp ****         {
 989:Lib/serial/serial.cpp ****             // 将数据包和 Serial 实例传给用户回调
 990:Lib/serial/serial.cpp ****             _rx_msg_handler(&pack, this, _rx_msg_handler_args);
 3050              		.loc 1 990 13 is_stmt 1 view .LVU829
 3051              		.loc 1 990 28 is_stmt 0 view .LVU830
 3052 0a02 9822     		movs	r2, #152
 3053 0a04 A258     		ldr	r2, [r4, r2]
 3054 0a06 2100     		movs	r1, r4
 3055 0a08 01A8     		add	r0, sp, #4
 3056 0a0a 9847     		blx	r3
 3057              	.LVL285:
 3058 0a0c EFE7     		b	.L162
 3059              		.cfi_endproc
 3060              	.LFE499:
 3062              		.align	1
 3063              		.syntax unified
 3064              		.code	16
 3065              		.thumb_func
 3067              	_ZZN6Serial10_init_taskEvENUlPvE_4_FUNES0_:
 3068              	.LFB470:
 280:Lib/serial/serial.cpp ****     {
 3069              		.loc 1 280 37 is_stmt 1 view -0
 3070              		.cfi_startproc
 3071              		@ Volatile: function does not return.
 3072              		@ args = 0, pretend = 0, frame = 0
 3073              		@ frame_needed = 0, uses_anonymous_args = 0
 3074 0a0e 10B5     		push	{r4, lr}
 3075              		.cfi_def_cfa_offset 8
 3076              		.cfi_offset 4, -8
 3077              		.cfi_offset 14, -4
 3078              	.LVL286:
 3079              	.LBB35:
 3080              	.LBI35:
 280:Lib/serial/serial.cpp ****     {
 3081              		.loc 1 280 37 view .LVU832
 3082              	.LBB36:
 283:Lib/serial/serial.cpp ****         sr->_rx_task();  // 进入接收任务主循环
 3083              		.loc 1 283 9 view .LVU833
 284:Lib/serial/serial.cpp ****     };
ARM GAS  /tmp/ccUDp7dI.s 			page 79


 3084              		.loc 1 284 9 view .LVU834
 284:Lib/serial/serial.cpp ****     };
 3085              		.loc 1 284 21 is_stmt 0 view .LVU835
 3086 0a10 FFF7FEFF 		bl	_ZN6Serial8_rx_taskEv
 3087              	.LVL287:
 284:Lib/serial/serial.cpp ****     };
 3088              		.loc 1 284 21 view .LVU836
 3089              	.LBE36:
 3090              	.LBE35:
 3091              		.cfi_endproc
 3092              	.LFE470:
 3094              		.align	1
 3095              		.global	_ZN6Serial8_tx_taskEv
 3096              		.syntax unified
 3097              		.code	16
 3098              		.thumb_func
 3100              	_ZN6Serial8_tx_taskEv:
 3101              	.LVL288:
 3102              	.LFB500:
 991:Lib/serial/serial.cpp ****         }
 992:Lib/serial/serial.cpp ****     }
 993:Lib/serial/serial.cpp **** }
 994:Lib/serial/serial.cpp **** 
 995:Lib/serial/serial.cpp **** // ============================================================
 996:Lib/serial/serial.cpp **** // _tx_task - 发送任务主循环（FreeRTOS 任务入口）
 997:Lib/serial/serial.cpp **** // 说明：
 998:Lib/serial/serial.cpp **** //   - 阻塞等待发送队列
 999:Lib/serial/serial.cpp **** //   - 收到数据包后，等待发送信号量，然后触发 DMA/IT 发送
1000:Lib/serial/serial.cpp **** // ============================================================
1001:Lib/serial/serial.cpp **** void Serial::_tx_task(void)
1002:Lib/serial/serial.cpp **** {
 3103              		.loc 1 1002 1 is_stmt 1 view -0
 3104              		.cfi_startproc
 3105              		@ Volatile: function does not return.
 3106              		@ args = 0, pretend = 0, frame = 16
 3107              		@ frame_needed = 0, uses_anonymous_args = 0
 3108              		.loc 1 1002 1 is_stmt 0 view .LVU838
 3109 0a14 70B5     		push	{r4, r5, r6, lr}
 3110              		.cfi_def_cfa_offset 16
 3111              		.cfi_offset 4, -16
 3112              		.cfi_offset 5, -12
 3113              		.cfi_offset 6, -8
 3114              		.cfi_offset 14, -4
 3115 0a16 84B0     		sub	sp, sp, #16
 3116              		.cfi_def_cfa_offset 32
 3117 0a18 0400     		movs	r4, r0
 3118              	.LVL289:
 3119              	.L166:
1003:Lib/serial/serial.cpp ****     DataPack_t pack;
 3120              		.loc 1 1003 5 is_stmt 1 view .LVU839
1004:Lib/serial/serial.cpp **** 
1005:Lib/serial/serial.cpp ****     while (1)
 3121              		.loc 1 1005 5 view .LVU840
1006:Lib/serial/serial.cpp ****     {
1007:Lib/serial/serial.cpp ****         // -------------------- 阻塞等待发送队列 --------------------
1008:Lib/serial/serial.cpp ****         xQueueReceive(_tx_queue, &pack, portMAX_DELAY);
 3122              		.loc 1 1008 9 view .LVU841
ARM GAS  /tmp/ccUDp7dI.s 			page 80


 3123              		.loc 1 1008 22 is_stmt 0 view .LVU842
 3124 0a1a 0126     		movs	r6, #1
 3125 0a1c 7642     		rsbs	r6, r6, #0
 3126 0a1e 01AD     		add	r5, sp, #4
 3127 0a20 E06B     		ldr	r0, [r4, #60]
 3128 0a22 3200     		movs	r2, r6
 3129 0a24 2900     		movs	r1, r5
 3130 0a26 FFF7FEFF 		bl	xQueueReceive
 3131              	.LVL290:
1009:Lib/serial/serial.cpp **** 
1010:Lib/serial/serial.cpp ****         // -------------------- 等待发送资源 --------------------
1011:Lib/serial/serial.cpp ****         // 获取 _tx_src_sem，确保上一次发送已完成
1012:Lib/serial/serial.cpp ****         // 这样可以保证数据包按顺序发送，不会重叠
1013:Lib/serial/serial.cpp ****         xSemaphoreTake(_tx_src_sem, portMAX_DELAY);
 3132              		.loc 1 1013 9 is_stmt 1 view .LVU843
 3133 0a2a 206C     		ldr	r0, [r4, #64]
 3134 0a2c 3100     		movs	r1, r6
 3135 0a2e FFF7FEFF 		bl	xQueueSemaphoreTake
 3136              	.LVL291:
1014:Lib/serial/serial.cpp **** 
1015:Lib/serial/serial.cpp ****         // -------------------- 触发发送 --------------------
1016:Lib/serial/serial.cpp ****         _tx_irq_start(&pack);
 3137              		.loc 1 1016 9 discriminator 1 view .LVU844
 3138              		.loc 1 1016 22 is_stmt 0 discriminator 1 view .LVU845
 3139 0a32 2900     		movs	r1, r5
 3140 0a34 2000     		movs	r0, r4
 3141 0a36 FFF7FEFF 		bl	_ZN6Serial13_tx_irq_startEP12__DataPack_t
 3142              	.LVL292:
1005:Lib/serial/serial.cpp ****     {
 3143              		.loc 1 1005 5 is_stmt 1 view .LVU846
 3144 0a3a EEE7     		b	.L166
 3145              		.cfi_endproc
 3146              	.LFE500:
 3148              		.align	1
 3149              		.syntax unified
 3150              		.code	16
 3151              		.thumb_func
 3153              	_ZZN6Serial10_init_taskEvENUlPvE0_4_FUNES0_:
 3154              	.LFB473:
 297:Lib/serial/serial.cpp ****     {
 3155              		.loc 1 297 37 view -0
 3156              		.cfi_startproc
 3157              		@ Volatile: function does not return.
 3158              		@ args = 0, pretend = 0, frame = 0
 3159              		@ frame_needed = 0, uses_anonymous_args = 0
 3160 0a3c 10B5     		push	{r4, lr}
 3161              		.cfi_def_cfa_offset 8
 3162              		.cfi_offset 4, -8
 3163              		.cfi_offset 14, -4
 3164              	.LVL293:
 3165              	.LBB37:
 3166              	.LBI37:
 297:Lib/serial/serial.cpp ****     {
 3167              		.loc 1 297 37 view .LVU848
 3168              	.LBB38:
 299:Lib/serial/serial.cpp ****         sr->_tx_task();  // 进入发送任务主循环
 3169              		.loc 1 299 9 view .LVU849
ARM GAS  /tmp/ccUDp7dI.s 			page 81


 300:Lib/serial/serial.cpp ****     };
 3170              		.loc 1 300 9 view .LVU850
 300:Lib/serial/serial.cpp ****     };
 3171              		.loc 1 300 21 is_stmt 0 view .LVU851
 3172 0a3e FFF7FEFF 		bl	_ZN6Serial8_tx_taskEv
 3173              	.LVL294:
 300:Lib/serial/serial.cpp ****     };
 3174              		.loc 1 300 21 view .LVU852
 3175              	.LBE38:
 3176              	.LBE37:
 3177              		.cfi_endproc
 3178              	.LFE473:
 3180              		.align	1
 3181              		.global	_ZN6Serial14_error_handlerE12Serial_Error
 3182              		.syntax unified
 3183              		.code	16
 3184              		.thumb_func
 3186              	_ZN6Serial14_error_handlerE12Serial_Error:
 3187              	.LVL295:
 3188              	.LFB501:
1017:Lib/serial/serial.cpp ****     }
1018:Lib/serial/serial.cpp **** }
1019:Lib/serial/serial.cpp **** 
1020:Lib/serial/serial.cpp **** // ============================================================
1021:Lib/serial/serial.cpp **** // _error_handler - 错误处理函数（用户可重写）
1022:Lib/serial/serial.cpp **** // 参数：error - 错误类型
1023:Lib/serial/serial.cpp **** // 说明：
1024:Lib/serial/serial.cpp **** //   - 当前为空实现，用户可自定义错误处理逻辑
1025:Lib/serial/serial.cpp **** //   - 例如：点亮错误指示灯、打印错误日志等
1026:Lib/serial/serial.cpp **** // ============================================================
1027:Lib/serial/serial.cpp **** void Serial::_error_handler(Serial_Error error)
1028:Lib/serial/serial.cpp **** {
 3189              		.loc 1 1028 1 is_stmt 1 view -0
 3190              		.cfi_startproc
 3191              		@ args = 0, pretend = 0, frame = 0
 3192              		@ frame_needed = 0, uses_anonymous_args = 0
 3193              		@ link register save eliminated.
1029:Lib/serial/serial.cpp ****     // 用户可在此实现：
1030:Lib/serial/serial.cpp ****     // - 记录错误日志
1031:Lib/serial/serial.cpp ****     // - 点亮错误 LED
1032:Lib/serial/serial.cpp ****     // - 进入安全模式等
1033:Lib/serial/serial.cpp **** }
 3194              		.loc 1 1033 1 is_stmt 0 view .LVU854
 3195              		@ sp needed
 3196 0a42 7047     		bx	lr
 3197              		.cfi_endproc
 3198              	.LFE501:
 3200              		.global	_ZN6Serial8sr_countE
 3201              		.global	_ZN6Serial7sr_listE
 3202              		.bss
 3203              		.align	2
 3204              		.set	.LANCHOR0,. + 0
 3207              	_ZN6Serial7sr_listE:
 3208 0000 00000000 		.space	32
 3208      00000000 
 3208      00000000 
 3208      00000000 
ARM GAS  /tmp/ccUDp7dI.s 			page 82


 3208      00000000 
 3211              	_ZN6Serial8sr_countE:
 3212 0020 00       		.space	1
 3213              		.text
 3214              	.Letext0:
 3215              		.file 3 "/opt/arm-gnu-toolchain-14.2/arm-none-eabi/include/machine/_default_types.h"
 3216              		.file 4 "/opt/arm-gnu-toolchain-14.2/arm-none-eabi/include/sys/_stdint.h"
 3217              		.file 5 "/opt/arm-gnu-toolchain-14.2/lib/gcc/arm-none-eabi/14.2.1/include/stdarg.h"
 3218              		.file 6 "Drivers/CMSIS/Device/ST/STM32G0xx/Include/stm32g071xx.h"
 3219              		.file 7 "/opt/arm-gnu-toolchain-14.2/lib/gcc/arm-none-eabi/14.2.1/include/stddef.h"
 3220              		.file 8 "Drivers/STM32G0xx_HAL_Driver/Inc/stm32g0xx_hal_def.h"
 3221              		.file 9 "Drivers/STM32G0xx_HAL_Driver/Inc/stm32g0xx_hal_dma.h"
 3222              		.file 10 "Drivers/STM32G0xx_HAL_Driver/Inc/stm32g0xx_hal_tim.h"
 3223              		.file 11 "Drivers/STM32G0xx_HAL_Driver/Inc/stm32g0xx_hal_uart.h"
 3224              		.file 12 "Drivers/STM32G0xx_HAL_Driver/Inc/stm32g0xx_hal.h"
 3225              		.file 13 "Middlewares/Third_Party/FreeRTOS/Source/CMSIS_RTOS_V2/cmsis_os2.h"
 3226              		.file 14 "Middlewares/Third_Party/FreeRTOS/Source/include/projdefs.h"
 3227              		.file 15 "Middlewares/Third_Party/FreeRTOS/Source/portable/GCC/ARM_CM0/portmacro.h"
 3228              		.file 16 "Middlewares/Third_Party/FreeRTOS/Source/include/task.h"
 3229              		.file 17 "Middlewares/Third_Party/FreeRTOS/Source/include/queue.h"
 3230              		.file 18 "Middlewares/Third_Party/FreeRTOS/Source/include/semphr.h"
 3231              		.file 19 "My_Top/System/HAL_System.hpp"
 3232              		.file 20 "Middlewares/Third_Party/FreeRTOS/Source/include/portable.h"
 3233              		.file 21 "Lib/serial/printf.h"
 3234              		.file 22 "/opt/arm-gnu-toolchain-14.2/arm-none-eabi/include/string.h"
 3235              		.file 23 "Drivers/STM32G0xx_HAL_Driver/Inc/stm32g0xx_hal_uart_ex.h"
 3236              		.file 24 "Drivers/STM32G0xx_HAL_Driver/Inc/stm32g0xx_ll_dma.h"
 3237              		.file 25 "<built-in>"
ARM GAS  /tmp/ccUDp7dI.s 			page 83

