ARM GAS  /tmp/cc1cM2UK.s 			page 1


   1              		.cpu cortex-m0plus
   2              		.arch armv6s-m
   3              		.fpu softvfp
   4              		.eabi_attribute 20, 1
   5              		.eabi_attribute 21, 1
   6              		.eabi_attribute 23, 3
   7              		.eabi_attribute 24, 1
   8              		.eabi_attribute 25, 1
   9              		.eabi_attribute 26, 1
  10              		.eabi_attribute 30, 1
  11              		.eabi_attribute 34, 0
  12              		.eabi_attribute 18, 4
  13              		.file	"StepperMotor_Loop.cpp"
  14              		.text
  15              	.Ltext0:
  16              		.cfi_sections	.debug_frame
  17              		.file 1 "My_Top/Step_Motor/StepperMotor_Loop.cpp"
  18              		.section	.text._ZN13PID_Increment6updateEf,"axG",%progbits,_ZN13PID_Increment6updateEf,comdat
  19              		.align	1
  20              		.weak	_ZN13PID_Increment6updateEf
  21              		.syntax unified
  22              		.code	16
  23              		.thumb_func
  25              	_ZN13PID_Increment6updateEf:
  26              	.LVL0:
  27              	.LFB6:
  28              		.file 2 "My_Top/System/pid_Increment.hpp"
   1:My_Top/System/pid_Increment.hpp **** #pragma once
   2:My_Top/System/pid_Increment.hpp **** 
   3:My_Top/System/pid_Increment.hpp **** // ============================================================
   4:My_Top/System/pid_Increment.hpp **** // хЂщхМ PID цЇхЖхЈ
   5:My_Top/System/pid_Increment.hpp **** //
   6:My_Top/System/pid_Increment.hpp **** // хЌхМ:
   7:My_Top/System/pid_Increment.hpp **** //   Юu(k) = Kp * (e(k) - e(k-1))
   8:My_Top/System/pid_Increment.hpp **** //         + Ki * T * e(k)
   9:My_Top/System/pid_Increment.hpp **** //         + (Kd / T) * (e(k) - 2*e(k-1) + e(k-2))
  10:My_Top/System/pid_Increment.hpp **** //
  11:My_Top/System/pid_Increment.hpp **** //   u(k) = u(k-1) + Юu(k)
  12:My_Top/System/pid_Increment.hpp **** //
  13:My_Top/System/pid_Increment.hpp **** // хЖфИ­ T = dtяМщц ЗхЈцяМ
  14:My_Top/System/pid_Increment.hpp **** // ============================================================
  15:My_Top/System/pid_Increment.hpp **** 
  16:My_Top/System/pid_Increment.hpp **** typedef struct
  17:My_Top/System/pid_Increment.hpp **** {
  18:My_Top/System/pid_Increment.hpp ****     float kp;
  19:My_Top/System/pid_Increment.hpp ****     float ki;
  20:My_Top/System/pid_Increment.hpp ****     float kd;
  21:My_Top/System/pid_Increment.hpp ****     float dt;
  22:My_Top/System/pid_Increment.hpp ****     float max;
  23:My_Top/System/pid_Increment.hpp ****     float min;
  24:My_Top/System/pid_Increment.hpp **** } PID_IncParam;
  25:My_Top/System/pid_Increment.hpp **** 
  26:My_Top/System/pid_Increment.hpp **** class PID_Increment
  27:My_Top/System/pid_Increment.hpp **** {
  28:My_Top/System/pid_Increment.hpp **** public:
  29:My_Top/System/pid_Increment.hpp ****     float _kp, _ki, _kd;
  30:My_Top/System/pid_Increment.hpp ****     PID_Increment(void) //хЎфЙцЖц хчцщ хНцАц МхМ
ARM GAS  /tmp/cc1cM2UK.s 			page 2


  31:My_Top/System/pid_Increment.hpp ****     {
  32:My_Top/System/pid_Increment.hpp ****         _kp = _ki = _kd = _dt = 0.0f;
  33:My_Top/System/pid_Increment.hpp ****         _max = _min = 0.0f;
  34:My_Top/System/pid_Increment.hpp ****         _e_prev = _e_prev2 = 0.0f;
  35:My_Top/System/pid_Increment.hpp ****         _delta_u = 0.0f;
  36:My_Top/System/pid_Increment.hpp ****     }
  37:My_Top/System/pid_Increment.hpp **** 
  38:My_Top/System/pid_Increment.hpp ****     PID_Increment(float kp, float ki, float kd, float dt, float max, float min) //хЎфЙцЖхИІхч
  39:My_Top/System/pid_Increment.hpp ****     {
  40:My_Top/System/pid_Increment.hpp ****         _kp = kp;
  41:My_Top/System/pid_Increment.hpp ****         _ki = ki;
  42:My_Top/System/pid_Increment.hpp ****         _kd = kd;
  43:My_Top/System/pid_Increment.hpp ****         _dt = dt;
  44:My_Top/System/pid_Increment.hpp ****         _max = max;
  45:My_Top/System/pid_Increment.hpp ****         _min = min;
  46:My_Top/System/pid_Increment.hpp ****         _e_prev = _e_prev2 = 0.0f;
  47:My_Top/System/pid_Increment.hpp ****         _delta_u = 0.0f;
  48:My_Top/System/pid_Increment.hpp ****     }
  49:My_Top/System/pid_Increment.hpp **** 
  50:My_Top/System/pid_Increment.hpp ****     // ============================================================
  51:My_Top/System/pid_Increment.hpp ****     // ц ИхПцДцАхНцА
  52:My_Top/System/pid_Increment.hpp ****     // @error: хНхшЏЏхЗЎ e(k)
  53:My_Top/System/pid_Increment.hpp ****     // @return: щхЙхчшОхКхМ u(k)
  54:My_Top/System/pid_Increment.hpp ****     // ============================================================
  55:My_Top/System/pid_Increment.hpp ****     float update(float error) 
  29              		.loc 2 55 11 view -0
  30              		.cfi_startproc
  31              		@ args = 0, pretend = 0, frame = 0
  32              		@ frame_needed = 0, uses_anonymous_args = 0
  33              		.loc 2 55 11 is_stmt 0 view .LVU1
  34 0000 F8B5     		push	{r3, r4, r5, r6, r7, lr}
  35              		.cfi_def_cfa_offset 24
  36              		.cfi_offset 3, -24
  37              		.cfi_offset 4, -20
  38              		.cfi_offset 5, -16
  39              		.cfi_offset 6, -12
  40              		.cfi_offset 7, -8
  41              		.cfi_offset 14, -4
  42 0002 CE46     		mov	lr, r9
  43 0004 4746     		mov	r7, r8
  44 0006 80B5     		push	{r7, lr}
  45              		.cfi_def_cfa_offset 32
  46              		.cfi_offset 8, -32
  47              		.cfi_offset 9, -28
  48 0008 0400     		movs	r4, r0
  49 000a 0D1C     		adds	r5, r1, #0
  56:My_Top/System/pid_Increment.hpp ****     {                         
  57:My_Top/System/pid_Increment.hpp ****         
  58:My_Top/System/pid_Increment.hpp ****         // Юu = Kp * (e - e_prev) + Ki * T * e + (Kd / T) * (e - 2*e_prev + e_prev2)
  59:My_Top/System/pid_Increment.hpp ****         float p_term = _kp * (error - _e_prev);
  50              		.loc 2 59 9 is_stmt 1 view .LVU2
  51              		.loc 2 59 24 is_stmt 0 view .LVU3
  52 000c 0668     		ldr	r6, [r0]
  53              		.loc 2 59 39 view .LVU4
  54 000e 8769     		ldr	r7, [r0, #24]
  55              		.loc 2 59 37 view .LVU5
  56 0010 391C     		adds	r1, r7, #0
ARM GAS  /tmp/cc1cM2UK.s 			page 3


  57              	.LVL1:
  58              		.loc 2 59 37 view .LVU6
  59 0012 281C     		adds	r0, r5, #0
  60              	.LVL2:
  61              		.loc 2 59 37 view .LVU7
  62 0014 FFF7FEFF 		bl	__aeabi_fsub
  63              	.LVL3:
  64 0018 011C     		adds	r1, r0, #0
  65              		.loc 2 59 15 view .LVU8
  66 001a 301C     		adds	r0, r6, #0
  67 001c FFF7FEFF 		bl	__aeabi_fmul
  68              	.LVL4:
  69 0020 8046     		mov	r8, r0
  70              	.LVL5:
  60:My_Top/System/pid_Increment.hpp ****         float i_term = _ki * _dt * error;
  71              		.loc 2 60 9 is_stmt 1 view .LVU9
  72              		.loc 2 60 24 is_stmt 0 view .LVU10
  73 0022 6068     		ldr	r0, [r4, #4]
  74              	.LVL6:
  75              		.loc 2 60 30 view .LVU11
  76 0024 E668     		ldr	r6, [r4, #12]
  77              		.loc 2 60 28 view .LVU12
  78 0026 311C     		adds	r1, r6, #0
  79 0028 FFF7FEFF 		bl	__aeabi_fmul
  80              	.LVL7:
  81              		.loc 2 60 15 view .LVU13
  82 002c 291C     		adds	r1, r5, #0
  83 002e FFF7FEFF 		bl	__aeabi_fmul
  84              	.LVL8:
  85 0032 8146     		mov	r9, r0
  86              	.LVL9:
  61:My_Top/System/pid_Increment.hpp ****         float d_term = (_kd / _dt) * (error - 2.0f * _e_prev + _e_prev2);
  87              		.loc 2 61 9 is_stmt 1 view .LVU14
  88              		.loc 2 61 25 is_stmt 0 view .LVU15
  89 0034 A068     		ldr	r0, [r4, #8]
  90              	.LVL10:
  91              		.loc 2 61 29 view .LVU16
  92 0036 311C     		adds	r1, r6, #0
  93 0038 FFF7FEFF 		bl	__aeabi_fdiv
  94              	.LVL11:
  95 003c 061C     		adds	r6, r0, #0
  96              		.loc 2 61 52 view .LVU17
  97 003e 391C     		adds	r1, r7, #0
  98 0040 381C     		adds	r0, r7, #0
  99 0042 FFF7FEFF 		bl	__aeabi_fadd
 100              	.LVL12:
 101 0046 011C     		adds	r1, r0, #0
 102              		.loc 2 61 45 view .LVU18
 103 0048 281C     		adds	r0, r5, #0
 104 004a FFF7FEFF 		bl	__aeabi_fsub
 105              	.LVL13:
 106              		.loc 2 61 64 view .LVU19
 107 004e E169     		ldr	r1, [r4, #28]
 108              		.loc 2 61 62 view .LVU20
 109 0050 FFF7FEFF 		bl	__aeabi_fadd
 110              	.LVL14:
 111 0054 011C     		adds	r1, r0, #0
ARM GAS  /tmp/cc1cM2UK.s 			page 4


 112              		.loc 2 61 15 view .LVU21
 113 0056 301C     		adds	r0, r6, #0
 114 0058 FFF7FEFF 		bl	__aeabi_fmul
 115              	.LVL15:
 116 005c 061C     		adds	r6, r0, #0
 117              	.LVL16:
  62:My_Top/System/pid_Increment.hpp **** 
  63:My_Top/System/pid_Increment.hpp ****         _delta_u = p_term + i_term + d_term; // шЎЁчЎхЂщ
 118              		.loc 2 63 9 is_stmt 1 view .LVU22
 119              		.loc 2 63 27 is_stmt 0 view .LVU23
 120 005e 4946     		mov	r1, r9
 121 0060 4046     		mov	r0, r8
 122              	.LVL17:
 123              		.loc 2 63 27 view .LVU24
 124 0062 FFF7FEFF 		bl	__aeabi_fadd
 125              	.LVL18:
 126              		.loc 2 63 36 view .LVU25
 127 0066 311C     		adds	r1, r6, #0
 128 0068 FFF7FEFF 		bl	__aeabi_fadd
 129              	.LVL19:
 130 006c 061C     		adds	r6, r0, #0
 131              	.LVL20:
 132              		.loc 2 63 18 view .LVU26
 133 006e 2062     		str	r0, [r4, #32]
  64:My_Top/System/pid_Increment.hpp **** 
  65:My_Top/System/pid_Increment.hpp ****         // щхЙхЂщшОхК
  66:My_Top/System/pid_Increment.hpp ****         if (_delta_u > _max)
 134              		.loc 2 66 9 is_stmt 1 view .LVU27
 135              		.loc 2 66 24 is_stmt 0 view .LVU28
 136 0070 2369     		ldr	r3, [r4, #16]
 137 0072 9846     		mov	r8, r3
 138              	.LVL21:
 139              		.loc 2 66 9 view .LVU29
 140 0074 191C     		adds	r1, r3, #0
 141 0076 FFF7FEFF 		bl	__aeabi_fcmpgt
 142              	.LVL22:
 143 007a 0028     		cmp	r0, #0
 144 007c 08D0     		beq	.L8
  67:My_Top/System/pid_Increment.hpp ****             _delta_u = _max;
 145              		.loc 2 67 13 is_stmt 1 view .LVU30
 146              		.loc 2 67 22 is_stmt 0 view .LVU31
 147 007e 4346     		mov	r3, r8
 148 0080 2362     		str	r3, [r4, #32]
 149              	.L4:
  68:My_Top/System/pid_Increment.hpp ****         else if (_delta_u < _min)
  69:My_Top/System/pid_Increment.hpp ****             _delta_u = _min;
  70:My_Top/System/pid_Increment.hpp **** 
  71:My_Top/System/pid_Increment.hpp ****         // цДцАшЏЏхЗЎххВ
  72:My_Top/System/pid_Increment.hpp ****         _e_prev2 = _e_prev; //цДцАфИфИцЌЁшЏЏхЗЎ
 150              		.loc 2 72 9 is_stmt 1 view .LVU32
 151              		.loc 2 72 18 is_stmt 0 view .LVU33
 152 0082 E761     		str	r7, [r4, #28]
  73:My_Top/System/pid_Increment.hpp ****         _e_prev  = error; //цДцАфИфИцЌЁшЏЏхЗЎ
 153              		.loc 2 73 9 is_stmt 1 view .LVU34
 154              		.loc 2 73 18 is_stmt 0 view .LVU35
 155 0084 A561     		str	r5, [r4, #24]
  74:My_Top/System/pid_Increment.hpp **** 
ARM GAS  /tmp/cc1cM2UK.s 			page 5


  75:My_Top/System/pid_Increment.hpp ****         return _delta_u; // шПххЂщшОхК
 156              		.loc 2 75 9 is_stmt 1 view .LVU36
 157              		.loc 2 75 16 is_stmt 0 discriminator 1 view .LVU37
 158 0086 206A     		ldr	r0, [r4, #32]
  76:My_Top/System/pid_Increment.hpp ****     }
 159              		.loc 2 76 5 view .LVU38
 160              		@ sp needed
 161              	.LVL23:
 162              	.LVL24:
 163              	.LVL25:
 164              		.loc 2 76 5 view .LVU39
 165 0088 C0BC     		pop	{r6, r7}
 166 008a B946     		mov	r9, r7
 167 008c B046     		mov	r8, r6
 168 008e F8BD     		pop	{r3, r4, r5, r6, r7, pc}
 169              	.LVL26:
 170              	.L8:
  68:My_Top/System/pid_Increment.hpp ****             _delta_u = _min;
 171              		.loc 2 68 14 is_stmt 1 view .LVU40
  68:My_Top/System/pid_Increment.hpp ****             _delta_u = _min;
 172              		.loc 2 68 29 is_stmt 0 view .LVU41
 173 0090 6369     		ldr	r3, [r4, #20]
 174 0092 9846     		mov	r8, r3
  68:My_Top/System/pid_Increment.hpp ****             _delta_u = _min;
 175              		.loc 2 68 14 view .LVU42
 176 0094 191C     		adds	r1, r3, #0
 177 0096 301C     		adds	r0, r6, #0
 178 0098 FFF7FEFF 		bl	__aeabi_fcmplt
 179              	.LVL27:
 180 009c 0028     		cmp	r0, #0
 181 009e F0D0     		beq	.L4
  69:My_Top/System/pid_Increment.hpp **** 
 182              		.loc 2 69 13 is_stmt 1 view .LVU43
  69:My_Top/System/pid_Increment.hpp **** 
 183              		.loc 2 69 22 is_stmt 0 view .LVU44
 184 00a0 4346     		mov	r3, r8
 185 00a2 2362     		str	r3, [r4, #32]
 186 00a4 EDE7     		b	.L4
 187              		.cfi_endproc
 188              	.LFE6:
 190              		.section	.text._ZN12StepperMotorC2EP10Step_MotorP7KTH7111ffffffbP12GPIO_TypeDeft,"axG",%progbits,_
 191              		.align	1
 192              		.weak	_ZN12StepperMotorC2EP10Step_MotorP7KTH7111ffffffbP12GPIO_TypeDeft
 193              		.syntax unified
 194              		.code	16
 195              		.thumb_func
 197              	_ZN12StepperMotorC2EP10Step_MotorP7KTH7111ffffffbP12GPIO_TypeDeft:
 198              	.LVL28:
 199              	.LFB1464:
 200              		.file 3 "My_Top/Step_Motor/StepperMotor_Loop.hpp"
   1:My_Top/Step_Motor/StepperMotor_Loop.hpp **** #pragma once
   2:My_Top/Step_Motor/StepperMotor_Loop.hpp **** #include "pid_Increment.hpp"
   3:My_Top/Step_Motor/StepperMotor_Loop.hpp **** #include "ADRC.hpp"
   4:My_Top/Step_Motor/StepperMotor_Loop.hpp **** #include "pll.hpp"
   5:My_Top/Step_Motor/StepperMotor_Loop.hpp **** #include "kth_read.hpp"
   6:My_Top/Step_Motor/StepperMotor_Loop.hpp **** #include "ex_math.hpp"
   7:My_Top/Step_Motor/StepperMotor_Loop.hpp **** #include "Step.hpp" 
ARM GAS  /tmp/cc1cM2UK.s 			page 6


   8:My_Top/Step_Motor/StepperMotor_Loop.hpp **** 
   9:My_Top/Step_Motor/StepperMotor_Loop.hpp **** #include "BL24C16F.hpp" //EEPROM
  10:My_Top/Step_Motor/StepperMotor_Loop.hpp **** 
  11:My_Top/Step_Motor/StepperMotor_Loop.hpp **** enum Work_Mode
  12:My_Top/Step_Motor/StepperMotor_Loop.hpp **** {
  13:My_Top/Step_Motor/StepperMotor_Loop.hpp ****     speed = 0,//щхКІцЈЁхМ
  14:My_Top/Step_Motor/StepperMotor_Loop.hpp ****     position = 1,//фНчНЎцЈЁхМ
  15:My_Top/Step_Motor/StepperMotor_Loop.hpp ****     EncoderCalibration = 99,//чМч хЈц ЁхцЈЁхМ
  16:My_Top/Step_Motor/StepperMotor_Loop.hpp ****     Normal_Mode = 3,// ц­ЃхИИцЈЁхМ
  17:My_Top/Step_Motor/StepperMotor_Loop.hpp **** };
  18:My_Top/Step_Motor/StepperMotor_Loop.hpp **** 
  19:My_Top/Step_Motor/StepperMotor_Loop.hpp **** 
  20:My_Top/Step_Motor/StepperMotor_Loop.hpp **** class StepperMotor
  21:My_Top/Step_Motor/StepperMotor_Loop.hpp **** {
  22:My_Top/Step_Motor/StepperMotor_Loop.hpp **** public:
  23:My_Top/Step_Motor/StepperMotor_Loop.hpp ****     StepperMotor(Step_Motor *motor, KTH7111 *encoder,
 201              		.loc 3 23 5 is_stmt 1 view -0
 202              		.cfi_startproc
 203              		@ args = 32, pretend = 0, frame = 0
 204              		@ frame_needed = 0, uses_anonymous_args = 0
 205              		.loc 3 23 5 is_stmt 0 view .LVU46
 206 0000 F0B5     		push	{r4, r5, r6, r7, lr}
 207              		.cfi_def_cfa_offset 20
 208              		.cfi_offset 4, -20
 209              		.cfi_offset 5, -16
 210              		.cfi_offset 6, -12
 211              		.cfi_offset 7, -8
 212              		.cfi_offset 14, -4
 213 0002 C646     		mov	lr, r8
 214 0004 00B5     		push	{lr}
 215              		.cfi_def_cfa_offset 24
 216              		.cfi_offset 8, -24
 217 0006 9846     		mov	r8, r3
 218 0008 0BAC     		add	r4, sp, #44
 219              	.LVL29:
 220              		.loc 3 23 5 view .LVU47
 221 000a 2478     		ldrb	r4, [r4]
 222              	.LVL30:
 223              		.loc 3 23 5 view .LVU48
 224 000c A446     		mov	ip, r4
 225 000e 0DAC     		add	r4, sp, #52
 226              	.LVL31:
 227              		.loc 3 23 5 view .LVU49
 228 0010 2688     		ldrh	r6, [r4]
 229              	.LBB22:
  24:My_Top/Step_Motor/StepperMotor_Loop.hpp ****                 float skp, float ski, float skd,
  25:My_Top/Step_Motor/StepperMotor_Loop.hpp ****                 float pkp, float pki, float pkd, bool dir,
  26:My_Top/Step_Motor/StepperMotor_Loop.hpp ****                 GPIO_TypeDef* MS_FULL_PORT, uint16_t MS_FULL_PIN)
  27:My_Top/Step_Motor/StepperMotor_Loop.hpp ****         : _motor(motor), _encoder(encoder),
  28:My_Top/Step_Motor/StepperMotor_Loop.hpp ****         pid_speed(skp, ski, skd, 1.0/Stepper_VELOCITY_LOOP_FREQ_HZ, 5.0f, -5.0f),
  29:My_Top/Step_Motor/StepperMotor_Loop.hpp ****         pid_location(pkp, pki, pkd, 1.0/Stepper_POSITION_LOOP_FREQ_HZ, 800.0f, -800.0f), 
  30:My_Top/Step_Motor/StepperMotor_Loop.hpp ****         motor_encoder_dir(dir),MS_FULL_PORT_(MS_FULL_PORT), MS_FULL_PIN_(MS_FULL_PIN)
 230              		.loc 3 30 85 view .LVU50
 231 0012 0324     		movs	r4, #3
 232              	.LVL32:
 233              		.loc 3 30 85 view .LVU51
 234 0014 0470     		strb	r4, [r0]
ARM GAS  /tmp/cc1cM2UK.s 			page 7


 235 0016 0025     		movs	r5, #0
 236 0018 4570     		strb	r5, [r0, #1]
 237 001a 023C     		subs	r4, r4, #2
 238 001c 8470     		strb	r4, [r0, #2]
 239 001e 0024     		movs	r4, #0
 240 0020 4460     		str	r4, [r0, #4]
 241 0022 8460     		str	r4, [r0, #8]
 242 0024 C460     		str	r4, [r0, #12]
 243 0026 0461     		str	r4, [r0, #16]
 244 0028 4461     		str	r4, [r0, #20]
 245 002a 8461     		str	r4, [r0, #24]
 246 002c C461     		str	r4, [r0, #28]
 247 002e 0462     		str	r4, [r0, #32]
 248 0030 4462     		str	r4, [r0, #36]
 249 0032 8462     		str	r4, [r0, #40]
 250 0034 C462     		str	r4, [r0, #44]
 251 0036 0463     		str	r4, [r0, #48]
 252 0038 4463     		str	r4, [r0, #52]
 253 003a 8463     		str	r4, [r0, #56]
 254 003c C463     		str	r4, [r0, #60]
 255              		.loc 3 30 9 view .LVU52
 256 003e 4027     		movs	r7, #64
 257 0040 6346     		mov	r3, ip
 258              	.LVL33:
 259              		.loc 3 30 9 view .LVU53
 260 0042 C355     		strb	r3, [r0, r7]
 261              		.loc 3 30 85 view .LVU54
 262 0044 4464     		str	r4, [r0, #68]
 263 0046 8464     		str	r4, [r0, #72]
 264 0048 C464     		str	r4, [r0, #76]
 265 004a 0465     		str	r4, [r0, #80]
 266 004c 4465     		str	r4, [r0, #84]
 267 004e 8465     		str	r4, [r0, #88]
 268 0050 C565     		str	r5, [r0, #92]
 269 0052 2037     		adds	r7, r7, #32
 270 0054 C555     		strb	r5, [r0, r7]
 271 0056 0237     		adds	r7, r7, #2
 272 0058 C553     		strh	r5, [r0, r7]
 273 005a 4466     		str	r4, [r0, #100]
  27:My_Top/Step_Motor/StepperMotor_Loop.hpp ****         pid_speed(skp, ski, skd, 1.0/Stepper_VELOCITY_LOOP_FREQ_HZ, 5.0f, -5.0f),
 274              		.loc 3 27 11 view .LVU55
 275 005c 8166     		str	r1, [r0, #104]
 276              	.LVL34:
 277              	.LBB23:
 278              	.LBI23:
  38:My_Top/System/pid_Increment.hpp ****     {
 279              		.loc 2 38 5 is_stmt 1 view .LVU56
 280              	.LBB24:
 281              	.LBB25:
  40:My_Top/System/pid_Increment.hpp ****         _ki = ki;
 282              		.loc 2 40 9 view .LVU57
  40:My_Top/System/pid_Increment.hpp ****         _ki = ki;
 283              		.loc 2 40 13 is_stmt 0 view .LVU58
 284 005e 4346     		mov	r3, r8
 285 0060 C366     		str	r3, [r0, #108]
  41:My_Top/System/pid_Increment.hpp ****         _kd = kd;
 286              		.loc 2 41 9 is_stmt 1 view .LVU59
ARM GAS  /tmp/cc1cM2UK.s 			page 8


  41:My_Top/System/pid_Increment.hpp ****         _kd = kd;
 287              		.loc 2 41 13 is_stmt 0 view .LVU60
 288 0062 069B     		ldr	r3, [sp, #24]
 289 0064 0367     		str	r3, [r0, #112]
  42:My_Top/System/pid_Increment.hpp ****         _dt = dt;
 290              		.loc 2 42 9 is_stmt 1 view .LVU61
  42:My_Top/System/pid_Increment.hpp ****         _dt = dt;
 291              		.loc 2 42 13 is_stmt 0 view .LVU62
 292 0066 079B     		ldr	r3, [sp, #28]
 293 0068 4367     		str	r3, [r0, #116]
  43:My_Top/System/pid_Increment.hpp ****         _max = max;
 294              		.loc 2 43 9 is_stmt 1 view .LVU63
  43:My_Top/System/pid_Increment.hpp ****         _max = max;
 295              		.loc 2 43 13 is_stmt 0 view .LVU64
 296 006a 1649     		ldr	r1, .L10
 297              	.LVL35:
  43:My_Top/System/pid_Increment.hpp ****         _max = max;
 298              		.loc 2 43 13 view .LVU65
 299 006c 8167     		str	r1, [r0, #120]
  44:My_Top/System/pid_Increment.hpp ****         _min = min;
 300              		.loc 2 44 9 is_stmt 1 view .LVU66
  44:My_Top/System/pid_Increment.hpp ****         _min = min;
 301              		.loc 2 44 14 is_stmt 0 view .LVU67
 302 006e 164B     		ldr	r3, .L10+4
 303 0070 C367     		str	r3, [r0, #124]
  45:My_Top/System/pid_Increment.hpp ****         _e_prev = _e_prev2 = 0.0f;
 304              		.loc 2 45 9 is_stmt 1 view .LVU68
  45:My_Top/System/pid_Increment.hpp ****         _e_prev = _e_prev2 = 0.0f;
 305              		.loc 2 45 14 is_stmt 0 view .LVU69
 306 0072 8023     		movs	r3, #128
 307 0074 154F     		ldr	r7, .L10+8
 308 0076 C750     		str	r7, [r0, r3]
 309              	.LVL36:
  46:My_Top/System/pid_Increment.hpp ****         _delta_u = 0.0f;
 310              		.loc 2 46 9 is_stmt 1 view .LVU70
  46:My_Top/System/pid_Increment.hpp ****         _delta_u = 0.0f;
 311              		.loc 2 46 28 is_stmt 0 view .LVU71
 312 0078 0833     		adds	r3, r3, #8
 313 007a C450     		str	r4, [r0, r3]
  46:My_Top/System/pid_Increment.hpp ****         _delta_u = 0.0f;
 314              		.loc 2 46 17 view .LVU72
 315 007c 043B     		subs	r3, r3, #4
 316 007e C450     		str	r4, [r0, r3]
  47:My_Top/System/pid_Increment.hpp ****     }
 317              		.loc 2 47 9 is_stmt 1 view .LVU73
  47:My_Top/System/pid_Increment.hpp ****     }
 318              		.loc 2 47 18 is_stmt 0 view .LVU74
 319 0080 0833     		adds	r3, r3, #8
 320 0082 C450     		str	r4, [r0, r3]
 321              	.LVL37:
  47:My_Top/System/pid_Increment.hpp ****     }
 322              		.loc 2 47 18 view .LVU75
 323              	.LBE25:
 324              	.LBE24:
 325              	.LBE23:
 326              	.LBB26:
 327              	.LBI26:
ARM GAS  /tmp/cc1cM2UK.s 			page 9


  38:My_Top/System/pid_Increment.hpp ****     {
 328              		.loc 2 38 5 is_stmt 1 view .LVU76
 329              	.LBB27:
 330              	.LBB28:
  40:My_Top/System/pid_Increment.hpp ****         _ki = ki;
 331              		.loc 2 40 9 view .LVU77
  40:My_Top/System/pid_Increment.hpp ****         _ki = ki;
 332              		.loc 2 40 13 is_stmt 0 view .LVU78
 333 0084 0433     		adds	r3, r3, #4
 334 0086 089F     		ldr	r7, [sp, #32]
 335 0088 C750     		str	r7, [r0, r3]
  41:My_Top/System/pid_Increment.hpp ****         _kd = kd;
 336              		.loc 2 41 9 is_stmt 1 view .LVU79
  41:My_Top/System/pid_Increment.hpp ****         _kd = kd;
 337              		.loc 2 41 13 is_stmt 0 view .LVU80
 338 008a 0300     		movs	r3, r0
 339 008c 9033     		adds	r3, r3, #144
 340              	.LVL38:
  41:My_Top/System/pid_Increment.hpp ****         _kd = kd;
 341              		.loc 2 41 13 view .LVU81
 342 008e 099F     		ldr	r7, [sp, #36]
 343 0090 5F60     		str	r7, [r3, #4]
  42:My_Top/System/pid_Increment.hpp ****         _dt = dt;
 344              		.loc 2 42 9 is_stmt 1 view .LVU82
  42:My_Top/System/pid_Increment.hpp ****         _dt = dt;
 345              		.loc 2 42 13 is_stmt 0 view .LVU83
 346 0092 0A9F     		ldr	r7, [sp, #40]
 347 0094 9F60     		str	r7, [r3, #8]
  43:My_Top/System/pid_Increment.hpp ****         _max = max;
 348              		.loc 2 43 9 is_stmt 1 view .LVU84
  43:My_Top/System/pid_Increment.hpp ****         _max = max;
 349              		.loc 2 43 13 is_stmt 0 view .LVU85
 350 0096 D960     		str	r1, [r3, #12]
  44:My_Top/System/pid_Increment.hpp ****         _min = min;
 351              		.loc 2 44 9 is_stmt 1 view .LVU86
  44:My_Top/System/pid_Increment.hpp ****         _min = min;
 352              		.loc 2 44 14 is_stmt 0 view .LVU87
 353 0098 0D49     		ldr	r1, .L10+12
 354 009a 1961     		str	r1, [r3, #16]
  45:My_Top/System/pid_Increment.hpp ****         _e_prev = _e_prev2 = 0.0f;
 355              		.loc 2 45 9 is_stmt 1 view .LVU88
  45:My_Top/System/pid_Increment.hpp ****         _e_prev = _e_prev2 = 0.0f;
 356              		.loc 2 45 14 is_stmt 0 view .LVU89
 357 009c 0D49     		ldr	r1, .L10+16
 358 009e 5961     		str	r1, [r3, #20]
  46:My_Top/System/pid_Increment.hpp ****         _delta_u = 0.0f;
 359              		.loc 2 46 9 is_stmt 1 view .LVU90
  46:My_Top/System/pid_Increment.hpp ****         _delta_u = 0.0f;
 360              		.loc 2 46 28 is_stmt 0 view .LVU91
 361 00a0 DC61     		str	r4, [r3, #28]
  46:My_Top/System/pid_Increment.hpp ****         _delta_u = 0.0f;
 362              		.loc 2 46 17 view .LVU92
 363 00a2 9C61     		str	r4, [r3, #24]
  47:My_Top/System/pid_Increment.hpp ****     }
 364              		.loc 2 47 9 is_stmt 1 view .LVU93
  47:My_Top/System/pid_Increment.hpp ****     }
 365              		.loc 2 47 18 is_stmt 0 view .LVU94
ARM GAS  /tmp/cc1cM2UK.s 			page 10


 366 00a4 1C62     		str	r4, [r3, #32]
 367              	.LVL39:
  47:My_Top/System/pid_Increment.hpp ****     }
 368              		.loc 2 47 18 view .LVU95
 369              	.LBE28:
 370              	.LBE27:
 371              	.LBE26:
  27:My_Top/Step_Motor/StepperMotor_Loop.hpp ****         pid_speed(skp, ski, skd, 1.0/Stepper_VELOCITY_LOOP_FREQ_HZ, 5.0f, -5.0f),
 372              		.loc 3 27 26 view .LVU96
 373 00a6 B423     		movs	r3, #180
 374 00a8 C250     		str	r2, [r0, r3]
 375              		.loc 3 30 32 view .LVU97
 376 00aa 3033     		adds	r3, r3, #48
 377 00ac 0C9A     		ldr	r2, [sp, #48]
 378              	.LVL40:
 379              		.loc 3 30 32 view .LVU98
 380 00ae C250     		str	r2, [r0, r3]
 381              		.loc 3 30 61 view .LVU99
 382 00b0 0433     		adds	r3, r3, #4
 383 00b2 C652     		strh	r6, [r0, r3]
 384              		.loc 3 30 85 view .LVU100
 385 00b4 0233     		adds	r3, r3, #2
 386 00b6 FF22     		movs	r2, #255
 387 00b8 C252     		strh	r2, [r0, r3]
 388 00ba 0233     		adds	r3, r3, #2
 389 00bc C550     		str	r5, [r0, r3]
 390              	.LBE22:
  31:My_Top/Step_Motor/StepperMotor_Loop.hpp ****         {}
 391              		.loc 3 31 10 view .LVU101
 392              		@ sp needed
 393              	.LVL41:
 394              		.loc 3 31 10 view .LVU102
 395 00be 80BC     		pop	{r7}
 396 00c0 B846     		mov	r8, r7
 397 00c2 F0BD     		pop	{r4, r5, r6, r7, pc}
 398              	.L11:
 399              		.align	2
 400              	.L10:
 401 00c4 6F12033A 		.word	973279855
 402 00c8 0000A040 		.word	1084227584
 403 00cc 0000A0C0 		.word	-1063256064
 404 00d0 00004844 		.word	1145569280
 405 00d4 000048C4 		.word	-1001914368
 406              		.cfi_endproc
 407              	.LFE1464:
 409              		.weak	_ZN12StepperMotorC1EP10Step_MotorP7KTH7111ffffffbP12GPIO_TypeDeft
 410              		.thumb_set _ZN12StepperMotorC1EP10Step_MotorP7KTH7111ffffffbP12GPIO_TypeDeft,_ZN12StepperMotorC2EP
 411              		.text
 412              		.align	1
 413              		.syntax unified
 414              		.code	16
 415              		.thumb_func
 417              	_Z41__static_initialization_and_destruction_0v:
 418              	.LFB1622:
   1:My_Top/Step_Motor/StepperMotor_Loop.cpp **** #include "StepperMotor_Loop.hpp"
   2:My_Top/Step_Motor/StepperMotor_Loop.cpp **** 
   3:My_Top/Step_Motor/StepperMotor_Loop.cpp **** PLL_Parameter pll_conf(FOC_PLL_KP, FOC_PLL_KI);
ARM GAS  /tmp/cc1cM2UK.s 			page 11


   4:My_Top/Step_Motor/StepperMotor_Loop.cpp **** 
   5:My_Top/Step_Motor/StepperMotor_Loop.cpp **** KTH7111 kth7111_A(KTH7111_hspi1, SP1_CS_PORT, SP1_CS_PIN); //чМч хЈхЏЙшБЁяМфНПчЈSPIщфПЁяМц
   6:My_Top/Step_Motor/StepperMotor_Loop.cpp **** KTH7111 kth7111_B(KTH7111_hspi2, SP2_CS_PORT, SP2_CS_PIN); //чМч хЈхЏЙшБЁяМфНПчЈSPIщфПЁяМц
   7:My_Top/Step_Motor/StepperMotor_Loop.cpp **** 
   8:My_Top/Step_Motor/StepperMotor_Loop.cpp **** //хц­Ѕ1.8f,5.6f,0.0f
   9:My_Top/Step_Motor/StepperMotor_Loop.cpp **** //хц­Ѕ0.28f,3.9f,0.0f
  10:My_Top/Step_Motor/StepperMotor_Loop.cpp **** StepperMotor M1(&Motor_M1, &kth7111_A, 0.12f,1.4f,0.0f,  109.0f,0.0f,0.0f,true,M1_MS1_GPIO_Port, M1
  11:My_Top/Step_Motor/StepperMotor_Loop.cpp **** StepperMotor M2(&Motor_M2, &kth7111_B, 0.12f,1.1f,0.0f,  109.0f,0.0f,0.0f,true,M2_MS1_GPIO_Port, M2
  12:My_Top/Step_Motor/StepperMotor_Loop.cpp **** 
  13:My_Top/Step_Motor/StepperMotor_Loop.cpp **** 
  14:My_Top/Step_Motor/StepperMotor_Loop.cpp **** 
  15:My_Top/Step_Motor/StepperMotor_Loop.cpp **** void StepperMotor:: My_Stepper_Init()
  16:My_Top/Step_Motor/StepperMotor_Loop.cpp **** {
  17:My_Top/Step_Motor/StepperMotor_Loop.cpp ****     speed_lpf.init(0.7); //ххЇхщхКІфНщцЛЄцГЂхЈ
  18:My_Top/Step_Motor/StepperMotor_Loop.cpp ****     error_lpf.init(0.7); //ххЇхшЏЏхЗЎфНщцЛЄцГЂхЈ
  19:My_Top/Step_Motor/StepperMotor_Loop.cpp ****     speed_avg.init(5); //ххЇхщхКІхЙГххМцЛЄцГЂхЈ
  20:My_Top/Step_Motor/StepperMotor_Loop.cpp ****     _motor->Motor_Init(); //ххЇхчЕцК
  21:My_Top/Step_Motor/StepperMotor_Loop.cpp ****     _encoder->KTH7111_Init(motor_encoder_dir); //ххЇхчМч хЈ 
  22:My_Top/Step_Motor/StepperMotor_Loop.cpp ****     HAL_GPIO_WritePin(MS_FULL_PORT_, MS_FULL_PIN_, MS_FULL ? GPIO_PIN_SET : GPIO_PIN_RESET);
  23:My_Top/Step_Motor/StepperMotor_Loop.cpp ****     motor_fre = 0;
  24:My_Top/Step_Motor/StepperMotor_Loop.cpp ****     control_init_flag = true;
  25:My_Top/Step_Motor/StepperMotor_Loop.cpp **** }
  26:My_Top/Step_Motor/StepperMotor_Loop.cpp **** 
  27:My_Top/Step_Motor/StepperMotor_Loop.cpp **** /**
  28:My_Top/Step_Motor/StepperMotor_Loop.cpp ****  * @brief цДцАфНщцЛЄцГЂшЇхКІцщчИчЏшЇхКІ
  29:My_Top/Step_Motor/StepperMotor_Loop.cpp ****  * шЏЅхНцАчЈфКц ЙцЎщчНЎщцЉфНПчЈфНщцЛЄцГЂцщчИчЏ(PLL)цЙхМцЅцДцАчЕцКшЇхКІх
  30:My_Top/Step_Motor/StepperMotor_Loop.cpp ****  */
  31:My_Top/Step_Motor/StepperMotor_Loop.cpp **** void StepperMotor::Update_Speed_Angle_LPFAndPLL() //цДцАфНщцЛЄцГЂшЇхКІцщчИчЏшЇхКІ
  32:My_Top/Step_Motor/StepperMotor_Loop.cpp **** {
  33:My_Top/Step_Motor/StepperMotor_Loop.cpp ****     // щцхщяМчЈфКфИДцЖх­хЈшЇхКІхМхфИфИцЌЁчшЇхКІхМ
  34:My_Top/Step_Motor/StepperMotor_Loop.cpp ****     static float fudu_test = 0.0f;
  35:My_Top/Step_Motor/StepperMotor_Loop.cpp ****     static float theta_m_offic_temp = 0.0;
  36:My_Top/Step_Motor/StepperMotor_Loop.cpp **** 
  37:My_Top/Step_Motor/StepperMotor_Loop.cpp ****     _encoder->KTH7111_Send_JIAO_CMD();//хщшЇхКІцфЛЄ
  38:My_Top/Step_Motor/StepperMotor_Loop.cpp ****     fudu_test = _encoder->Get_KTH7111_Radian();//шЗхчМч хЈшЇхКІ
  39:My_Top/Step_Motor/StepperMotor_Loop.cpp **** 
  40:My_Top/Step_Motor/StepperMotor_Loop.cpp ****     theta_m = fudu_test; // шЗхххЇцКцЂАшЇхКІ хМЇхКІ
  41:My_Top/Step_Motor/StepperMotor_Loop.cpp ****     
  42:My_Top/Step_Motor/StepperMotor_Loop.cpp ****     if (LPFAndPLL == false) //фНщцЛЄцГЂшЇхКІ
  43:My_Top/Step_Motor/StepperMotor_Loop.cpp ****     {
  44:My_Top/Step_Motor/StepperMotor_Loop.cpp ****       theta_m = wrap_to_PI(theta_m);
  45:My_Top/Step_Motor/StepperMotor_Loop.cpp ****       //цЙхМ1 фНщцЛЄцГЂ цДцАцКцЂАшЇхКІщхКІ
  46:My_Top/Step_Motor/StepperMotor_Loop.cpp ****       theta_m_offic_temp = theta_m - theta_m_last;
  47:My_Top/Step_Motor/StepperMotor_Loop.cpp ****       theta_m_last = theta_m; // цДцАфИфИцЌЁчцКцЂАшЇхКІ
  48:My_Top/Step_Motor/StepperMotor_Loop.cpp ****       theta_m_offic = wrap_to_PI(theta_m_offic_temp);// хАхЗЎхМшЇцДхА [-PI, PI) хКщД
  49:My_Top/Step_Motor/StepperMotor_Loop.cpp **** 
  50:My_Top/Step_Motor/StepperMotor_Loop.cpp ****       theta_m_offic_filtered = error_lpf.filter(theta_m_offic);//хЏЙшЏЏхЗЎшЇхКІфНщцЛЄцГЂ
  51:My_Top/Step_Motor/StepperMotor_Loop.cpp ****       theta_m_speed = theta_m_offic_filtered*Stepper_VELOCITY_LOOP_FREQ_HZ;//speed=шЗЏчЈ/t 
  52:My_Top/Step_Motor/StepperMotor_Loop.cpp ****       theta_av_speed = speed_avg.filter(theta_m_speed);//хЏЙщхКІшПшЁхЙГххМцЛЄцГЂ
  53:My_Top/Step_Motor/StepperMotor_Loop.cpp ****       filtered_speed = speed_lpf.filter(theta_av_speed);//хЏЙщхКІшПшЁфНщцЛЄцГЂ
  54:My_Top/Step_Motor/StepperMotor_Loop.cpp ****       reg_final = theta_m; //хАцКцЂАшЇхКІшЕхМчЛцчЛшЇхКІ
  55:My_Top/Step_Motor/StepperMotor_Loop.cpp ****       theta_deg_final = rad2deg(reg_final); //хАхМЇхКІшНЌцЂфИК360хКІ
  56:My_Top/Step_Motor/StepperMotor_Loop.cpp ****       Angular_velocity_final = filtered_speed;  //хАцчЛщхКІшЕхМчЛцчЛшЇщхКІ
  57:My_Top/Step_Motor/StepperMotor_Loop.cpp ****       
  58:My_Top/Step_Motor/StepperMotor_Loop.cpp ****     }else if (LPFAndPLL == true)
  59:My_Top/Step_Motor/StepperMotor_Loop.cpp ****     {
  60:My_Top/Step_Motor/StepperMotor_Loop.cpp ****       // цЙхМ2PLLщчИчЏ цДцАPLLщчИчЏчшОхКшЇхКІхшЇщхКІ
ARM GAS  /tmp/cc1cM2UK.s 			page 12


  61:My_Top/Step_Motor/StepperMotor_Loop.cpp ****       foc_pll_run(theta_m,PLL_FREQ_Dt,&_pll_reg_out,&_pll_Angular_velocity,&pll_conf); //цДцАPLLщ
  62:My_Top/Step_Motor/StepperMotor_Loop.cpp ****       reg_final = _pll_reg_out; //хАPLLщчИчЏчшОхКшЇхКІшЕхМчЛцчЛшЇхКІ
  63:My_Top/Step_Motor/StepperMotor_Loop.cpp ****       theta_deg_final = rad2deg(reg_final); //хАхМЇхКІшНЌцЂфИК360хКІ
  64:My_Top/Step_Motor/StepperMotor_Loop.cpp ****       Angular_velocity_final = _pll_Angular_velocity; //хАцчЛщхКІшЕхМчЛцчЛшЇщхКІ
  65:My_Top/Step_Motor/StepperMotor_Loop.cpp ****     }
  66:My_Top/Step_Motor/StepperMotor_Loop.cpp **** 
  67:My_Top/Step_Motor/StepperMotor_Loop.cpp **** }
  68:My_Top/Step_Motor/StepperMotor_Loop.cpp **** 
  69:My_Top/Step_Motor/StepperMotor_Loop.cpp **** 
  70:My_Top/Step_Motor/StepperMotor_Loop.cpp **** // void StepperMotor::setFre()//шЎОчНЎчЕцКщЂч ц ццГЂ
  71:My_Top/Step_Motor/StepperMotor_Loop.cpp **** // {
  72:My_Top/Step_Motor/StepperMotor_Loop.cpp **** //     if(MS_FULL_Last != (uint16_t)MS_FULL) //хЈц­ЅфИхц­ЅцЈЁхМхцЂ т щцАшЎОчНЎ GPIO хМ
  73:My_Top/Step_Motor/StepperMotor_Loop.cpp **** //     {
  74:My_Top/Step_Motor/StepperMotor_Loop.cpp **** //         HAL_GPIO_WritePin(MS_FULL_PORT_, MS_FULL_PIN_, (uint16_t)MS_FULL ? GPIO_PIN_SET : GPIO_P
  75:My_Top/Step_Motor/StepperMotor_Loop.cpp **** //         MS_FULL_Last = (uint16_t)MS_FULL;
  76:My_Top/Step_Motor/StepperMotor_Loop.cpp **** //     }
  77:My_Top/Step_Motor/StepperMotor_Loop.cpp **** //     if (_motor->Set_Motor_Frequency(motor_fre))  // щЂчхфКцИщЖшЕАчц­ЅцА щцАхМхЇш
  78:My_Top/Step_Motor/StepperMotor_Loop.cpp **** //     {
  79:My_Top/Step_Motor/StepperMotor_Loop.cpp **** //         motor_step_cnt = 0; 
  80:My_Top/Step_Motor/StepperMotor_Loop.cpp **** //     }
  81:My_Top/Step_Motor/StepperMotor_Loop.cpp **** // }
  82:My_Top/Step_Motor/StepperMotor_Loop.cpp **** 
  83:My_Top/Step_Motor/StepperMotor_Loop.cpp **** 
  84:My_Top/Step_Motor/StepperMotor_Loop.cpp **** void StepperMotor::setFre() //шЎОчНЎчЕцКщЂч ццГЂцЇхЖ
  85:My_Top/Step_Motor/StepperMotor_Loop.cpp **** {
  86:My_Top/Step_Motor/StepperMotor_Loop.cpp ****     if(MS_FULL_Last != (uint16_t)MS_FULL) //хЈц­ЅфИхц­ЅцЈЁхМхцЂ т щцАшЎОчНЎ GPIO хМш
  87:My_Top/Step_Motor/StepperMotor_Loop.cpp ****     {
  88:My_Top/Step_Motor/StepperMotor_Loop.cpp ****         HAL_GPIO_WritePin(MS_FULL_PORT_, MS_FULL_PIN_, (uint16_t)MS_FULL ? GPIO_PIN_SET : GPIO_PIN_
  89:My_Top/Step_Motor/StepperMotor_Loop.cpp ****         MS_FULL_Last = (uint16_t)MS_FULL;
  90:My_Top/Step_Motor/StepperMotor_Loop.cpp ****     }
  91:My_Top/Step_Motor/StepperMotor_Loop.cpp **** 
  92:My_Top/Step_Motor/StepperMotor_Loop.cpp ****     // тт щЂчцхЁ тт
  93:My_Top/Step_Motor/StepperMotor_Loop.cpp ****     float max_step;
  94:My_Top/Step_Motor/StepperMotor_Loop.cpp ****     if (fabsf(motor_fre_applied_) < Fre_Accel_Threshold)
  95:My_Top/Step_Motor/StepperMotor_Loop.cpp ****         max_step = Fre_Accel_Fast/Stepper_MAIN_LOOP_FREQ_HZ; //800.0/(16000) = 0.05
  96:My_Top/Step_Motor/StepperMotor_Loop.cpp ****     else//1sхх цхЄ100Hz
  97:My_Top/Step_Motor/StepperMotor_Loop.cpp ****         max_step = Fre_Accel_Slow /Stepper_MAIN_LOOP_FREQ_HZ; //100.0/(16000) = 0.00625
  98:My_Top/Step_Motor/StepperMotor_Loop.cpp **** 
  99:My_Top/Step_Motor/StepperMotor_Loop.cpp ****     float diff = motor_fre - motor_fre_applied_;
 100:My_Top/Step_Motor/StepperMotor_Loop.cpp ****     diff = constraint_value(diff, -max_step, max_step);
 101:My_Top/Step_Motor/StepperMotor_Loop.cpp ****     motor_fre_applied_ += diff;
 102:My_Top/Step_Motor/StepperMotor_Loop.cpp **** 
 103:My_Top/Step_Motor/StepperMotor_Loop.cpp ****     if (_motor->Set_Motor_Frequency(motor_fre_applied_))
 104:My_Top/Step_Motor/StepperMotor_Loop.cpp ****     {
 105:My_Top/Step_Motor/StepperMotor_Loop.cpp ****         motor_step_cnt = 0;
 106:My_Top/Step_Motor/StepperMotor_Loop.cpp ****     }
 107:My_Top/Step_Motor/StepperMotor_Loop.cpp **** }
 108:My_Top/Step_Motor/StepperMotor_Loop.cpp **** 
 109:My_Top/Step_Motor/StepperMotor_Loop.cpp **** 
 110:My_Top/Step_Motor/StepperMotor_Loop.cpp **** 
 111:My_Top/Step_Motor/StepperMotor_Loop.cpp **** // void StepperMotor::Speed_Loop(void) //ц ццГЂчPIDщхКІчЏ
 112:My_Top/Step_Motor/StepperMotor_Loop.cpp **** // {
 113:My_Top/Step_Motor/StepperMotor_Loop.cpp **** //     const float rad_per_hz = 8.5f / 1000.0f;
 114:My_Top/Step_Motor/StepperMotor_Loop.cpp **** 
 115:My_Top/Step_Motor/StepperMotor_Loop.cpp **** //     float measured_hz = Angular_velocity_final / rad_per_hz;
 116:My_Top/Step_Motor/StepperMotor_Loop.cpp **** //     float target_hz   = _target_speed           / rad_per_hz;
 117:My_Top/Step_Motor/StepperMotor_Loop.cpp **** //     float _error_hz   = target_hz - measured_hz;
ARM GAS  /tmp/cc1cM2UK.s 			page 13


 118:My_Top/Step_Motor/StepperMotor_Loop.cpp **** //     float _delta      = pid_speed.update(_error_hz);
 119:My_Top/Step_Motor/StepperMotor_Loop.cpp **** 
 120:My_Top/Step_Motor/StepperMotor_Loop.cpp **** //     motor_fre += _delta;
 121:My_Top/Step_Motor/StepperMotor_Loop.cpp **** 
 122:My_Top/Step_Motor/StepperMotor_Loop.cpp **** //     // тт х хщщхЙяМцЏцЌЁцхЄх 1 HzяМ= 2000 Hz/s @2kHzяМтт
 123:My_Top/Step_Motor/StepperMotor_Loop.cpp **** //     float max_step = 0.4f;  //
 124:My_Top/Step_Motor/StepperMotor_Loop.cpp **** //     motor_fre = motor_fre_last_ + constraint_value(motor_fre - motor_fre_last_, -max_step, max_s
 125:My_Top/Step_Motor/StepperMotor_Loop.cpp **** //     motor_fre_last_ = motor_fre;
 126:My_Top/Step_Motor/StepperMotor_Loop.cpp **** 
 127:My_Top/Step_Motor/StepperMotor_Loop.cpp **** //     // чЛхЏЙщхЙ
 128:My_Top/Step_Motor/StepperMotor_Loop.cpp **** //     if(motor_fre >= Speed_FV_MAX) motor_fre =  Speed_FV_MAX;
 129:My_Top/Step_Motor/StepperMotor_Loop.cpp **** //     if(motor_fre <= -Speed_FV_MAX) motor_fre = -Speed_FV_MAX;
 130:My_Top/Step_Motor/StepperMotor_Loop.cpp **** //     setFre();
 131:My_Top/Step_Motor/StepperMotor_Loop.cpp **** // }
 132:My_Top/Step_Motor/StepperMotor_Loop.cpp **** 
 133:My_Top/Step_Motor/StepperMotor_Loop.cpp **** 
 134:My_Top/Step_Motor/StepperMotor_Loop.cpp **** 
 135:My_Top/Step_Motor/StepperMotor_Loop.cpp **** void StepperMotor::Speed_Loop(void)
 136:My_Top/Step_Motor/StepperMotor_Loop.cpp **** {
 137:My_Top/Step_Motor/StepperMotor_Loop.cpp ****     const float rad_per_hz = 8.5f / 1000.0f;
 138:My_Top/Step_Motor/StepperMotor_Loop.cpp **** 
 139:My_Top/Step_Motor/StepperMotor_Loop.cpp ****     float measured_hz = Angular_velocity_final / rad_per_hz;
 140:My_Top/Step_Motor/StepperMotor_Loop.cpp ****     float target_hz   = _target_speed           / rad_per_hz;
 141:My_Top/Step_Motor/StepperMotor_Loop.cpp ****     float error_hz    = target_hz - measured_hz;
 142:My_Top/Step_Motor/StepperMotor_Loop.cpp **** 
 143:My_Top/Step_Motor/StepperMotor_Loop.cpp ****     motor_fre += pid_speed.update(error_hz);
 144:My_Top/Step_Motor/StepperMotor_Loop.cpp **** 
 145:My_Top/Step_Motor/StepperMotor_Loop.cpp ****     if(motor_fre >= Speed_FV_MAX) { motor_fre = Speed_FV_MAX; pid_speed.reset(); }
 146:My_Top/Step_Motor/StepperMotor_Loop.cpp ****     if(motor_fre <= -Speed_FV_MAX) { motor_fre = -Speed_FV_MAX; pid_speed.reset(); }
 147:My_Top/Step_Motor/StepperMotor_Loop.cpp ****     setFre();
 148:My_Top/Step_Motor/StepperMotor_Loop.cpp **** }
 149:My_Top/Step_Motor/StepperMotor_Loop.cpp **** 
 150:My_Top/Step_Motor/StepperMotor_Loop.cpp **** 
 151:My_Top/Step_Motor/StepperMotor_Loop.cpp **** 
 152:My_Top/Step_Motor/StepperMotor_Loop.cpp **** 
 153:My_Top/Step_Motor/StepperMotor_Loop.cpp **** 
 154:My_Top/Step_Motor/StepperMotor_Loop.cpp **** 
 155:My_Top/Step_Motor/StepperMotor_Loop.cpp **** 
 156:My_Top/Step_Motor/StepperMotor_Loop.cpp **** // void StepperMotor::Position_Loop(void) //фИВчКЇPIDфНчНЎчЏ
 157:My_Top/Step_Motor/StepperMotor_Loop.cpp **** // {
 158:My_Top/Step_Motor/StepperMotor_Loop.cpp **** //     float _delta_fre = 0.0f;
 159:My_Top/Step_Motor/StepperMotor_Loop.cpp **** //     _target_error_location = deg2rad(_target_location2) - reg_final; //шЎЁчЎфНчНЎшЏЏхЗЎ
 160:My_Top/Step_Motor/StepperMotor_Loop.cpp **** //     _delta_fre = pid_location.update(_target_error_location); //шЎЁчЎPIDхЂщ
 161:My_Top/Step_Motor/StepperMotor_Loop.cpp **** //     _target_speed +=_delta_fre; //цДцАчЎц щхКІ
 162:My_Top/Step_Motor/StepperMotor_Loop.cpp **** //     if(_target_speed > 35.0f) _target_speed = 35.0f;
 163:My_Top/Step_Motor/StepperMotor_Loop.cpp **** //     if(_target_speed < -35.0f) _target_speed = -35.0f;
 164:My_Top/Step_Motor/StepperMotor_Loop.cpp **** //     Speed_Loop(); //фНчНЎчЏхщЈшАчЈщхКІчЏцЇхЖ
 165:My_Top/Step_Motor/StepperMotor_Loop.cpp **** // }
 166:My_Top/Step_Motor/StepperMotor_Loop.cpp **** 
 167:My_Top/Step_Motor/StepperMotor_Loop.cpp **** 
 168:My_Top/Step_Motor/StepperMotor_Loop.cpp **** void StepperMotor::Position_Loop(void)
 169:My_Top/Step_Motor/StepperMotor_Loop.cpp **** {
 170:My_Top/Step_Motor/StepperMotor_Loop.cpp ****     float _delta_fre = 0.0f;
 171:My_Top/Step_Motor/StepperMotor_Loop.cpp ****     _target_error_location = wrap_to_PI( deg2rad(_target_location2) - reg_final ); //шЎЁчЎфНчНЎшЏ
 172:My_Top/Step_Motor/StepperMotor_Loop.cpp **** 
 173:My_Top/Step_Motor/StepperMotor_Loop.cpp ****     _delta_fre = pid_location.update(_target_error_location); //шЎЁчЎPIDхЂщ
 174:My_Top/Step_Motor/StepperMotor_Loop.cpp ****     motor_fre += _delta_fre; //цДцАчЕцКщЂч
ARM GAS  /tmp/cc1cM2UK.s 			page 14


 175:My_Top/Step_Motor/StepperMotor_Loop.cpp **** 
 176:My_Top/Step_Motor/StepperMotor_Loop.cpp ****     if(motor_fre >= Position_FV_MAX) motor_fre =  Position_FV_MAX;
 177:My_Top/Step_Motor/StepperMotor_Loop.cpp ****     if(motor_fre <= -Position_FV_MAX) motor_fre = -Position_FV_MAX;
 178:My_Top/Step_Motor/StepperMotor_Loop.cpp ****     setFre();
 179:My_Top/Step_Motor/StepperMotor_Loop.cpp **** }
 180:My_Top/Step_Motor/StepperMotor_Loop.cpp **** 
 181:My_Top/Step_Motor/StepperMotor_Loop.cpp **** 
 182:My_Top/Step_Motor/StepperMotor_Loop.cpp **** 
 183:My_Top/Step_Motor/StepperMotor_Loop.cpp **** // ADRC adrc(20,100,0.1,1.0/Stepper_POSITION_LOOP_FREQ_HZ); //чКПцЇшЊццАцЇхЖхЈ
 184:My_Top/Step_Motor/StepperMotor_Loop.cpp **** 
 185:My_Top/Step_Motor/StepperMotor_Loop.cpp **** // void StepperMotor::Position_Loop(void)
 186:My_Top/Step_Motor/StepperMotor_Loop.cpp **** // {
 187:My_Top/Step_Motor/StepperMotor_Loop.cpp **** //     motor_fre = (int16_t)adrc.update(_target_location1, reg_final);
 188:My_Top/Step_Motor/StepperMotor_Loop.cpp **** //     if(motor_fre >  2000) motor_fre =  2000;
 189:My_Top/Step_Motor/StepperMotor_Loop.cpp **** //     if(motor_fre < -2000) motor_fre = -2000;
 190:My_Top/Step_Motor/StepperMotor_Loop.cpp **** //     setFre();
 191:My_Top/Step_Motor/StepperMotor_Loop.cpp **** // }
 192:My_Top/Step_Motor/StepperMotor_Loop.cpp **** 
 193:My_Top/Step_Motor/StepperMotor_Loop.cpp **** 
 194:My_Top/Step_Motor/StepperMotor_Loop.cpp **** 
 195:My_Top/Step_Motor/StepperMotor_Loop.cpp **** void StepperMotor::Step_Handler()//чЕцКшЎЁц­ЅшЎЁцАцЇхЖ
 196:My_Top/Step_Motor/StepperMotor_Loop.cpp **** {
 197:My_Top/Step_Motor/StepperMotor_Loop.cpp ****     if (!control_init_flag) return;
 198:My_Top/Step_Motor/StepperMotor_Loop.cpp ****     if(work_mode != Normal_Mode) return; // хЊхЈц­ЃхИИцЇхЖцЈЁхМфИшЎЁц­Ѕ
 199:My_Top/Step_Motor/StepperMotor_Loop.cpp **** 
 200:My_Top/Step_Motor/StepperMotor_Loop.cpp ****     if ((uint32_t)motor_step_max != motor_step_max_last_) //ц­ЅцАфИщхх т цИщЖшЎЁц­Ѕ
 201:My_Top/Step_Motor/StepperMotor_Loop.cpp ****     {
 202:My_Top/Step_Motor/StepperMotor_Loop.cpp ****         motor_step_cnt = 0;
 203:My_Top/Step_Motor/StepperMotor_Loop.cpp ****         motor_step_max_last_ = (uint32_t)motor_step_max;
 204:My_Top/Step_Motor/StepperMotor_Loop.cpp ****         _motor->Set_Motor_EN(true);//чЕцКфНПшН
 205:My_Top/Step_Motor/StepperMotor_Loop.cpp ****     }
 206:My_Top/Step_Motor/StepperMotor_Loop.cpp **** 
 207:My_Top/Step_Motor/StepperMotor_Loop.cpp ****     // хЗВхАфИщ т шЗГшП
 208:My_Top/Step_Motor/StepperMotor_Loop.cpp ****     if ((uint32_t)motor_step_max != 0 && motor_step_cnt >= (uint32_t)motor_step_max) return;
 209:My_Top/Step_Motor/StepperMotor_Loop.cpp ****     motor_step_cnt++;//шЎЁц­Ѕ
 210:My_Top/Step_Motor/StepperMotor_Loop.cpp ****     // ххАфИщ т хГчЕцК
 211:My_Top/Step_Motor/StepperMotor_Loop.cpp ****     if ((uint32_t)motor_step_max != 0 && motor_step_cnt >= (uint32_t)motor_step_max)
 212:My_Top/Step_Motor/StepperMotor_Loop.cpp ****     {
 213:My_Top/Step_Motor/StepperMotor_Loop.cpp ****         _motor->Set_Motor_EN(false);
 214:My_Top/Step_Motor/StepperMotor_Loop.cpp ****     }
 215:My_Top/Step_Motor/StepperMotor_Loop.cpp **** }
 419              		.loc 1 215 1 is_stmt 1 view -0
 420              		.cfi_startproc
 421              		@ args = 0, pretend = 0, frame = 0
 422              		@ frame_needed = 0, uses_anonymous_args = 0
 423 0000 F0B5     		push	{r4, r5, r6, r7, lr}
 424              		.cfi_def_cfa_offset 20
 425              		.cfi_offset 4, -20
 426              		.cfi_offset 5, -16
 427              		.cfi_offset 6, -12
 428              		.cfi_offset 7, -8
 429              		.cfi_offset 14, -4
 430 0002 CE46     		mov	lr, r9
 431 0004 4746     		mov	r7, r8
 432 0006 80B5     		push	{r7, lr}
 433              		.cfi_def_cfa_offset 28
 434              		.cfi_offset 8, -28
ARM GAS  /tmp/cc1cM2UK.s 			page 15


 435              		.cfi_offset 9, -24
 436 0008 89B0     		sub	sp, sp, #36
 437              		.cfi_def_cfa_offset 64
 438              	.LVL42:
 439              	.LBB29:
 440              	.LBI29:
 441              		.file 4 "My_Top/System/pll.hpp"
   1:My_Top/System/pll.hpp **** #pragma once
   2:My_Top/System/pll.hpp **** #include "ex_math.hpp"
   3:My_Top/System/pll.hpp **** 
   4:My_Top/System/pll.hpp **** #include "bsp.hpp"
   5:My_Top/System/pll.hpp **** 
   6:My_Top/System/pll.hpp **** 
   7:My_Top/System/pll.hpp **** #define Motor_RPM (315) //чЕцКцхЄЇшНЌщ хЎцЕчЕцКцщЋ5.252х/s =315rpm
   8:My_Top/System/pll.hpp **** // #define Motor_PolesNub (7) //цхЏЙцА ???
   9:My_Top/System/pll.hpp **** // #define Motor_Fe (Motor_RPM*Motor_PolesNub/60) //
  10:My_Top/System/pll.hpp **** // #define Wn_min  (M_2PI*Motor_Fe/10) //цхАшЊчЖщЂч = 2pi*Fe/10 = 219.911482 
  11:My_Top/System/pll.hpp **** 
  12:My_Top/System/pll.hpp **** 
  13:My_Top/System/pll.hpp **** #define Stepper_Max_RPS (Motor_RPM / 60.0f) //чЕцКцхЄЇшНЌщ цЏчЇшНЌчхцА
  14:My_Top/System/pll.hpp **** #define Wn_min  (M_2PI * Stepper_Max_RPS / 10) // цхАхИІхЎН 3.30
  15:My_Top/System/pll.hpp **** 
  16:My_Top/System/pll.hpp **** #define Wn_max  (M_2PI*PLL_FREQ_HZ/10) //цхЄЇшЊчЖщЂч = 2pi*щц ЗхЈц/10   2513.2 
  17:My_Top/System/pll.hpp **** #define Ts_min  (3.0/(PLL_ZETA*Wn_max)*1000) //цхАцЖццЖщД Ts = 3/(ЮЖ*Wn_max) = 1.688ms 
  18:My_Top/System/pll.hpp **** #define Ts_max  (3.0/(PLL_ZETA*Wn_min)*1000) //цхЄЇцЖццЖщД Ts = 3/(ЮЖ*Wn_min) =19.2954ms /12
  19:My_Top/System/pll.hpp **** 
  20:My_Top/System/pll.hpp **** 
  21:My_Top/System/pll.hpp **** #define PLL_FREQ_HZ   (Stepper_VELOCITY_LOOP_FREQ_HZ)  //щц ЗщЂчхПщЁЛ тЅ хИІхЎНщЂчч 2 х
  22:My_Top/System/pll.hpp **** #define PLL_FREQ_Dt   (1.0/PLL_FREQ_HZ)
  23:My_Top/System/pll.hpp **** #define PLL_ts_temp   (100) //цЖццЖщД хфНms 
  24:My_Top/System/pll.hpp **** #define PLL_ts  constraint_value(PLL_ts_temp, Ts_min, Ts_max) //чКІццЖццЖщДхЈцхАхцхЄ
  25:My_Top/System/pll.hpp **** 
  26:My_Top/System/pll.hpp **** // #define PLL_ts 1 
  27:My_Top/System/pll.hpp **** #define PLL_ZETA (0.707) //щЛхАМцЏ
  28:My_Top/System/pll.hpp **** #define PLL_Wn   (3.0/(PLL_ZETA*PLL_ts*0.001)) //223.33hzшЊчЖщЂч шЎЁчЎхЌхМ wn = 3/(ЮЖ*ts)  
  29:My_Top/System/pll.hpp **** #define FOC_PLL_KP    (2*PLL_ZETA*PLL_Wn) //PIхцАшЎЁчЎхЌхМ kp = 2ЮЖЯn = 310.9548 
  30:My_Top/System/pll.hpp **** #define FOC_PLL_KI    (PLL_Wn*PLL_Wn) //PIхцАшЎЁчЎхЌхМ ki = ЯnТВ = 48361.06 
  31:My_Top/System/pll.hpp **** 
  32:My_Top/System/pll.hpp **** 
  33:My_Top/System/pll.hpp **** 
  34:My_Top/System/pll.hpp **** struct PLL_Parameter
  35:My_Top/System/pll.hpp **** {
  36:My_Top/System/pll.hpp ****     PLL_Parameter(double kp, double ki) : foc_pll_kp(kp), foc_pll_ki(ki) {}
 442              		.loc 4 36 5 view .LVU104
 443              	.LBB30:
 444              	.LBB31:
 445              		.loc 4 36 43 is_stmt 0 view .LVU105
 446 000a 274C     		ldr	r4, .L13
 447 000c 0020     		movs	r0, #0
 448 000e 2749     		ldr	r1, .L13+4
 449 0010 2060     		str	r0, [r4]
 450 0012 6160     		str	r1, [r4, #4]
 451              		.loc 4 36 59 view .LVU106
 452 0014 264A     		ldr	r2, .L13+8
 453 0016 274B     		ldr	r3, .L13+12
 454 0018 A260     		str	r2, [r4, #8]
 455 001a E360     		str	r3, [r4, #12]
ARM GAS  /tmp/cc1cM2UK.s 			page 16


 456              	.LVL43:
 457              		.loc 4 36 59 view .LVU107
 458              	.LBE31:
 459              	.LBE30:
 460              	.LBE29:
 461              	.LBB32:
 462              	.LBI32:
 463              		.file 5 "My_Top/System/kth_read.hpp"
   1:My_Top/System/kth_read.hpp **** #pragma once
   2:My_Top/System/kth_read.hpp **** 
   3:My_Top/System/kth_read.hpp **** #include <stdbool.h>
   4:My_Top/System/kth_read.hpp **** #include "spi.h"
   5:My_Top/System/kth_read.hpp **** #include "FreeRTOS.h"
   6:My_Top/System/kth_read.hpp **** #include "task.h"
   7:My_Top/System/kth_read.hpp **** #include "bsp.hpp"
   8:My_Top/System/kth_read.hpp **** 
   9:My_Top/System/kth_read.hpp **** #define KTH7111_PRECISION (65535.0f) // 2^16-1яМчМч хЈхшОЈч
  10:My_Top/System/kth_read.hpp **** #define RAW_TO_RAD  (6.28318530717f / KTH7111_PRECISION)// чМч хЈххЇхМшНЌхМЇхКІчГЛцАяМ2Я 
  11:My_Top/System/kth_read.hpp **** #define RAD_TO_DEG  (180.0f / 3.14159265358979323846f)// хМЇхКІшНЌшЇхКІчГЛцАяМ180 / Я т 57.29
  12:My_Top/System/kth_read.hpp **** #include "ex_math.hpp" 
  13:My_Top/System/kth_read.hpp **** 
  14:My_Top/System/kth_read.hpp **** 
  15:My_Top/System/kth_read.hpp **** class KTH7111
  16:My_Top/System/kth_read.hpp **** {
  17:My_Top/System/kth_read.hpp **** public:
  18:My_Top/System/kth_read.hpp ****     uint16_t single_turn; // ххххЇхМ16фН
  19:My_Top/System/kth_read.hpp ****     float theta;          // шНЌцЂхчхМЇхКІшЇ (0 ~ 2Я)
  20:My_Top/System/kth_read.hpp ****     float angle;          // шНЌцЂхчшЇхКІ (0 ~ 360)
  21:My_Top/System/kth_read.hpp ****     bool  encoder_dir; // чМч хЈцЙх
  22:My_Top/System/kth_read.hpp ****     KTH7111(SPI_HandleTypeDef *hspi, GPIO_TypeDef *cs_port, uint16_t cs_pin)
 464              		.loc 5 22 5 is_stmt 1 view .LVU108
 465              	.LBB33:
 466              	.LBB34:
  23:My_Top/System/kth_read.hpp ****     : _hspi(hspi), _cs_port(cs_port), _cs_pin(cs_pin),
  24:My_Top/System/kth_read.hpp ****       single_turn(0), theta(0.0f), angle(0.0f) {}
 467              		.loc 5 24 7 is_stmt 0 view .LVU109
 468 001c 0022     		movs	r2, #0
 469 001e 2282     		strh	r2, [r4, #16]
 470              		.loc 5 24 23 view .LVU110
 471 0020 0025     		movs	r5, #0
 472 0022 6561     		str	r5, [r4, #20]
 473              		.loc 5 24 36 view .LVU111
 474 0024 A561     		str	r5, [r4, #24]
  23:My_Top/System/kth_read.hpp ****     : _hspi(hspi), _cs_port(cs_port), _cs_pin(cs_pin),
 475              		.loc 5 23 7 view .LVU112
 476 0026 244B     		ldr	r3, .L13+16
 477 0028 2362     		str	r3, [r4, #32]
  23:My_Top/System/kth_read.hpp ****     : _hspi(hspi), _cs_port(cs_port), _cs_pin(cs_pin),
 478              		.loc 5 23 20 view .LVU113
 479 002a A023     		movs	r3, #160
 480 002c DB05     		lsls	r3, r3, #23
 481 002e 6362     		str	r3, [r4, #36]
  23:My_Top/System/kth_read.hpp ****     : _hspi(hspi), _cs_port(cs_port), _cs_pin(cs_pin),
 482              		.loc 5 23 39 view .LVU114
 483 0030 1021     		movs	r1, #16
 484 0032 2185     		strh	r1, [r4, #40]
 485              	.LVL44:
ARM GAS  /tmp/cc1cM2UK.s 			page 17


  23:My_Top/System/kth_read.hpp ****     : _hspi(hspi), _cs_port(cs_port), _cs_pin(cs_pin),
 486              		.loc 5 23 39 view .LVU115
 487              	.LBE34:
 488              	.LBE33:
 489              	.LBE32:
 490              	.LBB35:
 491              	.LBI35:
  22:My_Top/System/kth_read.hpp ****     : _hspi(hspi), _cs_port(cs_port), _cs_pin(cs_pin),
 492              		.loc 5 22 5 is_stmt 1 view .LVU116
 493              	.LBB36:
 494              	.LBB37:
 495              		.loc 5 24 7 is_stmt 0 view .LVU117
 496 0034 A285     		strh	r2, [r4, #44]
 497              		.loc 5 24 23 view .LVU118
 498 0036 2563     		str	r5, [r4, #48]
 499              		.loc 5 24 36 view .LVU119
 500 0038 6563     		str	r5, [r4, #52]
  23:My_Top/System/kth_read.hpp ****     : _hspi(hspi), _cs_port(cs_port), _cs_pin(cs_pin),
 501              		.loc 5 23 7 view .LVU120
 502 003a 204A     		ldr	r2, .L13+20
 503 003c E263     		str	r2, [r4, #60]
  23:My_Top/System/kth_read.hpp ****     : _hspi(hspi), _cs_port(cs_port), _cs_pin(cs_pin),
 504              		.loc 5 23 20 view .LVU121
 505 003e 2364     		str	r3, [r4, #64]
  23:My_Top/System/kth_read.hpp ****     : _hspi(hspi), _cs_port(cs_port), _cs_pin(cs_pin),
 506              		.loc 5 23 39 view .LVU122
 507 0040 4423     		movs	r3, #68
 508 0042 1F4A     		ldr	r2, .L13+24
 509 0044 E252     		strh	r2, [r4, r3]
 510              	.LVL45:
  23:My_Top/System/kth_read.hpp ****     : _hspi(hspi), _cs_port(cs_port), _cs_pin(cs_pin),
 511              		.loc 5 23 39 view .LVU123
 512              	.LBE37:
 513              	.LBE36:
 514              	.LBE35:
  10:My_Top/Step_Motor/StepperMotor_Loop.cpp **** StepperMotor M2(&Motor_M2, &kth7111_B, 0.12f,1.1f,0.0f,  109.0f,0.0f,0.0f,true,M2_MS1_GPIO_Port, M2
 515              		.loc 1 10 108 view .LVU124
 516 0046 1F4E     		ldr	r6, .L13+28
 517 0048 2200     		movs	r2, r4
 518 004a 1032     		adds	r2, r2, #16
 519 004c 1E49     		ldr	r1, .L13+32
 520 004e 1F48     		ldr	r0, .L13+36
 521 0050 043B     		subs	r3, r3, #4
 522 0052 0793     		str	r3, [sp, #28]
 523 0054 1E4B     		ldr	r3, .L13+40
 524 0056 9946     		mov	r9, r3
 525 0058 0693     		str	r3, [sp, #24]
 526 005a 0123     		movs	r3, #1
 527 005c 9846     		mov	r8, r3
 528 005e 0593     		str	r3, [sp, #20]
 529 0060 0495     		str	r5, [sp, #16]
 530 0062 0395     		str	r5, [sp, #12]
 531 0064 1B4F     		ldr	r7, .L13+44
 532 0066 0297     		str	r7, [sp, #8]
 533 0068 0195     		str	r5, [sp, #4]
 534 006a 1B4B     		ldr	r3, .L13+48
 535 006c 0093     		str	r3, [sp]
ARM GAS  /tmp/cc1cM2UK.s 			page 18


 536 006e 331C     		adds	r3, r6, #0
 537 0070 FFF7FEFF 		bl	_ZN12StepperMotorC1EP10Step_MotorP7KTH7111ffffffbP12GPIO_TypeDeft
 538              	.LVL46:
  11:My_Top/Step_Motor/StepperMotor_Loop.cpp **** 
 539              		.loc 1 11 108 view .LVU125
 540 0074 2200     		movs	r2, r4
 541 0076 2C32     		adds	r2, r2, #44
 542 0078 1849     		ldr	r1, .L13+52
 543 007a 1948     		ldr	r0, .L13+56
 544 007c 8023     		movs	r3, #128
 545 007e DB01     		lsls	r3, r3, #7
 546 0080 0793     		str	r3, [sp, #28]
 547 0082 4B46     		mov	r3, r9
 548 0084 0693     		str	r3, [sp, #24]
 549 0086 4346     		mov	r3, r8
 550 0088 0593     		str	r3, [sp, #20]
 551 008a 0495     		str	r5, [sp, #16]
 552 008c 0395     		str	r5, [sp, #12]
 553 008e 0297     		str	r7, [sp, #8]
 554 0090 0195     		str	r5, [sp, #4]
 555 0092 144B     		ldr	r3, .L13+60
 556 0094 0093     		str	r3, [sp]
 557 0096 331C     		adds	r3, r6, #0
 558 0098 FFF7FEFF 		bl	_ZN12StepperMotorC1EP10Step_MotorP7KTH7111ffffffbP12GPIO_TypeDeft
 559              	.LVL47:
 560              		.loc 1 215 1 view .LVU126
 561 009c 09B0     		add	sp, sp, #36
 562              		@ sp needed
 563 009e C0BC     		pop	{r6, r7}
 564 00a0 B946     		mov	r9, r7
 565 00a2 B046     		mov	r8, r6
 566 00a4 F0BD     		pop	{r4, r5, r6, r7, pc}
 567              	.L14:
 568 00a6 C046     		.align	2
 569              	.L13:
 570 00a8 00000000 		.word	.LANCHOR0
 571 00ac 00004E40 		.word	1078853632
 572 00b0 75DF86D0 		.word	-796467339
 573 00b4 2C229C40 		.word	1083974188
 574 00b8 00000000 		.word	hspi1
 575 00bc 00000000 		.word	hspi2
 576 00c0 0080FFFF 		.word	-32768
 577 00c4 8FC2F53D 		.word	1039516303
 578 00c8 00000000 		.word	Motor_M1
 579 00cc 00000000 		.word	M1
 580 00d0 00080050 		.word	1342179328
 581 00d4 0000DA42 		.word	1121583104
 582 00d8 3333B33F 		.word	1068708659
 583 00dc 00000000 		.word	Motor_M2
 584 00e0 00000000 		.word	M2
 585 00e4 CDCC8C3F 		.word	1066192077
 586              		.cfi_endproc
 587              	.LFE1622:
 589              		.align	1
 590              		.global	_ZN12StepperMotor15My_Stepper_InitEv
 591              		.syntax unified
 592              		.code	16
ARM GAS  /tmp/cc1cM2UK.s 			page 19


 593              		.thumb_func
 595              	_ZN12StepperMotor15My_Stepper_InitEv:
 596              	.LVL48:
 597              	.LFB1466:
  16:My_Top/Step_Motor/StepperMotor_Loop.cpp ****     speed_lpf.init(0.7); //ххЇхщхКІфНщцЛЄцГЂхЈ
 598              		.loc 1 16 1 is_stmt 1 view -0
 599              		.cfi_startproc
 600              		@ args = 0, pretend = 0, frame = 0
 601              		@ frame_needed = 0, uses_anonymous_args = 0
  16:My_Top/Step_Motor/StepperMotor_Loop.cpp ****     speed_lpf.init(0.7); //ххЇхщхКІфНщцЛЄцГЂхЈ
 602              		.loc 1 16 1 is_stmt 0 view .LVU128
 603 00e8 70B5     		push	{r4, r5, r6, lr}
 604              		.cfi_def_cfa_offset 16
 605              		.cfi_offset 4, -16
 606              		.cfi_offset 5, -12
 607              		.cfi_offset 6, -8
 608              		.cfi_offset 14, -4
 609 00ea 0400     		movs	r4, r0
  17:My_Top/Step_Motor/StepperMotor_Loop.cpp ****     error_lpf.init(0.7); //ххЇхшЏЏхЗЎфНщцЛЄцГЂхЈ
 610              		.loc 1 17 5 is_stmt 1 view .LVU129
  17:My_Top/Step_Motor/StepperMotor_Loop.cpp ****     error_lpf.init(0.7); //ххЇхшЏЏхЗЎфНщцЛЄцГЂхЈ
 611              		.loc 1 17 19 is_stmt 0 view .LVU130
 612 00ec 164D     		ldr	r5, .L21
 613 00ee B830     		adds	r0, r0, #184
 614              	.LVL49:
  17:My_Top/Step_Motor/StepperMotor_Loop.cpp ****     error_lpf.init(0.7); //ххЇхшЏЏхЗЎфНщцЛЄцГЂхЈ
 615              		.loc 1 17 19 view .LVU131
 616 00f0 291C     		adds	r1, r5, #0
 617 00f2 FFF7FEFF 		bl	_ZN13LowpassFilter4initEf
 618              	.LVL50:
  18:My_Top/Step_Motor/StepperMotor_Loop.cpp ****     speed_avg.init(5); //ххЇхщхКІхЙГххМцЛЄцГЂхЈ
 619              		.loc 1 18 5 is_stmt 1 view .LVU132
  18:My_Top/Step_Motor/StepperMotor_Loop.cpp ****     speed_avg.init(5); //ххЇхщхКІхЙГххМцЛЄцГЂхЈ
 620              		.loc 1 18 19 is_stmt 0 view .LVU133
 621 00f6 2000     		movs	r0, r4
 622 00f8 C030     		adds	r0, r0, #192
 623 00fa 291C     		adds	r1, r5, #0
 624 00fc FFF7FEFF 		bl	_ZN13LowpassFilter4initEf
 625              	.LVL51:
  19:My_Top/Step_Motor/StepperMotor_Loop.cpp ****     _motor->Motor_Init(); //ххЇхчЕцК
 626              		.loc 1 19 5 is_stmt 1 view .LVU134
  19:My_Top/Step_Motor/StepperMotor_Loop.cpp ****     _motor->Motor_Init(); //ххЇхчЕцК
 627              		.loc 1 19 19 is_stmt 0 view .LVU135
 628 0100 2000     		movs	r0, r4
 629 0102 C830     		adds	r0, r0, #200
 630 0104 0521     		movs	r1, #5
 631 0106 FFF7FEFF 		bl	_ZN9AvgFilter4initEh
 632              	.LVL52:
  20:My_Top/Step_Motor/StepperMotor_Loop.cpp ****     _encoder->KTH7111_Init(motor_encoder_dir); //ххЇхчМч хЈ 
 633              		.loc 1 20 5 is_stmt 1 view .LVU136
 634 010a A06E     		ldr	r0, [r4, #104]
  20:My_Top/Step_Motor/StepperMotor_Loop.cpp ****     _encoder->KTH7111_Init(motor_encoder_dir); //ххЇхчМч хЈ 
 635              		.loc 1 20 23 is_stmt 0 view .LVU137
 636 010c FFF7FEFF 		bl	_ZN10Step_Motor10Motor_InitEv
 637              	.LVL53:
  21:My_Top/Step_Motor/StepperMotor_Loop.cpp ****     HAL_GPIO_WritePin(MS_FULL_PORT_, MS_FULL_PIN_, MS_FULL ? GPIO_PIN_SET : GPIO_PIN_RESET);
 638              		.loc 1 21 5 is_stmt 1 view .LVU138
ARM GAS  /tmp/cc1cM2UK.s 			page 20


 639 0110 B423     		movs	r3, #180
 640 0112 E058     		ldr	r0, [r4, r3]
  21:My_Top/Step_Motor/StepperMotor_Loop.cpp ****     HAL_GPIO_WritePin(MS_FULL_PORT_, MS_FULL_PIN_, MS_FULL ? GPIO_PIN_SET : GPIO_PIN_RESET);
 641              		.loc 1 21 27 is_stmt 0 view .LVU139
 642 0114 743B     		subs	r3, r3, #116
 643 0116 E15C     		ldrb	r1, [r4, r3]
 644 0118 FFF7FEFF 		bl	_ZN7KTH711112KTH7111_InitEb
 645              	.LVL54:
  22:My_Top/Step_Motor/StepperMotor_Loop.cpp ****     motor_fre = 0;
 646              		.loc 1 22 5 is_stmt 1 view .LVU140
  22:My_Top/Step_Motor/StepperMotor_Loop.cpp ****     motor_fre = 0;
 647              		.loc 1 22 22 is_stmt 0 view .LVU141
 648 011c E423     		movs	r3, #228
 649 011e E558     		ldr	r5, [r4, r3]
 650 0120 0433     		adds	r3, r3, #4
 651 0122 E65A     		ldrh	r6, [r4, r3]
  22:My_Top/Step_Motor/StepperMotor_Loop.cpp ****     motor_fre = 0;
 652              		.loc 1 22 52 view .LVU142
 653 0124 606C     		ldr	r0, [r4, #68]
  22:My_Top/Step_Motor/StepperMotor_Loop.cpp ****     motor_fre = 0;
 654              		.loc 1 22 22 view .LVU143
 655 0126 0021     		movs	r1, #0
 656 0128 FFF7FEFF 		bl	__aeabi_fcmpeq
 657              	.LVL55:
 658 012c 0028     		cmp	r0, #0
 659 012e 09D1     		bne	.L20
  22:My_Top/Step_Motor/StepperMotor_Loop.cpp ****     motor_fre = 0;
 660              		.loc 1 22 22 discriminator 1 view .LVU144
 661 0130 0122     		movs	r2, #1
 662              	.L16:
  22:My_Top/Step_Motor/StepperMotor_Loop.cpp ****     motor_fre = 0;
 663              		.loc 1 22 22 discriminator 4 view .LVU145
 664 0132 3100     		movs	r1, r6
 665 0134 2800     		movs	r0, r5
 666 0136 FFF7FEFF 		bl	HAL_GPIO_WritePin
 667              	.LVL56:
  23:My_Top/Step_Motor/StepperMotor_Loop.cpp ****     control_init_flag = true;
 668              		.loc 1 23 5 is_stmt 1 view .LVU146
  23:My_Top/Step_Motor/StepperMotor_Loop.cpp ****     control_init_flag = true;
 669              		.loc 1 23 15 is_stmt 0 view .LVU147
 670 013a 0023     		movs	r3, #0
 671 013c 6363     		str	r3, [r4, #52]
  24:My_Top/Step_Motor/StepperMotor_Loop.cpp **** }
 672              		.loc 1 24 5 is_stmt 1 view .LVU148
  24:My_Top/Step_Motor/StepperMotor_Loop.cpp **** }
 673              		.loc 1 24 23 is_stmt 0 view .LVU149
 674 013e 0123     		movs	r3, #1
 675 0140 6370     		strb	r3, [r4, #1]
  25:My_Top/Step_Motor/StepperMotor_Loop.cpp **** 
 676              		.loc 1 25 1 view .LVU150
 677              		@ sp needed
 678              	.LVL57:
  25:My_Top/Step_Motor/StepperMotor_Loop.cpp **** 
 679              		.loc 1 25 1 view .LVU151
 680 0142 70BD     		pop	{r4, r5, r6, pc}
 681              	.LVL58:
 682              	.L20:
ARM GAS  /tmp/cc1cM2UK.s 			page 21


  22:My_Top/Step_Motor/StepperMotor_Loop.cpp ****     motor_fre = 0;
 683              		.loc 1 22 22 discriminator 2 view .LVU152
 684 0144 0022     		movs	r2, #0
 685 0146 F4E7     		b	.L16
 686              	.L22:
 687              		.align	2
 688              	.L21:
 689 0148 3333333F 		.word	1060320051
 690              		.cfi_endproc
 691              	.LFE1466:
 693              		.align	1
 694              		.global	_ZN12StepperMotor28Update_Speed_Angle_LPFAndPLLEv
 695              		.syntax unified
 696              		.code	16
 697              		.thumb_func
 699              	_ZN12StepperMotor28Update_Speed_Angle_LPFAndPLLEv:
 700              	.LVL59:
 701              	.LFB1467:
  32:My_Top/Step_Motor/StepperMotor_Loop.cpp ****     // щцхщяМчЈфКфИДцЖх­хЈшЇхКІхМхфИфИцЌЁчшЇхКІхМ
 702              		.loc 1 32 1 is_stmt 1 view -0
 703              		.cfi_startproc
 704              		@ args = 0, pretend = 0, frame = 0
 705              		@ frame_needed = 0, uses_anonymous_args = 0
  32:My_Top/Step_Motor/StepperMotor_Loop.cpp ****     // щцхщяМчЈфКфИДцЖх­хЈшЇхКІхМхфИфИцЌЁчшЇхКІхМ
 706              		.loc 1 32 1 is_stmt 0 view .LVU154
 707 014c 30B5     		push	{r4, r5, lr}
 708              		.cfi_def_cfa_offset 12
 709              		.cfi_offset 4, -12
 710              		.cfi_offset 5, -8
 711              		.cfi_offset 14, -4
 712 014e 83B0     		sub	sp, sp, #12
 713              		.cfi_def_cfa_offset 24
 714 0150 0400     		movs	r4, r0
  34:My_Top/Step_Motor/StepperMotor_Loop.cpp ****     static float theta_m_offic_temp = 0.0;
 715              		.loc 1 34 5 is_stmt 1 view .LVU155
  35:My_Top/Step_Motor/StepperMotor_Loop.cpp **** 
 716              		.loc 1 35 5 view .LVU156
  37:My_Top/Step_Motor/StepperMotor_Loop.cpp ****     fudu_test = _encoder->Get_KTH7111_Radian();//шЗхчМч хЈшЇхКІ
 717              		.loc 1 37 5 view .LVU157
 718 0152 B425     		movs	r5, #180
 719 0154 4059     		ldr	r0, [r0, r5]
 720              	.LVL60:
  37:My_Top/Step_Motor/StepperMotor_Loop.cpp ****     fudu_test = _encoder->Get_KTH7111_Radian();//шЗхчМч хЈшЇхКІ
 721              		.loc 1 37 36 is_stmt 0 view .LVU158
 722 0156 FFF7FEFF 		bl	_ZN7KTH711121KTH7111_Send_JIAO_CMDEv
 723              	.LVL61:
  38:My_Top/Step_Motor/StepperMotor_Loop.cpp **** 
 724              		.loc 1 38 5 is_stmt 1 view .LVU159
  38:My_Top/Step_Motor/StepperMotor_Loop.cpp **** 
 725              		.loc 1 38 17 is_stmt 0 view .LVU160
 726 015a 6059     		ldr	r0, [r4, r5]
  38:My_Top/Step_Motor/StepperMotor_Loop.cpp **** 
 727              		.loc 1 38 45 view .LVU161
 728 015c FFF7FEFF 		bl	_ZN7KTH711118Get_KTH7111_RadianEv
 729              	.LVL62:
  38:My_Top/Step_Motor/StepperMotor_Loop.cpp **** 
 730              		.loc 1 38 15 discriminator 1 view .LVU162
ARM GAS  /tmp/cc1cM2UK.s 			page 22


 731 0160 454B     		ldr	r3, .L34
 732 0162 9864     		str	r0, [r3, #72]
  40:My_Top/Step_Motor/StepperMotor_Loop.cpp ****     
 733              		.loc 1 40 5 is_stmt 1 view .LVU163
  40:My_Top/Step_Motor/StepperMotor_Loop.cpp ****     
 734              		.loc 1 40 13 is_stmt 0 view .LVU164
 735 0164 6060     		str	r0, [r4, #4]
  42:My_Top/Step_Motor/StepperMotor_Loop.cpp ****     {
 736              		.loc 1 42 5 is_stmt 1 view .LVU165
 737              	.LBB38:
  42:My_Top/Step_Motor/StepperMotor_Loop.cpp ****     {
 738              		.loc 1 42 9 is_stmt 0 view .LVU166
 739 0166 A378     		ldrb	r3, [r4, #2]
  42:My_Top/Step_Motor/StepperMotor_Loop.cpp ****     {
 740              		.loc 1 42 5 view .LVU167
 741 0168 002B     		cmp	r3, #0
 742 016a 00D0     		beq	.LCB625
 743 016c 6DE0     		b	.L24	@long jump
 744              	.LCB625:
 745              	.LBB39:
  44:My_Top/Step_Motor/StepperMotor_Loop.cpp ****       //цЙхМ1 фНщцЛЄцГЂ цДцАцКцЂАшЇхКІщхКІ
 746              		.loc 1 44 7 is_stmt 1 view .LVU168
 747              	.LBB40:
  44:My_Top/Step_Motor/StepperMotor_Loop.cpp ****       //цЙхМ1 фНщцЛЄцГЂ цДцАцКцЂАшЇхКІщхКІ
 748              		.loc 1 44 17 view .LVU169
 749 016e FFF7FEFF 		bl	__aeabi_f2d
 750              	.LVL63:
 751 0172 424A     		ldr	r2, .L34+4
 752 0174 424B     		ldr	r3, .L34+8
 753 0176 FFF7FEFF 		bl	__aeabi_dadd
 754              	.LVL64:
 755 017a FFF7FEFF 		bl	__aeabi_d2f
 756              	.LVL65:
 757 017e 4149     		ldr	r1, .L34+12
 758 0180 FFF7FEFF 		bl	fmodf
 759              	.LVL66:
 760 0184 051C     		adds	r5, r0, #0
 761              	.LVL67:
  44:My_Top/Step_Motor/StepperMotor_Loop.cpp ****       //цЙхМ1 фНщцЛЄцГЂ цДцАцКцЂАшЇхКІщхКІ
 762              		.loc 1 44 17 discriminator 1 view .LVU170
 763 0186 0021     		movs	r1, #0
 764 0188 FFF7FEFF 		bl	__aeabi_fcmplt
 765              	.LVL68:
  44:My_Top/Step_Motor/StepperMotor_Loop.cpp ****       //цЙхМ1 фНщцЛЄцГЂ цДцАцКцЂАшЇхКІщхКІ
 766              		.loc 1 44 17 is_stmt 0 discriminator 1 view .LVU171
 767 018c 0028     		cmp	r0, #0
 768 018e 50D1     		bne	.L32
 769              	.LVL69:
 770              	.L25:
  44:My_Top/Step_Motor/StepperMotor_Loop.cpp ****       //цЙхМ1 фНщцЛЄцГЂ цДцАцКцЂАшЇхКІщхКІ
 771              		.loc 1 44 17 is_stmt 1 discriminator 3 view .LVU172
 772 0190 281C     		adds	r0, r5, #0
 773 0192 FFF7FEFF 		bl	__aeabi_f2d
 774              	.LVL70:
 775 0196 394A     		ldr	r2, .L34+4
 776 0198 394B     		ldr	r3, .L34+8
 777 019a FFF7FEFF 		bl	__aeabi_dsub
ARM GAS  /tmp/cc1cM2UK.s 			page 23


 778              	.LVL71:
 779              	.LBE40:
 780 019e FFF7FEFF 		bl	__aeabi_d2f
 781              	.LVL72:
 782 01a2 051C     		adds	r5, r0, #0
 783              	.LVL73:
  44:My_Top/Step_Motor/StepperMotor_Loop.cpp ****       //цЙхМ1 фНщцЛЄцГЂ цДцАцКцЂАшЇхКІщхКІ
 784              		.loc 1 44 15 is_stmt 0 discriminator 3 view .LVU173
 785 01a4 6060     		str	r0, [r4, #4]
  46:My_Top/Step_Motor/StepperMotor_Loop.cpp ****       theta_m_last = theta_m; // цДцАфИфИцЌЁчцКцЂАшЇхКІ
 786              		.loc 1 46 7 is_stmt 1 view .LVU174
  46:My_Top/Step_Motor/StepperMotor_Loop.cpp ****       theta_m_last = theta_m; // цДцАфИфИцЌЁчцКцЂАшЇхКІ
 787              		.loc 1 46 38 is_stmt 0 view .LVU175
 788 01a6 A168     		ldr	r1, [r4, #8]
  46:My_Top/Step_Motor/StepperMotor_Loop.cpp ****       theta_m_last = theta_m; // цДцАфИфИцЌЁчцКцЂАшЇхКІ
 789              		.loc 1 46 36 view .LVU176
 790 01a8 FFF7FEFF 		bl	__aeabi_fsub
 791              	.LVL74:
  46:My_Top/Step_Motor/StepperMotor_Loop.cpp ****       theta_m_last = theta_m; // цДцАфИфИцЌЁчцКцЂАшЇхКІ
 792              		.loc 1 46 26 view .LVU177
 793 01ac 324B     		ldr	r3, .L34
 794 01ae D864     		str	r0, [r3, #76]
  47:My_Top/Step_Motor/StepperMotor_Loop.cpp ****       theta_m_offic = wrap_to_PI(theta_m_offic_temp);// хАхЗЎхМшЇцДхА [-PI, PI) хКщД
 795              		.loc 1 47 7 is_stmt 1 view .LVU178
  47:My_Top/Step_Motor/StepperMotor_Loop.cpp ****       theta_m_offic = wrap_to_PI(theta_m_offic_temp);// хАхЗЎхМшЇцДхА [-PI, PI) хКщД
 796              		.loc 1 47 20 is_stmt 0 view .LVU179
 797 01b0 A560     		str	r5, [r4, #8]
  48:My_Top/Step_Motor/StepperMotor_Loop.cpp **** 
 798              		.loc 1 48 7 is_stmt 1 view .LVU180
 799              	.LBB41:
  48:My_Top/Step_Motor/StepperMotor_Loop.cpp **** 
 800              		.loc 1 48 23 view .LVU181
 801 01b2 FFF7FEFF 		bl	__aeabi_f2d
 802              	.LVL75:
 803 01b6 314A     		ldr	r2, .L34+4
 804 01b8 314B     		ldr	r3, .L34+8
 805 01ba FFF7FEFF 		bl	__aeabi_dadd
 806              	.LVL76:
 807 01be FFF7FEFF 		bl	__aeabi_d2f
 808              	.LVL77:
 809 01c2 3049     		ldr	r1, .L34+12
 810 01c4 FFF7FEFF 		bl	fmodf
 811              	.LVL78:
 812 01c8 051C     		adds	r5, r0, #0
 813              	.LVL79:
  48:My_Top/Step_Motor/StepperMotor_Loop.cpp **** 
 814              		.loc 1 48 23 discriminator 1 view .LVU182
 815 01ca 0021     		movs	r1, #0
 816 01cc FFF7FEFF 		bl	__aeabi_fcmplt
 817              	.LVL80:
  48:My_Top/Step_Motor/StepperMotor_Loop.cpp **** 
 818              		.loc 1 48 23 is_stmt 0 discriminator 1 view .LVU183
 819 01d0 0028     		cmp	r0, #0
 820 01d2 34D1     		bne	.L33
 821              	.LVL81:
 822              	.L27:
  48:My_Top/Step_Motor/StepperMotor_Loop.cpp **** 
ARM GAS  /tmp/cc1cM2UK.s 			page 24


 823              		.loc 1 48 23 is_stmt 1 discriminator 3 view .LVU184
 824 01d4 281C     		adds	r0, r5, #0
 825 01d6 FFF7FEFF 		bl	__aeabi_f2d
 826              	.LVL82:
 827 01da 284A     		ldr	r2, .L34+4
 828 01dc 284B     		ldr	r3, .L34+8
 829 01de FFF7FEFF 		bl	__aeabi_dsub
 830              	.LVL83:
 831              	.LBE41:
 832 01e2 FFF7FEFF 		bl	__aeabi_d2f
 833              	.LVL84:
 834 01e6 011C     		adds	r1, r0, #0
  48:My_Top/Step_Motor/StepperMotor_Loop.cpp **** 
 835              		.loc 1 48 21 is_stmt 0 discriminator 3 view .LVU185
 836 01e8 E060     		str	r0, [r4, #12]
  50:My_Top/Step_Motor/StepperMotor_Loop.cpp ****       theta_m_speed = theta_m_offic_filtered*Stepper_VELOCITY_LOOP_FREQ_HZ;//speed=шЗЏчЈ/t 
 837              		.loc 1 50 7 is_stmt 1 view .LVU186
  50:My_Top/Step_Motor/StepperMotor_Loop.cpp ****       theta_m_speed = theta_m_offic_filtered*Stepper_VELOCITY_LOOP_FREQ_HZ;//speed=шЗЏчЈ/t 
 838              		.loc 1 50 48 is_stmt 0 view .LVU187
 839 01ea 2000     		movs	r0, r4
 840 01ec C030     		adds	r0, r0, #192
 841 01ee FFF7FEFF 		bl	_ZN13LowpassFilter6filterEf
 842              	.LVL85:
  50:My_Top/Step_Motor/StepperMotor_Loop.cpp ****       theta_m_speed = theta_m_offic_filtered*Stepper_VELOCITY_LOOP_FREQ_HZ;//speed=шЗЏчЈ/t 
 843              		.loc 1 50 30 discriminator 1 view .LVU188
 844 01f2 2061     		str	r0, [r4, #16]
  51:My_Top/Step_Motor/StepperMotor_Loop.cpp ****       theta_av_speed = speed_avg.filter(theta_m_speed);//хЏЙщхКІшПшЁхЙГххМцЛЄцГЂ
 845              		.loc 1 51 7 is_stmt 1 view .LVU189
  51:My_Top/Step_Motor/StepperMotor_Loop.cpp ****       theta_av_speed = speed_avg.filter(theta_m_speed);//хЏЙщхКІшПшЁхЙГххМцЛЄцГЂ
 846              		.loc 1 51 45 is_stmt 0 view .LVU190
 847 01f4 2449     		ldr	r1, .L34+16
 848 01f6 FFF7FEFF 		bl	__aeabi_fmul
 849              	.LVL86:
 850 01fa 011C     		adds	r1, r0, #0
  51:My_Top/Step_Motor/StepperMotor_Loop.cpp ****       theta_av_speed = speed_avg.filter(theta_m_speed);//хЏЙщхКІшПшЁхЙГххМцЛЄцГЂ
 851              		.loc 1 51 21 view .LVU191
 852 01fc 6061     		str	r0, [r4, #20]
  52:My_Top/Step_Motor/StepperMotor_Loop.cpp ****       filtered_speed = speed_lpf.filter(theta_av_speed);//хЏЙщхКІшПшЁфНщцЛЄцГЂ
 853              		.loc 1 52 7 is_stmt 1 view .LVU192
  52:My_Top/Step_Motor/StepperMotor_Loop.cpp ****       filtered_speed = speed_lpf.filter(theta_av_speed);//хЏЙщхКІшПшЁфНщцЛЄцГЂ
 854              		.loc 1 52 40 is_stmt 0 view .LVU193
 855 01fe 2000     		movs	r0, r4
 856 0200 C830     		adds	r0, r0, #200
 857 0202 FFF7FEFF 		bl	_ZN9AvgFilter6filterEf
 858              	.LVL87:
 859 0206 011C     		adds	r1, r0, #0
  52:My_Top/Step_Motor/StepperMotor_Loop.cpp ****       filtered_speed = speed_lpf.filter(theta_av_speed);//хЏЙщхКІшПшЁфНщцЛЄцГЂ
 860              		.loc 1 52 22 discriminator 1 view .LVU194
 861 0208 A061     		str	r0, [r4, #24]
  53:My_Top/Step_Motor/StepperMotor_Loop.cpp ****       reg_final = theta_m; //хАцКцЂАшЇхКІшЕхМчЛцчЛшЇхКІ
 862              		.loc 1 53 7 is_stmt 1 view .LVU195
  53:My_Top/Step_Motor/StepperMotor_Loop.cpp ****       reg_final = theta_m; //хАцКцЂАшЇхКІшЕхМчЛцчЛшЇхКІ
 863              		.loc 1 53 40 is_stmt 0 view .LVU196
 864 020a 2000     		movs	r0, r4
 865 020c B830     		adds	r0, r0, #184
 866 020e FFF7FEFF 		bl	_ZN13LowpassFilter6filterEf
 867              	.LVL88:
ARM GAS  /tmp/cc1cM2UK.s 			page 25


 868 0212 051C     		adds	r5, r0, #0
 869              	.LVL89:
  53:My_Top/Step_Motor/StepperMotor_Loop.cpp ****       reg_final = theta_m; //хАцКцЂАшЇхКІшЕхМчЛцчЛшЇхКІ
 870              		.loc 1 53 22 discriminator 1 view .LVU197
 871 0214 E061     		str	r0, [r4, #28]
  54:My_Top/Step_Motor/StepperMotor_Loop.cpp ****       theta_deg_final = rad2deg(reg_final); //хАхМЇхКІшНЌцЂфИК360хКІ
 872              		.loc 1 54 7 is_stmt 1 view .LVU198
  54:My_Top/Step_Motor/StepperMotor_Loop.cpp ****       theta_deg_final = rad2deg(reg_final); //хАхМЇхКІшНЌцЂфИК360хКІ
 873              		.loc 1 54 19 is_stmt 0 view .LVU199
 874 0216 6068     		ldr	r0, [r4, #4]
  54:My_Top/Step_Motor/StepperMotor_Loop.cpp ****       theta_deg_final = rad2deg(reg_final); //хАхМЇхКІшНЌцЂфИК360хКІ
 875              		.loc 1 54 17 view .LVU200
 876 0218 A062     		str	r0, [r4, #40]
  55:My_Top/Step_Motor/StepperMotor_Loop.cpp ****       Angular_velocity_final = filtered_speed;  //хАцчЛщхКІшЕхМчЛцчЛшЇщхКІ
 877              		.loc 1 55 7 is_stmt 1 view .LVU201
  55:My_Top/Step_Motor/StepperMotor_Loop.cpp ****       Angular_velocity_final = filtered_speed;  //хАцчЛщхКІшЕхМчЛцчЛшЇщхКІ
 878              		.loc 1 55 25 is_stmt 0 view .LVU202
 879 021a FFF7FEFF 		bl	__aeabi_f2d
 880              	.LVL90:
 881 021e 1B4A     		ldr	r2, .L34+20
 882 0220 1B4B     		ldr	r3, .L34+24
 883 0222 FFF7FEFF 		bl	__aeabi_dmul
 884              	.LVL91:
 885 0226 FFF7FEFF 		bl	__aeabi_d2f
 886              	.LVL92:
  55:My_Top/Step_Motor/StepperMotor_Loop.cpp ****       Angular_velocity_final = filtered_speed;  //хАцчЛщхКІшЕхМчЛцчЛшЇщхКІ
 887              		.loc 1 55 23 view .LVU203
 888 022a E062     		str	r0, [r4, #44]
  56:My_Top/Step_Motor/StepperMotor_Loop.cpp ****       
 889              		.loc 1 56 7 is_stmt 1 view .LVU204
  56:My_Top/Step_Motor/StepperMotor_Loop.cpp ****       
 890              		.loc 1 56 30 is_stmt 0 view .LVU205
 891 022c 2563     		str	r5, [r4, #48]
 892              	.LVL93:
 893              	.L23:
  56:My_Top/Step_Motor/StepperMotor_Loop.cpp ****       
 894              		.loc 1 56 30 view .LVU206
 895              	.LBE39:
 896              	.LBE38:
  67:My_Top/Step_Motor/StepperMotor_Loop.cpp **** 
 897              		.loc 1 67 1 view .LVU207
 898 022e 03B0     		add	sp, sp, #12
 899              		@ sp needed
 900              	.LVL94:
  67:My_Top/Step_Motor/StepperMotor_Loop.cpp **** 
 901              		.loc 1 67 1 view .LVU208
 902 0230 30BD     		pop	{r4, r5, pc}
 903              	.LVL95:
 904              	.L32:
 905              	.LBB45:
 906              	.LBB44:
 907              	.LBB42:
  44:My_Top/Step_Motor/StepperMotor_Loop.cpp ****       //цЙхМ1 фНщцЛЄцГЂ цДцАцКцЂАшЇхКІщхКІ
 908              		.loc 1 44 17 is_stmt 1 discriminator 1 view .LVU209
 909 0232 1449     		ldr	r1, .L34+12
 910 0234 281C     		adds	r0, r5, #0
 911 0236 FFF7FEFF 		bl	__aeabi_fadd
ARM GAS  /tmp/cc1cM2UK.s 			page 26


 912              	.LVL96:
 913 023a 051C     		adds	r5, r0, #0
 914              	.LVL97:
  44:My_Top/Step_Motor/StepperMotor_Loop.cpp ****       //цЙхМ1 фНщцЛЄцГЂ цДцАцКцЂАшЇхКІщхКІ
 915              		.loc 1 44 17 is_stmt 0 discriminator 1 view .LVU210
 916 023c A8E7     		b	.L25
 917              	.LVL98:
 918              	.L33:
  44:My_Top/Step_Motor/StepperMotor_Loop.cpp ****       //цЙхМ1 фНщцЛЄцГЂ цДцАцКцЂАшЇхКІщхКІ
 919              		.loc 1 44 17 discriminator 1 view .LVU211
 920              	.LBE42:
 921              	.LBB43:
  48:My_Top/Step_Motor/StepperMotor_Loop.cpp **** 
 922              		.loc 1 48 23 is_stmt 1 discriminator 1 view .LVU212
 923 023e 1149     		ldr	r1, .L34+12
 924 0240 281C     		adds	r0, r5, #0
 925 0242 FFF7FEFF 		bl	__aeabi_fadd
 926              	.LVL99:
 927 0246 051C     		adds	r5, r0, #0
 928              	.LVL100:
  48:My_Top/Step_Motor/StepperMotor_Loop.cpp **** 
 929              		.loc 1 48 23 is_stmt 0 discriminator 1 view .LVU213
 930 0248 C4E7     		b	.L27
 931              	.LVL101:
 932              	.L24:
  48:My_Top/Step_Motor/StepperMotor_Loop.cpp **** 
 933              		.loc 1 48 23 discriminator 1 view .LVU214
 934              	.LBE43:
 935              	.LBE44:
  58:My_Top/Step_Motor/StepperMotor_Loop.cpp ****     {
 936              		.loc 1 58 11 is_stmt 1 view .LVU215
  61:My_Top/Step_Motor/StepperMotor_Loop.cpp ****       reg_final = _pll_reg_out; //хАPLLщчИчЏчшОхКшЇхКІшЕхМчЛцчЛшЇхКІ
 937              		.loc 1 61 7 view .LVU216
  61:My_Top/Step_Motor/StepperMotor_Loop.cpp ****       reg_final = _pll_reg_out; //хАPLLщчИчЏчшОхКшЇхКІшЕхМчЛцчЛшЇхКІ
 938              		.loc 1 61 18 is_stmt 0 view .LVU217
 939 024a 2300     		movs	r3, r4
 940 024c 2433     		adds	r3, r3, #36
 941 024e 2200     		movs	r2, r4
 942 0250 2032     		adds	r2, r2, #32
 943 0252 0949     		ldr	r1, .L34
 944 0254 0091     		str	r1, [sp]
 945 0256 0F49     		ldr	r1, .L34+28
 946 0258 FFF7FEFF 		bl	_Z11foc_pll_runffPfS_P13PLL_Parameter
 947              	.LVL102:
  62:My_Top/Step_Motor/StepperMotor_Loop.cpp ****       theta_deg_final = rad2deg(reg_final); //хАхМЇхКІшНЌцЂфИК360хКІ
 948              		.loc 1 62 7 is_stmt 1 view .LVU218
  62:My_Top/Step_Motor/StepperMotor_Loop.cpp ****       theta_deg_final = rad2deg(reg_final); //хАхМЇхКІшНЌцЂфИК360хКІ
 949              		.loc 1 62 19 is_stmt 0 view .LVU219
 950 025c 206A     		ldr	r0, [r4, #32]
  62:My_Top/Step_Motor/StepperMotor_Loop.cpp ****       theta_deg_final = rad2deg(reg_final); //хАхМЇхКІшНЌцЂфИК360хКІ
 951              		.loc 1 62 17 view .LVU220
 952 025e A062     		str	r0, [r4, #40]
  63:My_Top/Step_Motor/StepperMotor_Loop.cpp ****       Angular_velocity_final = _pll_Angular_velocity; //хАцчЛщхКІшЕхМчЛцчЛшЇщхКІ
 953              		.loc 1 63 7 is_stmt 1 view .LVU221
  63:My_Top/Step_Motor/StepperMotor_Loop.cpp ****       Angular_velocity_final = _pll_Angular_velocity; //хАцчЛщхКІшЕхМчЛцчЛшЇщхКІ
 954              		.loc 1 63 25 is_stmt 0 view .LVU222
 955 0260 FFF7FEFF 		bl	__aeabi_f2d
ARM GAS  /tmp/cc1cM2UK.s 			page 27


 956              	.LVL103:
 957 0264 094A     		ldr	r2, .L34+20
 958 0266 0A4B     		ldr	r3, .L34+24
 959 0268 FFF7FEFF 		bl	__aeabi_dmul
 960              	.LVL104:
 961 026c FFF7FEFF 		bl	__aeabi_d2f
 962              	.LVL105:
  63:My_Top/Step_Motor/StepperMotor_Loop.cpp ****       Angular_velocity_final = _pll_Angular_velocity; //хАцчЛщхКІшЕхМчЛцчЛшЇщхКІ
 963              		.loc 1 63 23 view .LVU223
 964 0270 E062     		str	r0, [r4, #44]
  64:My_Top/Step_Motor/StepperMotor_Loop.cpp ****     }
 965              		.loc 1 64 7 is_stmt 1 view .LVU224
  64:My_Top/Step_Motor/StepperMotor_Loop.cpp ****     }
 966              		.loc 1 64 32 is_stmt 0 view .LVU225
 967 0272 636A     		ldr	r3, [r4, #36]
  64:My_Top/Step_Motor/StepperMotor_Loop.cpp ****     }
 968              		.loc 1 64 30 view .LVU226
 969 0274 2363     		str	r3, [r4, #48]
 970              	.LBE45:
  67:My_Top/Step_Motor/StepperMotor_Loop.cpp **** 
 971              		.loc 1 67 1 view .LVU227
 972 0276 DAE7     		b	.L23
 973              	.L35:
 974              		.align	2
 975              	.L34:
 976 0278 00000000 		.word	.LANCHOR0
 977 027c 182D4454 		.word	1413754136
 978 0280 FB210940 		.word	1074340347
 979 0284 DB0FC940 		.word	1086918619
 980 0288 0000FA44 		.word	1157234688
 981 028c F8C1631A 		.word	442745336
 982 0290 DCA54C40 		.word	1078765020
 983 0294 6F12033A 		.word	973279855
 984              		.cfi_endproc
 985              	.LFE1467:
 987              		.align	1
 988              		.global	_ZN12StepperMotor6setFreEv
 989              		.syntax unified
 990              		.code	16
 991              		.thumb_func
 993              	_ZN12StepperMotor6setFreEv:
 994              	.LVL106:
 995              	.LFB1468:
  85:My_Top/Step_Motor/StepperMotor_Loop.cpp ****     if(MS_FULL_Last != (uint16_t)MS_FULL) //хЈц­ЅфИхц­ЅцЈЁхМхцЂ т щцАшЎОчНЎ GPIO хМш
 996              		.loc 1 85 1 is_stmt 1 view -0
 997              		.cfi_startproc
 998              		@ args = 0, pretend = 0, frame = 0
 999              		@ frame_needed = 0, uses_anonymous_args = 0
  85:My_Top/Step_Motor/StepperMotor_Loop.cpp ****     if(MS_FULL_Last != (uint16_t)MS_FULL) //хЈц­ЅфИхц­ЅцЈЁхМхцЂ т щцАшЎОчНЎ GPIO хМш
 1000              		.loc 1 85 1 is_stmt 0 view .LVU229
 1001 0298 F0B5     		push	{r4, r5, r6, r7, lr}
 1002              		.cfi_def_cfa_offset 20
 1003              		.cfi_offset 4, -20
 1004              		.cfi_offset 5, -16
 1005              		.cfi_offset 6, -12
 1006              		.cfi_offset 7, -8
 1007              		.cfi_offset 14, -4
ARM GAS  /tmp/cc1cM2UK.s 			page 28


 1008 029a C646     		mov	lr, r8
 1009 029c 00B5     		push	{lr}
 1010              		.cfi_def_cfa_offset 24
 1011              		.cfi_offset 8, -24
 1012 029e 0400     		movs	r4, r0
  86:My_Top/Step_Motor/StepperMotor_Loop.cpp ****     {
 1013              		.loc 1 86 5 is_stmt 1 view .LVU230
  86:My_Top/Step_Motor/StepperMotor_Loop.cpp ****     {
 1014              		.loc 1 86 8 is_stmt 0 view .LVU231
 1015 02a0 EA23     		movs	r3, #234
 1016 02a2 C55A     		ldrh	r5, [r0, r3]
  86:My_Top/Step_Motor/StepperMotor_Loop.cpp ****     {
 1017              		.loc 1 86 34 view .LVU232
 1018 02a4 406C     		ldr	r0, [r0, #68]
 1019              	.LVL107:
  86:My_Top/Step_Motor/StepperMotor_Loop.cpp ****     {
 1020              		.loc 1 86 24 view .LVU233
 1021 02a6 FFF7FEFF 		bl	__aeabi_f2uiz
 1022              	.LVL108:
 1023 02aa 83B2     		uxth	r3, r0
  86:My_Top/Step_Motor/StepperMotor_Loop.cpp ****     {
 1024              		.loc 1 86 5 view .LVU234
 1025 02ac 9D42     		cmp	r5, r3
 1026 02ae 0DD0     		beq	.L37
  88:My_Top/Step_Motor/StepperMotor_Loop.cpp ****         MS_FULL_Last = (uint16_t)MS_FULL;
 1027              		.loc 1 88 9 is_stmt 1 view .LVU235
  88:My_Top/Step_Motor/StepperMotor_Loop.cpp ****         MS_FULL_Last = (uint16_t)MS_FULL;
 1028              		.loc 1 88 26 is_stmt 0 view .LVU236
 1029 02b0 E422     		movs	r2, #228
 1030 02b2 A058     		ldr	r0, [r4, r2]
 1031 02b4 0432     		adds	r2, r2, #4
 1032 02b6 A15A     		ldrh	r1, [r4, r2]
 1033 02b8 002B     		cmp	r3, #0
 1034 02ba 38D0     		beq	.L44
  88:My_Top/Step_Motor/StepperMotor_Loop.cpp ****         MS_FULL_Last = (uint16_t)MS_FULL;
 1035              		.loc 1 88 26 discriminator 1 view .LVU237
 1036 02bc E73A     		subs	r2, r2, #231
 1037              	.L38:
  88:My_Top/Step_Motor/StepperMotor_Loop.cpp ****         MS_FULL_Last = (uint16_t)MS_FULL;
 1038              		.loc 1 88 26 discriminator 4 view .LVU238
 1039 02be FFF7FEFF 		bl	HAL_GPIO_WritePin
 1040              	.LVL109:
  89:My_Top/Step_Motor/StepperMotor_Loop.cpp ****     }
 1041              		.loc 1 89 9 is_stmt 1 view .LVU239
  89:My_Top/Step_Motor/StepperMotor_Loop.cpp ****     }
 1042              		.loc 1 89 34 is_stmt 0 view .LVU240
 1043 02c2 606C     		ldr	r0, [r4, #68]
  89:My_Top/Step_Motor/StepperMotor_Loop.cpp ****     }
 1044              		.loc 1 89 24 view .LVU241
 1045 02c4 FFF7FEFF 		bl	__aeabi_f2uiz
 1046              	.LVL110:
  89:My_Top/Step_Motor/StepperMotor_Loop.cpp ****     }
 1047              		.loc 1 89 22 view .LVU242
 1048 02c8 EA23     		movs	r3, #234
 1049 02ca E052     		strh	r0, [r4, r3]
 1050              	.L37:
  93:My_Top/Step_Motor/StepperMotor_Loop.cpp ****     if (fabsf(motor_fre_applied_) < Fre_Accel_Threshold)
ARM GAS  /tmp/cc1cM2UK.s 			page 29


 1051              		.loc 1 93 5 is_stmt 1 view .LVU243
  94:My_Top/Step_Motor/StepperMotor_Loop.cpp ****         max_step = Fre_Accel_Fast/Stepper_MAIN_LOOP_FREQ_HZ; //800.0/(16000) = 0.05
 1052              		.loc 1 94 5 view .LVU244
  94:My_Top/Step_Motor/StepperMotor_Loop.cpp ****         max_step = Fre_Accel_Fast/Stepper_MAIN_LOOP_FREQ_HZ; //800.0/(16000) = 0.05
 1053              		.loc 1 94 15 is_stmt 0 view .LVU245
 1054 02cc E66B     		ldr	r6, [r4, #60]
  94:My_Top/Step_Motor/StepperMotor_Loop.cpp ****         max_step = Fre_Accel_Fast/Stepper_MAIN_LOOP_FREQ_HZ; //800.0/(16000) = 0.05
 1055              		.loc 1 94 14 view .LVU246
 1056 02ce 7000     		lsls	r0, r6, #1
 1057 02d0 4008     		lsrs	r0, r0, #1
  94:My_Top/Step_Motor/StepperMotor_Loop.cpp ****         max_step = Fre_Accel_Fast/Stepper_MAIN_LOOP_FREQ_HZ; //800.0/(16000) = 0.05
 1058              		.loc 1 94 5 view .LVU247
 1059 02d2 1A49     		ldr	r1, .L51
 1060 02d4 FFF7FEFF 		bl	__aeabi_fcmplt
 1061              	.LVL111:
 1062 02d8 0028     		cmp	r0, #0
 1063 02da 2AD0     		beq	.L49
  95:My_Top/Step_Motor/StepperMotor_Loop.cpp ****     else//1sхх цхЄ100Hz
 1064              		.loc 1 95 18 view .LVU248
 1065 02dc 184B     		ldr	r3, .L51+4
 1066 02de 9846     		mov	r8, r3
 1067              	.L39:
 1068              	.LVL112:
  99:My_Top/Step_Motor/StepperMotor_Loop.cpp ****     diff = constraint_value(diff, -max_step, max_step);
 1069              		.loc 1 99 5 is_stmt 1 view .LVU249
  99:My_Top/Step_Motor/StepperMotor_Loop.cpp ****     diff = constraint_value(diff, -max_step, max_step);
 1070              		.loc 1 99 18 is_stmt 0 view .LVU250
 1071 02e0 606B     		ldr	r0, [r4, #52]
  99:My_Top/Step_Motor/StepperMotor_Loop.cpp ****     diff = constraint_value(diff, -max_step, max_step);
 1072              		.loc 1 99 11 view .LVU251
 1073 02e2 311C     		adds	r1, r6, #0
 1074 02e4 FFF7FEFF 		bl	__aeabi_fsub
 1075              	.LVL113:
 1076 02e8 051C     		adds	r5, r0, #0
 1077              	.LVL114:
 100:My_Top/Step_Motor/StepperMotor_Loop.cpp ****     motor_fre_applied_ += diff;
 1078              		.loc 1 100 5 is_stmt 1 view .LVU252
 100:My_Top/Step_Motor/StepperMotor_Loop.cpp ****     motor_fre_applied_ += diff;
 1079              		.loc 1 100 12 is_stmt 0 view .LVU253
 1080 02ea 8023     		movs	r3, #128
 1081 02ec 1B06     		lsls	r3, r3, #24
 1082 02ee 4344     		add	r3, r3, r8
 1083 02f0 1F00     		movs	r7, r3
 1084 02f2 011C     		adds	r1, r0, #0
 1085 02f4 181C     		adds	r0, r3, #0
 1086              	.LVL115:
 100:My_Top/Step_Motor/StepperMotor_Loop.cpp ****     motor_fre_applied_ += diff;
 1087              		.loc 1 100 12 view .LVU254
 1088 02f6 FFF7FEFF 		bl	__aeabi_fcmpgt
 1089              	.LVL116:
 100:My_Top/Step_Motor/StepperMotor_Loop.cpp ****     motor_fre_applied_ += diff;
 1090              		.loc 1 100 12 view .LVU255
 1091 02fa 0028     		cmp	r0, #0
 1092 02fc 06D1     		bne	.L41
 100:My_Top/Step_Motor/StepperMotor_Loop.cpp ****     motor_fre_applied_ += diff;
 1093              		.loc 1 100 12 discriminator 2 view .LVU256
 1094 02fe 291C     		adds	r1, r5, #0
ARM GAS  /tmp/cc1cM2UK.s 			page 30


 1095 0300 4046     		mov	r0, r8
 1096 0302 FFF7FEFF 		bl	__aeabi_fcmplt
 1097              	.LVL117:
 1098 0306 0028     		cmp	r0, #0
 1099 0308 16D0     		beq	.L50
 100:My_Top/Step_Motor/StepperMotor_Loop.cpp ****     motor_fre_applied_ += diff;
 1100              		.loc 1 100 12 discriminator 4 view .LVU257
 1101 030a 4746     		mov	r7, r8
 1102              	.L41:
 1103              	.LVL118:
 101:My_Top/Step_Motor/StepperMotor_Loop.cpp **** 
 1104              		.loc 1 101 5 is_stmt 1 view .LVU258
 101:My_Top/Step_Motor/StepperMotor_Loop.cpp **** 
 1105              		.loc 1 101 24 is_stmt 0 view .LVU259
 1106 030c 391C     		adds	r1, r7, #0
 1107 030e 301C     		adds	r0, r6, #0
 1108 0310 FFF7FEFF 		bl	__aeabi_fadd
 1109              	.LVL119:
 1110 0314 011C     		adds	r1, r0, #0
 1111 0316 E063     		str	r0, [r4, #60]
 103:My_Top/Step_Motor/StepperMotor_Loop.cpp ****     {
 1112              		.loc 1 103 5 is_stmt 1 view .LVU260
 103:My_Top/Step_Motor/StepperMotor_Loop.cpp ****     {
 1113              		.loc 1 103 9 is_stmt 0 view .LVU261
 1114 0318 A06E     		ldr	r0, [r4, #104]
 103:My_Top/Step_Motor/StepperMotor_Loop.cpp ****     {
 1115              		.loc 1 103 36 view .LVU262
 1116 031a FFF7FEFF 		bl	_ZN10Step_Motor19Set_Motor_FrequencyEf
 1117              	.LVL120:
 103:My_Top/Step_Motor/StepperMotor_Loop.cpp ****     {
 1118              		.loc 1 103 5 discriminator 1 view .LVU263
 1119 031e 0028     		cmp	r0, #0
 1120 0320 02D0     		beq	.L36
 105:My_Top/Step_Motor/StepperMotor_Loop.cpp ****     }
 1121              		.loc 1 105 9 is_stmt 1 view .LVU264
 105:My_Top/Step_Motor/StepperMotor_Loop.cpp ****     }
 1122              		.loc 1 105 24 is_stmt 0 view .LVU265
 1123 0322 6223     		movs	r3, #98
 1124 0324 0022     		movs	r2, #0
 1125 0326 E252     		strh	r2, [r4, r3]
 1126              	.L36:
 107:My_Top/Step_Motor/StepperMotor_Loop.cpp **** 
 1127              		.loc 1 107 1 view .LVU266
 1128              		@ sp needed
 1129              	.LVL121:
 1130              	.LVL122:
 1131              	.LVL123:
 107:My_Top/Step_Motor/StepperMotor_Loop.cpp **** 
 1132              		.loc 1 107 1 view .LVU267
 1133 0328 80BC     		pop	{r7}
 1134 032a B846     		mov	r8, r7
 1135 032c F0BD     		pop	{r4, r5, r6, r7, pc}
 1136              	.LVL124:
 1137              	.L44:
  88:My_Top/Step_Motor/StepperMotor_Loop.cpp ****         MS_FULL_Last = (uint16_t)MS_FULL;
 1138              		.loc 1 88 26 discriminator 2 view .LVU268
 1139 032e 0022     		movs	r2, #0
ARM GAS  /tmp/cc1cM2UK.s 			page 31


 1140 0330 C5E7     		b	.L38
 1141              	.L49:
  97:My_Top/Step_Motor/StepperMotor_Loop.cpp **** 
 1142              		.loc 1 97 18 view .LVU269
 1143 0332 044B     		ldr	r3, .L51+8
 1144 0334 9846     		mov	r8, r3
 1145 0336 D3E7     		b	.L39
 1146              	.LVL125:
 1147              	.L50:
 100:My_Top/Step_Motor/StepperMotor_Loop.cpp ****     motor_fre_applied_ += diff;
 1148              		.loc 1 100 12 discriminator 5 view .LVU270
 1149 0338 2F1C     		adds	r7, r5, #0
 1150 033a E7E7     		b	.L41
 1151              	.L52:
 1152              		.align	2
 1153              	.L51:
 1154 033c 0080BB44 		.word	1153138688
 1155 0340 CDCC4C3D 		.word	1028443341
 1156 0344 CDCCCC3B 		.word	1003277517
 1157              		.cfi_endproc
 1158              	.LFE1468:
 1160              		.align	1
 1161              		.global	_ZN12StepperMotor10Speed_LoopEv
 1162              		.syntax unified
 1163              		.code	16
 1164              		.thumb_func
 1166              	_ZN12StepperMotor10Speed_LoopEv:
 1167              	.LVL126:
 1168              	.LFB1469:
 136:My_Top/Step_Motor/StepperMotor_Loop.cpp ****     const float rad_per_hz = 8.5f / 1000.0f;
 1169              		.loc 1 136 1 is_stmt 1 view -0
 1170              		.cfi_startproc
 1171              		@ args = 0, pretend = 0, frame = 0
 1172              		@ frame_needed = 0, uses_anonymous_args = 0
 136:My_Top/Step_Motor/StepperMotor_Loop.cpp ****     const float rad_per_hz = 8.5f / 1000.0f;
 1173              		.loc 1 136 1 is_stmt 0 view .LVU272
 1174 0348 70B5     		push	{r4, r5, r6, lr}
 1175              		.cfi_def_cfa_offset 16
 1176              		.cfi_offset 4, -16
 1177              		.cfi_offset 5, -12
 1178              		.cfi_offset 6, -8
 1179              		.cfi_offset 14, -4
 1180 034a 0400     		movs	r4, r0
 137:My_Top/Step_Motor/StepperMotor_Loop.cpp **** 
 1181              		.loc 1 137 5 is_stmt 1 view .LVU273
 1182              	.LVL127:
 139:My_Top/Step_Motor/StepperMotor_Loop.cpp ****     float target_hz   = _target_speed           / rad_per_hz;
 1183              		.loc 1 139 5 view .LVU274
 139:My_Top/Step_Motor/StepperMotor_Loop.cpp ****     float target_hz   = _target_speed           / rad_per_hz;
 1184              		.loc 1 139 25 is_stmt 0 view .LVU275
 1185 034c 006B     		ldr	r0, [r0, #48]
 1186              	.LVL128:
 139:My_Top/Step_Motor/StepperMotor_Loop.cpp ****     float target_hz   = _target_speed           / rad_per_hz;
 1187              		.loc 1 139 11 view .LVU276
 1188 034e 1B49     		ldr	r1, .L60
 1189 0350 FFF7FEFF 		bl	__aeabi_fdiv
 1190              	.LVL129:
ARM GAS  /tmp/cc1cM2UK.s 			page 32


 1191 0354 051C     		adds	r5, r0, #0
 1192              	.LVL130:
 140:My_Top/Step_Motor/StepperMotor_Loop.cpp ****     float error_hz    = target_hz - measured_hz;
 1193              		.loc 1 140 5 is_stmt 1 view .LVU277
 140:My_Top/Step_Motor/StepperMotor_Loop.cpp ****     float error_hz    = target_hz - measured_hz;
 1194              		.loc 1 140 25 is_stmt 0 view .LVU278
 1195 0356 E06C     		ldr	r0, [r4, #76]
 1196              	.LVL131:
 140:My_Top/Step_Motor/StepperMotor_Loop.cpp ****     float error_hz    = target_hz - measured_hz;
 1197              		.loc 1 140 11 view .LVU279
 1198 0358 1849     		ldr	r1, .L60
 1199 035a FFF7FEFF 		bl	__aeabi_fdiv
 1200              	.LVL132:
 141:My_Top/Step_Motor/StepperMotor_Loop.cpp **** 
 1201              		.loc 1 141 5 is_stmt 1 view .LVU280
 141:My_Top/Step_Motor/StepperMotor_Loop.cpp **** 
 1202              		.loc 1 141 11 is_stmt 0 view .LVU281
 1203 035e 291C     		adds	r1, r5, #0
 1204 0360 FFF7FEFF 		bl	__aeabi_fsub
 1205              	.LVL133:
 141:My_Top/Step_Motor/StepperMotor_Loop.cpp **** 
 1206              		.loc 1 141 11 view .LVU282
 1207 0364 011C     		adds	r1, r0, #0
 1208              	.LVL134:
 143:My_Top/Step_Motor/StepperMotor_Loop.cpp **** 
 1209              		.loc 1 143 5 is_stmt 1 view .LVU283
 143:My_Top/Step_Motor/StepperMotor_Loop.cpp **** 
 1210              		.loc 1 143 34 is_stmt 0 view .LVU284
 1211 0366 2000     		movs	r0, r4
 1212              	.LVL135:
 143:My_Top/Step_Motor/StepperMotor_Loop.cpp **** 
 1213              		.loc 1 143 34 view .LVU285
 1214 0368 6C30     		adds	r0, r0, #108
 1215 036a FFF7FEFF 		bl	_ZN13PID_Increment6updateEf
 1216              	.LVL136:
 143:My_Top/Step_Motor/StepperMotor_Loop.cpp **** 
 1217              		.loc 1 143 34 view .LVU286
 1218 036e 011C     		adds	r1, r0, #0
 143:My_Top/Step_Motor/StepperMotor_Loop.cpp **** 
 1219              		.loc 1 143 5 discriminator 1 view .LVU287
 1220 0370 606B     		ldr	r0, [r4, #52]
 143:My_Top/Step_Motor/StepperMotor_Loop.cpp **** 
 1221              		.loc 1 143 15 discriminator 1 view .LVU288
 1222 0372 FFF7FEFF 		bl	__aeabi_fadd
 1223              	.LVL137:
 1224 0376 6063     		str	r0, [r4, #52]
 145:My_Top/Step_Motor/StepperMotor_Loop.cpp ****     if(motor_fre <= -Speed_FV_MAX) { motor_fre = -Speed_FV_MAX; pid_speed.reset(); }
 1225              		.loc 1 145 5 is_stmt 1 view .LVU289
 1226 0378 1149     		ldr	r1, .L60+4
 1227 037a FFF7FEFF 		bl	__aeabi_fcmpge
 1228              	.LVL138:
 1229 037e 0028     		cmp	r0, #0
 1230 0380 08D0     		beq	.L54
 145:My_Top/Step_Motor/StepperMotor_Loop.cpp ****     if(motor_fre <= -Speed_FV_MAX) { motor_fre = -Speed_FV_MAX; pid_speed.reset(); }
 1231              		.loc 1 145 37 discriminator 1 view .LVU290
 145:My_Top/Step_Motor/StepperMotor_Loop.cpp ****     if(motor_fre <= -Speed_FV_MAX) { motor_fre = -Speed_FV_MAX; pid_speed.reset(); }
 1232              		.loc 1 145 47 is_stmt 0 discriminator 1 view .LVU291
ARM GAS  /tmp/cc1cM2UK.s 			page 33


 1233 0382 0F4B     		ldr	r3, .L60+4
 1234 0384 6363     		str	r3, [r4, #52]
 145:My_Top/Step_Motor/StepperMotor_Loop.cpp ****     if(motor_fre <= -Speed_FV_MAX) { motor_fre = -Speed_FV_MAX; pid_speed.reset(); }
 1235              		.loc 1 145 63 is_stmt 1 view .LVU292
 1236              	.LVL139:
 1237              	.LBB46:
 1238              	.LBI46:
  77:My_Top/System/pid_Increment.hpp **** 
  78:My_Top/System/pid_Increment.hpp ****     // ============================================================
  79:My_Top/System/pid_Increment.hpp ****     // щчНЎхщЈчЖцяМцИщЖххВшЏЏхЗЎхчДЏшЎЁшОхКяМ
  80:My_Top/System/pid_Increment.hpp ****     // ============================================================
  81:My_Top/System/pid_Increment.hpp ****     void reset(void)
 1239              		.loc 2 81 10 view .LVU293
 1240              	.LBB47:
  82:My_Top/System/pid_Increment.hpp ****     {
  83:My_Top/System/pid_Increment.hpp ****         
  84:My_Top/System/pid_Increment.hpp ****         _e_prev  = 0.0f;
 1241              		.loc 2 84 9 view .LVU294
 1242              		.loc 2 84 18 is_stmt 0 view .LVU295
 1243 0386 0023     		movs	r3, #0
 1244 0388 8422     		movs	r2, #132
 1245 038a A350     		str	r3, [r4, r2]
  85:My_Top/System/pid_Increment.hpp ****         _e_prev2 = 0.0f;
 1246              		.loc 2 85 9 is_stmt 1 view .LVU296
 1247              		.loc 2 85 18 is_stmt 0 view .LVU297
 1248 038c 0432     		adds	r2, r2, #4
 1249 038e A350     		str	r3, [r4, r2]
  86:My_Top/System/pid_Increment.hpp ****         _delta_u = 0.0f;
 1250              		.loc 2 86 9 is_stmt 1 view .LVU298
 1251              		.loc 2 86 18 is_stmt 0 view .LVU299
 1252 0390 0432     		adds	r2, r2, #4
 1253 0392 A350     		str	r3, [r4, r2]
 1254              	.LVL140:
 1255              	.L54:
 1256              		.loc 2 86 18 view .LVU300
 1257              	.LBE47:
 1258              	.LBE46:
 146:My_Top/Step_Motor/StepperMotor_Loop.cpp ****     setFre();
 1259              		.loc 1 146 5 is_stmt 1 view .LVU301
 146:My_Top/Step_Motor/StepperMotor_Loop.cpp ****     setFre();
 1260              		.loc 1 146 8 is_stmt 0 view .LVU302
 1261 0394 606B     		ldr	r0, [r4, #52]
 146:My_Top/Step_Motor/StepperMotor_Loop.cpp ****     setFre();
 1262              		.loc 1 146 5 view .LVU303
 1263 0396 0B49     		ldr	r1, .L60+8
 1264 0398 FFF7FEFF 		bl	__aeabi_fcmple
 1265              	.LVL141:
 1266 039c 0028     		cmp	r0, #0
 1267 039e 08D0     		beq	.L56
 146:My_Top/Step_Motor/StepperMotor_Loop.cpp ****     setFre();
 1268              		.loc 1 146 38 is_stmt 1 discriminator 1 view .LVU304
 146:My_Top/Step_Motor/StepperMotor_Loop.cpp ****     setFre();
 1269              		.loc 1 146 48 is_stmt 0 discriminator 1 view .LVU305
 1270 03a0 084B     		ldr	r3, .L60+8
 1271 03a2 6363     		str	r3, [r4, #52]
 146:My_Top/Step_Motor/StepperMotor_Loop.cpp ****     setFre();
 1272              		.loc 1 146 65 is_stmt 1 view .LVU306
ARM GAS  /tmp/cc1cM2UK.s 			page 34


 1273              	.LVL142:
 1274              	.LBB48:
 1275              	.LBI48:
  81:My_Top/System/pid_Increment.hpp ****     {
 1276              		.loc 2 81 10 view .LVU307
 1277              	.LBB49:
  84:My_Top/System/pid_Increment.hpp ****         _e_prev2 = 0.0f;
 1278              		.loc 2 84 9 view .LVU308
  84:My_Top/System/pid_Increment.hpp ****         _e_prev2 = 0.0f;
 1279              		.loc 2 84 18 is_stmt 0 view .LVU309
 1280 03a4 0023     		movs	r3, #0
 1281 03a6 8422     		movs	r2, #132
 1282 03a8 A350     		str	r3, [r4, r2]
  85:My_Top/System/pid_Increment.hpp ****         _delta_u = 0.0f;
 1283              		.loc 2 85 9 is_stmt 1 view .LVU310
  85:My_Top/System/pid_Increment.hpp ****         _delta_u = 0.0f;
 1284              		.loc 2 85 18 is_stmt 0 view .LVU311
 1285 03aa 0432     		adds	r2, r2, #4
 1286 03ac A350     		str	r3, [r4, r2]
 1287              		.loc 2 86 9 is_stmt 1 view .LVU312
 1288              		.loc 2 86 18 is_stmt 0 view .LVU313
 1289 03ae 0432     		adds	r2, r2, #4
 1290 03b0 A350     		str	r3, [r4, r2]
 1291              	.LVL143:
 1292              	.L56:
 1293              		.loc 2 86 18 view .LVU314
 1294              	.LBE49:
 1295              	.LBE48:
 147:My_Top/Step_Motor/StepperMotor_Loop.cpp **** }
 1296              		.loc 1 147 5 is_stmt 1 view .LVU315
 147:My_Top/Step_Motor/StepperMotor_Loop.cpp **** }
 1297              		.loc 1 147 11 is_stmt 0 view .LVU316
 1298 03b2 2000     		movs	r0, r4
 1299 03b4 FFF7FEFF 		bl	_ZN12StepperMotor6setFreEv
 1300              	.LVL144:
 148:My_Top/Step_Motor/StepperMotor_Loop.cpp **** 
 1301              		.loc 1 148 1 view .LVU317
 1302              		@ sp needed
 1303              	.LVL145:
 1304              	.LVL146:
 148:My_Top/Step_Motor/StepperMotor_Loop.cpp **** 
 1305              		.loc 1 148 1 view .LVU318
 1306 03b8 70BD     		pop	{r4, r5, r6, pc}
 1307              	.L61:
 1308 03ba C046     		.align	2
 1309              	.L60:
 1310 03bc 96430B3C 		.word	1007371158
 1311 03c0 00403545 		.word	1161117696
 1312 03c4 004035C5 		.word	-986365952
 1313              		.cfi_endproc
 1314              	.LFE1469:
 1316              		.align	1
 1317              		.global	_ZN12StepperMotor13Position_LoopEv
 1318              		.syntax unified
 1319              		.code	16
 1320              		.thumb_func
 1322              	_ZN12StepperMotor13Position_LoopEv:
ARM GAS  /tmp/cc1cM2UK.s 			page 35


 1323              	.LVL147:
 1324              	.LFB1470:
 169:My_Top/Step_Motor/StepperMotor_Loop.cpp ****     float _delta_fre = 0.0f;
 1325              		.loc 1 169 1 is_stmt 1 view -0
 1326              		.cfi_startproc
 1327              		@ args = 0, pretend = 0, frame = 0
 1328              		@ frame_needed = 0, uses_anonymous_args = 0
 169:My_Top/Step_Motor/StepperMotor_Loop.cpp ****     float _delta_fre = 0.0f;
 1329              		.loc 1 169 1 is_stmt 0 view .LVU320
 1330 03c8 F8B5     		push	{r3, r4, r5, r6, r7, lr}
 1331              		.cfi_def_cfa_offset 24
 1332              		.cfi_offset 3, -24
 1333              		.cfi_offset 4, -20
 1334              		.cfi_offset 5, -16
 1335              		.cfi_offset 6, -12
 1336              		.cfi_offset 7, -8
 1337              		.cfi_offset 14, -4
 1338 03ca 0400     		movs	r4, r0
 170:My_Top/Step_Motor/StepperMotor_Loop.cpp ****     _target_error_location = wrap_to_PI( deg2rad(_target_location2) - reg_final ); //шЎЁчЎфНчНЎшЏ
 1339              		.loc 1 170 5 is_stmt 1 view .LVU321
 1340              	.LVL148:
 171:My_Top/Step_Motor/StepperMotor_Loop.cpp **** 
 1341              		.loc 1 171 5 view .LVU322
 1342              	.LBB50:
 171:My_Top/Step_Motor/StepperMotor_Loop.cpp **** 
 1343              		.loc 1 171 30 view .LVU323
 1344 03cc 406D     		ldr	r0, [r0, #84]
 1345              	.LVL149:
 171:My_Top/Step_Motor/StepperMotor_Loop.cpp **** 
 1346              		.loc 1 171 30 is_stmt 0 view .LVU324
 1347 03ce FFF7FEFF 		bl	__aeabi_f2d
 1348              	.LVL150:
 1349 03d2 254A     		ldr	r2, .L73
 1350 03d4 254B     		ldr	r3, .L73+4
 1351 03d6 FFF7FEFF 		bl	__aeabi_dmul
 1352              	.LVL151:
 1353 03da 0600     		movs	r6, r0
 1354 03dc 0F00     		movs	r7, r1
 1355 03de A06A     		ldr	r0, [r4, #40]
 1356 03e0 FFF7FEFF 		bl	__aeabi_f2d
 1357              	.LVL152:
 1358 03e4 0200     		movs	r2, r0
 1359 03e6 0B00     		movs	r3, r1
 1360 03e8 3000     		movs	r0, r6
 1361 03ea 3900     		movs	r1, r7
 1362 03ec FFF7FEFF 		bl	__aeabi_dsub
 1363              	.LVL153:
 1364 03f0 1F4A     		ldr	r2, .L73+8
 1365 03f2 204B     		ldr	r3, .L73+12
 1366 03f4 FFF7FEFF 		bl	__aeabi_dadd
 1367              	.LVL154:
 1368 03f8 FFF7FEFF 		bl	__aeabi_d2f
 1369              	.LVL155:
 1370 03fc 1E49     		ldr	r1, .L73+16
 1371 03fe FFF7FEFF 		bl	fmodf
 1372              	.LVL156:
 1373 0402 051C     		adds	r5, r0, #0
ARM GAS  /tmp/cc1cM2UK.s 			page 36


 1374              	.LVL157:
 171:My_Top/Step_Motor/StepperMotor_Loop.cpp **** 
 1375              		.loc 1 171 30 is_stmt 1 discriminator 1 view .LVU325
 1376 0404 0021     		movs	r1, #0
 1377 0406 FFF7FEFF 		bl	__aeabi_fcmplt
 1378              	.LVL158:
 171:My_Top/Step_Motor/StepperMotor_Loop.cpp **** 
 1379              		.loc 1 171 30 is_stmt 0 discriminator 1 view .LVU326
 1380 040a 0028     		cmp	r0, #0
 1381 040c 26D1     		bne	.L72
 1382              	.LVL159:
 1383              	.L63:
 171:My_Top/Step_Motor/StepperMotor_Loop.cpp **** 
 1384              		.loc 1 171 30 is_stmt 1 discriminator 3 view .LVU327
 1385 040e 281C     		adds	r0, r5, #0
 1386 0410 FFF7FEFF 		bl	__aeabi_f2d
 1387              	.LVL160:
 1388 0414 164A     		ldr	r2, .L73+8
 1389 0416 174B     		ldr	r3, .L73+12
 1390 0418 FFF7FEFF 		bl	__aeabi_dsub
 1391              	.LVL161:
 1392              	.LBE50:
 1393 041c FFF7FEFF 		bl	__aeabi_d2f
 1394              	.LVL162:
 1395 0420 011C     		adds	r1, r0, #0
 171:My_Top/Step_Motor/StepperMotor_Loop.cpp **** 
 1396              		.loc 1 171 28 is_stmt 0 discriminator 3 view .LVU328
 1397 0422 A065     		str	r0, [r4, #88]
 173:My_Top/Step_Motor/StepperMotor_Loop.cpp ****     motor_fre += _delta_fre; //цДцАчЕцКщЂч
 1398              		.loc 1 173 5 is_stmt 1 view .LVU329
 173:My_Top/Step_Motor/StepperMotor_Loop.cpp ****     motor_fre += _delta_fre; //цДцАчЕцКщЂч
 1399              		.loc 1 173 37 is_stmt 0 view .LVU330
 1400 0424 2000     		movs	r0, r4
 1401 0426 9030     		adds	r0, r0, #144
 1402 0428 FFF7FEFF 		bl	_ZN13PID_Increment6updateEf
 1403              	.LVL163:
 1404 042c 011C     		adds	r1, r0, #0
 1405              	.LVL164:
 174:My_Top/Step_Motor/StepperMotor_Loop.cpp **** 
 1406              		.loc 1 174 5 is_stmt 1 view .LVU331
 1407 042e 606B     		ldr	r0, [r4, #52]
 1408              	.LVL165:
 174:My_Top/Step_Motor/StepperMotor_Loop.cpp **** 
 1409              		.loc 1 174 15 is_stmt 0 view .LVU332
 1410 0430 FFF7FEFF 		bl	__aeabi_fadd
 1411              	.LVL166:
 174:My_Top/Step_Motor/StepperMotor_Loop.cpp **** 
 1412              		.loc 1 174 15 view .LVU333
 1413 0434 6063     		str	r0, [r4, #52]
 176:My_Top/Step_Motor/StepperMotor_Loop.cpp ****     if(motor_fre <= -Position_FV_MAX) motor_fre = -Position_FV_MAX;
 1414              		.loc 1 176 5 is_stmt 1 view .LVU334
 1415 0436 1149     		ldr	r1, .L73+20
 1416 0438 FFF7FEFF 		bl	__aeabi_fcmpge
 1417              	.LVL167:
 1418 043c 0028     		cmp	r0, #0
 1419 043e 01D0     		beq	.L65
 176:My_Top/Step_Motor/StepperMotor_Loop.cpp ****     if(motor_fre <= -Position_FV_MAX) motor_fre = -Position_FV_MAX;
ARM GAS  /tmp/cc1cM2UK.s 			page 37


 1420              		.loc 1 176 38 discriminator 1 view .LVU335
 176:My_Top/Step_Motor/StepperMotor_Loop.cpp ****     if(motor_fre <= -Position_FV_MAX) motor_fre = -Position_FV_MAX;
 1421              		.loc 1 176 48 is_stmt 0 discriminator 1 view .LVU336
 1422 0440 0E4B     		ldr	r3, .L73+20
 1423 0442 6363     		str	r3, [r4, #52]
 1424              	.L65:
 177:My_Top/Step_Motor/StepperMotor_Loop.cpp ****     setFre();
 1425              		.loc 1 177 5 is_stmt 1 view .LVU337
 177:My_Top/Step_Motor/StepperMotor_Loop.cpp ****     setFre();
 1426              		.loc 1 177 8 is_stmt 0 view .LVU338
 1427 0444 606B     		ldr	r0, [r4, #52]
 177:My_Top/Step_Motor/StepperMotor_Loop.cpp ****     setFre();
 1428              		.loc 1 177 5 view .LVU339
 1429 0446 0E49     		ldr	r1, .L73+24
 1430 0448 FFF7FEFF 		bl	__aeabi_fcmple
 1431              	.LVL168:
 1432 044c 0028     		cmp	r0, #0
 1433 044e 01D0     		beq	.L67
 177:My_Top/Step_Motor/StepperMotor_Loop.cpp ****     setFre();
 1434              		.loc 1 177 39 is_stmt 1 discriminator 1 view .LVU340
 177:My_Top/Step_Motor/StepperMotor_Loop.cpp ****     setFre();
 1435              		.loc 1 177 49 is_stmt 0 discriminator 1 view .LVU341
 1436 0450 0B4B     		ldr	r3, .L73+24
 1437 0452 6363     		str	r3, [r4, #52]
 1438              	.L67:
 178:My_Top/Step_Motor/StepperMotor_Loop.cpp **** }
 1439              		.loc 1 178 5 is_stmt 1 view .LVU342
 178:My_Top/Step_Motor/StepperMotor_Loop.cpp **** }
 1440              		.loc 1 178 11 is_stmt 0 view .LVU343
 1441 0454 2000     		movs	r0, r4
 1442 0456 FFF7FEFF 		bl	_ZN12StepperMotor6setFreEv
 1443              	.LVL169:
 179:My_Top/Step_Motor/StepperMotor_Loop.cpp **** 
 1444              		.loc 1 179 1 view .LVU344
 1445              		@ sp needed
 1446              	.LVL170:
 1447              	.LVL171:
 179:My_Top/Step_Motor/StepperMotor_Loop.cpp **** 
 1448              		.loc 1 179 1 view .LVU345
 1449 045a F8BD     		pop	{r3, r4, r5, r6, r7, pc}
 1450              	.LVL172:
 1451              	.L72:
 1452              	.LBB51:
 171:My_Top/Step_Motor/StepperMotor_Loop.cpp **** 
 1453              		.loc 1 171 30 is_stmt 1 discriminator 1 view .LVU346
 1454 045c 0649     		ldr	r1, .L73+16
 1455 045e 281C     		adds	r0, r5, #0
 1456 0460 FFF7FEFF 		bl	__aeabi_fadd
 1457              	.LVL173:
 1458 0464 051C     		adds	r5, r0, #0
 1459              	.LVL174:
 171:My_Top/Step_Motor/StepperMotor_Loop.cpp **** 
 1460              		.loc 1 171 30 is_stmt 0 discriminator 1 view .LVU347
 1461 0466 D2E7     		b	.L63
 1462              	.L74:
 1463              		.align	2
 1464              	.L73:
ARM GAS  /tmp/cc1cM2UK.s 			page 38


 1465 0468 399D52A2 		.word	-1571644103
 1466 046c 46DF913F 		.word	1066524486
 1467 0470 182D4454 		.word	1413754136
 1468 0474 FB210940 		.word	1074340347
 1469 0478 DB0FC940 		.word	1086918619
 1470 047c 0000FA44 		.word	1157234688
 1471 0480 0000FAC4 		.word	-990248960
 1472              	.LBE51:
 1473              		.cfi_endproc
 1474              	.LFE1470:
 1476              		.align	1
 1477              		.global	_ZN12StepperMotor12Step_HandlerEv
 1478              		.syntax unified
 1479              		.code	16
 1480              		.thumb_func
 1482              	_ZN12StepperMotor12Step_HandlerEv:
 1483              	.LVL175:
 1484              	.LFB1471:
 196:My_Top/Step_Motor/StepperMotor_Loop.cpp ****     if (!control_init_flag) return;
 1485              		.loc 1 196 1 is_stmt 1 view -0
 1486              		.cfi_startproc
 1487              		@ args = 0, pretend = 0, frame = 0
 1488              		@ frame_needed = 0, uses_anonymous_args = 0
 196:My_Top/Step_Motor/StepperMotor_Loop.cpp ****     if (!control_init_flag) return;
 1489              		.loc 1 196 1 is_stmt 0 view .LVU349
 1490 0484 10B5     		push	{r4, lr}
 1491              		.cfi_def_cfa_offset 8
 1492              		.cfi_offset 4, -8
 1493              		.cfi_offset 14, -4
 1494 0486 0400     		movs	r4, r0
 197:My_Top/Step_Motor/StepperMotor_Loop.cpp ****     if(work_mode != Normal_Mode) return; // хЊхЈц­ЃхИИцЇхЖцЈЁхМфИшЎЁц­Ѕ
 1495              		.loc 1 197 5 is_stmt 1 view .LVU350
 197:My_Top/Step_Motor/StepperMotor_Loop.cpp ****     if(work_mode != Normal_Mode) return; // хЊхЈц­ЃхИИцЇхЖцЈЁхМфИшЎЁц­Ѕ
 1496              		.loc 1 197 10 is_stmt 0 view .LVU351
 1497 0488 4378     		ldrb	r3, [r0, #1]
 197:My_Top/Step_Motor/StepperMotor_Loop.cpp ****     if(work_mode != Normal_Mode) return; // хЊхЈц­ЃхИИцЇхЖцЈЁхМфИшЎЁц­Ѕ
 1498              		.loc 1 197 5 view .LVU352
 1499 048a 002B     		cmp	r3, #0
 1500 048c 1BD0     		beq	.L75
 198:My_Top/Step_Motor/StepperMotor_Loop.cpp **** 
 1501              		.loc 1 198 5 is_stmt 1 view .LVU353
 198:My_Top/Step_Motor/StepperMotor_Loop.cpp **** 
 1502              		.loc 1 198 8 is_stmt 0 view .LVU354
 1503 048e 0378     		ldrb	r3, [r0]
 198:My_Top/Step_Motor/StepperMotor_Loop.cpp **** 
 1504              		.loc 1 198 5 view .LVU355
 1505 0490 032B     		cmp	r3, #3
 1506 0492 18D1     		bne	.L75
 200:My_Top/Step_Motor/StepperMotor_Loop.cpp ****     {
 1507              		.loc 1 200 5 is_stmt 1 view .LVU356
 200:My_Top/Step_Motor/StepperMotor_Loop.cpp ****     {
 1508              		.loc 1 200 19 is_stmt 0 view .LVU357
 1509 0494 406E     		ldr	r0, [r0, #100]
 1510              	.LVL176:
 200:My_Top/Step_Motor/StepperMotor_Loop.cpp ****     {
 1511              		.loc 1 200 9 view .LVU358
 1512 0496 FFF7FEFF 		bl	__aeabi_f2uiz
ARM GAS  /tmp/cc1cM2UK.s 			page 39


 1513              	.LVL177:
 200:My_Top/Step_Motor/StepperMotor_Loop.cpp ****     {
 1514              		.loc 1 200 37 view .LVU359
 1515 049a EC23     		movs	r3, #236
 1516 049c E358     		ldr	r3, [r4, r3]
 200:My_Top/Step_Motor/StepperMotor_Loop.cpp ****     {
 1517              		.loc 1 200 5 view .LVU360
 1518 049e 9842     		cmp	r0, r3
 1519 04a0 12D1     		bne	.L79
 1520              	.L77:
 208:My_Top/Step_Motor/StepperMotor_Loop.cpp ****     motor_step_cnt++;//шЎЁц­Ѕ
 1521              		.loc 1 208 5 is_stmt 1 view .LVU361
 208:My_Top/Step_Motor/StepperMotor_Loop.cpp ****     motor_step_cnt++;//шЎЁц­Ѕ
 1522              		.loc 1 208 19 is_stmt 0 view .LVU362
 1523 04a2 606E     		ldr	r0, [r4, #100]
 208:My_Top/Step_Motor/StepperMotor_Loop.cpp ****     motor_step_cnt++;//шЎЁц­Ѕ
 1524              		.loc 1 208 9 view .LVU363
 1525 04a4 FFF7FEFF 		bl	__aeabi_f2uiz
 1526              	.LVL178:
 208:My_Top/Step_Motor/StepperMotor_Loop.cpp ****     motor_step_cnt++;//шЎЁц­Ѕ
 1527              		.loc 1 208 5 view .LVU364
 1528 04a8 0028     		cmp	r0, #0
 1529 04aa 03D0     		beq	.L78
 208:My_Top/Step_Motor/StepperMotor_Loop.cpp ****     motor_step_cnt++;//шЎЁц­Ѕ
 1530              		.loc 1 208 42 discriminator 1 view .LVU365
 1531 04ac 6223     		movs	r3, #98
 1532 04ae E35A     		ldrh	r3, [r4, r3]
 208:My_Top/Step_Motor/StepperMotor_Loop.cpp ****     motor_step_cnt++;//шЎЁц­Ѕ
 1533              		.loc 1 208 39 discriminator 1 view .LVU366
 1534 04b0 9842     		cmp	r0, r3
 1535 04b2 08D9     		bls	.L75
 1536              	.L78:
 209:My_Top/Step_Motor/StepperMotor_Loop.cpp ****     // ххАфИщ т хГчЕцК
 1537              		.loc 1 209 5 is_stmt 1 view .LVU367
 1538 04b4 6222     		movs	r2, #98
 1539 04b6 A35A     		ldrh	r3, [r4, r2]
 209:My_Top/Step_Motor/StepperMotor_Loop.cpp ****     // ххАфИщ т хГчЕцК
 1540              		.loc 1 209 19 is_stmt 0 view .LVU368
 1541 04b8 0133     		adds	r3, r3, #1
 1542 04ba 9BB2     		uxth	r3, r3
 1543 04bc A352     		strh	r3, [r4, r2]
 211:My_Top/Step_Motor/StepperMotor_Loop.cpp ****     {
 1544              		.loc 1 211 5 is_stmt 1 view .LVU369
 1545 04be 0028     		cmp	r0, #0
 1546 04c0 01D0     		beq	.L75
 211:My_Top/Step_Motor/StepperMotor_Loop.cpp ****     {
 1547              		.loc 1 211 39 is_stmt 0 discriminator 1 view .LVU370
 1548 04c2 9842     		cmp	r0, r3
 1549 04c4 0AD9     		bls	.L80
 1550              	.L75:
 1551              		.loc 1 215 1 view .LVU371
 1552              		@ sp needed
 1553              	.LVL179:
 1554              		.loc 1 215 1 view .LVU372
 1555 04c6 10BD     		pop	{r4, pc}
 1556              	.LVL180:
 1557              	.L79:
ARM GAS  /tmp/cc1cM2UK.s 			page 40


 202:My_Top/Step_Motor/StepperMotor_Loop.cpp ****         motor_step_max_last_ = (uint32_t)motor_step_max;
 1558              		.loc 1 202 9 is_stmt 1 view .LVU373
 202:My_Top/Step_Motor/StepperMotor_Loop.cpp ****         motor_step_max_last_ = (uint32_t)motor_step_max;
 1559              		.loc 1 202 24 is_stmt 0 view .LVU374
 1560 04c8 6223     		movs	r3, #98
 1561 04ca 0022     		movs	r2, #0
 1562 04cc E252     		strh	r2, [r4, r3]
 203:My_Top/Step_Motor/StepperMotor_Loop.cpp ****         _motor->Set_Motor_EN(true);//чЕцКфНПшН
 1563              		.loc 1 203 9 is_stmt 1 view .LVU375
 203:My_Top/Step_Motor/StepperMotor_Loop.cpp ****         _motor->Set_Motor_EN(true);//чЕцКфНПшН
 1564              		.loc 1 203 30 is_stmt 0 view .LVU376
 1565 04ce 8A33     		adds	r3, r3, #138
 1566 04d0 E050     		str	r0, [r4, r3]
 204:My_Top/Step_Motor/StepperMotor_Loop.cpp ****     }
 1567              		.loc 1 204 9 is_stmt 1 view .LVU377
 1568 04d2 A06E     		ldr	r0, [r4, #104]
 204:My_Top/Step_Motor/StepperMotor_Loop.cpp ****     }
 1569              		.loc 1 204 29 is_stmt 0 view .LVU378
 1570 04d4 0121     		movs	r1, #1
 1571 04d6 FFF7FEFF 		bl	_ZN10Step_Motor12Set_Motor_ENEb
 1572              	.LVL181:
 1573 04da E2E7     		b	.L77
 1574              	.L80:
 213:My_Top/Step_Motor/StepperMotor_Loop.cpp ****     }
 1575              		.loc 1 213 9 is_stmt 1 view .LVU379
 1576 04dc A06E     		ldr	r0, [r4, #104]
 213:My_Top/Step_Motor/StepperMotor_Loop.cpp ****     }
 1577              		.loc 1 213 29 is_stmt 0 view .LVU380
 1578 04de 0021     		movs	r1, #0
 1579 04e0 FFF7FEFF 		bl	_ZN10Step_Motor12Set_Motor_ENEb
 1580              	.LVL182:
 1581 04e4 EFE7     		b	.L75
 1582              		.cfi_endproc
 1583              	.LFE1471:
 1585              		.align	1
 1586              		.syntax unified
 1587              		.code	16
 1588              		.thumb_func
 1590              	_GLOBAL__sub_I_pll_conf:
 1591              	.LFB1623:
 1592              		.loc 1 215 1 is_stmt 1 view -0
 1593              		.cfi_startproc
 1594              		@ args = 0, pretend = 0, frame = 0
 1595              		@ frame_needed = 0, uses_anonymous_args = 0
 1596 04e6 10B5     		push	{r4, lr}
 1597              		.cfi_def_cfa_offset 8
 1598              		.cfi_offset 4, -8
 1599              		.cfi_offset 14, -4
 1600              		.loc 1 215 1 is_stmt 0 view .LVU382
 1601 04e8 FFF78AFD 		bl	_Z41__static_initialization_and_destruction_0v
 1602              	.LVL183:
 1603              		@ sp needed
 1604 04ec 10BD     		pop	{r4, pc}
 1605              		.cfi_endproc
 1606              	.LFE1623:
 1608              		.section	.init_array,"aw",%init_array
 1609              		.align	2
ARM GAS  /tmp/cc1cM2UK.s 			page 41


 1610 0000 00000000 		.word	_GLOBAL__sub_I_pll_conf(target1)
 1611              		.global	M2
 1612              		.global	M1
 1613              		.global	kth7111_B
 1614              		.global	kth7111_A
 1615              		.global	pll_conf
 1616              		.bss
 1617              		.align	3
 1618              		.set	.LANCHOR0,. + 0
 1621              	pll_conf:
 1622 0000 00000000 		.space	16
 1622      00000000 
 1622      00000000 
 1622      00000000 
 1625              	kth7111_A:
 1626 0010 00000000 		.space	28
 1626      00000000 
 1626      00000000 
 1626      00000000 
 1626      00000000 
 1629              	kth7111_B:
 1630 002c 00000000 		.space	28
 1630      00000000 
 1630      00000000 
 1630      00000000 
 1630      00000000 
 1633              	_ZZN12StepperMotor28Update_Speed_Angle_LPFAndPLLEvE9fudu_test:
 1634 0048 00000000 		.space	4
 1637              	_ZZN12StepperMotor28Update_Speed_Angle_LPFAndPLLEvE18theta_m_offic_temp:
 1638 004c 00000000 		.space	4
 1641              	M2:
 1642 0050 00000000 		.space	240
 1642      00000000 
 1642      00000000 
 1642      00000000 
 1642      00000000 
 1645              	M1:
 1646 0140 00000000 		.space	240
 1646      00000000 
 1646      00000000 
 1646      00000000 
 1646      00000000 
 1647              		.text
 1648              	.Letext0:
 1649              		.file 6 "/opt/arm-gnu-toolchain-14.2/arm-none-eabi/include/machine/_default_types.h"
 1650              		.file 7 "/opt/arm-gnu-toolchain-14.2/arm-none-eabi/include/sys/_stdint.h"
 1651              		.file 8 "/opt/arm-gnu-toolchain-14.2/arm-none-eabi/include/c++/14.2.1/cmath"
 1652              		.file 9 "/opt/arm-gnu-toolchain-14.2/arm-none-eabi/include/c++/14.2.1/type_traits"
 1653              		.file 10 "/opt/arm-gnu-toolchain-14.2/arm-none-eabi/include/c++/14.2.1/debug/debug.h"
 1654              		.file 11 "/opt/arm-gnu-toolchain-14.2/arm-none-eabi/include/c++/14.2.1/bits/std_abs.h"
 1655              		.file 12 "/opt/arm-gnu-toolchain-14.2/arm-none-eabi/include/c++/14.2.1/bits/predefined_ops.h"
 1656              		.file 13 "/opt/arm-gnu-toolchain-14.2/arm-none-eabi/include/math.h"
 1657              		.file 14 "/opt/arm-gnu-toolchain-14.2/arm-none-eabi/include/c++/14.2.1/arm-none-eabi/thumb/v6-m/no
 1658              		.file 15 "/opt/arm-gnu-toolchain-14.2/arm-none-eabi/include/c++/14.2.1/math.h"
 1659              		.file 16 "Lib/compute/ex_math.hpp"
 1660              		.file 17 "Drivers/CMSIS/Device/ST/STM32G0xx/Include/stm32g071xx.h"
 1661              		.file 18 "Drivers/STM32G0xx_HAL_Driver/Inc/stm32g0xx_hal_def.h"
ARM GAS  /tmp/cc1cM2UK.s 			page 42


 1662              		.file 19 "Drivers/STM32G0xx_HAL_Driver/Inc/stm32g0xx_hal_gpio.h"
 1663              		.file 20 "Drivers/STM32G0xx_HAL_Driver/Inc/stm32g0xx_hal_dma.h"
 1664              		.file 21 "Drivers/STM32G0xx_HAL_Driver/Inc/stm32g0xx_hal_spi.h"
 1665              		.file 22 "Drivers/STM32G0xx_HAL_Driver/Inc/stm32g0xx_hal_tim.h"
 1666              		.file 23 "Core/Inc/spi.h"
 1667              		.file 24 "My_Top/Step_Motor/Step.hpp"
 1668              		.file 25 "Drivers/STM32G0xx_HAL_Driver/Inc/stm32g0xx_ll_dma.h"
ARM GAS  /tmp/cc1cM2UK.s 			page 43


DEFINED SYMBOLS
                            *ABS*:00000000 StepperMotor_Loop.cpp
     /tmp/cc1cM2UK.s:19     .text._ZN13PID_Increment6updateEf:00000000 $t
     /tmp/cc1cM2UK.s:25     .text._ZN13PID_Increment6updateEf:00000000 _ZN13PID_Increment6updateEf
     /tmp/cc1cM2UK.s:191    .text._ZN12StepperMotorC2EP10Step_MotorP7KTH7111ffffffbP12GPIO_TypeDeft:00000000 $t
     /tmp/cc1cM2UK.s:197    .text._ZN12StepperMotorC2EP10Step_MotorP7KTH7111ffffffbP12GPIO_TypeDeft:00000000 _ZN12StepperMotorC2EP10Step_MotorP7KTH7111ffffffbP12GPIO_TypeDeft
     /tmp/cc1cM2UK.s:401    .text._ZN12StepperMotorC2EP10Step_MotorP7KTH7111ffffffbP12GPIO_TypeDeft:000000c4 $d
     /tmp/cc1cM2UK.s:197    .text._ZN12StepperMotorC2EP10Step_MotorP7KTH7111ffffffbP12GPIO_TypeDeft:00000000 _ZN12StepperMotorC1EP10Step_MotorP7KTH7111ffffffbP12GPIO_TypeDeft
     /tmp/cc1cM2UK.s:412    .text:00000000 $t
     /tmp/cc1cM2UK.s:417    .text:00000000 _Z41__static_initialization_and_destruction_0v
     /tmp/cc1cM2UK.s:570    .text:000000a8 $d
     /tmp/cc1cM2UK.s:1645   .bss:00000140 M1
     /tmp/cc1cM2UK.s:1641   .bss:00000050 M2
     /tmp/cc1cM2UK.s:589    .text:000000e8 $t
     /tmp/cc1cM2UK.s:595    .text:000000e8 _ZN12StepperMotor15My_Stepper_InitEv
     /tmp/cc1cM2UK.s:689    .text:00000148 $d
     /tmp/cc1cM2UK.s:693    .text:0000014c $t
     /tmp/cc1cM2UK.s:699    .text:0000014c _ZN12StepperMotor28Update_Speed_Angle_LPFAndPLLEv
     /tmp/cc1cM2UK.s:976    .text:00000278 $d
     /tmp/cc1cM2UK.s:987    .text:00000298 $t
     /tmp/cc1cM2UK.s:993    .text:00000298 _ZN12StepperMotor6setFreEv
     /tmp/cc1cM2UK.s:1154   .text:0000033c $d
     /tmp/cc1cM2UK.s:1160   .text:00000348 $t
     /tmp/cc1cM2UK.s:1166   .text:00000348 _ZN12StepperMotor10Speed_LoopEv
     /tmp/cc1cM2UK.s:1310   .text:000003bc $d
     /tmp/cc1cM2UK.s:1316   .text:000003c8 $t
     /tmp/cc1cM2UK.s:1322   .text:000003c8 _ZN12StepperMotor13Position_LoopEv
     /tmp/cc1cM2UK.s:1465   .text:00000468 $d
     /tmp/cc1cM2UK.s:1476   .text:00000484 $t
     /tmp/cc1cM2UK.s:1482   .text:00000484 _ZN12StepperMotor12Step_HandlerEv
     /tmp/cc1cM2UK.s:1590   .text:000004e6 _GLOBAL__sub_I_pll_conf
     /tmp/cc1cM2UK.s:1609   .init_array:00000000 $d
     /tmp/cc1cM2UK.s:1629   .bss:0000002c kth7111_B
     /tmp/cc1cM2UK.s:1625   .bss:00000010 kth7111_A
     /tmp/cc1cM2UK.s:1621   .bss:00000000 pll_conf
     /tmp/cc1cM2UK.s:1617   .bss:00000000 $d
     /tmp/cc1cM2UK.s:1633   .bss:00000048 _ZZN12StepperMotor28Update_Speed_Angle_LPFAndPLLEvE9fudu_test
     /tmp/cc1cM2UK.s:1637   .bss:0000004c _ZZN12StepperMotor28Update_Speed_Angle_LPFAndPLLEvE18theta_m_offic_temp
                           .group:00000000 _ZN12StepperMotorC5EP10Step_MotorP7KTH7111ffffffbP12GPIO_TypeDeft

UNDEFINED SYMBOLS
__aeabi_fsub
__aeabi_fmul
__aeabi_fdiv
__aeabi_fadd
__aeabi_fcmpgt
__aeabi_fcmplt
hspi1
hspi2
Motor_M1
Motor_M2
_ZN13LowpassFilter4initEf
_ZN9AvgFilter4initEh
_ZN10Step_Motor10Motor_InitEv
_ZN7KTH711112KTH7111_InitEb
__aeabi_fcmpeq
HAL_GPIO_WritePin
ARM GAS  /tmp/cc1cM2UK.s 			page 44


_ZN7KTH711121KTH7111_Send_JIAO_CMDEv
_ZN7KTH711118Get_KTH7111_RadianEv
__aeabi_f2d
__aeabi_dadd
__aeabi_d2f
fmodf
__aeabi_dsub
_ZN13LowpassFilter6filterEf
_ZN9AvgFilter6filterEf
__aeabi_dmul
_Z11foc_pll_runffPfS_P13PLL_Parameter
__aeabi_f2uiz
_ZN10Step_Motor19Set_Motor_FrequencyEf
__aeabi_fcmpge
__aeabi_fcmple
_ZN10Step_Motor12Set_Motor_ENEb
