ARM GAS  /tmp/cc59Fz2V.s 			page 1


   1              		.cpu cortex-m0plus
   2              		.arch armv6s-m
   3              		.fpu softvfp
   4              		.eabi_attribute 20, 1
   5              		.eabi_attribute 21, 1
   6              		.eabi_attribute 23, 3
   7              		.eabi_attribute 24, 1
   8              		.eabi_attribute 25, 1
   9              		.eabi_attribute 26, 1
  10              		.eabi_attribute 30, 1
  11              		.eabi_attribute 34, 0
  12              		.eabi_attribute 18, 4
  13              		.file	"Step.cpp"
  14              		.text
  15              	.Ltext0:
  16              		.cfi_sections	.debug_frame
  17              		.file 1 "My_Top/Step_Motor/Step.cpp"
  18              		.align	1
  19              		.syntax unified
  20              		.code	16
  21              		.thumb_func
  23              	_Z41__static_initialization_and_destruction_0v:
  24              	.LFB471:
   1:My_Top/Step_Motor/Step.cpp **** #include "Step.hpp"
   2:My_Top/Step_Motor/Step.cpp **** #include "FreeRTOS.h"
   3:My_Top/Step_Motor/Step.cpp **** #include "task.h"
   4:My_Top/Step_Motor/Step.cpp **** 
   5:My_Top/Step_Motor/Step.cpp **** 
   6:My_Top/Step_Motor/Step.cpp **** Step_Motor Motor_M1(M1_STEP_htim, M1_STEP_CHANNEL, M1_STEP_TIM, M1_STEP_CCER,
   7:My_Top/Step_Motor/Step.cpp ****                     M1_DIR_PORT, M1_DIR_PIN, M1_EN_PORT, M1_EN_PIN);
   8:My_Top/Step_Motor/Step.cpp **** Step_Motor Motor_M2(M2_STEP_htim, M2_STEP_CHANNEL, M2_STEP_TIM, M2_STEP_CCER,
   9:My_Top/Step_Motor/Step.cpp ****                     M2_DIR_PORT, M2_DIR_PIN, M2_EN_PORT, M2_EN_PIN);
  10:My_Top/Step_Motor/Step.cpp **** 
  11:My_Top/Step_Motor/Step.cpp **** 
  12:My_Top/Step_Motor/Step.cpp **** 
  13:My_Top/Step_Motor/Step.cpp **** void Step_Motor::Set_Motor_DTR(bool dtr) //1:ś≠£ŤĹ¨ 0:ŚŹćŤĹ¨
  14:My_Top/Step_Motor/Step.cpp **** {
  15:My_Top/Step_Motor/Step.cpp ****     // HAL_TIM_PWM_Stop(htim_, channel_);       // ŚĀúPWM ??? 
  16:My_Top/Step_Motor/Step.cpp ****     HAL_GPIO_WritePin(DIR_PORT_, DIR_PIN_, dtr ? GPIO_PIN_RESET : GPIO_PIN_SET);//śčČšĹéś≠£ŤĹ¨ÔľĆśč
  17:My_Top/Step_Motor/Step.cpp ****     for(int i=0;i<200;i++){__asm("nop");} //Áü≠śöāŚĽ∂śó∂ÔľĆÁ°ģšŅĚśĖĻŚźĎšŅ°ŚŹ∑Á®≥Śģö
  18:My_Top/Step_Motor/Step.cpp ****     // HAL_TIM_PWM_Start(htim_, channel_);      // ťáćŚľÄPWM ???
  19:My_Top/Step_Motor/Step.cpp **** }
  20:My_Top/Step_Motor/Step.cpp **** 
  21:My_Top/Step_Motor/Step.cpp **** 
  22:My_Top/Step_Motor/Step.cpp **** void Step_Motor::Set_Motor_EN(bool en) // true:šĹŅŤÉĹÁĒĶśúļ false:ŚÖ≥ťó≠ÁĒĶśúļ
  23:My_Top/Step_Motor/Step.cpp **** {
  24:My_Top/Step_Motor/Step.cpp ****     if(en)
  25:My_Top/Step_Motor/Step.cpp ****         _step_TIM->CCER |= (_step_ch_ccer); // ŚľÄ CH1 + CH1N
  26:My_Top/Step_Motor/Step.cpp ****     else
  27:My_Top/Step_Motor/Step.cpp ****         _step_TIM->CCER &= ~(_step_ch_ccer); // ŚÖ≥ CH1 + CH1N
  28:My_Top/Step_Motor/Step.cpp ****     HAL_GPIO_WritePin(EN_PORT_, EN_PIN_, en ? GPIO_PIN_RESET : GPIO_PIN_SET);//śčČšĹéšĹŅŤÉĹ
  29:My_Top/Step_Motor/Step.cpp ****     for(int i=0;i<200;i++){ __asm("nop"); } //Áü≠śöāŚĽ∂śó∂ÔľĆÁ°ģšŅĚšĹŅŤÉĹšŅ°ŚŹ∑Á®≥Śģö 1 nop = 1/64M
  30:My_Top/Step_Motor/Step.cpp ****     
  31:My_Top/Step_Motor/Step.cpp **** }
  32:My_Top/Step_Motor/Step.cpp **** 
  33:My_Top/Step_Motor/Step.cpp **** 
  34:My_Top/Step_Motor/Step.cpp **** void Step_Motor::Set_Motor_DutyCycle(float DutyCycle)   //ŤģĺÁĹģŚć†Á©ļśĮĒ
ARM GAS  /tmp/cc59Fz2V.s 			page 2


  35:My_Top/Step_Motor/Step.cpp **** {
  36:My_Top/Step_Motor/Step.cpp ****     uint32_t Motor_ARR,CCR_VAL = 0;
  37:My_Top/Step_Motor/Step.cpp ****     if(DutyCycle>1.0f || DutyCycle<0.0f) DutyCycle = 0.5f; 
  38:My_Top/Step_Motor/Step.cpp ****     Motor_ARR = __HAL_TIM_GET_AUTORELOAD(htim_);
  39:My_Top/Step_Motor/Step.cpp ****     CCR_VAL = (uint32_t)(Motor_ARR*DutyCycle);
  40:My_Top/Step_Motor/Step.cpp ****     __HAL_TIM_SET_COMPARE(htim_, channel_, CCR_VAL);
  41:My_Top/Step_Motor/Step.cpp **** }
  42:My_Top/Step_Motor/Step.cpp **** 
  43:My_Top/Step_Motor/Step.cpp **** 
  44:My_Top/Step_Motor/Step.cpp **** 
  45:My_Top/Step_Motor/Step.cpp **** #include "MC_Serial.hpp"
  46:My_Top/Step_Motor/Step.cpp **** 
  47:My_Top/Step_Motor/Step.cpp **** bool Step_Motor::Set_Motor_Frequency(float Fre) //ŤŅĒŚõě true:ťĘĎÁéáśĒĻŚŹė false:ťĘĎÁéáśú™śĒĻŚŹė
  48:My_Top/Step_Motor/Step.cpp **** {
  49:My_Top/Step_Motor/Step.cpp ****     bool new_dir = false;
  50:My_Top/Step_Motor/Step.cpp ****     uint32_t freq;
  51:My_Top/Step_Motor/Step.cpp ****     uint32_t arr = 0;
  52:My_Top/Step_Motor/Step.cpp ****     int16_t Fre_temp = (int16_t)Fre;//ŤĹ¨śēīśēįŤģ°Áģó
  53:My_Top/Step_Motor/Step.cpp ****     
  54:My_Top/Step_Motor/Step.cpp ****     // 0. ťĘĎÁéáśĒĻŚŹėśó∂śČćťáćśĖįŤģ°Áģó
  55:My_Top/Step_Motor/Step.cpp ****     if (Fre_temp == Fre_last) return false; 
  56:My_Top/Step_Motor/Step.cpp ****     Fre_last = Fre_temp;
  57:My_Top/Step_Motor/Step.cpp **** 
  58:My_Top/Step_Motor/Step.cpp ****     // 1. 0ŚÖ≥ÁĒĶśúļ
  59:My_Top/Step_Motor/Step.cpp ****     if (Fre_temp == 0) 
  60:My_Top/Step_Motor/Step.cpp ****     {
  61:My_Top/Step_Motor/Step.cpp ****         Set_Motor_EN(false);
  62:My_Top/Step_Motor/Step.cpp ****         return true;
  63:My_Top/Step_Motor/Step.cpp ****     }else
  64:My_Top/Step_Motor/Step.cpp ****     {
  65:My_Top/Step_Motor/Step.cpp ****         Set_Motor_EN(true);
  66:My_Top/Step_Motor/Step.cpp ****     }
  67:My_Top/Step_Motor/Step.cpp **** 
  68:My_Top/Step_Motor/Step.cpp ****     // 2. Śą§śĖ≠śĖĻŚźĎ
  69:My_Top/Step_Motor/Step.cpp ****     if (Fre_temp > 0)
  70:My_Top/Step_Motor/Step.cpp ****     {
  71:My_Top/Step_Motor/Step.cpp ****         new_dir = true;
  72:My_Top/Step_Motor/Step.cpp ****         freq    = (uint32_t)Fre_temp;
  73:My_Top/Step_Motor/Step.cpp ****     }else if (Fre_temp < 0)
  74:My_Top/Step_Motor/Step.cpp ****     {
  75:My_Top/Step_Motor/Step.cpp ****         new_dir = false;
  76:My_Top/Step_Motor/Step.cpp ****         freq    = (uint32_t)(-Fre_temp);
  77:My_Top/Step_Motor/Step.cpp ****     }
  78:My_Top/Step_Motor/Step.cpp **** 
  79:My_Top/Step_Motor/Step.cpp ****     // 3. ŚŹ™Śú®śĖĻŚźĎśĒĻŚŹėśó∂Śąá DIR
  80:My_Top/Step_Motor/Step.cpp ****     if (new_dir != motor_direction)
  81:My_Top/Step_Motor/Step.cpp ****     {
  82:My_Top/Step_Motor/Step.cpp ****         Set_Motor_DTR(new_dir);
  83:My_Top/Step_Motor/Step.cpp ****         motor_direction = new_dir;
  84:My_Top/Step_Motor/Step.cpp ****     }
  85:My_Top/Step_Motor/Step.cpp **** 
  86:My_Top/Step_Motor/Step.cpp ****     // 4. Áģó ARR
  87:My_Top/Step_Motor/Step.cpp ****     arr = timer_clock_freq_ / freq;
  88:My_Top/Step_Motor/Step.cpp **** 
  89:My_Top/Step_Motor/Step.cpp ****     // 5. 16šĹćŚģöśó∂Śô®šŅĚśä§: ARR śúÄŚ§ß 65535ÔľĆśúÄŚįŹ 1
  90:My_Top/Step_Motor/Step.cpp ****     if (arr >= 65535) arr = 65535;
  91:My_Top/Step_Motor/Step.cpp **** 
ARM GAS  /tmp/cc59Fz2V.s 			page 3


  92:My_Top/Step_Motor/Step.cpp ****     if (arr == 0) arr = 1;
  93:My_Top/Step_Motor/Step.cpp ****     htim_->Instance->CNT = 0; // śłÖťõ∂Ťģ°śēįŚô®
  94:My_Top/Step_Motor/Step.cpp ****     __HAL_TIM_SET_AUTORELOAD(htim_, (uint16_t)(arr - 1));//ŤģĺÁĹģŚĎ®śúü 
  95:My_Top/Step_Motor/Step.cpp ****     __HAL_TIM_SET_COMPARE(htim_, channel_, (uint16_t)(arr/2));//ŤģĺÁĹģŚć†Á©ļśĮĒ 
  96:My_Top/Step_Motor/Step.cpp ****     return true;
  97:My_Top/Step_Motor/Step.cpp **** }
  98:My_Top/Step_Motor/Step.cpp **** 
  99:My_Top/Step_Motor/Step.cpp **** 
 100:My_Top/Step_Motor/Step.cpp **** extern void M1_Tim_Callback(TIM_HandleTypeDef *htim);
 101:My_Top/Step_Motor/Step.cpp **** extern void M2_Tim_Callback(TIM_HandleTypeDef *htim);
 102:My_Top/Step_Motor/Step.cpp **** 
 103:My_Top/Step_Motor/Step.cpp **** void Step_Motor::Motor_Init()
 104:My_Top/Step_Motor/Step.cpp **** {
 105:My_Top/Step_Motor/Step.cpp ****     uint32_t sysclk = HAL_RCC_GetSysClockFreq();  // ŤŅĒŚõě 64000000 ???
 106:My_Top/Step_Motor/Step.cpp ****     timer_clock_freq_ = sysclk / (htim_->Instance->PSC + 1);  //Ťé∑ŚŹĖŚģöśó∂Śô®śó∂ťíüťĘĎÁéá
 107:My_Top/Step_Motor/Step.cpp ****     Set_Motor_Frequency(motor_frequency); //ťĽėŤģ§1000HzťĘĎÁéá
 108:My_Top/Step_Motor/Step.cpp ****     __HAL_TIM_SET_COMPARE(htim_, channel_, 0);//ťĽėŤģ§Ść†Á©ļśĮĒšłļ0
 109:My_Top/Step_Motor/Step.cpp ****     HAL_TIM_PWM_Start(htim_, channel_); //ŚźĮŚä®PWMŤĺďŚáļŚíĆšł≠śĖ≠
 110:My_Top/Step_Motor/Step.cpp ****     Set_Motor_EN(false);//ťĽėŤģ§ŚÖ≥ťó≠ÁĒĶśúļ
 111:My_Top/Step_Motor/Step.cpp ****     HAL_TIM_Base_Start_IT(htim_); //ŚźĮŚä®Śģöśó∂Śô®ŚĎ®śúüšł≠śĖ≠ 
 112:My_Top/Step_Motor/Step.cpp ****     // ś†ĻśćģŚģěšĺčÁĽĎŚģöšłćŚźĆÁöĄŚģöśó∂Śô®ŚĎ®śúüÁĽďśĚüŚõěŤįÉ 
 113:My_Top/Step_Motor/Step.cpp ****     if (this == &Motor_M1) htim_->PeriodElapsedCallback = M1_Tim_Callback;
 114:My_Top/Step_Motor/Step.cpp ****     if (this == &Motor_M2)  htim_->PeriodElapsedCallback = M2_Tim_Callback;
 115:My_Top/Step_Motor/Step.cpp ****         
 116:My_Top/Step_Motor/Step.cpp ****     init_flag = true; //ŤģĺÁĹģÁĒĶśúļŚąĚŚßčŚĆĖŚģĆśąźś†áŚŅóšĹć
 117:My_Top/Step_Motor/Step.cpp **** }
  25              		.loc 1 117 1 view -0
  26              		.cfi_startproc
  27              		@ args = 0, pretend = 0, frame = 0
  28              		@ frame_needed = 0, uses_anonymous_args = 0
  29 0000 F0B5     		push	{r4, r5, r6, r7, lr}
  30              		.cfi_def_cfa_offset 20
  31              		.cfi_offset 4, -20
  32              		.cfi_offset 5, -16
  33              		.cfi_offset 6, -12
  34              		.cfi_offset 7, -8
  35              		.cfi_offset 14, -4
  36 0002 C646     		mov	lr, r8
  37 0004 00B5     		push	{lr}
  38              		.cfi_def_cfa_offset 24
  39              		.cfi_offset 8, -24
  40              	.LVL0:
  41              	.LBB8:
  42              	.LBI8:
  43              		.file 2 "My_Top/Step_Motor/Step.hpp"
   1:My_Top/Step_Motor/Step.hpp **** #pragma once
   2:My_Top/Step_Motor/Step.hpp **** 
   3:My_Top/Step_Motor/Step.hpp **** #include "bsp.hpp"
   4:My_Top/Step_Motor/Step.hpp **** 
   5:My_Top/Step_Motor/Step.hpp **** 
   6:My_Top/Step_Motor/Step.hpp **** class Step_Motor
   7:My_Top/Step_Motor/Step.hpp **** {
   8:My_Top/Step_Motor/Step.hpp **** 
   9:My_Top/Step_Motor/Step.hpp **** public:
  10:My_Top/Step_Motor/Step.hpp ****     
  11:My_Top/Step_Motor/Step.hpp ****     bool motor_direction = true; //ÁĒĶśúļśĖĻŚźĎÔľĆtrue:ś≠£ŤĹ¨ÔľĆfalse:ŚŹćŤĹ¨
  12:My_Top/Step_Motor/Step.hpp ****     uint16_t motor_frequency = 0; //ÁĒĶśúļťĘĎÁéá
ARM GAS  /tmp/cc59Fz2V.s 			page 4


  13:My_Top/Step_Motor/Step.hpp ****     float motor_duty_cycle = 0.5; //Ść†Á©ļśĮĒ
  14:My_Top/Step_Motor/Step.hpp ****     
  15:My_Top/Step_Motor/Step.hpp ****     Step_Motor(TIM_HandleTypeDef* htim, uint32_t channel,
  44              		.loc 2 15 5 view .LVU1
  45              	.LBB9:
  46              	.LBB10:
  16:My_Top/Step_Motor/Step.hpp ****                TIM_TypeDef* HTIM, uint32_t step_ch_ccer,
  17:My_Top/Step_Motor/Step.hpp ****                GPIO_TypeDef* DIR_PORT, uint16_t DIR_PIN,
  18:My_Top/Step_Motor/Step.hpp ****                GPIO_TypeDef* EN_PORT,  uint16_t EN_PIN):
  19:My_Top/Step_Motor/Step.hpp ****                 htim_(htim), channel_(channel),
  20:My_Top/Step_Motor/Step.hpp ****                 _step_TIM(HTIM), _step_ch_ccer(step_ch_ccer), 
  21:My_Top/Step_Motor/Step.hpp ****                 DIR_PORT_(DIR_PORT), DIR_PIN_(DIR_PIN),
  22:My_Top/Step_Motor/Step.hpp ****                 EN_PORT_(EN_PORT), EN_PIN_(EN_PIN)
  47              		.loc 2 22 50 is_stmt 0 view .LVU2
  48 0006 1C4B     		ldr	r3, .L2
  49 0008 0120     		movs	r0, #1
  50 000a 1870     		strb	r0, [r3]
  51 000c 0021     		movs	r1, #0
  52 000e 0025     		movs	r5, #0
  53 0010 5980     		strh	r1, [r3, #2]
  54 0012 FC27     		movs	r7, #252
  55 0014 BF05     		lsls	r7, r7, #22
  56 0016 5F60     		str	r7, [r3, #4]
  19:My_Top/Step_Motor/Step.hpp ****                 _step_TIM(HTIM), _step_ch_ccer(step_ch_ccer), 
  57              		.loc 2 19 17 view .LVU3
  58 0018 184A     		ldr	r2, .L2+4
  59 001a 9A60     		str	r2, [r3, #8]
  19:My_Top/Step_Motor/Step.hpp ****                 _step_TIM(HTIM), _step_ch_ccer(step_ch_ccer), 
  60              		.loc 2 19 30 view .LVU4
  61 001c D960     		str	r1, [r3, #12]
  21:My_Top/Step_Motor/Step.hpp ****                 EN_PORT_(EN_PORT), EN_PIN_(EN_PIN)
  62              		.loc 2 21 17 view .LVU5
  63 001e A022     		movs	r2, #160
  64 0020 D205     		lsls	r2, r2, #23
  65 0022 1A61     		str	r2, [r3, #16]
  21:My_Top/Step_Motor/Step.hpp ****                 EN_PORT_(EN_PORT), EN_PIN_(EN_PIN)
  66              		.loc 2 21 38 view .LVU6
  67 0024 4026     		movs	r6, #64
  68 0026 9E82     		strh	r6, [r3, #20]
  69              		.loc 2 22 17 view .LVU7
  70 0028 154A     		ldr	r2, .L2+8
  71 002a 9A61     		str	r2, [r3, #24]
  72              		.loc 2 22 36 view .LVU8
  73 002c 0224     		movs	r4, #2
  74 002e 9C83     		strh	r4, [r3, #28]
  75              		.loc 2 22 50 view .LVU9
  76 0030 9D77     		strb	r5, [r3, #30]
  20:My_Top/Step_Motor/Step.hpp ****                 DIR_PORT_(DIR_PORT), DIR_PIN_(DIR_PIN),
  77              		.loc 2 20 17 view .LVU10
  78 0032 144C     		ldr	r4, .L2+12
  79 0034 5C62     		str	r4, [r3, #36]
  20:My_Top/Step_Motor/Step.hpp ****                 DIR_PORT_(DIR_PORT), DIR_PIN_(DIR_PIN),
  80              		.loc 2 20 34 view .LVU11
  81 0036 9862     		str	r0, [r3, #40]
  82              		.loc 2 22 50 view .LVU12
  83 0038 FF24     		movs	r4, #255
  84 003a A046     		mov	r8, r4
ARM GAS  /tmp/cc59Fz2V.s 			page 5


  85 003c 9C85     		strh	r4, [r3, #44]
  86              	.LVL1:
  87              		.loc 2 22 50 view .LVU13
  88              	.LBE10:
  89              	.LBE9:
  90              	.LBE8:
  91              	.LBB11:
  92              	.LBI11:
  15:My_Top/Step_Motor/Step.hpp ****                TIM_TypeDef* HTIM, uint32_t step_ch_ccer,
  93              		.loc 2 15 5 is_stmt 1 view .LVU14
  94              	.LBB12:
  95              	.LBB13:
  96              		.loc 2 22 50 is_stmt 0 view .LVU15
  97 003e CF3C     		subs	r4, r4, #207
  98 0040 1855     		strb	r0, [r3, r4]
  99 0042 5986     		strh	r1, [r3, #50]
 100 0044 5F63     		str	r7, [r3, #52]
  19:My_Top/Step_Motor/Step.hpp ****                 _step_TIM(HTIM), _step_ch_ccer(step_ch_ccer), 
 101              		.loc 2 19 17 view .LVU16
 102 0046 1049     		ldr	r1, .L2+16
 103 0048 9963     		str	r1, [r3, #56]
  19:My_Top/Step_Motor/Step.hpp ****                 _step_TIM(HTIM), _step_ch_ccer(step_ch_ccer), 
 104              		.loc 2 19 30 view .LVU17
 105 004a 0421     		movs	r1, #4
 106 004c D963     		str	r1, [r3, #60]
  21:My_Top/Step_Motor/Step.hpp ****                 EN_PORT_(EN_PORT), EN_PIN_(EN_PIN)
 107              		.loc 2 21 17 view .LVU18
 108 004e 1A64     		str	r2, [r3, #64]
  21:My_Top/Step_Motor/Step.hpp ****                 EN_PORT_(EN_PORT), EN_PIN_(EN_PIN)
 109              		.loc 2 21 38 view .LVU19
 110 0050 4031     		adds	r1, r1, #64
 111 0052 5E52     		strh	r6, [r3, r1]
 112              		.loc 2 22 17 view .LVU20
 113 0054 9A64     		str	r2, [r3, #72]
 114              		.loc 2 22 36 view .LVU21
 115 0056 4C22     		movs	r2, #76
 116 0058 2439     		subs	r1, r1, #36
 117 005a 9952     		strh	r1, [r3, r2]
 118              		.loc 2 22 50 view .LVU22
 119 005c 1A00     		movs	r2, r3
 120 005e 3032     		adds	r2, r2, #48
 121 0060 9577     		strb	r5, [r2, #30]
  20:My_Top/Step_Motor/Step.hpp ****                 DIR_PORT_(DIR_PORT), DIR_PIN_(DIR_PIN),
 122              		.loc 2 20 17 view .LVU23
 123 0062 8022     		movs	r2, #128
 124 0064 D205     		lsls	r2, r2, #23
 125 0066 5A65     		str	r2, [r3, #84]
  20:My_Top/Step_Motor/Step.hpp ****                 DIR_PORT_(DIR_PORT), DIR_PIN_(DIR_PIN),
 126              		.loc 2 20 34 view .LVU24
 127 0068 1022     		movs	r2, #16
 128 006a 9A65     		str	r2, [r3, #88]
 129              		.loc 2 22 50 view .LVU25
 130 006c 4C32     		adds	r2, r2, #76
 131 006e 4146     		mov	r1, r8
 132 0070 9952     		strh	r1, [r3, r2]
 133              	.LVL2:
 134              		.loc 2 22 50 view .LVU26
ARM GAS  /tmp/cc59Fz2V.s 			page 6


 135              	.LBE13:
 136              	.LBE12:
 137              	.LBE11:
 138              		.loc 1 117 1 view .LVU27
 139              		@ sp needed
 140 0072 80BC     		pop	{r7}
 141 0074 B846     		mov	r8, r7
 142 0076 F0BD     		pop	{r4, r5, r6, r7, pc}
 143              	.L3:
 144              		.align	2
 145              	.L2:
 146 0078 00000000 		.word	.LANCHOR0
 147 007c 00000000 		.word	htim1
 148 0080 00040050 		.word	1342178304
 149 0084 002C0140 		.word	1073818624
 150 0088 00000000 		.word	htim2
 151              		.cfi_endproc
 152              	.LFE471:
 154              		.align	1
 155              		.global	_ZN10Step_Motor13Set_Motor_DTREb
 156              		.syntax unified
 157              		.code	16
 158              		.thumb_func
 160              	_ZN10Step_Motor13Set_Motor_DTREb:
 161              	.LVL3:
 162              	.LFB460:
  14:My_Top/Step_Motor/Step.cpp ****     // HAL_TIM_PWM_Stop(htim_, channel_);       // ŚĀúPWM ??? 
 163              		.loc 1 14 1 is_stmt 1 view -0
 164              		.cfi_startproc
 165              		@ args = 0, pretend = 0, frame = 0
 166              		@ frame_needed = 0, uses_anonymous_args = 0
  14:My_Top/Step_Motor/Step.cpp ****     // HAL_TIM_PWM_Stop(htim_, channel_);       // ŚĀúPWM ??? 
 167              		.loc 1 14 1 is_stmt 0 view .LVU29
 168 008c 10B5     		push	{r4, lr}
 169              		.cfi_def_cfa_offset 8
 170              		.cfi_offset 4, -8
 171              		.cfi_offset 14, -4
 172 008e 0300     		movs	r3, r0
  16:My_Top/Step_Motor/Step.cpp ****     for(int i=0;i<200;i++){__asm("nop");} //Áü≠śöāŚĽ∂śó∂ÔľĆÁ°ģšŅĚśĖĻŚźĎšŅ°ŚŹ∑Á®≥Śģö
 173              		.loc 1 16 5 is_stmt 1 view .LVU30
  16:My_Top/Step_Motor/Step.cpp ****     for(int i=0;i<200;i++){__asm("nop");} //Áü≠śöāŚĽ∂śó∂ÔľĆÁ°ģšŅĚśĖĻŚźĎšŅ°ŚŹ∑Á®≥Śģö
 174              		.loc 1 16 22 is_stmt 0 view .LVU31
 175 0090 0069     		ldr	r0, [r0, #16]
 176              	.LVL4:
  16:My_Top/Step_Motor/Step.cpp ****     for(int i=0;i<200;i++){__asm("nop");} //Áü≠śöāŚĽ∂śó∂ÔľĆÁ°ģšŅĚśĖĻŚźĎšŅ°ŚŹ∑Á®≥Śģö
 177              		.loc 1 16 22 view .LVU32
 178 0092 9B8A     		ldrh	r3, [r3, #20]
 179              	.LVL5:
  16:My_Top/Step_Motor/Step.cpp ****     for(int i=0;i<200;i++){__asm("nop");} //Áü≠śöāŚĽ∂śó∂ÔľĆÁ°ģšŅĚśĖĻŚźĎšŅ°ŚŹ∑Á®≥Śģö
 180              		.loc 1 16 22 view .LVU33
 181 0094 0029     		cmp	r1, #0
 182 0096 05D0     		beq	.L8
  16:My_Top/Step_Motor/Step.cpp ****     for(int i=0;i<200;i++){__asm("nop");} //Áü≠śöāŚĽ∂śó∂ÔľĆÁ°ģšŅĚśĖĻŚźĎšŅ°ŚŹ∑Á®≥Śģö
 183              		.loc 1 16 22 discriminator 1 view .LVU34
 184 0098 0022     		movs	r2, #0
 185              	.L5:
  16:My_Top/Step_Motor/Step.cpp ****     for(int i=0;i<200;i++){__asm("nop");} //Áü≠śöāŚĽ∂śó∂ÔľĆÁ°ģšŅĚśĖĻŚźĎšŅ°ŚŹ∑Á®≥Śģö
ARM GAS  /tmp/cc59Fz2V.s 			page 7


 186              		.loc 1 16 22 discriminator 4 view .LVU35
 187 009a 1900     		movs	r1, r3
 188              	.LVL6:
  16:My_Top/Step_Motor/Step.cpp ****     for(int i=0;i<200;i++){__asm("nop");} //Áü≠śöāŚĽ∂śó∂ÔľĆÁ°ģšŅĚśĖĻŚźĎšŅ°ŚŹ∑Á®≥Śģö
 189              		.loc 1 16 22 discriminator 4 view .LVU36
 190 009c FFF7FEFF 		bl	HAL_GPIO_WritePin
 191              	.LVL7:
  17:My_Top/Step_Motor/Step.cpp ****     // HAL_TIM_PWM_Start(htim_, channel_);      // ťáćŚľÄPWM ???
 192              		.loc 1 17 5 is_stmt 1 view .LVU37
 193              	.LBB14:
  17:My_Top/Step_Motor/Step.cpp ****     // HAL_TIM_PWM_Start(htim_, channel_);      // ťáćŚľÄPWM ???
 194              		.loc 1 17 13 is_stmt 0 view .LVU38
 195 00a0 0023     		movs	r3, #0
  17:My_Top/Step_Motor/Step.cpp ****     // HAL_TIM_PWM_Start(htim_, channel_);      // ťáćŚľÄPWM ???
 196              		.loc 1 17 5 view .LVU39
 197 00a2 03E0     		b	.L6
 198              	.LVL8:
 199              	.L8:
  17:My_Top/Step_Motor/Step.cpp ****     // HAL_TIM_PWM_Start(htim_, channel_);      // ťáćŚľÄPWM ???
 200              		.loc 1 17 5 view .LVU40
 201              	.LBE14:
  16:My_Top/Step_Motor/Step.cpp ****     for(int i=0;i<200;i++){__asm("nop");} //Áü≠śöāŚĽ∂śó∂ÔľĆÁ°ģšŅĚśĖĻŚźĎšŅ°ŚŹ∑Á®≥Śģö
 202              		.loc 1 16 22 discriminator 2 view .LVU41
 203 00a4 0122     		movs	r2, #1
 204 00a6 F8E7     		b	.L5
 205              	.LVL9:
 206              	.L7:
 207              	.LBB15:
  17:My_Top/Step_Motor/Step.cpp ****     // HAL_TIM_PWM_Start(htim_, channel_);      // ťáćŚľÄPWM ???
 208              		.loc 1 17 28 is_stmt 1 discriminator 3 view .LVU42
 209              		.syntax divided
 210              	@ 17 "My_Top/Step_Motor/Step.cpp" 1
 211 00a8 C046     		nop
 212              	@ 0 "" 2
  17:My_Top/Step_Motor/Step.cpp ****     // HAL_TIM_PWM_Start(htim_, channel_);      // ťáćŚľÄPWM ???
 213              		.loc 1 17 5 discriminator 3 view .LVU43
 214              		.thumb
 215              		.syntax unified
 216 00aa 0133     		adds	r3, r3, #1
 217              	.LVL10:
 218              	.L6:
  17:My_Top/Step_Motor/Step.cpp ****     // HAL_TIM_PWM_Start(htim_, channel_);      // ťáćŚľÄPWM ???
 219              		.loc 1 17 18 discriminator 1 view .LVU44
 220 00ac C72B     		cmp	r3, #199
 221 00ae FBDD     		ble	.L7
 222              	.LBE15:
  19:My_Top/Step_Motor/Step.cpp **** 
 223              		.loc 1 19 1 is_stmt 0 view .LVU45
 224              		@ sp needed
 225 00b0 10BD     		pop	{r4, pc}
 226              		.cfi_endproc
 227              	.LFE460:
 229              		.align	1
 230              		.global	_ZN10Step_Motor12Set_Motor_ENEb
 231              		.syntax unified
 232              		.code	16
 233              		.thumb_func
ARM GAS  /tmp/cc59Fz2V.s 			page 8


 235              	_ZN10Step_Motor12Set_Motor_ENEb:
 236              	.LVL11:
 237              	.LFB461:
  23:My_Top/Step_Motor/Step.cpp ****     if(en)
 238              		.loc 1 23 1 is_stmt 1 view -0
 239              		.cfi_startproc
 240              		@ args = 0, pretend = 0, frame = 0
 241              		@ frame_needed = 0, uses_anonymous_args = 0
  23:My_Top/Step_Motor/Step.cpp ****     if(en)
 242              		.loc 1 23 1 is_stmt 0 view .LVU47
 243 00b2 10B5     		push	{r4, lr}
 244              		.cfi_def_cfa_offset 8
 245              		.cfi_offset 4, -8
 246              		.cfi_offset 14, -4
 247 00b4 0300     		movs	r3, r0
 248 00b6 0A1E     		subs	r2, r1, #0
  24:My_Top/Step_Motor/Step.cpp ****         _step_TIM->CCER |= (_step_ch_ccer); // ŚľÄ CH1 + CH1N
 249              		.loc 1 24 5 is_stmt 1 view .LVU48
 250 00b8 0DD0     		beq	.L10
  25:My_Top/Step_Motor/Step.cpp ****     else
 251              		.loc 1 25 9 view .LVU49
 252 00ba 406A     		ldr	r0, [r0, #36]
 253              	.LVL12:
  25:My_Top/Step_Motor/Step.cpp ****     else
 254              		.loc 1 25 20 is_stmt 0 view .LVU50
 255 00bc 016A     		ldr	r1, [r0, #32]
 256              	.LVL13:
  25:My_Top/Step_Motor/Step.cpp ****     else
 257              		.loc 1 25 29 view .LVU51
 258 00be 9C6A     		ldr	r4, [r3, #40]
  25:My_Top/Step_Motor/Step.cpp ****     else
 259              		.loc 1 25 25 view .LVU52
 260 00c0 2143     		orrs	r1, r4
 261 00c2 0162     		str	r1, [r0, #32]
 262              	.L11:
  28:My_Top/Step_Motor/Step.cpp ****     for(int i=0;i<200;i++){ __asm("nop"); } //Áü≠śöāŚĽ∂śó∂ÔľĆÁ°ģšŅĚšĹŅŤÉĹšŅ°ŚŹ∑Á®≥Śģö 1 nop = 1/64M
 263              		.loc 1 28 5 is_stmt 1 view .LVU53
  28:My_Top/Step_Motor/Step.cpp ****     for(int i=0;i<200;i++){ __asm("nop"); } //Áü≠śöāŚĽ∂śó∂ÔľĆÁ°ģšŅĚšĹŅŤÉĹšŅ°ŚŹ∑Á®≥Śģö 1 nop = 1/64M
 264              		.loc 1 28 22 is_stmt 0 view .LVU54
 265 00c4 9869     		ldr	r0, [r3, #24]
 266 00c6 998B     		ldrh	r1, [r3, #28]
 267 00c8 002A     		cmp	r2, #0
 268 00ca 0AD0     		beq	.L15
  28:My_Top/Step_Motor/Step.cpp ****     for(int i=0;i<200;i++){ __asm("nop"); } //Áü≠śöāŚĽ∂śó∂ÔľĆÁ°ģšŅĚšĹŅŤÉĹšŅ°ŚŹ∑Á®≥Śģö 1 nop = 1/64M
 269              		.loc 1 28 22 discriminator 1 view .LVU55
 270 00cc 0022     		movs	r2, #0
 271              	.LVL14:
 272              	.L12:
  28:My_Top/Step_Motor/Step.cpp ****     for(int i=0;i<200;i++){ __asm("nop"); } //Áü≠śöāŚĽ∂śó∂ÔľĆÁ°ģšŅĚšĹŅŤÉĹšŅ°ŚŹ∑Á®≥Śģö 1 nop = 1/64M
 273              		.loc 1 28 22 discriminator 4 view .LVU56
 274 00ce FFF7FEFF 		bl	HAL_GPIO_WritePin
 275              	.LVL15:
  29:My_Top/Step_Motor/Step.cpp ****     
 276              		.loc 1 29 5 is_stmt 1 view .LVU57
 277              	.LBB16:
  29:My_Top/Step_Motor/Step.cpp ****     
 278              		.loc 1 29 13 is_stmt 0 view .LVU58
ARM GAS  /tmp/cc59Fz2V.s 			page 9


 279 00d2 0023     		movs	r3, #0
  29:My_Top/Step_Motor/Step.cpp ****     
 280              		.loc 1 29 5 view .LVU59
 281 00d4 09E0     		b	.L13
 282              	.LVL16:
 283              	.L10:
  29:My_Top/Step_Motor/Step.cpp ****     
 284              		.loc 1 29 5 view .LVU60
 285              	.LBE16:
  27:My_Top/Step_Motor/Step.cpp ****     HAL_GPIO_WritePin(EN_PORT_, EN_PIN_, en ? GPIO_PIN_RESET : GPIO_PIN_SET);//śčČšĹéšĹŅŤÉĹ
 286              		.loc 1 27 9 is_stmt 1 view .LVU61
 287 00d6 406A     		ldr	r0, [r0, #36]
 288              	.LVL17:
  27:My_Top/Step_Motor/Step.cpp ****     HAL_GPIO_WritePin(EN_PORT_, EN_PIN_, en ? GPIO_PIN_RESET : GPIO_PIN_SET);//śčČšĹéšĹŅŤÉĹ
 289              		.loc 1 27 20 is_stmt 0 view .LVU62
 290 00d8 016A     		ldr	r1, [r0, #32]
 291              	.LVL18:
  27:My_Top/Step_Motor/Step.cpp ****     HAL_GPIO_WritePin(EN_PORT_, EN_PIN_, en ? GPIO_PIN_RESET : GPIO_PIN_SET);//śčČšĹéšĹŅŤÉĹ
 292              		.loc 1 27 30 view .LVU63
 293 00da 9C6A     		ldr	r4, [r3, #40]
  27:My_Top/Step_Motor/Step.cpp ****     HAL_GPIO_WritePin(EN_PORT_, EN_PIN_, en ? GPIO_PIN_RESET : GPIO_PIN_SET);//śčČšĹéšĹŅŤÉĹ
 294              		.loc 1 27 25 view .LVU64
 295 00dc A143     		bics	r1, r4
 296 00de 0162     		str	r1, [r0, #32]
 297 00e0 F0E7     		b	.L11
 298              	.L15:
  28:My_Top/Step_Motor/Step.cpp ****     for(int i=0;i<200;i++){ __asm("nop"); } //Áü≠śöāŚĽ∂śó∂ÔľĆÁ°ģšŅĚšĹŅŤÉĹšŅ°ŚŹ∑Á®≥Śģö 1 nop = 1/64M
 299              		.loc 1 28 22 discriminator 2 view .LVU65
 300 00e2 0122     		movs	r2, #1
 301              	.LVL19:
  28:My_Top/Step_Motor/Step.cpp ****     for(int i=0;i<200;i++){ __asm("nop"); } //Áü≠śöāŚĽ∂śó∂ÔľĆÁ°ģšŅĚšĹŅŤÉĹšŅ°ŚŹ∑Á®≥Śģö 1 nop = 1/64M
 302              		.loc 1 28 22 discriminator 2 view .LVU66
 303 00e4 F3E7     		b	.L12
 304              	.LVL20:
 305              	.L14:
 306              	.LBB17:
  29:My_Top/Step_Motor/Step.cpp ****     
 307              		.loc 1 29 29 is_stmt 1 discriminator 3 view .LVU67
 308              		.syntax divided
 309              	@ 29 "My_Top/Step_Motor/Step.cpp" 1
 310 00e6 C046     		nop
 311              	@ 0 "" 2
  29:My_Top/Step_Motor/Step.cpp ****     
 312              		.loc 1 29 5 discriminator 3 view .LVU68
 313              		.thumb
 314              		.syntax unified
 315 00e8 0133     		adds	r3, r3, #1
 316              	.LVL21:
 317              	.L13:
  29:My_Top/Step_Motor/Step.cpp ****     
 318              		.loc 1 29 18 discriminator 1 view .LVU69
 319 00ea C72B     		cmp	r3, #199
 320 00ec FBDD     		ble	.L14
 321              	.LBE17:
  31:My_Top/Step_Motor/Step.cpp **** 
 322              		.loc 1 31 1 is_stmt 0 view .LVU70
 323              		@ sp needed
ARM GAS  /tmp/cc59Fz2V.s 			page 10


 324 00ee 10BD     		pop	{r4, pc}
 325              		.cfi_endproc
 326              	.LFE461:
 328              		.align	1
 329              		.global	_ZN10Step_Motor19Set_Motor_DutyCycleEf
 330              		.syntax unified
 331              		.code	16
 332              		.thumb_func
 334              	_ZN10Step_Motor19Set_Motor_DutyCycleEf:
 335              	.LVL22:
 336              	.LFB462:
  35:My_Top/Step_Motor/Step.cpp ****     uint32_t Motor_ARR,CCR_VAL = 0;
 337              		.loc 1 35 1 is_stmt 1 view -0
 338              		.cfi_startproc
 339              		@ args = 0, pretend = 0, frame = 0
 340              		@ frame_needed = 0, uses_anonymous_args = 0
  35:My_Top/Step_Motor/Step.cpp ****     uint32_t Motor_ARR,CCR_VAL = 0;
 341              		.loc 1 35 1 is_stmt 0 view .LVU72
 342 00f0 70B5     		push	{r4, r5, r6, lr}
 343              		.cfi_def_cfa_offset 16
 344              		.cfi_offset 4, -16
 345              		.cfi_offset 5, -12
 346              		.cfi_offset 6, -8
 347              		.cfi_offset 14, -4
 348 00f2 0500     		movs	r5, r0
 349 00f4 0C1C     		adds	r4, r1, #0
  36:My_Top/Step_Motor/Step.cpp ****     if(DutyCycle>1.0f || DutyCycle<0.0f) DutyCycle = 0.5f; 
 350              		.loc 1 36 5 is_stmt 1 view .LVU73
 351              	.LVL23:
  37:My_Top/Step_Motor/Step.cpp ****     Motor_ARR = __HAL_TIM_GET_AUTORELOAD(htim_);
 352              		.loc 1 37 5 view .LVU74
 353 00f6 FE21     		movs	r1, #254
 354              	.LVL24:
  37:My_Top/Step_Motor/Step.cpp ****     Motor_ARR = __HAL_TIM_GET_AUTORELOAD(htim_);
 355              		.loc 1 37 5 is_stmt 0 view .LVU75
 356 00f8 8905     		lsls	r1, r1, #22
 357 00fa 201C     		adds	r0, r4, #0
 358              	.LVL25:
  37:My_Top/Step_Motor/Step.cpp ****     Motor_ARR = __HAL_TIM_GET_AUTORELOAD(htim_);
 359              		.loc 1 37 5 view .LVU76
 360 00fc FFF7FEFF 		bl	__aeabi_fcmpgt
 361              	.LVL26:
 362 0100 0028     		cmp	r0, #0
 363 0102 12D0     		beq	.L28
  37:My_Top/Step_Motor/Step.cpp ****     Motor_ARR = __HAL_TIM_GET_AUTORELOAD(htim_);
 364              		.loc 1 37 52 discriminator 3 view .LVU77
 365 0104 FC24     		movs	r4, #252
 366              	.LVL27:
  37:My_Top/Step_Motor/Step.cpp ****     Motor_ARR = __HAL_TIM_GET_AUTORELOAD(htim_);
 367              		.loc 1 37 52 discriminator 3 view .LVU78
 368 0106 A405     		lsls	r4, r4, #22
 369              	.L17:
 370              	.LVL28:
  38:My_Top/Step_Motor/Step.cpp ****     CCR_VAL = (uint32_t)(Motor_ARR*DutyCycle);
 371              		.loc 1 38 5 is_stmt 1 view .LVU79
  38:My_Top/Step_Motor/Step.cpp ****     CCR_VAL = (uint32_t)(Motor_ARR*DutyCycle);
 372              		.loc 1 38 17 is_stmt 0 view .LVU80
ARM GAS  /tmp/cc59Fz2V.s 			page 11


 373 0108 AB68     		ldr	r3, [r5, #8]
 374 010a 1E68     		ldr	r6, [r3]
  38:My_Top/Step_Motor/Step.cpp ****     CCR_VAL = (uint32_t)(Motor_ARR*DutyCycle);
 375              		.loc 1 38 15 view .LVU81
 376 010c F06A     		ldr	r0, [r6, #44]
 377              	.LVL29:
  39:My_Top/Step_Motor/Step.cpp ****     __HAL_TIM_SET_COMPARE(htim_, channel_, CCR_VAL);
 378              		.loc 1 39 5 is_stmt 1 view .LVU82
  39:My_Top/Step_Motor/Step.cpp ****     __HAL_TIM_SET_COMPARE(htim_, channel_, CCR_VAL);
 379              		.loc 1 39 35 is_stmt 0 view .LVU83
 380 010e FFF7FEFF 		bl	__aeabi_ui2f
 381              	.LVL30:
  39:My_Top/Step_Motor/Step.cpp ****     __HAL_TIM_SET_COMPARE(htim_, channel_, CCR_VAL);
 382              		.loc 1 39 35 view .LVU84
 383 0112 211C     		adds	r1, r4, #0
 384 0114 FFF7FEFF 		bl	__aeabi_fmul
 385              	.LVL31:
  39:My_Top/Step_Motor/Step.cpp ****     __HAL_TIM_SET_COMPARE(htim_, channel_, CCR_VAL);
 386              		.loc 1 39 13 view .LVU85
 387 0118 FFF7FEFF 		bl	__aeabi_f2uiz
 388              	.LVL32:
  40:My_Top/Step_Motor/Step.cpp **** }
 389              		.loc 1 40 5 is_stmt 1 view .LVU86
 390 011c EB68     		ldr	r3, [r5, #12]
 391 011e 102B     		cmp	r3, #16
 392 0120 16D8     		bhi	.L18
 393 0122 9B00     		lsls	r3, r3, #2
 394 0124 0B4A     		ldr	r2, .L29
 395 0126 D358     		ldr	r3, [r2, r3]
 396 0128 9F46     		mov	pc, r3
 397              		.section	.rodata
 398              		.align	2
 399              	.L20:
 400 0000 3C010000 		.word	.L24
 401 0004 50010000 		.word	.L18
 402 0008 50010000 		.word	.L18
 403 000c 50010000 		.word	.L18
 404 0010 40010000 		.word	.L23
 405 0014 50010000 		.word	.L18
 406 0018 50010000 		.word	.L18
 407 001c 50010000 		.word	.L18
 408 0020 44010000 		.word	.L22
 409 0024 50010000 		.word	.L18
 410 0028 50010000 		.word	.L18
 411 002c 50010000 		.word	.L18
 412 0030 48010000 		.word	.L21
 413 0034 50010000 		.word	.L18
 414 0038 50010000 		.word	.L18
 415 003c 50010000 		.word	.L18
 416 0040 4C010000 		.word	.L19
 417              		.text
 418              	.LVL33:
 419              	.L28:
  37:My_Top/Step_Motor/Step.cpp ****     Motor_ARR = __HAL_TIM_GET_AUTORELOAD(htim_);
 420              		.loc 1 37 23 is_stmt 0 discriminator 2 view .LVU87
 421 012a 0021     		movs	r1, #0
 422 012c 201C     		adds	r0, r4, #0
ARM GAS  /tmp/cc59Fz2V.s 			page 12


 423 012e FFF7FEFF 		bl	__aeabi_fcmplt
 424              	.LVL34:
 425 0132 0028     		cmp	r0, #0
 426 0134 E8D0     		beq	.L17
  37:My_Top/Step_Motor/Step.cpp ****     Motor_ARR = __HAL_TIM_GET_AUTORELOAD(htim_);
 427              		.loc 1 37 52 discriminator 3 view .LVU88
 428 0136 FC24     		movs	r4, #252
 429              	.LVL35:
  37:My_Top/Step_Motor/Step.cpp ****     Motor_ARR = __HAL_TIM_GET_AUTORELOAD(htim_);
 430              		.loc 1 37 52 discriminator 3 view .LVU89
 431 0138 A405     		lsls	r4, r4, #22
 432 013a E5E7     		b	.L17
 433              	.LVL36:
 434              	.L24:
  40:My_Top/Step_Motor/Step.cpp **** }
 435              		.loc 1 40 5 discriminator 1 view .LVU90
 436 013c 7063     		str	r0, [r6, #52]
 437 013e 08E0     		b	.L16
 438              	.L23:
  40:My_Top/Step_Motor/Step.cpp **** }
 439              		.loc 1 40 5 discriminator 3 view .LVU91
 440 0140 B063     		str	r0, [r6, #56]
 441 0142 06E0     		b	.L16
 442              	.L22:
  40:My_Top/Step_Motor/Step.cpp **** }
 443              		.loc 1 40 5 discriminator 5 view .LVU92
 444 0144 F063     		str	r0, [r6, #60]
 445 0146 04E0     		b	.L16
 446              	.L21:
  40:My_Top/Step_Motor/Step.cpp **** }
 447              		.loc 1 40 5 discriminator 7 view .LVU93
 448 0148 3064     		str	r0, [r6, #64]
 449 014a 02E0     		b	.L16
 450              	.L19:
  40:My_Top/Step_Motor/Step.cpp **** }
 451              		.loc 1 40 5 discriminator 9 view .LVU94
 452 014c B065     		str	r0, [r6, #88]
 453 014e 00E0     		b	.L16
 454              	.L18:
  40:My_Top/Step_Motor/Step.cpp **** }
 455              		.loc 1 40 5 discriminator 10 view .LVU95
 456 0150 F065     		str	r0, [r6, #92]
 457              	.L16:
  41:My_Top/Step_Motor/Step.cpp **** 
 458              		.loc 1 41 1 view .LVU96
 459              		@ sp needed
 460              	.LVL37:
 461              	.LVL38:
  41:My_Top/Step_Motor/Step.cpp **** 
 462              		.loc 1 41 1 view .LVU97
 463 0152 70BD     		pop	{r4, r5, r6, pc}
 464              	.L30:
 465              		.align	2
 466              	.L29:
 467 0154 00000000 		.word	.L20
 468              		.cfi_endproc
 469              	.LFE462:
ARM GAS  /tmp/cc59Fz2V.s 			page 13


 471              		.align	1
 472              		.global	_ZN10Step_Motor19Set_Motor_FrequencyEf
 473              		.syntax unified
 474              		.code	16
 475              		.thumb_func
 477              	_ZN10Step_Motor19Set_Motor_FrequencyEf:
 478              	.LVL39:
 479              	.LFB469:
  48:My_Top/Step_Motor/Step.cpp ****     bool new_dir = false;
 480              		.loc 1 48 1 is_stmt 1 view -0
 481              		.cfi_startproc
 482              		@ args = 0, pretend = 0, frame = 0
 483              		@ frame_needed = 0, uses_anonymous_args = 0
  48:My_Top/Step_Motor/Step.cpp ****     bool new_dir = false;
 484              		.loc 1 48 1 is_stmt 0 view .LVU99
 485 0158 70B5     		push	{r4, r5, r6, lr}
 486              		.cfi_def_cfa_offset 16
 487              		.cfi_offset 4, -16
 488              		.cfi_offset 5, -12
 489              		.cfi_offset 6, -8
 490              		.cfi_offset 14, -4
 491 015a 0400     		movs	r4, r0
 492 015c 081C     		adds	r0, r1, #0
 493              	.LVL40:
  49:My_Top/Step_Motor/Step.cpp ****     uint32_t freq;
 494              		.loc 1 49 5 is_stmt 1 view .LVU100
  50:My_Top/Step_Motor/Step.cpp ****     uint32_t arr = 0;
 495              		.loc 1 50 5 view .LVU101
  51:My_Top/Step_Motor/Step.cpp ****     int16_t Fre_temp = (int16_t)Fre;//ŤĹ¨śēīśēįŤģ°Áģó
 496              		.loc 1 51 5 view .LVU102
  52:My_Top/Step_Motor/Step.cpp ****     
 497              		.loc 1 52 5 view .LVU103
  52:My_Top/Step_Motor/Step.cpp ****     
 498              		.loc 1 52 13 is_stmt 0 view .LVU104
 499 015e FFF7FEFF 		bl	__aeabi_f2iz
 500              	.LVL41:
  52:My_Top/Step_Motor/Step.cpp ****     
 501              		.loc 1 52 13 view .LVU105
 502 0162 05B2     		sxth	r5, r0
 503              	.LVL42:
  55:My_Top/Step_Motor/Step.cpp ****     Fre_last = Fre_temp;
 504              		.loc 1 55 5 is_stmt 1 view .LVU106
  55:My_Top/Step_Motor/Step.cpp ****     Fre_last = Fre_temp;
 505              		.loc 1 55 21 is_stmt 0 view .LVU107
 506 0164 2C22     		movs	r2, #44
 507 0166 A35E     		ldrsh	r3, [r4, r2]
  55:My_Top/Step_Motor/Step.cpp ****     Fre_last = Fre_temp;
 508              		.loc 1 55 5 view .LVU108
 509 0168 AB42     		cmp	r3, r5
 510 016a 00D1     		bne	.LCB451
 511 016c 6FE0     		b	.L45	@long jump
 512              	.LCB451:
  56:My_Top/Step_Motor/Step.cpp **** 
 513              		.loc 1 56 5 is_stmt 1 view .LVU109
  56:My_Top/Step_Motor/Step.cpp **** 
 514              		.loc 1 56 14 is_stmt 0 view .LVU110
 515 016e A585     		strh	r5, [r4, #44]
ARM GAS  /tmp/cc59Fz2V.s 			page 14


  59:My_Top/Step_Motor/Step.cpp ****     {
 516              		.loc 1 59 5 is_stmt 1 view .LVU111
 517 0170 002D     		cmp	r5, #0
 518 0172 16D0     		beq	.L49
  65:My_Top/Step_Motor/Step.cpp ****     }
 519              		.loc 1 65 9 view .LVU112
  65:My_Top/Step_Motor/Step.cpp ****     }
 520              		.loc 1 65 21 is_stmt 0 view .LVU113
 521 0174 0121     		movs	r1, #1
 522 0176 2000     		movs	r0, r4
 523 0178 FFF7FEFF 		bl	_ZN10Step_Motor12Set_Motor_ENEb
 524              	.LVL43:
  69:My_Top/Step_Motor/Step.cpp ****     {
 525              		.loc 1 69 5 is_stmt 1 view .LVU114
 526 017c 002D     		cmp	r5, #0
 527 017e 16DD     		ble	.L34
  71:My_Top/Step_Motor/Step.cpp ****         freq    = (uint32_t)Fre_temp;
 528              		.loc 1 71 9 view .LVU115
 529              	.LVL44:
  72:My_Top/Step_Motor/Step.cpp ****     }else if (Fre_temp < 0)
 530              		.loc 1 72 9 view .LVU116
  72:My_Top/Step_Motor/Step.cpp ****     }else if (Fre_temp < 0)
 531              		.loc 1 72 17 is_stmt 0 view .LVU117
 532 0180 2E00     		movs	r6, r5
 533              	.LVL45:
  71:My_Top/Step_Motor/Step.cpp ****         freq    = (uint32_t)Fre_temp;
 534              		.loc 1 71 17 view .LVU118
 535 0182 0125     		movs	r5, #1
 536              	.LVL46:
 537              	.L35:
  80:My_Top/Step_Motor/Step.cpp ****     {
 538              		.loc 1 80 5 is_stmt 1 view .LVU119
  80:My_Top/Step_Motor/Step.cpp ****     {
 539              		.loc 1 80 20 is_stmt 0 view .LVU120
 540 0184 2378     		ldrb	r3, [r4]
  80:My_Top/Step_Motor/Step.cpp ****     {
 541              		.loc 1 80 5 view .LVU121
 542 0186 AB42     		cmp	r3, r5
 543 0188 18D1     		bne	.L50
 544              	.L36:
  87:My_Top/Step_Motor/Step.cpp **** 
 545              		.loc 1 87 5 is_stmt 1 view .LVU122
  87:My_Top/Step_Motor/Step.cpp **** 
 546              		.loc 1 87 11 is_stmt 0 view .LVU123
 547 018a 256A     		ldr	r5, [r4, #32]
 548              	.LVL47:
  87:My_Top/Step_Motor/Step.cpp **** 
 549              		.loc 1 87 9 view .LVU124
 550 018c 3100     		movs	r1, r6
 551 018e 2800     		movs	r0, r5
 552 0190 FFF7FEFF 		bl	__aeabi_uidiv
 553              	.LVL48:
  90:My_Top/Step_Motor/Step.cpp **** 
 554              		.loc 1 90 5 is_stmt 1 view .LVU125
 555 0194 2F4B     		ldr	r3, .L52
 556 0196 9842     		cmp	r0, r3
 557 0198 16D8     		bhi	.L47
ARM GAS  /tmp/cc59Fz2V.s 			page 15


  92:My_Top/Step_Motor/Step.cpp ****     htim_->Instance->CNT = 0; // śłÖťõ∂Ťģ°śēįŚô®
 558              		.loc 1 92 5 view .LVU126
 559 019a B542     		cmp	r5, r6
 560 019c 15D2     		bcs	.L37
  92:My_Top/Step_Motor/Step.cpp ****     htim_->Instance->CNT = 0; // śłÖťõ∂Ťģ°śēįŚô®
 561              		.loc 1 92 23 is_stmt 0 discriminator 1 view .LVU127
 562 019e 0120     		movs	r0, #1
 563              	.LVL49:
  92:My_Top/Step_Motor/Step.cpp ****     htim_->Instance->CNT = 0; // śłÖťõ∂Ťģ°śēįŚô®
 564              		.loc 1 92 23 discriminator 1 view .LVU128
 565 01a0 13E0     		b	.L37
 566              	.LVL50:
 567              	.L49:
  61:My_Top/Step_Motor/Step.cpp ****         return true;
 568              		.loc 1 61 9 is_stmt 1 view .LVU129
  61:My_Top/Step_Motor/Step.cpp ****         return true;
 569              		.loc 1 61 21 is_stmt 0 view .LVU130
 570 01a2 0021     		movs	r1, #0
 571 01a4 2000     		movs	r0, r4
 572 01a6 FFF7FEFF 		bl	_ZN10Step_Motor12Set_Motor_ENEb
 573              	.LVL51:
  62:My_Top/Step_Motor/Step.cpp ****     }else
 574              		.loc 1 62 9 is_stmt 1 view .LVU131
  62:My_Top/Step_Motor/Step.cpp ****     }else
 575              		.loc 1 62 16 is_stmt 0 view .LVU132
 576 01aa 0120     		movs	r0, #1
 577 01ac 4EE0     		b	.L32
 578              	.L34:
  73:My_Top/Step_Motor/Step.cpp ****     {
 579              		.loc 1 73 11 is_stmt 1 view .LVU133
 580 01ae 002D     		cmp	r5, #0
 581 01b0 01DB     		blt	.L51
  49:My_Top/Step_Motor/Step.cpp ****     uint32_t freq;
 582              		.loc 1 49 10 is_stmt 0 view .LVU134
 583 01b2 0025     		movs	r5, #0
 584              	.LVL52:
  49:My_Top/Step_Motor/Step.cpp ****     uint32_t freq;
 585              		.loc 1 49 10 view .LVU135
 586 01b4 E6E7     		b	.L35
 587              	.LVL53:
 588              	.L51:
  75:My_Top/Step_Motor/Step.cpp ****         freq    = (uint32_t)(-Fre_temp);
 589              		.loc 1 75 9 is_stmt 1 view .LVU136
  76:My_Top/Step_Motor/Step.cpp ****     }
 590              		.loc 1 76 9 view .LVU137
  76:My_Top/Step_Motor/Step.cpp ****     }
 591              		.loc 1 76 17 is_stmt 0 view .LVU138
 592 01b6 6E42     		rsbs	r6, r5, #0
 593              	.LVL54:
  75:My_Top/Step_Motor/Step.cpp ****         freq    = (uint32_t)(-Fre_temp);
 594              		.loc 1 75 17 view .LVU139
 595 01b8 0025     		movs	r5, #0
 596              	.LVL55:
  75:My_Top/Step_Motor/Step.cpp ****         freq    = (uint32_t)(-Fre_temp);
 597              		.loc 1 75 17 view .LVU140
 598 01ba E3E7     		b	.L35
 599              	.LVL56:
ARM GAS  /tmp/cc59Fz2V.s 			page 16


 600              	.L50:
  82:My_Top/Step_Motor/Step.cpp ****         motor_direction = new_dir;
 601              		.loc 1 82 9 is_stmt 1 view .LVU141
  82:My_Top/Step_Motor/Step.cpp ****         motor_direction = new_dir;
 602              		.loc 1 82 22 is_stmt 0 view .LVU142
 603 01bc 2900     		movs	r1, r5
 604 01be 2000     		movs	r0, r4
 605 01c0 FFF7FEFF 		bl	_ZN10Step_Motor13Set_Motor_DTREb
 606              	.LVL57:
  83:My_Top/Step_Motor/Step.cpp ****     }
 607              		.loc 1 83 9 is_stmt 1 view .LVU143
  83:My_Top/Step_Motor/Step.cpp ****     }
 608              		.loc 1 83 25 is_stmt 0 view .LVU144
 609 01c4 2570     		strb	r5, [r4]
 610 01c6 E0E7     		b	.L36
 611              	.LVL58:
 612              	.L47:
  90:My_Top/Step_Motor/Step.cpp **** 
 613              		.loc 1 90 27 discriminator 1 view .LVU145
 614 01c8 2348     		ldr	r0, .L52+4
 615              	.LVL59:
 616              	.L37:
  93:My_Top/Step_Motor/Step.cpp ****     __HAL_TIM_SET_AUTORELOAD(htim_, (uint16_t)(arr - 1));//ŤģĺÁĹģŚĎ®śúü 
 617              		.loc 1 93 5 is_stmt 1 view .LVU146
 618 01ca A368     		ldr	r3, [r4, #8]
  93:My_Top/Step_Motor/Step.cpp ****     __HAL_TIM_SET_AUTORELOAD(htim_, (uint16_t)(arr - 1));//ŤģĺÁĹģŚĎ®śúü 
 619              		.loc 1 93 12 is_stmt 0 view .LVU147
 620 01cc 1B68     		ldr	r3, [r3]
  93:My_Top/Step_Motor/Step.cpp ****     __HAL_TIM_SET_AUTORELOAD(htim_, (uint16_t)(arr - 1));//ŤģĺÁĹģŚĎ®śúü 
 621              		.loc 1 93 26 view .LVU148
 622 01ce 0022     		movs	r2, #0
 623 01d0 5A62     		str	r2, [r3, #36]
  94:My_Top/Step_Motor/Step.cpp ****     __HAL_TIM_SET_COMPARE(htim_, channel_, (uint16_t)(arr/2));//ŤģĺÁĹģŚć†Á©ļśĮĒ 
 624              		.loc 1 94 5 is_stmt 1 view .LVU149
  94:My_Top/Step_Motor/Step.cpp ****     __HAL_TIM_SET_COMPARE(htim_, channel_, (uint16_t)(arr/2));//ŤģĺÁĹģŚć†Á©ļśĮĒ 
 625              		.loc 1 94 5 view .LVU150
 626 01d2 431E     		subs	r3, r0, #1
 627 01d4 9BB2     		uxth	r3, r3
 628 01d6 A268     		ldr	r2, [r4, #8]
 629 01d8 1268     		ldr	r2, [r2]
 630 01da D362     		str	r3, [r2, #44]
  94:My_Top/Step_Motor/Step.cpp ****     __HAL_TIM_SET_COMPARE(htim_, channel_, (uint16_t)(arr/2));//ŤģĺÁĹģŚć†Á©ļśĮĒ 
 631              		.loc 1 94 5 view .LVU151
 632 01dc A268     		ldr	r2, [r4, #8]
 633 01de D360     		str	r3, [r2, #12]
  94:My_Top/Step_Motor/Step.cpp ****     __HAL_TIM_SET_COMPARE(htim_, channel_, (uint16_t)(arr/2));//ŤģĺÁĹģŚć†Á©ļśĮĒ 
 634              		.loc 1 94 5 view .LVU152
  95:My_Top/Step_Motor/Step.cpp ****     return true;
 635              		.loc 1 95 5 view .LVU153
 636 01e0 E368     		ldr	r3, [r4, #12]
 637 01e2 102B     		cmp	r3, #16
 638 01e4 2BD8     		bhi	.L38
 639 01e6 9B00     		lsls	r3, r3, #2
 640 01e8 1C4A     		ldr	r2, .L52+8
 641 01ea D358     		ldr	r3, [r2, r3]
 642 01ec 9F46     		mov	pc, r3
 643              		.section	.rodata
ARM GAS  /tmp/cc59Fz2V.s 			page 17


 644              		.align	2
 645              	.L40:
 646 0044 EE010000 		.word	.L44
 647 0048 3E020000 		.word	.L38
 648 004c 3E020000 		.word	.L38
 649 0050 3E020000 		.word	.L38
 650 0054 FE010000 		.word	.L43
 651 0058 3E020000 		.word	.L38
 652 005c 3E020000 		.word	.L38
 653 0060 3E020000 		.word	.L38
 654 0064 0E020000 		.word	.L42
 655 0068 3E020000 		.word	.L38
 656 006c 3E020000 		.word	.L38
 657 0070 3E020000 		.word	.L38
 658 0074 1E020000 		.word	.L41
 659 0078 3E020000 		.word	.L38
 660 007c 3E020000 		.word	.L38
 661 0080 3E020000 		.word	.L38
 662 0084 2E020000 		.word	.L39
 663              		.text
 664              	.L44:
  95:My_Top/Step_Motor/Step.cpp ****     return true;
 665              		.loc 1 95 5 is_stmt 0 discriminator 1 view .LVU154
 666 01ee 4308     		lsrs	r3, r0, #1
 667 01f0 A268     		ldr	r2, [r4, #8]
 668 01f2 1268     		ldr	r2, [r2]
 669 01f4 1B04     		lsls	r3, r3, #16
 670 01f6 1B0C     		lsrs	r3, r3, #16
 671 01f8 5363     		str	r3, [r2, #52]
  96:My_Top/Step_Motor/Step.cpp **** }
 672              		.loc 1 96 12 view .LVU155
 673 01fa 0120     		movs	r0, #1
 674              	.LVL60:
  96:My_Top/Step_Motor/Step.cpp **** }
 675              		.loc 1 96 12 view .LVU156
 676 01fc 26E0     		b	.L32
 677              	.LVL61:
 678              	.L43:
  95:My_Top/Step_Motor/Step.cpp ****     return true;
 679              		.loc 1 95 5 discriminator 3 view .LVU157
 680 01fe 4308     		lsrs	r3, r0, #1
 681 0200 A268     		ldr	r2, [r4, #8]
 682 0202 1268     		ldr	r2, [r2]
 683 0204 1B04     		lsls	r3, r3, #16
 684 0206 1B0C     		lsrs	r3, r3, #16
 685 0208 9363     		str	r3, [r2, #56]
  96:My_Top/Step_Motor/Step.cpp **** }
 686              		.loc 1 96 12 view .LVU158
 687 020a 0120     		movs	r0, #1
 688              	.LVL62:
  96:My_Top/Step_Motor/Step.cpp **** }
 689              		.loc 1 96 12 view .LVU159
 690 020c 1EE0     		b	.L32
 691              	.LVL63:
 692              	.L42:
  95:My_Top/Step_Motor/Step.cpp ****     return true;
 693              		.loc 1 95 5 discriminator 5 view .LVU160
ARM GAS  /tmp/cc59Fz2V.s 			page 18


 694 020e 4308     		lsrs	r3, r0, #1
 695 0210 A268     		ldr	r2, [r4, #8]
 696 0212 1268     		ldr	r2, [r2]
 697 0214 1B04     		lsls	r3, r3, #16
 698 0216 1B0C     		lsrs	r3, r3, #16
 699 0218 D363     		str	r3, [r2, #60]
  96:My_Top/Step_Motor/Step.cpp **** }
 700              		.loc 1 96 12 view .LVU161
 701 021a 0120     		movs	r0, #1
 702              	.LVL64:
  96:My_Top/Step_Motor/Step.cpp **** }
 703              		.loc 1 96 12 view .LVU162
 704 021c 16E0     		b	.L32
 705              	.LVL65:
 706              	.L41:
  95:My_Top/Step_Motor/Step.cpp ****     return true;
 707              		.loc 1 95 5 discriminator 7 view .LVU163
 708 021e 4308     		lsrs	r3, r0, #1
 709 0220 A268     		ldr	r2, [r4, #8]
 710 0222 1268     		ldr	r2, [r2]
 711 0224 1B04     		lsls	r3, r3, #16
 712 0226 1B0C     		lsrs	r3, r3, #16
 713 0228 1364     		str	r3, [r2, #64]
  96:My_Top/Step_Motor/Step.cpp **** }
 714              		.loc 1 96 12 view .LVU164
 715 022a 0120     		movs	r0, #1
 716              	.LVL66:
  96:My_Top/Step_Motor/Step.cpp **** }
 717              		.loc 1 96 12 view .LVU165
 718 022c 0EE0     		b	.L32
 719              	.LVL67:
 720              	.L39:
  95:My_Top/Step_Motor/Step.cpp ****     return true;
 721              		.loc 1 95 5 discriminator 9 view .LVU166
 722 022e 4308     		lsrs	r3, r0, #1
 723 0230 A268     		ldr	r2, [r4, #8]
 724 0232 1268     		ldr	r2, [r2]
 725 0234 1B04     		lsls	r3, r3, #16
 726 0236 1B0C     		lsrs	r3, r3, #16
 727 0238 9365     		str	r3, [r2, #88]
  96:My_Top/Step_Motor/Step.cpp **** }
 728              		.loc 1 96 12 view .LVU167
 729 023a 0120     		movs	r0, #1
 730              	.LVL68:
  96:My_Top/Step_Motor/Step.cpp **** }
 731              		.loc 1 96 12 view .LVU168
 732 023c 06E0     		b	.L32
 733              	.LVL69:
 734              	.L38:
  95:My_Top/Step_Motor/Step.cpp ****     return true;
 735              		.loc 1 95 5 discriminator 10 view .LVU169
 736 023e 4008     		lsrs	r0, r0, #1
 737              	.LVL70:
  95:My_Top/Step_Motor/Step.cpp ****     return true;
 738              		.loc 1 95 5 discriminator 10 view .LVU170
 739 0240 A368     		ldr	r3, [r4, #8]
 740 0242 1B68     		ldr	r3, [r3]
ARM GAS  /tmp/cc59Fz2V.s 			page 19


 741 0244 0004     		lsls	r0, r0, #16
 742 0246 000C     		lsrs	r0, r0, #16
 743 0248 D865     		str	r0, [r3, #92]
  96:My_Top/Step_Motor/Step.cpp **** }
 744              		.loc 1 96 12 view .LVU171
 745 024a 0120     		movs	r0, #1
 746              	.LVL71:
 747              	.L32:
  97:My_Top/Step_Motor/Step.cpp **** 
 748              		.loc 1 97 1 view .LVU172
 749              		@ sp needed
 750              	.LVL72:
  97:My_Top/Step_Motor/Step.cpp **** 
 751              		.loc 1 97 1 view .LVU173
 752 024c 70BD     		pop	{r4, r5, r6, pc}
 753              	.LVL73:
 754              	.L45:
  55:My_Top/Step_Motor/Step.cpp ****     Fre_last = Fre_temp;
 755              		.loc 1 55 38 discriminator 1 view .LVU174
 756 024e 0020     		movs	r0, #0
 757 0250 FCE7     		b	.L32
 758              	.L53:
 759 0252 C046     		.align	2
 760              	.L52:
 761 0254 FEFF0000 		.word	65534
 762 0258 FFFF0000 		.word	65535
 763 025c 44000000 		.word	.L40
 764              		.cfi_endproc
 765              	.LFE469:
 767              		.align	1
 768              		.global	_ZN10Step_Motor10Motor_InitEv
 769              		.syntax unified
 770              		.code	16
 771              		.thumb_func
 773              	_ZN10Step_Motor10Motor_InitEv:
 774              	.LVL74:
 775              	.LFB470:
 104:My_Top/Step_Motor/Step.cpp ****     uint32_t sysclk = HAL_RCC_GetSysClockFreq();  // ŤŅĒŚõě 64000000 ???
 776              		.loc 1 104 1 is_stmt 1 view -0
 777              		.cfi_startproc
 778              		@ args = 0, pretend = 0, frame = 0
 779              		@ frame_needed = 0, uses_anonymous_args = 0
 104:My_Top/Step_Motor/Step.cpp ****     uint32_t sysclk = HAL_RCC_GetSysClockFreq();  // ŤŅĒŚõě 64000000 ???
 780              		.loc 1 104 1 is_stmt 0 view .LVU176
 781 0260 10B5     		push	{r4, lr}
 782              		.cfi_def_cfa_offset 8
 783              		.cfi_offset 4, -8
 784              		.cfi_offset 14, -4
 785 0262 0400     		movs	r4, r0
 105:My_Top/Step_Motor/Step.cpp ****     timer_clock_freq_ = sysclk / (htim_->Instance->PSC + 1);  //Ťé∑ŚŹĖŚģöśó∂Śô®śó∂ťíüťĘĎÁéá
 786              		.loc 1 105 5 is_stmt 1 view .LVU177
 105:My_Top/Step_Motor/Step.cpp ****     timer_clock_freq_ = sysclk / (htim_->Instance->PSC + 1);  //Ťé∑ŚŹĖŚģöśó∂Śô®śó∂ťíüťĘĎÁéá
 787              		.loc 1 105 46 is_stmt 0 view .LVU178
 788 0264 FFF7FEFF 		bl	HAL_RCC_GetSysClockFreq
 789              	.LVL75:
 106:My_Top/Step_Motor/Step.cpp ****     Set_Motor_Frequency(motor_frequency); //ťĽėŤģ§1000HzťĘĎÁéá
 790              		.loc 1 106 5 is_stmt 1 view .LVU179
ARM GAS  /tmp/cc59Fz2V.s 			page 20


 106:My_Top/Step_Motor/Step.cpp ****     Set_Motor_Frequency(motor_frequency); //ťĽėŤģ§1000HzťĘĎÁéá
 791              		.loc 1 106 35 is_stmt 0 view .LVU180
 792 0268 A368     		ldr	r3, [r4, #8]
 106:My_Top/Step_Motor/Step.cpp ****     Set_Motor_Frequency(motor_frequency); //ťĽėŤģ§1000HzťĘĎÁéá
 793              		.loc 1 106 42 view .LVU181
 794 026a 1B68     		ldr	r3, [r3]
 106:My_Top/Step_Motor/Step.cpp ****     Set_Motor_Frequency(motor_frequency); //ťĽėŤģ§1000HzťĘĎÁéá
 795              		.loc 1 106 52 view .LVU182
 796 026c 996A     		ldr	r1, [r3, #40]
 106:My_Top/Step_Motor/Step.cpp ****     Set_Motor_Frequency(motor_frequency); //ťĽėŤģ§1000HzťĘĎÁéá
 797              		.loc 1 106 56 view .LVU183
 798 026e 0131     		adds	r1, r1, #1
 106:My_Top/Step_Motor/Step.cpp ****     Set_Motor_Frequency(motor_frequency); //ťĽėŤģ§1000HzťĘĎÁéá
 799              		.loc 1 106 32 view .LVU184
 800 0270 FFF7FEFF 		bl	__aeabi_uidiv
 801              	.LVL76:
 106:My_Top/Step_Motor/Step.cpp ****     Set_Motor_Frequency(motor_frequency); //ťĽėŤģ§1000HzťĘĎÁéá
 802              		.loc 1 106 23 view .LVU185
 803 0274 2062     		str	r0, [r4, #32]
 107:My_Top/Step_Motor/Step.cpp ****     __HAL_TIM_SET_COMPARE(htim_, channel_, 0);//ťĽėŤģ§Ść†Á©ļśĮĒšłļ0
 804              		.loc 1 107 5 is_stmt 1 view .LVU186
 107:My_Top/Step_Motor/Step.cpp ****     __HAL_TIM_SET_COMPARE(htim_, channel_, 0);//ťĽėŤģ§Ść†Á©ļśĮĒšłļ0
 805              		.loc 1 107 25 is_stmt 0 view .LVU187
 806 0276 6088     		ldrh	r0, [r4, #2]
 107:My_Top/Step_Motor/Step.cpp ****     __HAL_TIM_SET_COMPARE(htim_, channel_, 0);//ťĽėŤģ§Ść†Á©ļśĮĒšłļ0
 807              		.loc 1 107 24 view .LVU188
 808 0278 FFF7FEFF 		bl	__aeabi_ui2f
 809              	.LVL77:
 810 027c 011C     		adds	r1, r0, #0
 811 027e 2000     		movs	r0, r4
 812 0280 FFF7FEFF 		bl	_ZN10Step_Motor19Set_Motor_FrequencyEf
 813              	.LVL78:
 108:My_Top/Step_Motor/Step.cpp ****     HAL_TIM_PWM_Start(htim_, channel_); //ŚźĮŚä®PWMŤĺďŚáļŚíĆšł≠śĖ≠
 814              		.loc 1 108 5 is_stmt 1 view .LVU189
 815 0284 E368     		ldr	r3, [r4, #12]
 816 0286 102B     		cmp	r3, #16
 817 0288 1CD8     		bhi	.L55
 818 028a 9B00     		lsls	r3, r3, #2
 819 028c 1E4A     		ldr	r2, .L67
 820 028e D358     		ldr	r3, [r2, r3]
 821 0290 9F46     		mov	pc, r3
 822              		.section	.rodata
 823              		.align	2
 824              	.L57:
 825 0088 92020000 		.word	.L61
 826 008c C4020000 		.word	.L55
 827 0090 C4020000 		.word	.L55
 828 0094 C4020000 		.word	.L55
 829 0098 9C020000 		.word	.L60
 830 009c C4020000 		.word	.L55
 831 00a0 C4020000 		.word	.L55
 832 00a4 C4020000 		.word	.L55
 833 00a8 A6020000 		.word	.L59
 834 00ac C4020000 		.word	.L55
 835 00b0 C4020000 		.word	.L55
 836 00b4 C4020000 		.word	.L55
 837 00b8 B0020000 		.word	.L58
ARM GAS  /tmp/cc59Fz2V.s 			page 21


 838 00bc C4020000 		.word	.L55
 839 00c0 C4020000 		.word	.L55
 840 00c4 C4020000 		.word	.L55
 841 00c8 BA020000 		.word	.L56
 842              		.text
 843              	.L61:
 108:My_Top/Step_Motor/Step.cpp ****     HAL_TIM_PWM_Start(htim_, channel_); //ŚźĮŚä®PWMŤĺďŚáļŚíĆšł≠śĖ≠
 844              		.loc 1 108 5 is_stmt 0 discriminator 1 view .LVU190
 845 0292 A368     		ldr	r3, [r4, #8]
 846 0294 1B68     		ldr	r3, [r3]
 847 0296 0022     		movs	r2, #0
 848 0298 5A63     		str	r2, [r3, #52]
 849 029a 17E0     		b	.L62
 850              	.L60:
 108:My_Top/Step_Motor/Step.cpp ****     HAL_TIM_PWM_Start(htim_, channel_); //ŚźĮŚä®PWMŤĺďŚáļŚíĆšł≠śĖ≠
 851              		.loc 1 108 5 discriminator 3 view .LVU191
 852 029c A368     		ldr	r3, [r4, #8]
 853 029e 1B68     		ldr	r3, [r3]
 854 02a0 0022     		movs	r2, #0
 855 02a2 9A63     		str	r2, [r3, #56]
 856 02a4 12E0     		b	.L62
 857              	.L59:
 108:My_Top/Step_Motor/Step.cpp ****     HAL_TIM_PWM_Start(htim_, channel_); //ŚźĮŚä®PWMŤĺďŚáļŚíĆšł≠śĖ≠
 858              		.loc 1 108 5 discriminator 5 view .LVU192
 859 02a6 A368     		ldr	r3, [r4, #8]
 860 02a8 1B68     		ldr	r3, [r3]
 861 02aa 0022     		movs	r2, #0
 862 02ac DA63     		str	r2, [r3, #60]
 863 02ae 0DE0     		b	.L62
 864              	.L58:
 108:My_Top/Step_Motor/Step.cpp ****     HAL_TIM_PWM_Start(htim_, channel_); //ŚźĮŚä®PWMŤĺďŚáļŚíĆšł≠śĖ≠
 865              		.loc 1 108 5 discriminator 7 view .LVU193
 866 02b0 A368     		ldr	r3, [r4, #8]
 867 02b2 1B68     		ldr	r3, [r3]
 868 02b4 0022     		movs	r2, #0
 869 02b6 1A64     		str	r2, [r3, #64]
 870 02b8 08E0     		b	.L62
 871              	.L56:
 108:My_Top/Step_Motor/Step.cpp ****     HAL_TIM_PWM_Start(htim_, channel_); //ŚźĮŚä®PWMŤĺďŚáļŚíĆšł≠śĖ≠
 872              		.loc 1 108 5 discriminator 9 view .LVU194
 873 02ba A368     		ldr	r3, [r4, #8]
 874 02bc 1B68     		ldr	r3, [r3]
 875 02be 0022     		movs	r2, #0
 876 02c0 9A65     		str	r2, [r3, #88]
 877 02c2 03E0     		b	.L62
 878              	.L55:
 108:My_Top/Step_Motor/Step.cpp ****     HAL_TIM_PWM_Start(htim_, channel_); //ŚźĮŚä®PWMŤĺďŚáļŚíĆšł≠śĖ≠
 879              		.loc 1 108 5 discriminator 10 view .LVU195
 880 02c4 A368     		ldr	r3, [r4, #8]
 881 02c6 1B68     		ldr	r3, [r3]
 882 02c8 0022     		movs	r2, #0
 883 02ca DA65     		str	r2, [r3, #92]
 884              	.L62:
 109:My_Top/Step_Motor/Step.cpp ****     Set_Motor_EN(false);//ťĽėŤģ§ŚÖ≥ťó≠ÁĒĶśúļ
 885              		.loc 1 109 5 is_stmt 1 view .LVU196
 109:My_Top/Step_Motor/Step.cpp ****     Set_Motor_EN(false);//ťĽėŤģ§ŚÖ≥ťó≠ÁĒĶśúļ
 886              		.loc 1 109 22 is_stmt 0 view .LVU197
ARM GAS  /tmp/cc59Fz2V.s 			page 22


 887 02cc E168     		ldr	r1, [r4, #12]
 888 02ce A068     		ldr	r0, [r4, #8]
 889 02d0 FFF7FEFF 		bl	HAL_TIM_PWM_Start
 890              	.LVL79:
 110:My_Top/Step_Motor/Step.cpp ****     HAL_TIM_Base_Start_IT(htim_); //ŚźĮŚä®Śģöśó∂Śô®ŚĎ®śúüšł≠śĖ≠ 
 891              		.loc 1 110 5 is_stmt 1 view .LVU198
 110:My_Top/Step_Motor/Step.cpp ****     HAL_TIM_Base_Start_IT(htim_); //ŚźĮŚä®Śģöśó∂Śô®ŚĎ®śúüšł≠śĖ≠ 
 892              		.loc 1 110 17 is_stmt 0 view .LVU199
 893 02d4 0021     		movs	r1, #0
 894 02d6 2000     		movs	r0, r4
 895 02d8 FFF7FEFF 		bl	_ZN10Step_Motor12Set_Motor_ENEb
 896              	.LVL80:
 111:My_Top/Step_Motor/Step.cpp ****     // ś†ĻśćģŚģěšĺčÁĽĎŚģöšłćŚźĆÁöĄŚģöśó∂Śô®ŚĎ®śúüÁĽďśĚüŚõěŤįÉ 
 897              		.loc 1 111 5 is_stmt 1 view .LVU200
 111:My_Top/Step_Motor/Step.cpp ****     // ś†ĻśćģŚģěšĺčÁĽĎŚģöšłćŚźĆÁöĄŚģöśó∂Śô®ŚĎ®śúüÁĽďśĚüŚõěŤįÉ 
 898              		.loc 1 111 26 is_stmt 0 view .LVU201
 899 02dc A068     		ldr	r0, [r4, #8]
 900 02de FFF7FEFF 		bl	HAL_TIM_Base_Start_IT
 901              	.LVL81:
 113:My_Top/Step_Motor/Step.cpp ****     if (this == &Motor_M2)  htim_->PeriodElapsedCallback = M2_Tim_Callback;
 902              		.loc 1 113 5 is_stmt 1 view .LVU202
 903 02e2 0A4B     		ldr	r3, .L67+4
 904 02e4 9C42     		cmp	r4, r3
 905 02e6 05D0     		beq	.L65
 906              	.L63:
 114:My_Top/Step_Motor/Step.cpp ****         
 907              		.loc 1 114 5 view .LVU203
 908 02e8 094B     		ldr	r3, .L67+8
 909 02ea 9C42     		cmp	r4, r3
 910 02ec 07D0     		beq	.L66
 911              	.L64:
 116:My_Top/Step_Motor/Step.cpp **** }
 912              		.loc 1 116 5 view .LVU204
 116:My_Top/Step_Motor/Step.cpp **** }
 913              		.loc 1 116 15 is_stmt 0 view .LVU205
 914 02ee 0123     		movs	r3, #1
 915 02f0 A377     		strb	r3, [r4, #30]
 916              		.loc 1 117 1 view .LVU206
 917              		@ sp needed
 918              	.LVL82:
 919              		.loc 1 117 1 view .LVU207
 920 02f2 10BD     		pop	{r4, pc}
 921              	.LVL83:
 922              	.L65:
 113:My_Top/Step_Motor/Step.cpp ****     if (this == &Motor_M2)  htim_->PeriodElapsedCallback = M2_Tim_Callback;
 923              		.loc 1 113 28 is_stmt 1 discriminator 1 view .LVU208
 924 02f4 A168     		ldr	r1, [r4, #8]
 113:My_Top/Step_Motor/Step.cpp ****     if (this == &Motor_M2)  htim_->PeriodElapsedCallback = M2_Tim_Callback;
 925              		.loc 1 113 57 is_stmt 0 discriminator 1 view .LVU209
 926 02f6 074B     		ldr	r3, .L67+12
 927 02f8 8422     		movs	r2, #132
 928 02fa 8B50     		str	r3, [r1, r2]
 929 02fc F4E7     		b	.L63
 930              	.L66:
 114:My_Top/Step_Motor/Step.cpp ****         
 931              		.loc 1 114 29 is_stmt 1 discriminator 1 view .LVU210
 932 02fe A168     		ldr	r1, [r4, #8]
ARM GAS  /tmp/cc59Fz2V.s 			page 23


 114:My_Top/Step_Motor/Step.cpp ****         
 933              		.loc 1 114 58 is_stmt 0 discriminator 1 view .LVU211
 934 0300 054B     		ldr	r3, .L67+16
 935 0302 8422     		movs	r2, #132
 936 0304 8B50     		str	r3, [r1, r2]
 937 0306 F2E7     		b	.L64
 938              	.L68:
 939              		.align	2
 940              	.L67:
 941 0308 88000000 		.word	.L57
 942 030c 00000000 		.word	.LANCHOR0
 943 0310 30000000 		.word	.LANCHOR0+48
 944 0314 00000000 		.word	_Z15M1_Tim_CallbackP19__TIM_HandleTypeDef
 945 0318 00000000 		.word	_Z15M2_Tim_CallbackP19__TIM_HandleTypeDef
 946              		.cfi_endproc
 947              	.LFE470:
 949              		.align	1
 950              		.syntax unified
 951              		.code	16
 952              		.thumb_func
 954              	_GLOBAL__sub_I_Motor_M1:
 955              	.LFB472:
 956              		.loc 1 117 1 is_stmt 1 view -0
 957              		.cfi_startproc
 958              		@ args = 0, pretend = 0, frame = 0
 959              		@ frame_needed = 0, uses_anonymous_args = 0
 960 031c 10B5     		push	{r4, lr}
 961              		.cfi_def_cfa_offset 8
 962              		.cfi_offset 4, -8
 963              		.cfi_offset 14, -4
 964              		.loc 1 117 1 is_stmt 0 view .LVU213
 965 031e FFF76FFE 		bl	_Z41__static_initialization_and_destruction_0v
 966              	.LVL84:
 967              		@ sp needed
 968 0322 10BD     		pop	{r4, pc}
 969              		.cfi_endproc
 970              	.LFE472:
 972              		.section	.init_array,"aw",%init_array
 973              		.align	2
 974 0000 00000000 		.word	_GLOBAL__sub_I_Motor_M1(target1)
 975              		.global	Motor_M2
 976              		.global	Motor_M1
 977              		.bss
 978              		.align	2
 979              		.set	.LANCHOR0,. + 0
 982              	Motor_M1:
 983 0000 00000000 		.space	48
 983      00000000 
 983      00000000 
 983      00000000 
 983      00000000 
 986              	Motor_M2:
 987 0030 00000000 		.space	48
 987      00000000 
 987      00000000 
 987      00000000 
 987      00000000 
ARM GAS  /tmp/cc59Fz2V.s 			page 24


 988              		.text
 989              	.Letext0:
 990              		.file 3 "/opt/arm-gnu-toolchain-14.2/arm-none-eabi/include/machine/_default_types.h"
 991              		.file 4 "/opt/arm-gnu-toolchain-14.2/arm-none-eabi/include/sys/_stdint.h"
 992              		.file 5 "Drivers/CMSIS/Device/ST/STM32G0xx/Include/stm32g071xx.h"
 993              		.file 6 "Drivers/STM32G0xx_HAL_Driver/Inc/stm32g0xx_hal_def.h"
 994              		.file 7 "Drivers/STM32G0xx_HAL_Driver/Inc/stm32g0xx_hal_gpio.h"
 995              		.file 8 "Drivers/STM32G0xx_HAL_Driver/Inc/stm32g0xx_hal_dma.h"
 996              		.file 9 "Drivers/STM32G0xx_HAL_Driver/Inc/stm32g0xx_hal_tim.h"
 997              		.file 10 "Drivers/STM32G0xx_HAL_Driver/Inc/stm32g0xx_hal.h"
 998              		.file 11 "Core/Inc/tim.h"
 999              		.file 12 "Drivers/STM32G0xx_HAL_Driver/Inc/stm32g0xx_ll_dma.h"
 1000              		.file 13 "Drivers/STM32G0xx_HAL_Driver/Inc/stm32g0xx_hal_rcc.h"
ARM GAS  /tmp/cc59Fz2V.s 			page 25


DEFINED SYMBOLS
                            *ABS*:00000000 Step.cpp
     /tmp/cc59Fz2V.s:18     .text:00000000 $t
     /tmp/cc59Fz2V.s:23     .text:00000000 _Z41__static_initialization_and_destruction_0v
     /tmp/cc59Fz2V.s:146    .text:00000078 $d
     /tmp/cc59Fz2V.s:154    .text:0000008c $t
     /tmp/cc59Fz2V.s:160    .text:0000008c _ZN10Step_Motor13Set_Motor_DTREb
     /tmp/cc59Fz2V.s:235    .text:000000b2 _ZN10Step_Motor12Set_Motor_ENEb
     /tmp/cc59Fz2V.s:334    .text:000000f0 _ZN10Step_Motor19Set_Motor_DutyCycleEf
     /tmp/cc59Fz2V.s:398    .rodata:00000000 $d
     /tmp/cc59Fz2V.s:467    .text:00000154 $d
     /tmp/cc59Fz2V.s:471    .text:00000158 $t
     /tmp/cc59Fz2V.s:477    .text:00000158 _ZN10Step_Motor19Set_Motor_FrequencyEf
     /tmp/cc59Fz2V.s:761    .text:00000254 $d
     /tmp/cc59Fz2V.s:767    .text:00000260 $t
     /tmp/cc59Fz2V.s:773    .text:00000260 _ZN10Step_Motor10Motor_InitEv
     /tmp/cc59Fz2V.s:941    .text:00000308 $d
     /tmp/cc59Fz2V.s:949    .text:0000031c $t
     /tmp/cc59Fz2V.s:954    .text:0000031c _GLOBAL__sub_I_Motor_M1
     /tmp/cc59Fz2V.s:973    .init_array:00000000 $d
     /tmp/cc59Fz2V.s:986    .bss:00000030 Motor_M2
     /tmp/cc59Fz2V.s:982    .bss:00000000 Motor_M1
     /tmp/cc59Fz2V.s:978    .bss:00000000 $d

UNDEFINED SYMBOLS
htim1
htim2
HAL_GPIO_WritePin
__aeabi_fcmpgt
__aeabi_ui2f
__aeabi_fmul
__aeabi_f2uiz
__aeabi_fcmplt
__aeabi_f2iz
__aeabi_uidiv
HAL_RCC_GetSysClockFreq
HAL_TIM_PWM_Start
HAL_TIM_Base_Start_IT
_Z15M1_Tim_CallbackP19__TIM_HandleTypeDef
_Z15M2_Tim_CallbackP19__TIM_HandleTypeDef
