ARM GAS  /tmp/ccNe6E36.s 			page 1


   1              		.cpu cortex-m0plus
   2              		.arch armv6s-m
   3              		.fpu softvfp
   4              		.eabi_attribute 20, 1
   5              		.eabi_attribute 21, 1
   6              		.eabi_attribute 23, 3
   7              		.eabi_attribute 24, 1
   8              		.eabi_attribute 25, 1
   9              		.eabi_attribute 26, 1
  10              		.eabi_attribute 30, 1
  11              		.eabi_attribute 34, 0
  12              		.eabi_attribute 18, 4
  13              		.file	"StepperMotor_Loop.cpp"
  14              		.text
  15              	.Ltext0:
  16              		.cfi_sections	.debug_frame
  17              		.file 1 "My_Top/Step_Motor/StepperMotor_Loop.cpp"
  18              		.section	.text._ZN13PID_Increment6updateEf,"axG",%progbits,_ZN13PID_Increment6updateEf,comdat
  19              		.align	1
  20              		.weak	_ZN13PID_Increment6updateEf
  21              		.syntax unified
  22              		.code	16
  23              		.thumb_func
  25              	_ZN13PID_Increment6updateEf:
  26              	.LVL0:
  27              	.LFB6:
  28              		.file 2 "My_Top/System/pid_Increment.hpp"
   1:My_Top/System/pid_Increment.hpp **** #pragma once
   2:My_Top/System/pid_Increment.hpp **** 
   3:My_Top/System/pid_Increment.hpp **** // ============================================================
   4:My_Top/System/pid_Increment.hpp **** // еҐЮйЗПеЉП PID жОІеИґеЩ®
   5:My_Top/System/pid_Increment.hpp **** //
   6:My_Top/System/pid_Increment.hpp **** // еЕђеЉП:
   7:My_Top/System/pid_Increment.hpp **** //   ќФu(k) = Kp * (e(k) - e(k-1))
   8:My_Top/System/pid_Increment.hpp **** //         + Ki * T * e(k)
   9:My_Top/System/pid_Increment.hpp **** //         + (Kd / T) * (e(k) - 2*e(k-1) + e(k-2))
  10:My_Top/System/pid_Increment.hpp **** //
  11:My_Top/System/pid_Increment.hpp **** //   u(k) = u(k-1) + ќФu(k)
  12:My_Top/System/pid_Increment.hpp **** //
  13:My_Top/System/pid_Increment.hpp **** // еЕґдЄ≠ T = dtпЉИйЗЗж†ЈеС®жЬЯпЉЙ
  14:My_Top/System/pid_Increment.hpp **** // ============================================================
  15:My_Top/System/pid_Increment.hpp **** 
  16:My_Top/System/pid_Increment.hpp **** typedef struct
  17:My_Top/System/pid_Increment.hpp **** {
  18:My_Top/System/pid_Increment.hpp ****     float kp;
  19:My_Top/System/pid_Increment.hpp ****     float ki;
  20:My_Top/System/pid_Increment.hpp ****     float kd;
  21:My_Top/System/pid_Increment.hpp ****     float dt;
  22:My_Top/System/pid_Increment.hpp ****     float max;
  23:My_Top/System/pid_Increment.hpp ****     float min;
  24:My_Top/System/pid_Increment.hpp **** } PID_IncParam;
  25:My_Top/System/pid_Increment.hpp **** 
  26:My_Top/System/pid_Increment.hpp **** class PID_Increment
  27:My_Top/System/pid_Increment.hpp **** {
  28:My_Top/System/pid_Increment.hpp **** public:
  29:My_Top/System/pid_Increment.hpp ****     float _kp, _ki, _kd;
  30:My_Top/System/pid_Increment.hpp ****     PID_Increment(void) //еЃЪдєЙжЧґжЧ†еПВзЪДжЮДйА†еЗљжХ∞ж†ЉеЉП
ARM GAS  /tmp/ccNe6E36.s 			page 2


  31:My_Top/System/pid_Increment.hpp ****     {
  32:My_Top/System/pid_Increment.hpp ****         _kp = _ki = _kd = _dt = 0.0f;
  33:My_Top/System/pid_Increment.hpp ****         _max = _min = 0.0f;
  34:My_Top/System/pid_Increment.hpp ****         _e_prev = _e_prev2 = 0.0f;
  35:My_Top/System/pid_Increment.hpp ****         _delta_u = 0.0f;
  36:My_Top/System/pid_Increment.hpp ****     }
  37:My_Top/System/pid_Increment.hpp **** 
  38:My_Top/System/pid_Increment.hpp ****     PID_Increment(float kp, float ki, float kd, float dt, float max, float min) //еЃЪдєЙжЧґеЄ¶еПВзЪ
  39:My_Top/System/pid_Increment.hpp ****     {
  40:My_Top/System/pid_Increment.hpp ****         _kp = kp;
  41:My_Top/System/pid_Increment.hpp ****         _ki = ki;
  42:My_Top/System/pid_Increment.hpp ****         _kd = kd;
  43:My_Top/System/pid_Increment.hpp ****         _dt = dt;
  44:My_Top/System/pid_Increment.hpp ****         _max = max;
  45:My_Top/System/pid_Increment.hpp ****         _min = min;
  46:My_Top/System/pid_Increment.hpp ****         _e_prev = _e_prev2 = 0.0f;
  47:My_Top/System/pid_Increment.hpp ****         _delta_u = 0.0f;
  48:My_Top/System/pid_Increment.hpp ****     }
  49:My_Top/System/pid_Increment.hpp **** 
  50:My_Top/System/pid_Increment.hpp ****     // ============================================================
  51:My_Top/System/pid_Increment.hpp ****     // ж†ЄењГжЫіжЦ∞еЗљжХ∞
  52:My_Top/System/pid_Increment.hpp ****     // @error: ељУеЙНиѓѓеЈЃ e(k)
  53:My_Top/System/pid_Increment.hpp ****     // @return: йЩРеєЕеРОзЪДиЊУеЗЇеАЉ u(k)
  54:My_Top/System/pid_Increment.hpp ****     // ============================================================
  55:My_Top/System/pid_Increment.hpp ****     float update(float error) 
  29              		.loc 2 55 11 view -0
  30              		.cfi_startproc
  31              		@ args = 0, pretend = 0, frame = 0
  32              		@ frame_needed = 0, uses_anonymous_args = 0
  33              		.loc 2 55 11 is_stmt 0 view .LVU1
  34 0000 F8B5     		push	{r3, r4, r5, r6, r7, lr}
  35              		.cfi_def_cfa_offset 24
  36              		.cfi_offset 3, -24
  37              		.cfi_offset 4, -20
  38              		.cfi_offset 5, -16
  39              		.cfi_offset 6, -12
  40              		.cfi_offset 7, -8
  41              		.cfi_offset 14, -4
  42 0002 CE46     		mov	lr, r9
  43 0004 4746     		mov	r7, r8
  44 0006 80B5     		push	{r7, lr}
  45              		.cfi_def_cfa_offset 32
  46              		.cfi_offset 8, -32
  47              		.cfi_offset 9, -28
  48 0008 0400     		movs	r4, r0
  49 000a 0D1C     		adds	r5, r1, #0
  56:My_Top/System/pid_Increment.hpp ****     {                         
  57:My_Top/System/pid_Increment.hpp ****         
  58:My_Top/System/pid_Increment.hpp ****         // ќФu = Kp * (e - e_prev) + Ki * T * e + (Kd / T) * (e - 2*e_prev + e_prev2)
  59:My_Top/System/pid_Increment.hpp ****         float p_term = _kp * (error - _e_prev);
  50              		.loc 2 59 9 is_stmt 1 view .LVU2
  51              		.loc 2 59 24 is_stmt 0 view .LVU3
  52 000c 0668     		ldr	r6, [r0]
  53              		.loc 2 59 39 view .LVU4
  54 000e 8769     		ldr	r7, [r0, #24]
  55              		.loc 2 59 37 view .LVU5
  56 0010 391C     		adds	r1, r7, #0
ARM GAS  /tmp/ccNe6E36.s 			page 3


  57              	.LVL1:
  58              		.loc 2 59 37 view .LVU6
  59 0012 281C     		adds	r0, r5, #0
  60              	.LVL2:
  61              		.loc 2 59 37 view .LVU7
  62 0014 FFF7FEFF 		bl	__aeabi_fsub
  63              	.LVL3:
  64 0018 011C     		adds	r1, r0, #0
  65              		.loc 2 59 15 view .LVU8
  66 001a 301C     		adds	r0, r6, #0
  67 001c FFF7FEFF 		bl	__aeabi_fmul
  68              	.LVL4:
  69 0020 8046     		mov	r8, r0
  70              	.LVL5:
  60:My_Top/System/pid_Increment.hpp ****         float i_term = _ki * _dt * error;
  71              		.loc 2 60 9 is_stmt 1 view .LVU9
  72              		.loc 2 60 24 is_stmt 0 view .LVU10
  73 0022 6068     		ldr	r0, [r4, #4]
  74              	.LVL6:
  75              		.loc 2 60 30 view .LVU11
  76 0024 E668     		ldr	r6, [r4, #12]
  77              		.loc 2 60 28 view .LVU12
  78 0026 311C     		adds	r1, r6, #0
  79 0028 FFF7FEFF 		bl	__aeabi_fmul
  80              	.LVL7:
  81              		.loc 2 60 15 view .LVU13
  82 002c 291C     		adds	r1, r5, #0
  83 002e FFF7FEFF 		bl	__aeabi_fmul
  84              	.LVL8:
  85 0032 8146     		mov	r9, r0
  86              	.LVL9:
  61:My_Top/System/pid_Increment.hpp ****         float d_term = (_kd / _dt) * (error - 2.0f * _e_prev + _e_prev2);
  87              		.loc 2 61 9 is_stmt 1 view .LVU14
  88              		.loc 2 61 25 is_stmt 0 view .LVU15
  89 0034 A068     		ldr	r0, [r4, #8]
  90              	.LVL10:
  91              		.loc 2 61 29 view .LVU16
  92 0036 311C     		adds	r1, r6, #0
  93 0038 FFF7FEFF 		bl	__aeabi_fdiv
  94              	.LVL11:
  95 003c 061C     		adds	r6, r0, #0
  96              		.loc 2 61 52 view .LVU17
  97 003e 391C     		adds	r1, r7, #0
  98 0040 381C     		adds	r0, r7, #0
  99 0042 FFF7FEFF 		bl	__aeabi_fadd
 100              	.LVL12:
 101 0046 011C     		adds	r1, r0, #0
 102              		.loc 2 61 45 view .LVU18
 103 0048 281C     		adds	r0, r5, #0
 104 004a FFF7FEFF 		bl	__aeabi_fsub
 105              	.LVL13:
 106              		.loc 2 61 64 view .LVU19
 107 004e E169     		ldr	r1, [r4, #28]
 108              		.loc 2 61 62 view .LVU20
 109 0050 FFF7FEFF 		bl	__aeabi_fadd
 110              	.LVL14:
 111 0054 011C     		adds	r1, r0, #0
ARM GAS  /tmp/ccNe6E36.s 			page 4


 112              		.loc 2 61 15 view .LVU21
 113 0056 301C     		adds	r0, r6, #0
 114 0058 FFF7FEFF 		bl	__aeabi_fmul
 115              	.LVL15:
 116 005c 061C     		adds	r6, r0, #0
 117              	.LVL16:
  62:My_Top/System/pid_Increment.hpp **** 
  63:My_Top/System/pid_Increment.hpp ****         _delta_u = p_term + i_term + d_term; // иЃ°зЃЧеҐЮйЗП
 118              		.loc 2 63 9 is_stmt 1 view .LVU22
 119              		.loc 2 63 27 is_stmt 0 view .LVU23
 120 005e 4946     		mov	r1, r9
 121 0060 4046     		mov	r0, r8
 122              	.LVL17:
 123              		.loc 2 63 27 view .LVU24
 124 0062 FFF7FEFF 		bl	__aeabi_fadd
 125              	.LVL18:
 126              		.loc 2 63 36 view .LVU25
 127 0066 311C     		adds	r1, r6, #0
 128 0068 FFF7FEFF 		bl	__aeabi_fadd
 129              	.LVL19:
 130 006c 061C     		adds	r6, r0, #0
 131              	.LVL20:
 132              		.loc 2 63 18 view .LVU26
 133 006e 2062     		str	r0, [r4, #32]
  64:My_Top/System/pid_Increment.hpp **** 
  65:My_Top/System/pid_Increment.hpp ****         // йЩРеєЕеҐЮйЗПиЊУеЗЇ
  66:My_Top/System/pid_Increment.hpp ****         if (_delta_u > _max)
 134              		.loc 2 66 9 is_stmt 1 view .LVU27
 135              		.loc 2 66 24 is_stmt 0 view .LVU28
 136 0070 2369     		ldr	r3, [r4, #16]
 137 0072 9846     		mov	r8, r3
 138              	.LVL21:
 139              		.loc 2 66 9 view .LVU29
 140 0074 191C     		adds	r1, r3, #0
 141 0076 FFF7FEFF 		bl	__aeabi_fcmpgt
 142              	.LVL22:
 143 007a 0028     		cmp	r0, #0
 144 007c 08D0     		beq	.L8
  67:My_Top/System/pid_Increment.hpp ****             _delta_u = _max;
 145              		.loc 2 67 13 is_stmt 1 view .LVU30
 146              		.loc 2 67 22 is_stmt 0 view .LVU31
 147 007e 4346     		mov	r3, r8
 148 0080 2362     		str	r3, [r4, #32]
 149              	.L4:
  68:My_Top/System/pid_Increment.hpp ****         else if (_delta_u < _min)
  69:My_Top/System/pid_Increment.hpp ****             _delta_u = _min;
  70:My_Top/System/pid_Increment.hpp **** 
  71:My_Top/System/pid_Increment.hpp ****         // жЫіжЦ∞иѓѓеЈЃеОЖеП≤
  72:My_Top/System/pid_Increment.hpp ****         _e_prev2 = _e_prev; //жЫіжЦ∞дЄКдЄКжђ°иѓѓеЈЃ
 150              		.loc 2 72 9 is_stmt 1 view .LVU32
 151              		.loc 2 72 18 is_stmt 0 view .LVU33
 152 0082 E761     		str	r7, [r4, #28]
  73:My_Top/System/pid_Increment.hpp ****         _e_prev  = error; //жЫіжЦ∞дЄКдЄАжђ°иѓѓеЈЃ
 153              		.loc 2 73 9 is_stmt 1 view .LVU34
 154              		.loc 2 73 18 is_stmt 0 view .LVU35
 155 0084 A561     		str	r5, [r4, #24]
  74:My_Top/System/pid_Increment.hpp **** 
ARM GAS  /tmp/ccNe6E36.s 			page 5


  75:My_Top/System/pid_Increment.hpp ****         return _delta_u; // ињФеЫЮеҐЮйЗПиЊУеЗЇ
 156              		.loc 2 75 9 is_stmt 1 view .LVU36
 157              		.loc 2 75 16 is_stmt 0 discriminator 1 view .LVU37
 158 0086 206A     		ldr	r0, [r4, #32]
  76:My_Top/System/pid_Increment.hpp ****     }
 159              		.loc 2 76 5 view .LVU38
 160              		@ sp needed
 161              	.LVL23:
 162              	.LVL24:
 163              	.LVL25:
 164              		.loc 2 76 5 view .LVU39
 165 0088 C0BC     		pop	{r6, r7}
 166 008a B946     		mov	r9, r7
 167 008c B046     		mov	r8, r6
 168 008e F8BD     		pop	{r3, r4, r5, r6, r7, pc}
 169              	.LVL26:
 170              	.L8:
  68:My_Top/System/pid_Increment.hpp ****             _delta_u = _min;
 171              		.loc 2 68 14 is_stmt 1 view .LVU40
  68:My_Top/System/pid_Increment.hpp ****             _delta_u = _min;
 172              		.loc 2 68 29 is_stmt 0 view .LVU41
 173 0090 6369     		ldr	r3, [r4, #20]
 174 0092 9846     		mov	r8, r3
  68:My_Top/System/pid_Increment.hpp ****             _delta_u = _min;
 175              		.loc 2 68 14 view .LVU42
 176 0094 191C     		adds	r1, r3, #0
 177 0096 301C     		adds	r0, r6, #0
 178 0098 FFF7FEFF 		bl	__aeabi_fcmplt
 179              	.LVL27:
 180 009c 0028     		cmp	r0, #0
 181 009e F0D0     		beq	.L4
  69:My_Top/System/pid_Increment.hpp **** 
 182              		.loc 2 69 13 is_stmt 1 view .LVU43
  69:My_Top/System/pid_Increment.hpp **** 
 183              		.loc 2 69 22 is_stmt 0 view .LVU44
 184 00a0 4346     		mov	r3, r8
 185 00a2 2362     		str	r3, [r4, #32]
 186 00a4 EDE7     		b	.L4
 187              		.cfi_endproc
 188              	.LFE6:
 190              		.section	.text._ZN12StepperMotorC2EP10Step_MotorP7KTH7111ffffffbP12GPIO_TypeDeft,"axG",%progbits,_
 191              		.align	1
 192              		.weak	_ZN12StepperMotorC2EP10Step_MotorP7KTH7111ffffffbP12GPIO_TypeDeft
 193              		.syntax unified
 194              		.code	16
 195              		.thumb_func
 197              	_ZN12StepperMotorC2EP10Step_MotorP7KTH7111ffffffbP12GPIO_TypeDeft:
 198              	.LVL28:
 199              	.LFB1464:
 200              		.file 3 "My_Top/Step_Motor/StepperMotor_Loop.hpp"
   1:My_Top/Step_Motor/StepperMotor_Loop.hpp **** #pragma once
   2:My_Top/Step_Motor/StepperMotor_Loop.hpp **** #include "pid_Increment.hpp"
   3:My_Top/Step_Motor/StepperMotor_Loop.hpp **** #include "ADRC.hpp"
   4:My_Top/Step_Motor/StepperMotor_Loop.hpp **** #include "pll.hpp"
   5:My_Top/Step_Motor/StepperMotor_Loop.hpp **** #include "kth_read.hpp"
   6:My_Top/Step_Motor/StepperMotor_Loop.hpp **** #include "ex_math.hpp"
   7:My_Top/Step_Motor/StepperMotor_Loop.hpp **** #include "Step.hpp" 
ARM GAS  /tmp/ccNe6E36.s 			page 6


   8:My_Top/Step_Motor/StepperMotor_Loop.hpp **** 
   9:My_Top/Step_Motor/StepperMotor_Loop.hpp **** #include "BL24C16F.hpp" //EEPROM
  10:My_Top/Step_Motor/StepperMotor_Loop.hpp **** 
  11:My_Top/Step_Motor/StepperMotor_Loop.hpp **** enum Work_Mode
  12:My_Top/Step_Motor/StepperMotor_Loop.hpp **** {
  13:My_Top/Step_Motor/StepperMotor_Loop.hpp ****     speed = 0,//йАЯеЇ¶ж®°еЉП
  14:My_Top/Step_Motor/StepperMotor_Loop.hpp ****     position = 1,//дљНзљЃж®°еЉП
  15:My_Top/Step_Motor/StepperMotor_Loop.hpp ****     None_Mode = 2,// жЧ†ж®°еЉП
  16:My_Top/Step_Motor/StepperMotor_Loop.hpp **** };
  17:My_Top/Step_Motor/StepperMotor_Loop.hpp **** 
  18:My_Top/Step_Motor/StepperMotor_Loop.hpp **** 
  19:My_Top/Step_Motor/StepperMotor_Loop.hpp **** class StepperMotor
  20:My_Top/Step_Motor/StepperMotor_Loop.hpp **** {
  21:My_Top/Step_Motor/StepperMotor_Loop.hpp **** public:
  22:My_Top/Step_Motor/StepperMotor_Loop.hpp ****     StepperMotor(Step_Motor *motor, KTH7111 *encoder,
 201              		.loc 3 22 5 is_stmt 1 view -0
 202              		.cfi_startproc
 203              		@ args = 32, pretend = 0, frame = 0
 204              		@ frame_needed = 0, uses_anonymous_args = 0
 205              		.loc 3 22 5 is_stmt 0 view .LVU46
 206 0000 F0B5     		push	{r4, r5, r6, r7, lr}
 207              		.cfi_def_cfa_offset 20
 208              		.cfi_offset 4, -20
 209              		.cfi_offset 5, -16
 210              		.cfi_offset 6, -12
 211              		.cfi_offset 7, -8
 212              		.cfi_offset 14, -4
 213 0002 C646     		mov	lr, r8
 214 0004 00B5     		push	{lr}
 215              		.cfi_def_cfa_offset 24
 216              		.cfi_offset 8, -24
 217 0006 9846     		mov	r8, r3
 218 0008 0BAC     		add	r4, sp, #44
 219              	.LVL29:
 220              		.loc 3 22 5 view .LVU47
 221 000a 2478     		ldrb	r4, [r4]
 222              	.LVL30:
 223              		.loc 3 22 5 view .LVU48
 224 000c A446     		mov	ip, r4
 225 000e 0DAC     		add	r4, sp, #52
 226              	.LVL31:
 227              		.loc 3 22 5 view .LVU49
 228 0010 2688     		ldrh	r6, [r4]
 229              	.LBB18:
  23:My_Top/Step_Motor/StepperMotor_Loop.hpp ****                 float skp, float ski, float skd,
  24:My_Top/Step_Motor/StepperMotor_Loop.hpp ****                 float pkp, float pki, float pkd, bool dir,
  25:My_Top/Step_Motor/StepperMotor_Loop.hpp ****                 GPIO_TypeDef* MS_FULL_PORT, uint16_t MS_FULL_PIN)
  26:My_Top/Step_Motor/StepperMotor_Loop.hpp ****         : _motor(motor), _encoder(encoder),
  27:My_Top/Step_Motor/StepperMotor_Loop.hpp ****         pid_speed(skp, ski, skd, 1.0/Stepper_VELOCITY_LOOP_FREQ_HZ, 200.0f, -200.0f),
  28:My_Top/Step_Motor/StepperMotor_Loop.hpp ****         pid_location(pkp, pki, pkd, 1.0/Stepper_POSITION_LOOP_FREQ_HZ, 6.0f, -6.0f),
  29:My_Top/Step_Motor/StepperMotor_Loop.hpp ****         motor_encoder_dir(dir),MS_FULL_PORT_(MS_FULL_PORT), MS_FULL_PIN_(MS_FULL_PIN)
 230              		.loc 3 29 85 view .LVU50
 231 0012 0224     		movs	r4, #2
 232              	.LVL32:
 233              		.loc 3 29 85 view .LVU51
 234 0014 0470     		strb	r4, [r0]
 235 0016 0025     		movs	r5, #0
ARM GAS  /tmp/ccNe6E36.s 			page 7


 236 0018 4570     		strb	r5, [r0, #1]
 237 001a 8570     		strb	r5, [r0, #2]
 238 001c 0024     		movs	r4, #0
 239 001e 4460     		str	r4, [r0, #4]
 240 0020 8460     		str	r4, [r0, #8]
 241 0022 C460     		str	r4, [r0, #12]
 242 0024 0461     		str	r4, [r0, #16]
 243 0026 4461     		str	r4, [r0, #20]
 244 0028 8461     		str	r4, [r0, #24]
 245 002a C461     		str	r4, [r0, #28]
 246 002c 0462     		str	r4, [r0, #32]
 247 002e 4462     		str	r4, [r0, #36]
 248 0030 8462     		str	r4, [r0, #40]
 249 0032 C462     		str	r4, [r0, #44]
 250 0034 0463     		str	r4, [r0, #48]
 251 0036 4463     		str	r4, [r0, #52]
 252              		.loc 3 29 9 view .LVU52
 253 0038 3827     		movs	r7, #56
 254 003a 6346     		mov	r3, ip
 255              	.LVL33:
 256              		.loc 3 29 9 view .LVU53
 257 003c C355     		strb	r3, [r0, r7]
 258              		.loc 3 29 85 view .LVU54
 259 003e FE27     		movs	r7, #254
 260 0040 BF05     		lsls	r7, r7, #22
 261 0042 C763     		str	r7, [r0, #60]
 262 0044 0464     		str	r4, [r0, #64]
 263 0046 4464     		str	r4, [r0, #68]
 264 0048 8464     		str	r4, [r0, #72]
 265 004a C464     		str	r4, [r0, #76]
 266 004c 0565     		str	r5, [r0, #80]
 267 004e 5427     		movs	r7, #84
 268 0050 C553     		strh	r5, [r0, r7]
 269 0052 8465     		str	r4, [r0, #88]
  26:My_Top/Step_Motor/StepperMotor_Loop.hpp ****         pid_speed(skp, ski, skd, 1.0/Stepper_VELOCITY_LOOP_FREQ_HZ, 200.0f, -200.0f),
 270              		.loc 3 26 11 view .LVU55
 271 0054 C165     		str	r1, [r0, #92]
 272              	.LVL34:
 273              	.LBB19:
 274              	.LBI19:
  38:My_Top/System/pid_Increment.hpp ****     {
 275              		.loc 2 38 5 is_stmt 1 view .LVU56
 276              	.LBB20:
 277              	.LBB21:
  40:My_Top/System/pid_Increment.hpp ****         _ki = ki;
 278              		.loc 2 40 9 view .LVU57
  40:My_Top/System/pid_Increment.hpp ****         _ki = ki;
 279              		.loc 2 40 13 is_stmt 0 view .LVU58
 280 0056 4346     		mov	r3, r8
 281 0058 0366     		str	r3, [r0, #96]
  41:My_Top/System/pid_Increment.hpp ****         _kd = kd;
 282              		.loc 2 41 9 is_stmt 1 view .LVU59
  41:My_Top/System/pid_Increment.hpp ****         _kd = kd;
 283              		.loc 2 41 13 is_stmt 0 view .LVU60
 284 005a 069B     		ldr	r3, [sp, #24]
 285 005c 4366     		str	r3, [r0, #100]
  42:My_Top/System/pid_Increment.hpp ****         _dt = dt;
ARM GAS  /tmp/ccNe6E36.s 			page 8


 286              		.loc 2 42 9 is_stmt 1 view .LVU61
  42:My_Top/System/pid_Increment.hpp ****         _dt = dt;
 287              		.loc 2 42 13 is_stmt 0 view .LVU62
 288 005e 079B     		ldr	r3, [sp, #28]
 289 0060 8366     		str	r3, [r0, #104]
  43:My_Top/System/pid_Increment.hpp ****         _max = max;
 290              		.loc 2 43 9 is_stmt 1 view .LVU63
  43:My_Top/System/pid_Increment.hpp ****         _max = max;
 291              		.loc 2 43 13 is_stmt 0 view .LVU64
 292 0062 1549     		ldr	r1, .L10
 293              	.LVL35:
  43:My_Top/System/pid_Increment.hpp ****         _max = max;
 294              		.loc 2 43 13 view .LVU65
 295 0064 C166     		str	r1, [r0, #108]
  44:My_Top/System/pid_Increment.hpp ****         _min = min;
 296              		.loc 2 44 9 is_stmt 1 view .LVU66
  44:My_Top/System/pid_Increment.hpp ****         _min = min;
 297              		.loc 2 44 14 is_stmt 0 view .LVU67
 298 0066 154B     		ldr	r3, .L10+4
 299 0068 0367     		str	r3, [r0, #112]
  45:My_Top/System/pid_Increment.hpp ****         _e_prev = _e_prev2 = 0.0f;
 300              		.loc 2 45 9 is_stmt 1 view .LVU68
  45:My_Top/System/pid_Increment.hpp ****         _e_prev = _e_prev2 = 0.0f;
 301              		.loc 2 45 14 is_stmt 0 view .LVU69
 302 006a 154B     		ldr	r3, .L10+8
 303 006c 4367     		str	r3, [r0, #116]
  46:My_Top/System/pid_Increment.hpp ****         _delta_u = 0.0f;
 304              		.loc 2 46 9 is_stmt 1 view .LVU70
  46:My_Top/System/pid_Increment.hpp ****         _delta_u = 0.0f;
 305              		.loc 2 46 28 is_stmt 0 view .LVU71
 306 006e C467     		str	r4, [r0, #124]
  46:My_Top/System/pid_Increment.hpp ****         _delta_u = 0.0f;
 307              		.loc 2 46 17 view .LVU72
 308 0070 8467     		str	r4, [r0, #120]
  47:My_Top/System/pid_Increment.hpp ****     }
 309              		.loc 2 47 9 is_stmt 1 view .LVU73
  47:My_Top/System/pid_Increment.hpp ****     }
 310              		.loc 2 47 18 is_stmt 0 view .LVU74
 311 0072 8023     		movs	r3, #128
 312 0074 C450     		str	r4, [r0, r3]
 313              	.LVL36:
  47:My_Top/System/pid_Increment.hpp ****     }
 314              		.loc 2 47 18 view .LVU75
 315              	.LBE21:
 316              	.LBE20:
 317              	.LBE19:
 318              	.LBB22:
 319              	.LBI22:
  38:My_Top/System/pid_Increment.hpp ****     {
 320              		.loc 2 38 5 is_stmt 1 view .LVU76
 321              	.LBB23:
 322              	.LBB24:
  40:My_Top/System/pid_Increment.hpp ****         _ki = ki;
 323              		.loc 2 40 9 view .LVU77
  40:My_Top/System/pid_Increment.hpp ****         _ki = ki;
 324              		.loc 2 40 13 is_stmt 0 view .LVU78
 325 0076 0433     		adds	r3, r3, #4
ARM GAS  /tmp/ccNe6E36.s 			page 9


 326 0078 089F     		ldr	r7, [sp, #32]
 327 007a C750     		str	r7, [r0, r3]
  41:My_Top/System/pid_Increment.hpp ****         _kd = kd;
 328              		.loc 2 41 9 is_stmt 1 view .LVU79
  41:My_Top/System/pid_Increment.hpp ****         _kd = kd;
 329              		.loc 2 41 13 is_stmt 0 view .LVU80
 330 007c 0300     		movs	r3, r0
 331 007e 8433     		adds	r3, r3, #132
 332              	.LVL37:
  41:My_Top/System/pid_Increment.hpp ****         _kd = kd;
 333              		.loc 2 41 13 view .LVU81
 334 0080 099F     		ldr	r7, [sp, #36]
 335 0082 5F60     		str	r7, [r3, #4]
  42:My_Top/System/pid_Increment.hpp ****         _dt = dt;
 336              		.loc 2 42 9 is_stmt 1 view .LVU82
  42:My_Top/System/pid_Increment.hpp ****         _dt = dt;
 337              		.loc 2 42 13 is_stmt 0 view .LVU83
 338 0084 0A9F     		ldr	r7, [sp, #40]
 339 0086 9F60     		str	r7, [r3, #8]
  43:My_Top/System/pid_Increment.hpp ****         _max = max;
 340              		.loc 2 43 9 is_stmt 1 view .LVU84
  43:My_Top/System/pid_Increment.hpp ****         _max = max;
 341              		.loc 2 43 13 is_stmt 0 view .LVU85
 342 0088 D960     		str	r1, [r3, #12]
  44:My_Top/System/pid_Increment.hpp ****         _min = min;
 343              		.loc 2 44 9 is_stmt 1 view .LVU86
  44:My_Top/System/pid_Increment.hpp ****         _min = min;
 344              		.loc 2 44 14 is_stmt 0 view .LVU87
 345 008a 0E49     		ldr	r1, .L10+12
 346 008c 1961     		str	r1, [r3, #16]
  45:My_Top/System/pid_Increment.hpp ****         _e_prev = _e_prev2 = 0.0f;
 347              		.loc 2 45 9 is_stmt 1 view .LVU88
  45:My_Top/System/pid_Increment.hpp ****         _e_prev = _e_prev2 = 0.0f;
 348              		.loc 2 45 14 is_stmt 0 view .LVU89
 349 008e 0E49     		ldr	r1, .L10+16
 350 0090 5961     		str	r1, [r3, #20]
  46:My_Top/System/pid_Increment.hpp ****         _delta_u = 0.0f;
 351              		.loc 2 46 9 is_stmt 1 view .LVU90
  46:My_Top/System/pid_Increment.hpp ****         _delta_u = 0.0f;
 352              		.loc 2 46 28 is_stmt 0 view .LVU91
 353 0092 DC61     		str	r4, [r3, #28]
  46:My_Top/System/pid_Increment.hpp ****         _delta_u = 0.0f;
 354              		.loc 2 46 17 view .LVU92
 355 0094 9C61     		str	r4, [r3, #24]
  47:My_Top/System/pid_Increment.hpp ****     }
 356              		.loc 2 47 9 is_stmt 1 view .LVU93
  47:My_Top/System/pid_Increment.hpp ****     }
 357              		.loc 2 47 18 is_stmt 0 view .LVU94
 358 0096 1C62     		str	r4, [r3, #32]
 359              	.LVL38:
  47:My_Top/System/pid_Increment.hpp ****     }
 360              		.loc 2 47 18 view .LVU95
 361              	.LBE24:
 362              	.LBE23:
 363              	.LBE22:
  26:My_Top/Step_Motor/StepperMotor_Loop.hpp ****         pid_speed(skp, ski, skd, 1.0/Stepper_VELOCITY_LOOP_FREQ_HZ, 200.0f, -200.0f),
 364              		.loc 3 26 26 view .LVU96
ARM GAS  /tmp/ccNe6E36.s 			page 10


 365 0098 D423     		movs	r3, #212
 366 009a C250     		str	r2, [r0, r3]
 367              		.loc 3 29 32 view .LVU97
 368 009c 0433     		adds	r3, r3, #4
 369 009e 0C9A     		ldr	r2, [sp, #48]
 370              	.LVL39:
 371              		.loc 3 29 32 view .LVU98
 372 00a0 C250     		str	r2, [r0, r3]
 373              		.loc 3 29 61 view .LVU99
 374 00a2 0433     		adds	r3, r3, #4
 375 00a4 C652     		strh	r6, [r0, r3]
 376              		.loc 3 29 85 view .LVU100
 377 00a6 0233     		adds	r3, r3, #2
 378 00a8 FF22     		movs	r2, #255
 379 00aa C252     		strh	r2, [r0, r3]
 380 00ac 0233     		adds	r3, r3, #2
 381 00ae C550     		str	r5, [r0, r3]
 382              	.LBE18:
  30:My_Top/Step_Motor/StepperMotor_Loop.hpp ****         {}
 383              		.loc 3 30 10 view .LVU101
 384              		@ sp needed
 385              	.LVL40:
 386              		.loc 3 30 10 view .LVU102
 387 00b0 80BC     		pop	{r7}
 388 00b2 B846     		mov	r8, r7
 389 00b4 F0BD     		pop	{r4, r5, r6, r7, pc}
 390              	.L11:
 391 00b6 C046     		.align	2
 392              	.L10:
 393 00b8 6F128339 		.word	964891247
 394 00bc 00004843 		.word	1128792064
 395 00c0 000048C3 		.word	-1018691584
 396 00c4 0000C040 		.word	1086324736
 397 00c8 0000C0C0 		.word	-1061158912
 398              		.cfi_endproc
 399              	.LFE1464:
 401              		.weak	_ZN12StepperMotorC1EP10Step_MotorP7KTH7111ffffffbP12GPIO_TypeDeft
 402              		.thumb_set _ZN12StepperMotorC1EP10Step_MotorP7KTH7111ffffffbP12GPIO_TypeDeft,_ZN12StepperMotorC2EP
 403              		.text
 404              		.align	1
 405              		.syntax unified
 406              		.code	16
 407              		.thumb_func
 409              	_Z41__static_initialization_and_destruction_0v:
 410              	.LFB1622:
   1:My_Top/Step_Motor/StepperMotor_Loop.cpp **** #include "StepperMotor_Loop.hpp"
   2:My_Top/Step_Motor/StepperMotor_Loop.cpp **** 
   3:My_Top/Step_Motor/StepperMotor_Loop.cpp **** PLL_Parameter pll_conf(FOC_PLL_KP, FOC_PLL_KI);
   4:My_Top/Step_Motor/StepperMotor_Loop.cpp **** 
   5:My_Top/Step_Motor/StepperMotor_Loop.cpp **** KTH7111 kth7111_A(KTH7111_hspi1, SP1_CS_PORT, SP1_CS_PIN); //зЉЦз†БеЩ®еѓєи±°пЉМдљњзФ®SPIйАЪдњ°пЉМжМ
   6:My_Top/Step_Motor/StepperMotor_Loop.cpp **** KTH7111 kth7111_B(KTH7111_hspi2, SP2_CS_PORT, SP2_CS_PIN); //зЉЦз†БеЩ®еѓєи±°пЉМдљњзФ®SPIйАЪдњ°пЉМжМ
   7:My_Top/Step_Motor/StepperMotor_Loop.cpp **** 
   8:My_Top/Step_Motor/StepperMotor_Loop.cpp **** 
   9:My_Top/Step_Motor/StepperMotor_Loop.cpp **** StepperMotor M1(&Motor_M1, &kth7111_A, 1.0f,0.5f,0.1f,  1.0f,0.0f,0.0f,true,M1_MS1_GPIO_Port, M1_MS
  10:My_Top/Step_Motor/StepperMotor_Loop.cpp **** StepperMotor M2(&Motor_M2, &kth7111_B, 1.0f,0.5f,0.1f,  1.0f,0.0f,0.0f,true,M2_MS1_GPIO_Port, M2_MS
  11:My_Top/Step_Motor/StepperMotor_Loop.cpp **** 
  12:My_Top/Step_Motor/StepperMotor_Loop.cpp **** // StepperMotor M1(&Motor_M2, &kth7111_B, 1.0f,0.5f,0.1f,  1.0f,0.0f,0.0f,true,M2_MS1_GPIO_Port, M2
ARM GAS  /tmp/ccNe6E36.s 			page 11


  13:My_Top/Step_Motor/StepperMotor_Loop.cpp **** // StepperMotor M2(&Motor_M1, &kth7111_A, 1.0f,0.5f,0.1f,  1.0f,0.0f,0.0f,true,M1_MS1_GPIO_Port, M1
  14:My_Top/Step_Motor/StepperMotor_Loop.cpp **** 
  15:My_Top/Step_Motor/StepperMotor_Loop.cpp **** 
  16:My_Top/Step_Motor/StepperMotor_Loop.cpp **** 
  17:My_Top/Step_Motor/StepperMotor_Loop.cpp **** void StepperMotor:: My_Stepper_Init()
  18:My_Top/Step_Motor/StepperMotor_Loop.cpp **** {
  19:My_Top/Step_Motor/StepperMotor_Loop.cpp ****     
  20:My_Top/Step_Motor/StepperMotor_Loop.cpp ****     LPFAndPLL = false;//йїШиЃ§дљњзФ®дљОйАЪжї§ж≥ҐиІТеЇ¶
  21:My_Top/Step_Motor/StepperMotor_Loop.cpp ****     speed_lpf.init(0.7); //еИЭеІЛеМЦйАЯеЇ¶дљОйАЪжї§ж≥ҐеЩ®
  22:My_Top/Step_Motor/StepperMotor_Loop.cpp ****     error_lpf.init(0.7); //еИЭеІЛеМЦиѓѓеЈЃдљОйАЪжї§ж≥ҐеЩ®
  23:My_Top/Step_Motor/StepperMotor_Loop.cpp ****     speed_avg.init(5); //еИЭеІЛеМЦйАЯеЇ¶еє≥еЭЗеАЉжї§ж≥ҐеЩ®
  24:My_Top/Step_Motor/StepperMotor_Loop.cpp ****     _encoder->KTH7111_Init(motor_encoder_dir); //еИЭеІЛеМЦзЉЦз†БеЩ® 
  25:My_Top/Step_Motor/StepperMotor_Loop.cpp ****     _motor->Motor_Init(); //еИЭеІЛеМЦзФµжЬЇ
  26:My_Top/Step_Motor/StepperMotor_Loop.cpp ****     HAL_GPIO_WritePin(MS_FULL_PORT_, MS_FULL_PIN_, MS_FULL ? GPIO_PIN_RESET : GPIO_PIN_SET);
  27:My_Top/Step_Motor/StepperMotor_Loop.cpp ****     motor_fre = 0;
  28:My_Top/Step_Motor/StepperMotor_Loop.cpp ****     control_init_flag = true;
  29:My_Top/Step_Motor/StepperMotor_Loop.cpp **** }
  30:My_Top/Step_Motor/StepperMotor_Loop.cpp **** 
  31:My_Top/Step_Motor/StepperMotor_Loop.cpp **** /**
  32:My_Top/Step_Motor/StepperMotor_Loop.cpp ****  * @brief жЫіжЦ∞дљОйАЪжї§ж≥ҐиІТеЇ¶жИЦйФБзЫЄзОѓиІТеЇ¶
  33:My_Top/Step_Motor/StepperMotor_Loop.cpp ****  * иѓ•еЗљжХ∞зФ®дЇОж†єжНЃйЕНзљЃйАЙжЛ©дљњзФ®дљОйАЪжї§ж≥ҐжИЦйФБзЫЄзОѓ(PLL)жЦєеЉПжЭ•жЫіжЦ∞зФµжЬЇиІТеЇ¶е
  34:My_Top/Step_Motor/StepperMotor_Loop.cpp ****  */
  35:My_Top/Step_Motor/StepperMotor_Loop.cpp **** void StepperMotor::Update_Speed_Angle_LPFAndPLL() //жЫіжЦ∞дљОйАЪжї§ж≥ҐиІТеЇ¶жИЦйФБзЫЄзОѓиІТеЇ¶
  36:My_Top/Step_Motor/StepperMotor_Loop.cpp **** {
  37:My_Top/Step_Motor/StepperMotor_Loop.cpp ****     // йЭЩжАБеПШйЗПпЉМзФ®дЇОдЄіжЧґе≠ШеВ®иІТеЇ¶еАЉеТМдЄКдЄАжђ°зЪДиІТеЇ¶еАЉ
  38:My_Top/Step_Motor/StepperMotor_Loop.cpp ****     static float fudu_test = 0.0f;
  39:My_Top/Step_Motor/StepperMotor_Loop.cpp ****     static float theta_m_offic_temp = 0.0;
  40:My_Top/Step_Motor/StepperMotor_Loop.cpp **** 
  41:My_Top/Step_Motor/StepperMotor_Loop.cpp ****     _encoder->KTH7111_Send_JIAO_CMD();//еПСйАБиІТеЇ¶жМЗдї§
  42:My_Top/Step_Motor/StepperMotor_Loop.cpp ****     fudu_test = _encoder->Get_KTH7111_Radian();//иОЈеПЦзЉЦз†БеЩ®иІТеЇ¶
  43:My_Top/Step_Motor/StepperMotor_Loop.cpp **** 
  44:My_Top/Step_Motor/StepperMotor_Loop.cpp ****     theta_m = fudu_test; // иОЈеПЦеОЯеІЛжЬЇжҐ∞иІТеЇ¶ еЉІеЇ¶
  45:My_Top/Step_Motor/StepperMotor_Loop.cpp ****     
  46:My_Top/Step_Motor/StepperMotor_Loop.cpp ****     if (LPFAndPLL == false) //дљОйАЪжї§ж≥ҐиІТеЇ¶
  47:My_Top/Step_Motor/StepperMotor_Loop.cpp ****     {
  48:My_Top/Step_Motor/StepperMotor_Loop.cpp ****       theta_m = wrap_to_PI(theta_m);
  49:My_Top/Step_Motor/StepperMotor_Loop.cpp ****       //жЦєеЉП1 дљОйАЪжї§ж≥Ґ жЫіжЦ∞жЬЇжҐ∞иІТеЇ¶йАЯеЇ¶
  50:My_Top/Step_Motor/StepperMotor_Loop.cpp ****       theta_m_offic_temp = theta_m - theta_m_last;
  51:My_Top/Step_Motor/StepperMotor_Loop.cpp ****       theta_m_last = theta_m; // жЫіжЦ∞дЄКдЄАжђ°зЪДжЬЇжҐ∞иІТеЇ¶
  52:My_Top/Step_Motor/StepperMotor_Loop.cpp ****       theta_m_offic = wrap_to_PI(theta_m_offic_temp);// е∞ЖеЈЃеАЉиІДжХіеИ∞ [-PI, PI) еМЇйЧі
  53:My_Top/Step_Motor/StepperMotor_Loop.cpp **** 
  54:My_Top/Step_Motor/StepperMotor_Loop.cpp ****       theta_m_offic_filtered = error_lpf.filter(theta_m_offic);//еѓєиѓѓеЈЃиІТеЇ¶дљОйАЪжї§ж≥Ґ
  55:My_Top/Step_Motor/StepperMotor_Loop.cpp ****       theta_m_speed = theta_m_offic_filtered*Stepper_VELOCITY_LOOP_FREQ_HZ;//speed=иЈѓз®Л/t 
  56:My_Top/Step_Motor/StepperMotor_Loop.cpp ****       theta_av_speed = speed_avg.filter(theta_m_speed);//еѓєйАЯеЇ¶ињЫи°Меє≥еЭЗеАЉжї§ж≥Ґ
  57:My_Top/Step_Motor/StepperMotor_Loop.cpp ****       filtered_speed = speed_lpf.filter(theta_av_speed);//еѓєйАЯеЇ¶ињЫи°МдљОйАЪжї§ж≥Ґ
  58:My_Top/Step_Motor/StepperMotor_Loop.cpp ****       reg_final = theta_m; //е∞ЖжЬЇжҐ∞иІТеЇ¶иµЛеАЉзїЩжЬАзїИиІТеЇ¶
  59:My_Top/Step_Motor/StepperMotor_Loop.cpp ****       theta_deg_final = rad2deg(reg_final); //е∞ЖеЉІеЇ¶иљђжНҐдЄЇ360еЇ¶
  60:My_Top/Step_Motor/StepperMotor_Loop.cpp ****       Angular_velocity_final = filtered_speed;  //е∞ЖжЬАзїИйАЯеЇ¶иµЛеАЉзїЩжЬАзїИиІТйАЯеЇ¶
  61:My_Top/Step_Motor/StepperMotor_Loop.cpp ****       
  62:My_Top/Step_Motor/StepperMotor_Loop.cpp ****     }else if (LPFAndPLL == true)
  63:My_Top/Step_Motor/StepperMotor_Loop.cpp ****     {
  64:My_Top/Step_Motor/StepperMotor_Loop.cpp ****       // жЦєеЉП2PLLйФБзЫЄзОѓ жЫіжЦ∞PLLйФБзЫЄзОѓзЪДиЊУеЗЇиІТеЇ¶еТМиІТйАЯеЇ¶
  65:My_Top/Step_Motor/StepperMotor_Loop.cpp ****       foc_pll_run(theta_m,PLL_FREQ_Dt,&_pll_reg_out,&_pll_Angular_velocity,&pll_conf); //жЫіжЦ∞PLLй
  66:My_Top/Step_Motor/StepperMotor_Loop.cpp ****       reg_final = _pll_reg_out; //е∞ЖPLLйФБзЫЄзОѓзЪДиЊУеЗЇиІТеЇ¶иµЛеАЉзїЩжЬАзїИиІТеЇ¶
  67:My_Top/Step_Motor/StepperMotor_Loop.cpp ****       theta_deg_final = rad2deg(reg_final); //е∞ЖеЉІеЇ¶иљђжНҐдЄЇ360еЇ¶
  68:My_Top/Step_Motor/StepperMotor_Loop.cpp ****       Angular_velocity_final = _pll_Angular_velocity; //е∞ЖжЬАзїИйАЯеЇ¶иµЛеАЉзїЩжЬАзїИиІТйАЯеЇ¶
  69:My_Top/Step_Motor/StepperMotor_Loop.cpp ****       
ARM GAS  /tmp/ccNe6E36.s 			page 12


  70:My_Top/Step_Motor/StepperMotor_Loop.cpp ****     }
  71:My_Top/Step_Motor/StepperMotor_Loop.cpp **** 
  72:My_Top/Step_Motor/StepperMotor_Loop.cpp **** }
  73:My_Top/Step_Motor/StepperMotor_Loop.cpp **** 
  74:My_Top/Step_Motor/StepperMotor_Loop.cpp **** 
  75:My_Top/Step_Motor/StepperMotor_Loop.cpp **** void StepperMotor::setFre()//иЃЊзљЃзФµжЬЇйҐСзОЗ
  76:My_Top/Step_Motor/StepperMotor_Loop.cpp **** {
  77:My_Top/Step_Motor/StepperMotor_Loop.cpp ****     if(MS_FULL_Last != (uint16_t)MS_FULL)
  78:My_Top/Step_Motor/StepperMotor_Loop.cpp ****     {
  79:My_Top/Step_Motor/StepperMotor_Loop.cpp ****         HAL_GPIO_WritePin(MS_FULL_PORT_, MS_FULL_PIN_, (uint16_t)MS_FULL ? GPIO_PIN_RESET : GPIO_PI
  80:My_Top/Step_Motor/StepperMotor_Loop.cpp ****         MS_FULL_Last = (uint16_t)MS_FULL;
  81:My_Top/Step_Motor/StepperMotor_Loop.cpp ****     }
  82:My_Top/Step_Motor/StepperMotor_Loop.cpp ****     if (_motor->Set_Motor_Frequency(motor_fre))  // йҐСзОЗеПШдЇЖжЄЕйЫґиµ∞зЪДж≠•жХ∞ йЗНжЦ∞еЉАеІЛиЃ°ж
  83:My_Top/Step_Motor/StepperMotor_Loop.cpp ****     {
  84:My_Top/Step_Motor/StepperMotor_Loop.cpp ****         motor_step_cnt = 0; 
  85:My_Top/Step_Motor/StepperMotor_Loop.cpp ****     }
  86:My_Top/Step_Motor/StepperMotor_Loop.cpp **** }
  87:My_Top/Step_Motor/StepperMotor_Loop.cpp **** 
  88:My_Top/Step_Motor/StepperMotor_Loop.cpp **** 
  89:My_Top/Step_Motor/StepperMotor_Loop.cpp **** 
  90:My_Top/Step_Motor/StepperMotor_Loop.cpp **** void StepperMotor::Speed_Loop(void)
  91:My_Top/Step_Motor/StepperMotor_Loop.cpp **** {
  92:My_Top/Step_Motor/StepperMotor_Loop.cpp ****     float _delta_fre = 0.0f;
  93:My_Top/Step_Motor/StepperMotor_Loop.cpp ****     _error_speed = _target_speed - Angular_velocity_final; //иЃ°зЃЧйАЯеЇ¶иѓѓеЈЃ
  94:My_Top/Step_Motor/StepperMotor_Loop.cpp ****     _delta_fre = pid_speed.update(_error_speed); //иЃ°зЃЧPIDеҐЮйЗП
  95:My_Top/Step_Motor/StepperMotor_Loop.cpp ****     motor_fre += _delta_fre; //жЫіжЦ∞зФµжЬЇйҐСзОЗ
  96:My_Top/Step_Motor/StepperMotor_Loop.cpp ****     if(motor_fre > 3000) motor_fre = 3000;
  97:My_Top/Step_Motor/StepperMotor_Loop.cpp ****     if(motor_fre < -3000) motor_fre = -3000;
  98:My_Top/Step_Motor/StepperMotor_Loop.cpp ****     setFre(); //иЃЊзљЃзФµжЬЇйҐСзОЗ
  99:My_Top/Step_Motor/StepperMotor_Loop.cpp **** }
 100:My_Top/Step_Motor/StepperMotor_Loop.cpp **** 
 101:My_Top/Step_Motor/StepperMotor_Loop.cpp **** 
 102:My_Top/Step_Motor/StepperMotor_Loop.cpp **** void StepperMotor::Position_Loop(void)
 103:My_Top/Step_Motor/StepperMotor_Loop.cpp **** {
 104:My_Top/Step_Motor/StepperMotor_Loop.cpp ****     float _delta_fre = 0.0f;
 105:My_Top/Step_Motor/StepperMotor_Loop.cpp ****     _target_error_location = _target_location1 - reg_final; //иЃ°зЃЧдљНзљЃиѓѓеЈЃ
 106:My_Top/Step_Motor/StepperMotor_Loop.cpp ****     _delta_fre = pid_location.update(_target_error_location); //иЃ°зЃЧPIDеҐЮйЗП
 107:My_Top/Step_Motor/StepperMotor_Loop.cpp ****     _target_speed +=_delta_fre; //жЫіжЦ∞зЫЃж†ЗйАЯеЇ¶
 108:My_Top/Step_Motor/StepperMotor_Loop.cpp ****     if(_target_speed > 60.0f) _target_speed = 60.0f;
 109:My_Top/Step_Motor/StepperMotor_Loop.cpp ****     if(_target_speed < -60.0f) _target_speed = -60.0f;
 110:My_Top/Step_Motor/StepperMotor_Loop.cpp ****     Speed_Loop(); //дљНзљЃзОѓеЖЕйГ®и∞ГзФ®йАЯеЇ¶зОѓжОІеИґ
 111:My_Top/Step_Motor/StepperMotor_Loop.cpp **** }
 112:My_Top/Step_Motor/StepperMotor_Loop.cpp **** 
 113:My_Top/Step_Motor/StepperMotor_Loop.cpp **** 
 114:My_Top/Step_Motor/StepperMotor_Loop.cpp **** 
 115:My_Top/Step_Motor/StepperMotor_Loop.cpp **** // ADRC adrc(20,100,0.1,1.0/Stepper_POSITION_LOOP_FREQ_HZ); //зЇњжАІиЗ™жКЧжЙ∞жОІеИґеЩ®
 116:My_Top/Step_Motor/StepperMotor_Loop.cpp **** 
 117:My_Top/Step_Motor/StepperMotor_Loop.cpp **** // void StepperMotor::Position_Loop(void)
 118:My_Top/Step_Motor/StepperMotor_Loop.cpp **** // {
 119:My_Top/Step_Motor/StepperMotor_Loop.cpp **** //     motor_fre = (int16_t)adrc.update(_target_location1, reg_final);
 120:My_Top/Step_Motor/StepperMotor_Loop.cpp **** //     if(motor_fre >  2000) motor_fre =  2000;
 121:My_Top/Step_Motor/StepperMotor_Loop.cpp **** //     if(motor_fre < -2000) motor_fre = -2000;
 122:My_Top/Step_Motor/StepperMotor_Loop.cpp **** //     setFre();
 123:My_Top/Step_Motor/StepperMotor_Loop.cpp **** // }
 124:My_Top/Step_Motor/StepperMotor_Loop.cpp **** 
 125:My_Top/Step_Motor/StepperMotor_Loop.cpp **** 
 126:My_Top/Step_Motor/StepperMotor_Loop.cpp **** 
ARM GAS  /tmp/ccNe6E36.s 			page 13


 127:My_Top/Step_Motor/StepperMotor_Loop.cpp **** void StepperMotor::Step_Handler()//зФµжЬЇиЃ°ж≠•иЃ°жХ∞жОІеИґ
 128:My_Top/Step_Motor/StepperMotor_Loop.cpp **** {
 129:My_Top/Step_Motor/StepperMotor_Loop.cpp ****     if (!control_init_flag) return;
 130:My_Top/Step_Motor/StepperMotor_Loop.cpp **** 
 131:My_Top/Step_Motor/StepperMotor_Loop.cpp ****     if ((uint32_t)motor_step_max != motor_step_max_last_) //ж≠•жХ∞дЄКйЩРеПШеМЦ вЖТ жЄЕйЫґиЃ°ж≠•
 132:My_Top/Step_Motor/StepperMotor_Loop.cpp ****     {
 133:My_Top/Step_Motor/StepperMotor_Loop.cpp ****         motor_step_cnt = 0;
 134:My_Top/Step_Motor/StepperMotor_Loop.cpp ****         motor_step_max_last_ = (uint32_t)motor_step_max;
 135:My_Top/Step_Motor/StepperMotor_Loop.cpp ****         _motor->Set_Motor_EN(true);//зФµжЬЇдљњиГљ
 136:My_Top/Step_Motor/StepperMotor_Loop.cpp ****     }
 137:My_Top/Step_Motor/StepperMotor_Loop.cpp **** 
 138:My_Top/Step_Motor/StepperMotor_Loop.cpp ****     // еЈ≤еИ∞дЄКйЩР вЖТ иЈ≥ињЗ
 139:My_Top/Step_Motor/StepperMotor_Loop.cpp ****     if ((uint32_t)motor_step_max != 0 && motor_step_cnt >= (uint32_t)motor_step_max) return;
 140:My_Top/Step_Motor/StepperMotor_Loop.cpp ****     motor_step_cnt++;//иЃ°ж≠•
 141:My_Top/Step_Motor/StepperMotor_Loop.cpp ****     // еИЪеИ∞дЄКйЩР вЖТ еЕ≥зФµжЬЇ
 142:My_Top/Step_Motor/StepperMotor_Loop.cpp ****     if ((uint32_t)motor_step_max != 0 && motor_step_cnt >= (uint32_t)motor_step_max)
 143:My_Top/Step_Motor/StepperMotor_Loop.cpp ****     {
 144:My_Top/Step_Motor/StepperMotor_Loop.cpp ****         _motor->Set_Motor_EN(false);
 145:My_Top/Step_Motor/StepperMotor_Loop.cpp ****     }
 146:My_Top/Step_Motor/StepperMotor_Loop.cpp **** }
 411              		.loc 1 146 1 is_stmt 1 view -0
 412              		.cfi_startproc
 413              		@ args = 0, pretend = 0, frame = 0
 414              		@ frame_needed = 0, uses_anonymous_args = 0
 415 0000 F0B5     		push	{r4, r5, r6, r7, lr}
 416              		.cfi_def_cfa_offset 20
 417              		.cfi_offset 4, -20
 418              		.cfi_offset 5, -16
 419              		.cfi_offset 6, -12
 420              		.cfi_offset 7, -8
 421              		.cfi_offset 14, -4
 422 0002 D646     		mov	lr, r10
 423 0004 4F46     		mov	r7, r9
 424 0006 4646     		mov	r6, r8
 425 0008 C0B5     		push	{r6, r7, lr}
 426              		.cfi_def_cfa_offset 32
 427              		.cfi_offset 8, -32
 428              		.cfi_offset 9, -28
 429              		.cfi_offset 10, -24
 430 000a 88B0     		sub	sp, sp, #32
 431              		.cfi_def_cfa_offset 64
 432              	.LVL41:
 433              	.LBB25:
 434              	.LBI25:
 435              		.file 4 "My_Top/System/pll.hpp"
   1:My_Top/System/pll.hpp **** #pragma once
   2:My_Top/System/pll.hpp **** #include "ex_math.hpp"
   3:My_Top/System/pll.hpp **** 
   4:My_Top/System/pll.hpp **** #include "bsp.hpp"
   5:My_Top/System/pll.hpp **** 
   6:My_Top/System/pll.hpp **** 
   7:My_Top/System/pll.hpp **** #define Motor_RPM (3000) //зФµжЬЇжЬАе§ІиљђйАЯ еЃЮжµЛзФµжЬЇжЬАйЂШ38.2еЬИ/s =2292rpm
   8:My_Top/System/pll.hpp **** #define Motor_PolesNub (7) //жЮБеѓєжХ∞
   9:My_Top/System/pll.hpp **** #define Motor_Fe (Motor_RPM*Motor_PolesNub/60) //зФµйҐСзОЗFe = жЬАе§ІиљђйАЯ(rpm) * жЮБеѓєжХ∞ / 60
  10:My_Top/System/pll.hpp **** #define Wn_min  (M_2PI*Motor_Fe/10) //жЬАе∞ПиЗ™зДґйҐСзОЗ = 2pi*Fe/10 = 219.911482 
  11:My_Top/System/pll.hpp **** #define Wn_max  (M_2PI*PLL_FREQ_HZ/10) //жЬАе§ІиЗ™зДґйҐСзОЗ = 2pi*йЗЗж†ЈеС®жЬЯ/10   2513.2 
  12:My_Top/System/pll.hpp **** #define Ts_min  (3.0/(PLL_ZETA*Wn_max)*1000) //жЬАе∞ПжФґжХЫжЧґйЧі Ts = 3/(ќґ*Wn_max) = 0.0016883480
ARM GAS  /tmp/ccNe6E36.s 			page 14


  13:My_Top/System/pll.hpp **** #define Ts_max  (3.0/(PLL_ZETA*Wn_min)*1000) //жЬАе§ІжФґжХЫжЧґйЧі Ts = 3/(ќґ*Wn_min) = 0.0192954s =
  14:My_Top/System/pll.hpp **** 
  15:My_Top/System/pll.hpp **** 
  16:My_Top/System/pll.hpp **** 
  17:My_Top/System/pll.hpp **** #define PLL_FREQ_HZ   (Stepper_VELOCITY_LOOP_FREQ_HZ)  //йЗЗж†ЈйҐСзОЗењЕй°ї вЙ• еЄ¶еЃљйҐСзОЗзЪД 2 е
  18:My_Top/System/pll.hpp **** #define PLL_FREQ_Dt   (1.0/PLL_FREQ_HZ)
  19:My_Top/System/pll.hpp **** #define PLL_ts_temp   (19.2954) //жФґжХЫжЧґйЧі еНХдљНms 
  20:My_Top/System/pll.hpp **** #define PLL_ts  constraint_value(PLL_ts_temp, Ts_min, Ts_max) //зЇ¶жЭЯжФґжХЫжЧґйЧіеЬ®жЬАе∞ПеТМжЬАе§
  21:My_Top/System/pll.hpp **** 
  22:My_Top/System/pll.hpp **** 
  23:My_Top/System/pll.hpp **** #define PLL_ZETA (0.707) //йШїе∞ЉжѓФ
  24:My_Top/System/pll.hpp **** #define PLL_Wn   (3.0/(PLL_ZETA*PLL_ts*0.001)) //223.33hzиЗ™зДґйҐСзОЗ иЃ°зЃЧеЕђеЉП wn = 3/(ќґ*ts)  
  25:My_Top/System/pll.hpp **** #define FOC_PLL_KP    (2*PLL_ZETA*PLL_Wn) //PIеПВжХ∞иЃ°зЃЧеЕђеЉП kp = 2ќґѕЙn = 310.9548 
  26:My_Top/System/pll.hpp **** #define FOC_PLL_KI    (PLL_Wn*PLL_Wn) //PIеПВжХ∞иЃ°зЃЧеЕђеЉП ki = ѕЙn¬≤ = 48361.06 
  27:My_Top/System/pll.hpp **** 
  28:My_Top/System/pll.hpp **** 
  29:My_Top/System/pll.hpp **** 
  30:My_Top/System/pll.hpp **** struct PLL_Parameter
  31:My_Top/System/pll.hpp **** {
  32:My_Top/System/pll.hpp ****     PLL_Parameter(double kp, double ki) : foc_pll_kp(kp), foc_pll_ki(ki) {}
 436              		.loc 4 32 5 view .LVU104
 437              	.LBB26:
 438              	.LBB27:
 439              		.loc 4 32 43 is_stmt 0 view .LVU105
 440 000c 284C     		ldr	r4, .L13
 441 000e 2948     		ldr	r0, .L13+4
 442 0010 2949     		ldr	r1, .L13+8
 443 0012 2060     		str	r0, [r4]
 444 0014 6160     		str	r1, [r4, #4]
 445              		.loc 4 32 59 view .LVU106
 446 0016 294A     		ldr	r2, .L13+12
 447 0018 294B     		ldr	r3, .L13+16
 448 001a A260     		str	r2, [r4, #8]
 449 001c E360     		str	r3, [r4, #12]
 450              	.LVL42:
 451              		.loc 4 32 59 view .LVU107
 452              	.LBE27:
 453              	.LBE26:
 454              	.LBE25:
 455              	.LBB28:
 456              	.LBI28:
 457              		.file 5 "My_Top/System/kth_read.hpp"
   1:My_Top/System/kth_read.hpp **** #pragma once
   2:My_Top/System/kth_read.hpp **** 
   3:My_Top/System/kth_read.hpp **** #include <stdbool.h>
   4:My_Top/System/kth_read.hpp **** #include "spi.h"
   5:My_Top/System/kth_read.hpp **** #include "FreeRTOS.h"
   6:My_Top/System/kth_read.hpp **** #include "task.h"
   7:My_Top/System/kth_read.hpp **** #include "bsp.hpp"
   8:My_Top/System/kth_read.hpp **** 
   9:My_Top/System/kth_read.hpp **** #define KTH7111_PRECISION (65535.0f) // 2^16-1пЉМзЉЦз†БеЩ®еИЖиЊ®зОЗ
  10:My_Top/System/kth_read.hpp **** #define RAW_TO_RAD  (6.28318530717f / KTH7111_PRECISION)// зЉЦз†БеЩ®еОЯеІЛеАЉиљђеЉІеЇ¶з≥їжХ∞пЉЪ2ѕА 
  11:My_Top/System/kth_read.hpp **** #define RAD_TO_DEG  (180.0f / 3.14159265358979323846f)// еЉІеЇ¶иљђиІТеЇ¶з≥їжХ∞пЉЪ180 / ѕА вЙИ 57.29
  12:My_Top/System/kth_read.hpp **** #include "ex_math.hpp" 
  13:My_Top/System/kth_read.hpp **** 
  14:My_Top/System/kth_read.hpp **** 
  15:My_Top/System/kth_read.hpp **** class KTH7111
ARM GAS  /tmp/ccNe6E36.s 			page 15


  16:My_Top/System/kth_read.hpp **** {
  17:My_Top/System/kth_read.hpp **** public:
  18:My_Top/System/kth_read.hpp ****     uint16_t single_turn; // еНХеЬИеОЯеІЛеАЉ16дљН
  19:My_Top/System/kth_read.hpp ****     float theta;          // иљђжНҐеРОзЪДеЉІеЇ¶иІТ (0 ~ 2ѕА)
  20:My_Top/System/kth_read.hpp ****     float angle;          // иљђжНҐеРОзЪДиІТеЇ¶ (0 ~ 360)
  21:My_Top/System/kth_read.hpp ****     bool  encoder_dir; // зЉЦз†БеЩ®жЦєеРС
  22:My_Top/System/kth_read.hpp ****     KTH7111(SPI_HandleTypeDef *hspi, GPIO_TypeDef *cs_port, uint16_t cs_pin)
 458              		.loc 5 22 5 is_stmt 1 view .LVU108
 459              	.LBB29:
 460              	.LBB30:
  23:My_Top/System/kth_read.hpp ****     : _hspi(hspi), _cs_port(cs_port), _cs_pin(cs_pin),
  24:My_Top/System/kth_read.hpp ****       single_turn(0), theta(0.0f), angle(0.0f) {}
 461              		.loc 5 24 7 is_stmt 0 view .LVU109
 462 001e 0022     		movs	r2, #0
 463 0020 2282     		strh	r2, [r4, #16]
 464              		.loc 5 24 23 view .LVU110
 465 0022 0025     		movs	r5, #0
 466 0024 6561     		str	r5, [r4, #20]
 467              		.loc 5 24 36 view .LVU111
 468 0026 A561     		str	r5, [r4, #24]
  23:My_Top/System/kth_read.hpp ****     : _hspi(hspi), _cs_port(cs_port), _cs_pin(cs_pin),
 469              		.loc 5 23 7 view .LVU112
 470 0028 264B     		ldr	r3, .L13+20
 471 002a 2362     		str	r3, [r4, #32]
  23:My_Top/System/kth_read.hpp ****     : _hspi(hspi), _cs_port(cs_port), _cs_pin(cs_pin),
 472              		.loc 5 23 20 view .LVU113
 473 002c A023     		movs	r3, #160
 474 002e DB05     		lsls	r3, r3, #23
 475 0030 6362     		str	r3, [r4, #36]
  23:My_Top/System/kth_read.hpp ****     : _hspi(hspi), _cs_port(cs_port), _cs_pin(cs_pin),
 476              		.loc 5 23 39 view .LVU114
 477 0032 1021     		movs	r1, #16
 478 0034 2185     		strh	r1, [r4, #40]
 479              	.LVL43:
  23:My_Top/System/kth_read.hpp ****     : _hspi(hspi), _cs_port(cs_port), _cs_pin(cs_pin),
 480              		.loc 5 23 39 view .LVU115
 481              	.LBE30:
 482              	.LBE29:
 483              	.LBE28:
 484              	.LBB31:
 485              	.LBI31:
  22:My_Top/System/kth_read.hpp ****     : _hspi(hspi), _cs_port(cs_port), _cs_pin(cs_pin),
 486              		.loc 5 22 5 is_stmt 1 view .LVU116
 487              	.LBB32:
 488              	.LBB33:
 489              		.loc 5 24 7 is_stmt 0 view .LVU117
 490 0036 A285     		strh	r2, [r4, #44]
 491              		.loc 5 24 23 view .LVU118
 492 0038 2563     		str	r5, [r4, #48]
 493              		.loc 5 24 36 view .LVU119
 494 003a 6563     		str	r5, [r4, #52]
  23:My_Top/System/kth_read.hpp ****     : _hspi(hspi), _cs_port(cs_port), _cs_pin(cs_pin),
 495              		.loc 5 23 7 view .LVU120
 496 003c 224A     		ldr	r2, .L13+24
 497 003e E263     		str	r2, [r4, #60]
  23:My_Top/System/kth_read.hpp ****     : _hspi(hspi), _cs_port(cs_port), _cs_pin(cs_pin),
 498              		.loc 5 23 20 view .LVU121
ARM GAS  /tmp/ccNe6E36.s 			page 16


 499 0040 2364     		str	r3, [r4, #64]
  23:My_Top/System/kth_read.hpp ****     : _hspi(hspi), _cs_port(cs_port), _cs_pin(cs_pin),
 500              		.loc 5 23 39 view .LVU122
 501 0042 4423     		movs	r3, #68
 502 0044 214A     		ldr	r2, .L13+28
 503 0046 E252     		strh	r2, [r4, r3]
 504              	.LVL44:
  23:My_Top/System/kth_read.hpp ****     : _hspi(hspi), _cs_port(cs_port), _cs_pin(cs_pin),
 505              		.loc 5 23 39 view .LVU123
 506              	.LBE33:
 507              	.LBE32:
 508              	.LBE31:
   9:My_Top/Step_Motor/StepperMotor_Loop.cpp **** StepperMotor M2(&Motor_M2, &kth7111_B, 1.0f,0.5f,0.1f,  1.0f,0.0f,0.0f,true,M2_MS1_GPIO_Port, M2_MS
 509              		.loc 1 9 105 view .LVU124
 510 0048 FE26     		movs	r6, #254
 511 004a B605     		lsls	r6, r6, #22
 512 004c 2200     		movs	r2, r4
 513 004e 1032     		adds	r2, r2, #16
 514 0050 1F49     		ldr	r1, .L13+32
 515 0052 2048     		ldr	r0, .L13+36
 516 0054 043B     		subs	r3, r3, #4
 517 0056 0793     		str	r3, [sp, #28]
 518 0058 1F4B     		ldr	r3, .L13+40
 519 005a 9A46     		mov	r10, r3
 520 005c 0693     		str	r3, [sp, #24]
 521 005e 0123     		movs	r3, #1
 522 0060 9946     		mov	r9, r3
 523 0062 0593     		str	r3, [sp, #20]
 524 0064 0495     		str	r5, [sp, #16]
 525 0066 0395     		str	r5, [sp, #12]
 526 0068 0296     		str	r6, [sp, #8]
 527 006a 1C4B     		ldr	r3, .L13+44
 528 006c 9846     		mov	r8, r3
 529 006e 0193     		str	r3, [sp, #4]
 530 0070 FC27     		movs	r7, #252
 531 0072 BF05     		lsls	r7, r7, #22
 532 0074 0097     		str	r7, [sp]
 533 0076 331C     		adds	r3, r6, #0
 534 0078 FFF7FEFF 		bl	_ZN12StepperMotorC1EP10Step_MotorP7KTH7111ffffffbP12GPIO_TypeDeft
 535              	.LVL45:
  10:My_Top/Step_Motor/StepperMotor_Loop.cpp **** 
 536              		.loc 1 10 105 view .LVU125
 537 007c 2200     		movs	r2, r4
 538 007e 2C32     		adds	r2, r2, #44
 539 0080 1749     		ldr	r1, .L13+48
 540 0082 1848     		ldr	r0, .L13+52
 541 0084 8023     		movs	r3, #128
 542 0086 DB01     		lsls	r3, r3, #7
 543 0088 0793     		str	r3, [sp, #28]
 544 008a 5346     		mov	r3, r10
 545 008c 0693     		str	r3, [sp, #24]
 546 008e 4B46     		mov	r3, r9
 547 0090 0593     		str	r3, [sp, #20]
 548 0092 0495     		str	r5, [sp, #16]
 549 0094 0395     		str	r5, [sp, #12]
 550 0096 0296     		str	r6, [sp, #8]
 551 0098 4346     		mov	r3, r8
ARM GAS  /tmp/ccNe6E36.s 			page 17


 552 009a 0193     		str	r3, [sp, #4]
 553 009c 0097     		str	r7, [sp]
 554 009e 331C     		adds	r3, r6, #0
 555 00a0 FFF7FEFF 		bl	_ZN12StepperMotorC1EP10Step_MotorP7KTH7111ffffffbP12GPIO_TypeDeft
 556              	.LVL46:
 557              		.loc 1 146 1 view .LVU126
 558 00a4 08B0     		add	sp, sp, #32
 559              		@ sp needed
 560 00a6 E0BC     		pop	{r5, r6, r7}
 561 00a8 BA46     		mov	r10, r7
 562 00aa B146     		mov	r9, r6
 563 00ac A846     		mov	r8, r5
 564 00ae F0BD     		pop	{r4, r5, r6, r7, pc}
 565              	.L14:
 566              		.align	2
 567              	.L13:
 568 00b0 00000000 		.word	.LANCHOR0
 569 00b4 F004EC71 		.word	1911293168
 570 00b8 476F7340 		.word	1081306951
 571 00bc 5260AEFB 		.word	-72458158
 572 00c0 229DE740 		.word	1088920866
 573 00c4 00000000 		.word	hspi1
 574 00c8 00000000 		.word	hspi2
 575 00cc 0080FFFF 		.word	-32768
 576 00d0 00000000 		.word	Motor_M1
 577 00d4 00000000 		.word	M1
 578 00d8 00080050 		.word	1342179328
 579 00dc CDCCCC3D 		.word	1036831949
 580 00e0 00000000 		.word	Motor_M2
 581 00e4 00000000 		.word	M2
 582              		.cfi_endproc
 583              	.LFE1622:
 585              		.align	1
 586              		.global	_ZN12StepperMotor15My_Stepper_InitEv
 587              		.syntax unified
 588              		.code	16
 589              		.thumb_func
 591              	_ZN12StepperMotor15My_Stepper_InitEv:
 592              	.LVL47:
 593              	.LFB1466:
  18:My_Top/Step_Motor/StepperMotor_Loop.cpp ****     
 594              		.loc 1 18 1 is_stmt 1 view -0
 595              		.cfi_startproc
 596              		@ args = 0, pretend = 0, frame = 0
 597              		@ frame_needed = 0, uses_anonymous_args = 0
  18:My_Top/Step_Motor/StepperMotor_Loop.cpp ****     
 598              		.loc 1 18 1 is_stmt 0 view .LVU128
 599 00e8 70B5     		push	{r4, r5, r6, lr}
 600              		.cfi_def_cfa_offset 16
 601              		.cfi_offset 4, -16
 602              		.cfi_offset 5, -12
 603              		.cfi_offset 6, -8
 604              		.cfi_offset 14, -4
 605 00ea 0400     		movs	r4, r0
  20:My_Top/Step_Motor/StepperMotor_Loop.cpp ****     speed_lpf.init(0.7); //еИЭеІЛеМЦйАЯеЇ¶дљОйАЪжї§ж≥ҐеЩ®
 606              		.loc 1 20 5 is_stmt 1 view .LVU129
  20:My_Top/Step_Motor/StepperMotor_Loop.cpp ****     speed_lpf.init(0.7); //еИЭеІЛеМЦйАЯеЇ¶дљОйАЪжї§ж≥ҐеЩ®
ARM GAS  /tmp/ccNe6E36.s 			page 18


 607              		.loc 1 20 15 is_stmt 0 view .LVU130
 608 00ec 0023     		movs	r3, #0
 609 00ee 8370     		strb	r3, [r0, #2]
  21:My_Top/Step_Motor/StepperMotor_Loop.cpp ****     error_lpf.init(0.7); //еИЭеІЛеМЦиѓѓеЈЃдљОйАЪжї§ж≥ҐеЩ®
 610              		.loc 1 21 5 is_stmt 1 view .LVU131
  21:My_Top/Step_Motor/StepperMotor_Loop.cpp ****     error_lpf.init(0.7); //еИЭеІЛеМЦиѓѓеЈЃдљОйАЪжї§ж≥ҐеЩ®
 611              		.loc 1 21 19 is_stmt 0 view .LVU132
 612 00f0 154D     		ldr	r5, .L17
 613 00f2 A830     		adds	r0, r0, #168
 614              	.LVL48:
  21:My_Top/Step_Motor/StepperMotor_Loop.cpp ****     error_lpf.init(0.7); //еИЭеІЛеМЦиѓѓеЈЃдљОйАЪжї§ж≥ҐеЩ®
 615              		.loc 1 21 19 view .LVU133
 616 00f4 291C     		adds	r1, r5, #0
 617 00f6 FFF7FEFF 		bl	_ZN13LowpassFilter4initEf
 618              	.LVL49:
  22:My_Top/Step_Motor/StepperMotor_Loop.cpp ****     speed_avg.init(5); //еИЭеІЛеМЦйАЯеЇ¶еє≥еЭЗеАЉжї§ж≥ҐеЩ®
 619              		.loc 1 22 5 is_stmt 1 view .LVU134
  22:My_Top/Step_Motor/StepperMotor_Loop.cpp ****     speed_avg.init(5); //еИЭеІЛеМЦйАЯеЇ¶еє≥еЭЗеАЉжї§ж≥ҐеЩ®
 620              		.loc 1 22 19 is_stmt 0 view .LVU135
 621 00fa 2000     		movs	r0, r4
 622 00fc B030     		adds	r0, r0, #176
 623 00fe 291C     		adds	r1, r5, #0
 624 0100 FFF7FEFF 		bl	_ZN13LowpassFilter4initEf
 625              	.LVL50:
  23:My_Top/Step_Motor/StepperMotor_Loop.cpp ****     _encoder->KTH7111_Init(motor_encoder_dir); //еИЭеІЛеМЦзЉЦз†БеЩ® 
 626              		.loc 1 23 5 is_stmt 1 view .LVU136
  23:My_Top/Step_Motor/StepperMotor_Loop.cpp ****     _encoder->KTH7111_Init(motor_encoder_dir); //еИЭеІЛеМЦзЉЦз†БеЩ® 
 627              		.loc 1 23 19 is_stmt 0 view .LVU137
 628 0104 2000     		movs	r0, r4
 629 0106 B830     		adds	r0, r0, #184
 630 0108 0521     		movs	r1, #5
 631 010a FFF7FEFF 		bl	_ZN9AvgFilter4initEh
 632              	.LVL51:
  24:My_Top/Step_Motor/StepperMotor_Loop.cpp ****     _motor->Motor_Init(); //еИЭеІЛеМЦзФµжЬЇ
 633              		.loc 1 24 5 is_stmt 1 view .LVU138
 634 010e D423     		movs	r3, #212
 635 0110 E058     		ldr	r0, [r4, r3]
  24:My_Top/Step_Motor/StepperMotor_Loop.cpp ****     _motor->Motor_Init(); //еИЭеІЛеМЦзФµжЬЇ
 636              		.loc 1 24 27 is_stmt 0 view .LVU139
 637 0112 9C3B     		subs	r3, r3, #156
 638 0114 E15C     		ldrb	r1, [r4, r3]
 639 0116 FFF7FEFF 		bl	_ZN7KTH711112KTH7111_InitEb
 640              	.LVL52:
  25:My_Top/Step_Motor/StepperMotor_Loop.cpp ****     HAL_GPIO_WritePin(MS_FULL_PORT_, MS_FULL_PIN_, MS_FULL ? GPIO_PIN_RESET : GPIO_PIN_SET);
 641              		.loc 1 25 5 is_stmt 1 view .LVU140
 642 011a E06D     		ldr	r0, [r4, #92]
  25:My_Top/Step_Motor/StepperMotor_Loop.cpp ****     HAL_GPIO_WritePin(MS_FULL_PORT_, MS_FULL_PIN_, MS_FULL ? GPIO_PIN_RESET : GPIO_PIN_SET);
 643              		.loc 1 25 23 is_stmt 0 view .LVU141
 644 011c FFF7FEFF 		bl	_ZN10Step_Motor10Motor_InitEv
 645              	.LVL53:
  26:My_Top/Step_Motor/StepperMotor_Loop.cpp ****     motor_fre = 0;
 646              		.loc 1 26 5 is_stmt 1 view .LVU142
  26:My_Top/Step_Motor/StepperMotor_Loop.cpp ****     motor_fre = 0;
 647              		.loc 1 26 52 is_stmt 0 view .LVU143
 648 0120 E06B     		ldr	r0, [r4, #60]
  26:My_Top/Step_Motor/StepperMotor_Loop.cpp ****     motor_fre = 0;
 649              		.loc 1 26 60 view .LVU144
ARM GAS  /tmp/ccNe6E36.s 			page 19


 650 0122 0125     		movs	r5, #1
 651 0124 0021     		movs	r1, #0
 652 0126 FFF7FEFF 		bl	__aeabi_fcmpeq
 653              	.LVL54:
 654 012a 0028     		cmp	r0, #0
 655 012c 00D1     		bne	.L16
 656 012e 0025     		movs	r5, #0
 657              	.L16:
 658 0130 EAB2     		uxtb	r2, r5
  26:My_Top/Step_Motor/StepperMotor_Loop.cpp ****     motor_fre = 0;
 659              		.loc 1 26 22 view .LVU145
 660 0132 DC23     		movs	r3, #220
 661 0134 E15A     		ldrh	r1, [r4, r3]
 662 0136 043B     		subs	r3, r3, #4
 663 0138 E058     		ldr	r0, [r4, r3]
 664 013a FFF7FEFF 		bl	HAL_GPIO_WritePin
 665              	.LVL55:
  27:My_Top/Step_Motor/StepperMotor_Loop.cpp ****     control_init_flag = true;
 666              		.loc 1 27 5 is_stmt 1 view .LVU146
  27:My_Top/Step_Motor/StepperMotor_Loop.cpp ****     control_init_flag = true;
 667              		.loc 1 27 15 is_stmt 0 view .LVU147
 668 013e 0023     		movs	r3, #0
 669 0140 6363     		str	r3, [r4, #52]
  28:My_Top/Step_Motor/StepperMotor_Loop.cpp **** }
 670              		.loc 1 28 5 is_stmt 1 view .LVU148
  28:My_Top/Step_Motor/StepperMotor_Loop.cpp **** }
 671              		.loc 1 28 23 is_stmt 0 view .LVU149
 672 0142 0123     		movs	r3, #1
 673 0144 6370     		strb	r3, [r4, #1]
  29:My_Top/Step_Motor/StepperMotor_Loop.cpp **** 
 674              		.loc 1 29 1 view .LVU150
 675              		@ sp needed
 676              	.LVL56:
  29:My_Top/Step_Motor/StepperMotor_Loop.cpp **** 
 677              		.loc 1 29 1 view .LVU151
 678 0146 70BD     		pop	{r4, r5, r6, pc}
 679              	.L18:
 680              		.align	2
 681              	.L17:
 682 0148 3333333F 		.word	1060320051
 683              		.cfi_endproc
 684              	.LFE1466:
 686              		.align	1
 687              		.global	_ZN12StepperMotor28Update_Speed_Angle_LPFAndPLLEv
 688              		.syntax unified
 689              		.code	16
 690              		.thumb_func
 692              	_ZN12StepperMotor28Update_Speed_Angle_LPFAndPLLEv:
 693              	.LVL57:
 694              	.LFB1467:
  36:My_Top/Step_Motor/StepperMotor_Loop.cpp ****     // йЭЩжАБеПШйЗПпЉМзФ®дЇОдЄіжЧґе≠ШеВ®иІТеЇ¶еАЉеТМдЄКдЄАжђ°зЪДиІТеЇ¶еАЉ
 695              		.loc 1 36 1 is_stmt 1 view -0
 696              		.cfi_startproc
 697              		@ args = 0, pretend = 0, frame = 0
 698              		@ frame_needed = 0, uses_anonymous_args = 0
  36:My_Top/Step_Motor/StepperMotor_Loop.cpp ****     // йЭЩжАБеПШйЗПпЉМзФ®дЇОдЄіжЧґе≠ШеВ®иІТеЇ¶еАЉеТМдЄКдЄАжђ°зЪДиІТеЇ¶еАЉ
 699              		.loc 1 36 1 is_stmt 0 view .LVU153
ARM GAS  /tmp/ccNe6E36.s 			page 20


 700 014c 30B5     		push	{r4, r5, lr}
 701              		.cfi_def_cfa_offset 12
 702              		.cfi_offset 4, -12
 703              		.cfi_offset 5, -8
 704              		.cfi_offset 14, -4
 705 014e 83B0     		sub	sp, sp, #12
 706              		.cfi_def_cfa_offset 24
 707 0150 0400     		movs	r4, r0
  38:My_Top/Step_Motor/StepperMotor_Loop.cpp ****     static float theta_m_offic_temp = 0.0;
 708              		.loc 1 38 5 is_stmt 1 view .LVU154
  39:My_Top/Step_Motor/StepperMotor_Loop.cpp **** 
 709              		.loc 1 39 5 view .LVU155
  41:My_Top/Step_Motor/StepperMotor_Loop.cpp ****     fudu_test = _encoder->Get_KTH7111_Radian();//иОЈеПЦзЉЦз†БеЩ®иІТеЇ¶
 710              		.loc 1 41 5 view .LVU156
 711 0152 D425     		movs	r5, #212
 712 0154 4059     		ldr	r0, [r0, r5]
 713              	.LVL58:
  41:My_Top/Step_Motor/StepperMotor_Loop.cpp ****     fudu_test = _encoder->Get_KTH7111_Radian();//иОЈеПЦзЉЦз†БеЩ®иІТеЇ¶
 714              		.loc 1 41 36 is_stmt 0 view .LVU157
 715 0156 FFF7FEFF 		bl	_ZN7KTH711121KTH7111_Send_JIAO_CMDEv
 716              	.LVL59:
  42:My_Top/Step_Motor/StepperMotor_Loop.cpp **** 
 717              		.loc 1 42 5 is_stmt 1 view .LVU158
  42:My_Top/Step_Motor/StepperMotor_Loop.cpp **** 
 718              		.loc 1 42 17 is_stmt 0 view .LVU159
 719 015a 6059     		ldr	r0, [r4, r5]
  42:My_Top/Step_Motor/StepperMotor_Loop.cpp **** 
 720              		.loc 1 42 45 view .LVU160
 721 015c FFF7FEFF 		bl	_ZN7KTH711118Get_KTH7111_RadianEv
 722              	.LVL60:
  42:My_Top/Step_Motor/StepperMotor_Loop.cpp **** 
 723              		.loc 1 42 15 discriminator 1 view .LVU161
 724 0160 454B     		ldr	r3, .L30
 725 0162 9864     		str	r0, [r3, #72]
  44:My_Top/Step_Motor/StepperMotor_Loop.cpp ****     
 726              		.loc 1 44 5 is_stmt 1 view .LVU162
  44:My_Top/Step_Motor/StepperMotor_Loop.cpp ****     
 727              		.loc 1 44 13 is_stmt 0 view .LVU163
 728 0164 6060     		str	r0, [r4, #4]
  46:My_Top/Step_Motor/StepperMotor_Loop.cpp ****     {
 729              		.loc 1 46 5 is_stmt 1 view .LVU164
 730              	.LBB34:
  46:My_Top/Step_Motor/StepperMotor_Loop.cpp ****     {
 731              		.loc 1 46 9 is_stmt 0 view .LVU165
 732 0166 A378     		ldrb	r3, [r4, #2]
  46:My_Top/Step_Motor/StepperMotor_Loop.cpp ****     {
 733              		.loc 1 46 5 view .LVU166
 734 0168 002B     		cmp	r3, #0
 735 016a 00D0     		beq	.LCB618
 736 016c 6DE0     		b	.L20	@long jump
 737              	.LCB618:
 738              	.LBB35:
  48:My_Top/Step_Motor/StepperMotor_Loop.cpp ****       //жЦєеЉП1 дљОйАЪжї§ж≥Ґ жЫіжЦ∞жЬЇжҐ∞иІТеЇ¶йАЯеЇ¶
 739              		.loc 1 48 7 is_stmt 1 view .LVU167
 740              	.LBB36:
  48:My_Top/Step_Motor/StepperMotor_Loop.cpp ****       //жЦєеЉП1 дљОйАЪжї§ж≥Ґ жЫіжЦ∞жЬЇжҐ∞иІТеЇ¶йАЯеЇ¶
 741              		.loc 1 48 17 view .LVU168
ARM GAS  /tmp/ccNe6E36.s 			page 21


 742 016e FFF7FEFF 		bl	__aeabi_f2d
 743              	.LVL61:
 744 0172 424A     		ldr	r2, .L30+4
 745 0174 424B     		ldr	r3, .L30+8
 746 0176 FFF7FEFF 		bl	__aeabi_dadd
 747              	.LVL62:
 748 017a FFF7FEFF 		bl	__aeabi_d2f
 749              	.LVL63:
 750 017e 4149     		ldr	r1, .L30+12
 751 0180 FFF7FEFF 		bl	fmodf
 752              	.LVL64:
 753 0184 051C     		adds	r5, r0, #0
 754              	.LVL65:
  48:My_Top/Step_Motor/StepperMotor_Loop.cpp ****       //жЦєеЉП1 дљОйАЪжї§ж≥Ґ жЫіжЦ∞жЬЇжҐ∞иІТеЇ¶йАЯеЇ¶
 755              		.loc 1 48 17 discriminator 1 view .LVU169
 756 0186 0021     		movs	r1, #0
 757 0188 FFF7FEFF 		bl	__aeabi_fcmplt
 758              	.LVL66:
  48:My_Top/Step_Motor/StepperMotor_Loop.cpp ****       //жЦєеЉП1 дљОйАЪжї§ж≥Ґ жЫіжЦ∞жЬЇжҐ∞иІТеЇ¶йАЯеЇ¶
 759              		.loc 1 48 17 is_stmt 0 discriminator 1 view .LVU170
 760 018c 0028     		cmp	r0, #0
 761 018e 50D1     		bne	.L28
 762              	.LVL67:
 763              	.L21:
  48:My_Top/Step_Motor/StepperMotor_Loop.cpp ****       //жЦєеЉП1 дљОйАЪжї§ж≥Ґ жЫіжЦ∞жЬЇжҐ∞иІТеЇ¶йАЯеЇ¶
 764              		.loc 1 48 17 is_stmt 1 discriminator 3 view .LVU171
 765 0190 281C     		adds	r0, r5, #0
 766 0192 FFF7FEFF 		bl	__aeabi_f2d
 767              	.LVL68:
 768 0196 394A     		ldr	r2, .L30+4
 769 0198 394B     		ldr	r3, .L30+8
 770 019a FFF7FEFF 		bl	__aeabi_dsub
 771              	.LVL69:
 772              	.LBE36:
 773 019e FFF7FEFF 		bl	__aeabi_d2f
 774              	.LVL70:
 775 01a2 051C     		adds	r5, r0, #0
 776              	.LVL71:
  48:My_Top/Step_Motor/StepperMotor_Loop.cpp ****       //жЦєеЉП1 дљОйАЪжї§ж≥Ґ жЫіжЦ∞жЬЇжҐ∞иІТеЇ¶йАЯеЇ¶
 777              		.loc 1 48 15 is_stmt 0 discriminator 3 view .LVU172
 778 01a4 6060     		str	r0, [r4, #4]
  50:My_Top/Step_Motor/StepperMotor_Loop.cpp ****       theta_m_last = theta_m; // жЫіжЦ∞дЄКдЄАжђ°зЪДжЬЇжҐ∞иІТеЇ¶
 779              		.loc 1 50 7 is_stmt 1 view .LVU173
  50:My_Top/Step_Motor/StepperMotor_Loop.cpp ****       theta_m_last = theta_m; // жЫіжЦ∞дЄКдЄАжђ°зЪДжЬЇжҐ∞иІТеЇ¶
 780              		.loc 1 50 38 is_stmt 0 view .LVU174
 781 01a6 A168     		ldr	r1, [r4, #8]
  50:My_Top/Step_Motor/StepperMotor_Loop.cpp ****       theta_m_last = theta_m; // жЫіжЦ∞дЄКдЄАжђ°зЪДжЬЇжҐ∞иІТеЇ¶
 782              		.loc 1 50 36 view .LVU175
 783 01a8 FFF7FEFF 		bl	__aeabi_fsub
 784              	.LVL72:
  50:My_Top/Step_Motor/StepperMotor_Loop.cpp ****       theta_m_last = theta_m; // жЫіжЦ∞дЄКдЄАжђ°зЪДжЬЇжҐ∞иІТеЇ¶
 785              		.loc 1 50 26 view .LVU176
 786 01ac 324B     		ldr	r3, .L30
 787 01ae D864     		str	r0, [r3, #76]
  51:My_Top/Step_Motor/StepperMotor_Loop.cpp ****       theta_m_offic = wrap_to_PI(theta_m_offic_temp);// е∞ЖеЈЃеАЉиІДжХіеИ∞ [-PI, PI) еМЇйЧі
 788              		.loc 1 51 7 is_stmt 1 view .LVU177
  51:My_Top/Step_Motor/StepperMotor_Loop.cpp ****       theta_m_offic = wrap_to_PI(theta_m_offic_temp);// е∞ЖеЈЃеАЉиІДжХіеИ∞ [-PI, PI) еМЇйЧі
ARM GAS  /tmp/ccNe6E36.s 			page 22


 789              		.loc 1 51 20 is_stmt 0 view .LVU178
 790 01b0 A560     		str	r5, [r4, #8]
  52:My_Top/Step_Motor/StepperMotor_Loop.cpp **** 
 791              		.loc 1 52 7 is_stmt 1 view .LVU179
 792              	.LBB37:
  52:My_Top/Step_Motor/StepperMotor_Loop.cpp **** 
 793              		.loc 1 52 23 view .LVU180
 794 01b2 FFF7FEFF 		bl	__aeabi_f2d
 795              	.LVL73:
 796 01b6 314A     		ldr	r2, .L30+4
 797 01b8 314B     		ldr	r3, .L30+8
 798 01ba FFF7FEFF 		bl	__aeabi_dadd
 799              	.LVL74:
 800 01be FFF7FEFF 		bl	__aeabi_d2f
 801              	.LVL75:
 802 01c2 3049     		ldr	r1, .L30+12
 803 01c4 FFF7FEFF 		bl	fmodf
 804              	.LVL76:
 805 01c8 051C     		adds	r5, r0, #0
 806              	.LVL77:
  52:My_Top/Step_Motor/StepperMotor_Loop.cpp **** 
 807              		.loc 1 52 23 discriminator 1 view .LVU181
 808 01ca 0021     		movs	r1, #0
 809 01cc FFF7FEFF 		bl	__aeabi_fcmplt
 810              	.LVL78:
  52:My_Top/Step_Motor/StepperMotor_Loop.cpp **** 
 811              		.loc 1 52 23 is_stmt 0 discriminator 1 view .LVU182
 812 01d0 0028     		cmp	r0, #0
 813 01d2 34D1     		bne	.L29
 814              	.LVL79:
 815              	.L23:
  52:My_Top/Step_Motor/StepperMotor_Loop.cpp **** 
 816              		.loc 1 52 23 is_stmt 1 discriminator 3 view .LVU183
 817 01d4 281C     		adds	r0, r5, #0
 818 01d6 FFF7FEFF 		bl	__aeabi_f2d
 819              	.LVL80:
 820 01da 284A     		ldr	r2, .L30+4
 821 01dc 284B     		ldr	r3, .L30+8
 822 01de FFF7FEFF 		bl	__aeabi_dsub
 823              	.LVL81:
 824              	.LBE37:
 825 01e2 FFF7FEFF 		bl	__aeabi_d2f
 826              	.LVL82:
 827 01e6 011C     		adds	r1, r0, #0
  52:My_Top/Step_Motor/StepperMotor_Loop.cpp **** 
 828              		.loc 1 52 21 is_stmt 0 discriminator 3 view .LVU184
 829 01e8 E060     		str	r0, [r4, #12]
  54:My_Top/Step_Motor/StepperMotor_Loop.cpp ****       theta_m_speed = theta_m_offic_filtered*Stepper_VELOCITY_LOOP_FREQ_HZ;//speed=иЈѓз®Л/t 
 830              		.loc 1 54 7 is_stmt 1 view .LVU185
  54:My_Top/Step_Motor/StepperMotor_Loop.cpp ****       theta_m_speed = theta_m_offic_filtered*Stepper_VELOCITY_LOOP_FREQ_HZ;//speed=иЈѓз®Л/t 
 831              		.loc 1 54 48 is_stmt 0 view .LVU186
 832 01ea 2000     		movs	r0, r4
 833 01ec B030     		adds	r0, r0, #176
 834 01ee FFF7FEFF 		bl	_ZN13LowpassFilter6filterEf
 835              	.LVL83:
  54:My_Top/Step_Motor/StepperMotor_Loop.cpp ****       theta_m_speed = theta_m_offic_filtered*Stepper_VELOCITY_LOOP_FREQ_HZ;//speed=иЈѓз®Л/t 
 836              		.loc 1 54 30 discriminator 1 view .LVU187
ARM GAS  /tmp/ccNe6E36.s 			page 23


 837 01f2 2061     		str	r0, [r4, #16]
  55:My_Top/Step_Motor/StepperMotor_Loop.cpp ****       theta_av_speed = speed_avg.filter(theta_m_speed);//еѓєйАЯеЇ¶ињЫи°Меє≥еЭЗеАЉжї§ж≥Ґ
 838              		.loc 1 55 7 is_stmt 1 view .LVU188
  55:My_Top/Step_Motor/StepperMotor_Loop.cpp ****       theta_av_speed = speed_avg.filter(theta_m_speed);//еѓєйАЯеЇ¶ињЫи°Меє≥еЭЗеАЉжї§ж≥Ґ
 839              		.loc 1 55 45 is_stmt 0 view .LVU189
 840 01f4 2449     		ldr	r1, .L30+16
 841 01f6 FFF7FEFF 		bl	__aeabi_fmul
 842              	.LVL84:
 843 01fa 011C     		adds	r1, r0, #0
  55:My_Top/Step_Motor/StepperMotor_Loop.cpp ****       theta_av_speed = speed_avg.filter(theta_m_speed);//еѓєйАЯеЇ¶ињЫи°Меє≥еЭЗеАЉжї§ж≥Ґ
 844              		.loc 1 55 21 view .LVU190
 845 01fc 6061     		str	r0, [r4, #20]
  56:My_Top/Step_Motor/StepperMotor_Loop.cpp ****       filtered_speed = speed_lpf.filter(theta_av_speed);//еѓєйАЯеЇ¶ињЫи°МдљОйАЪжї§ж≥Ґ
 846              		.loc 1 56 7 is_stmt 1 view .LVU191
  56:My_Top/Step_Motor/StepperMotor_Loop.cpp ****       filtered_speed = speed_lpf.filter(theta_av_speed);//еѓєйАЯеЇ¶ињЫи°МдљОйАЪжї§ж≥Ґ
 847              		.loc 1 56 40 is_stmt 0 view .LVU192
 848 01fe 2000     		movs	r0, r4
 849 0200 B830     		adds	r0, r0, #184
 850 0202 FFF7FEFF 		bl	_ZN9AvgFilter6filterEf
 851              	.LVL85:
 852 0206 011C     		adds	r1, r0, #0
  56:My_Top/Step_Motor/StepperMotor_Loop.cpp ****       filtered_speed = speed_lpf.filter(theta_av_speed);//еѓєйАЯеЇ¶ињЫи°МдљОйАЪжї§ж≥Ґ
 853              		.loc 1 56 22 discriminator 1 view .LVU193
 854 0208 A061     		str	r0, [r4, #24]
  57:My_Top/Step_Motor/StepperMotor_Loop.cpp ****       reg_final = theta_m; //е∞ЖжЬЇжҐ∞иІТеЇ¶иµЛеАЉзїЩжЬАзїИиІТеЇ¶
 855              		.loc 1 57 7 is_stmt 1 view .LVU194
  57:My_Top/Step_Motor/StepperMotor_Loop.cpp ****       reg_final = theta_m; //е∞ЖжЬЇжҐ∞иІТеЇ¶иµЛеАЉзїЩжЬАзїИиІТеЇ¶
 856              		.loc 1 57 40 is_stmt 0 view .LVU195
 857 020a 2000     		movs	r0, r4
 858 020c A830     		adds	r0, r0, #168
 859 020e FFF7FEFF 		bl	_ZN13LowpassFilter6filterEf
 860              	.LVL86:
 861 0212 051C     		adds	r5, r0, #0
 862              	.LVL87:
  57:My_Top/Step_Motor/StepperMotor_Loop.cpp ****       reg_final = theta_m; //е∞ЖжЬЇжҐ∞иІТеЇ¶иµЛеАЉзїЩжЬАзїИиІТеЇ¶
 863              		.loc 1 57 22 discriminator 1 view .LVU196
 864 0214 E061     		str	r0, [r4, #28]
  58:My_Top/Step_Motor/StepperMotor_Loop.cpp ****       theta_deg_final = rad2deg(reg_final); //е∞ЖеЉІеЇ¶иљђжНҐдЄЇ360еЇ¶
 865              		.loc 1 58 7 is_stmt 1 view .LVU197
  58:My_Top/Step_Motor/StepperMotor_Loop.cpp ****       theta_deg_final = rad2deg(reg_final); //е∞ЖеЉІеЇ¶иљђжНҐдЄЇ360еЇ¶
 866              		.loc 1 58 19 is_stmt 0 view .LVU198
 867 0216 6068     		ldr	r0, [r4, #4]
  58:My_Top/Step_Motor/StepperMotor_Loop.cpp ****       theta_deg_final = rad2deg(reg_final); //е∞ЖеЉІеЇ¶иљђжНҐдЄЇ360еЇ¶
 868              		.loc 1 58 17 view .LVU199
 869 0218 A062     		str	r0, [r4, #40]
  59:My_Top/Step_Motor/StepperMotor_Loop.cpp ****       Angular_velocity_final = filtered_speed;  //е∞ЖжЬАзїИйАЯеЇ¶иµЛеАЉзїЩжЬАзїИиІТйАЯеЇ¶
 870              		.loc 1 59 7 is_stmt 1 view .LVU200
  59:My_Top/Step_Motor/StepperMotor_Loop.cpp ****       Angular_velocity_final = filtered_speed;  //е∞ЖжЬАзїИйАЯеЇ¶иµЛеАЉзїЩжЬАзїИиІТйАЯеЇ¶
 871              		.loc 1 59 25 is_stmt 0 view .LVU201
 872 021a FFF7FEFF 		bl	__aeabi_f2d
 873              	.LVL88:
 874 021e 1B4A     		ldr	r2, .L30+20
 875 0220 1B4B     		ldr	r3, .L30+24
 876 0222 FFF7FEFF 		bl	__aeabi_dmul
 877              	.LVL89:
 878 0226 FFF7FEFF 		bl	__aeabi_d2f
 879              	.LVL90:
ARM GAS  /tmp/ccNe6E36.s 			page 24


  59:My_Top/Step_Motor/StepperMotor_Loop.cpp ****       Angular_velocity_final = filtered_speed;  //е∞ЖжЬАзїИйАЯеЇ¶иµЛеАЉзїЩжЬАзїИиІТйАЯеЇ¶
 880              		.loc 1 59 23 view .LVU202
 881 022a E062     		str	r0, [r4, #44]
  60:My_Top/Step_Motor/StepperMotor_Loop.cpp ****       
 882              		.loc 1 60 7 is_stmt 1 view .LVU203
  60:My_Top/Step_Motor/StepperMotor_Loop.cpp ****       
 883              		.loc 1 60 30 is_stmt 0 view .LVU204
 884 022c 2563     		str	r5, [r4, #48]
 885              	.LVL91:
 886              	.L19:
  60:My_Top/Step_Motor/StepperMotor_Loop.cpp ****       
 887              		.loc 1 60 30 view .LVU205
 888              	.LBE35:
 889              	.LBE34:
  72:My_Top/Step_Motor/StepperMotor_Loop.cpp **** 
 890              		.loc 1 72 1 view .LVU206
 891 022e 03B0     		add	sp, sp, #12
 892              		@ sp needed
 893              	.LVL92:
  72:My_Top/Step_Motor/StepperMotor_Loop.cpp **** 
 894              		.loc 1 72 1 view .LVU207
 895 0230 30BD     		pop	{r4, r5, pc}
 896              	.LVL93:
 897              	.L28:
 898              	.LBB41:
 899              	.LBB40:
 900              	.LBB38:
  48:My_Top/Step_Motor/StepperMotor_Loop.cpp ****       //жЦєеЉП1 дљОйАЪжї§ж≥Ґ жЫіжЦ∞жЬЇжҐ∞иІТеЇ¶йАЯеЇ¶
 901              		.loc 1 48 17 is_stmt 1 discriminator 1 view .LVU208
 902 0232 1449     		ldr	r1, .L30+12
 903 0234 281C     		adds	r0, r5, #0
 904 0236 FFF7FEFF 		bl	__aeabi_fadd
 905              	.LVL94:
 906 023a 051C     		adds	r5, r0, #0
 907              	.LVL95:
  48:My_Top/Step_Motor/StepperMotor_Loop.cpp ****       //жЦєеЉП1 дљОйАЪжї§ж≥Ґ жЫіжЦ∞жЬЇжҐ∞иІТеЇ¶йАЯеЇ¶
 908              		.loc 1 48 17 is_stmt 0 discriminator 1 view .LVU209
 909 023c A8E7     		b	.L21
 910              	.LVL96:
 911              	.L29:
  48:My_Top/Step_Motor/StepperMotor_Loop.cpp ****       //жЦєеЉП1 дљОйАЪжї§ж≥Ґ жЫіжЦ∞жЬЇжҐ∞иІТеЇ¶йАЯеЇ¶
 912              		.loc 1 48 17 discriminator 1 view .LVU210
 913              	.LBE38:
 914              	.LBB39:
  52:My_Top/Step_Motor/StepperMotor_Loop.cpp **** 
 915              		.loc 1 52 23 is_stmt 1 discriminator 1 view .LVU211
 916 023e 1149     		ldr	r1, .L30+12
 917 0240 281C     		adds	r0, r5, #0
 918 0242 FFF7FEFF 		bl	__aeabi_fadd
 919              	.LVL97:
 920 0246 051C     		adds	r5, r0, #0
 921              	.LVL98:
  52:My_Top/Step_Motor/StepperMotor_Loop.cpp **** 
 922              		.loc 1 52 23 is_stmt 0 discriminator 1 view .LVU212
 923 0248 C4E7     		b	.L23
 924              	.LVL99:
 925              	.L20:
ARM GAS  /tmp/ccNe6E36.s 			page 25


  52:My_Top/Step_Motor/StepperMotor_Loop.cpp **** 
 926              		.loc 1 52 23 discriminator 1 view .LVU213
 927              	.LBE39:
 928              	.LBE40:
  62:My_Top/Step_Motor/StepperMotor_Loop.cpp ****     {
 929              		.loc 1 62 11 is_stmt 1 view .LVU214
  65:My_Top/Step_Motor/StepperMotor_Loop.cpp ****       reg_final = _pll_reg_out; //е∞ЖPLLйФБзЫЄзОѓзЪДиЊУеЗЇиІТеЇ¶иµЛеАЉзїЩжЬАзїИиІТеЇ¶
 930              		.loc 1 65 7 view .LVU215
  65:My_Top/Step_Motor/StepperMotor_Loop.cpp ****       reg_final = _pll_reg_out; //е∞ЖPLLйФБзЫЄзОѓзЪДиЊУеЗЇиІТеЇ¶иµЛеАЉзїЩжЬАзїИиІТеЇ¶
 931              		.loc 1 65 18 is_stmt 0 view .LVU216
 932 024a 2300     		movs	r3, r4
 933 024c 2433     		adds	r3, r3, #36
 934 024e 2200     		movs	r2, r4
 935 0250 2032     		adds	r2, r2, #32
 936 0252 0949     		ldr	r1, .L30
 937 0254 0091     		str	r1, [sp]
 938 0256 0F49     		ldr	r1, .L30+28
 939 0258 FFF7FEFF 		bl	_Z11foc_pll_runffPfS_P13PLL_Parameter
 940              	.LVL100:
  66:My_Top/Step_Motor/StepperMotor_Loop.cpp ****       theta_deg_final = rad2deg(reg_final); //е∞ЖеЉІеЇ¶иљђжНҐдЄЇ360еЇ¶
 941              		.loc 1 66 7 is_stmt 1 view .LVU217
  66:My_Top/Step_Motor/StepperMotor_Loop.cpp ****       theta_deg_final = rad2deg(reg_final); //е∞ЖеЉІеЇ¶иљђжНҐдЄЇ360еЇ¶
 942              		.loc 1 66 19 is_stmt 0 view .LVU218
 943 025c 206A     		ldr	r0, [r4, #32]
  66:My_Top/Step_Motor/StepperMotor_Loop.cpp ****       theta_deg_final = rad2deg(reg_final); //е∞ЖеЉІеЇ¶иљђжНҐдЄЇ360еЇ¶
 944              		.loc 1 66 17 view .LVU219
 945 025e A062     		str	r0, [r4, #40]
  67:My_Top/Step_Motor/StepperMotor_Loop.cpp ****       Angular_velocity_final = _pll_Angular_velocity; //е∞ЖжЬАзїИйАЯеЇ¶иµЛеАЉзїЩжЬАзїИиІТйАЯеЇ¶
 946              		.loc 1 67 7 is_stmt 1 view .LVU220
  67:My_Top/Step_Motor/StepperMotor_Loop.cpp ****       Angular_velocity_final = _pll_Angular_velocity; //е∞ЖжЬАзїИйАЯеЇ¶иµЛеАЉзїЩжЬАзїИиІТйАЯеЇ¶
 947              		.loc 1 67 25 is_stmt 0 view .LVU221
 948 0260 FFF7FEFF 		bl	__aeabi_f2d
 949              	.LVL101:
 950 0264 094A     		ldr	r2, .L30+20
 951 0266 0A4B     		ldr	r3, .L30+24
 952 0268 FFF7FEFF 		bl	__aeabi_dmul
 953              	.LVL102:
 954 026c FFF7FEFF 		bl	__aeabi_d2f
 955              	.LVL103:
  67:My_Top/Step_Motor/StepperMotor_Loop.cpp ****       Angular_velocity_final = _pll_Angular_velocity; //е∞ЖжЬАзїИйАЯеЇ¶иµЛеАЉзїЩжЬАзїИиІТйАЯеЇ¶
 956              		.loc 1 67 23 view .LVU222
 957 0270 E062     		str	r0, [r4, #44]
  68:My_Top/Step_Motor/StepperMotor_Loop.cpp ****       
 958              		.loc 1 68 7 is_stmt 1 view .LVU223
  68:My_Top/Step_Motor/StepperMotor_Loop.cpp ****       
 959              		.loc 1 68 32 is_stmt 0 view .LVU224
 960 0272 636A     		ldr	r3, [r4, #36]
  68:My_Top/Step_Motor/StepperMotor_Loop.cpp ****       
 961              		.loc 1 68 30 view .LVU225
 962 0274 2363     		str	r3, [r4, #48]
 963              	.LBE41:
  72:My_Top/Step_Motor/StepperMotor_Loop.cpp **** 
 964              		.loc 1 72 1 view .LVU226
 965 0276 DAE7     		b	.L19
 966              	.L31:
 967              		.align	2
 968              	.L30:
ARM GAS  /tmp/ccNe6E36.s 			page 26


 969 0278 00000000 		.word	.LANCHOR0
 970 027c 182D4454 		.word	1413754136
 971 0280 FB210940 		.word	1074340347
 972 0284 DB0FC940 		.word	1086918619
 973 0288 00007A45 		.word	1165623296
 974 028c F8C1631A 		.word	442745336
 975 0290 DCA54C40 		.word	1078765020
 976 0294 6F128339 		.word	964891247
 977              		.cfi_endproc
 978              	.LFE1467:
 980              		.align	1
 981              		.global	_ZN12StepperMotor6setFreEv
 982              		.syntax unified
 983              		.code	16
 984              		.thumb_func
 986              	_ZN12StepperMotor6setFreEv:
 987              	.LVL104:
 988              	.LFB1468:
  76:My_Top/Step_Motor/StepperMotor_Loop.cpp ****     if(MS_FULL_Last != (uint16_t)MS_FULL)
 989              		.loc 1 76 1 is_stmt 1 view -0
 990              		.cfi_startproc
 991              		@ args = 0, pretend = 0, frame = 0
 992              		@ frame_needed = 0, uses_anonymous_args = 0
  76:My_Top/Step_Motor/StepperMotor_Loop.cpp ****     if(MS_FULL_Last != (uint16_t)MS_FULL)
 993              		.loc 1 76 1 is_stmt 0 view .LVU228
 994 0298 70B5     		push	{r4, r5, r6, lr}
 995              		.cfi_def_cfa_offset 16
 996              		.cfi_offset 4, -16
 997              		.cfi_offset 5, -12
 998              		.cfi_offset 6, -8
 999              		.cfi_offset 14, -4
 1000 029a 0400     		movs	r4, r0
  77:My_Top/Step_Motor/StepperMotor_Loop.cpp ****     {
 1001              		.loc 1 77 5 is_stmt 1 view .LVU229
  77:My_Top/Step_Motor/StepperMotor_Loop.cpp ****     {
 1002              		.loc 1 77 8 is_stmt 0 view .LVU230
 1003 029c DE23     		movs	r3, #222
 1004 029e C55A     		ldrh	r5, [r0, r3]
  77:My_Top/Step_Motor/StepperMotor_Loop.cpp ****     {
 1005              		.loc 1 77 34 view .LVU231
 1006 02a0 C06B     		ldr	r0, [r0, #60]
 1007              	.LVL105:
  77:My_Top/Step_Motor/StepperMotor_Loop.cpp ****     {
 1008              		.loc 1 77 24 view .LVU232
 1009 02a2 FFF7FEFF 		bl	__aeabi_f2uiz
 1010              	.LVL106:
 1011 02a6 80B2     		uxth	r0, r0
  77:My_Top/Step_Motor/StepperMotor_Loop.cpp ****     {
 1012              		.loc 1 77 5 view .LVU233
 1013 02a8 8542     		cmp	r5, r0
 1014 02aa 09D1     		bne	.L35
 1015              	.L33:
  82:My_Top/Step_Motor/StepperMotor_Loop.cpp ****     {
 1016              		.loc 1 82 5 is_stmt 1 view .LVU234
  82:My_Top/Step_Motor/StepperMotor_Loop.cpp ****     {
 1017              		.loc 1 82 9 is_stmt 0 view .LVU235
 1018 02ac E06D     		ldr	r0, [r4, #92]
ARM GAS  /tmp/ccNe6E36.s 			page 27


  82:My_Top/Step_Motor/StepperMotor_Loop.cpp ****     {
 1019              		.loc 1 82 36 view .LVU236
 1020 02ae 616B     		ldr	r1, [r4, #52]
 1021 02b0 FFF7FEFF 		bl	_ZN10Step_Motor19Set_Motor_FrequencyEf
 1022              	.LVL107:
  82:My_Top/Step_Motor/StepperMotor_Loop.cpp ****     {
 1023              		.loc 1 82 5 discriminator 1 view .LVU237
 1024 02b4 0028     		cmp	r0, #0
 1025 02b6 02D0     		beq	.L32
  84:My_Top/Step_Motor/StepperMotor_Loop.cpp ****     }
 1026              		.loc 1 84 9 is_stmt 1 view .LVU238
  84:My_Top/Step_Motor/StepperMotor_Loop.cpp ****     }
 1027              		.loc 1 84 24 is_stmt 0 view .LVU239
 1028 02b8 5423     		movs	r3, #84
 1029 02ba 0022     		movs	r2, #0
 1030 02bc E252     		strh	r2, [r4, r3]
 1031              	.L32:
  86:My_Top/Step_Motor/StepperMotor_Loop.cpp **** 
 1032              		.loc 1 86 1 view .LVU240
 1033              		@ sp needed
 1034              	.LVL108:
  86:My_Top/Step_Motor/StepperMotor_Loop.cpp **** 
 1035              		.loc 1 86 1 view .LVU241
 1036 02be 70BD     		pop	{r4, r5, r6, pc}
 1037              	.LVL109:
 1038              	.L35:
  79:My_Top/Step_Motor/StepperMotor_Loop.cpp ****         MS_FULL_Last = (uint16_t)MS_FULL;
 1039              		.loc 1 79 9 is_stmt 1 view .LVU242
  79:My_Top/Step_Motor/StepperMotor_Loop.cpp ****         MS_FULL_Last = (uint16_t)MS_FULL;
 1040              		.loc 1 79 74 is_stmt 0 view .LVU243
 1041 02c0 4342     		rsbs	r3, r0, #0
 1042 02c2 5841     		adcs	r0, r0, r3
 1043 02c4 C2B2     		uxtb	r2, r0
  79:My_Top/Step_Motor/StepperMotor_Loop.cpp ****         MS_FULL_Last = (uint16_t)MS_FULL;
 1044              		.loc 1 79 26 view .LVU244
 1045 02c6 DC23     		movs	r3, #220
 1046 02c8 E15A     		ldrh	r1, [r4, r3]
 1047 02ca 043B     		subs	r3, r3, #4
 1048 02cc E058     		ldr	r0, [r4, r3]
 1049 02ce FFF7FEFF 		bl	HAL_GPIO_WritePin
 1050              	.LVL110:
  80:My_Top/Step_Motor/StepperMotor_Loop.cpp ****     }
 1051              		.loc 1 80 9 is_stmt 1 view .LVU245
  80:My_Top/Step_Motor/StepperMotor_Loop.cpp ****     }
 1052              		.loc 1 80 34 is_stmt 0 view .LVU246
 1053 02d2 E06B     		ldr	r0, [r4, #60]
  80:My_Top/Step_Motor/StepperMotor_Loop.cpp ****     }
 1054              		.loc 1 80 24 view .LVU247
 1055 02d4 FFF7FEFF 		bl	__aeabi_f2uiz
 1056              	.LVL111:
  80:My_Top/Step_Motor/StepperMotor_Loop.cpp ****     }
 1057              		.loc 1 80 22 view .LVU248
 1058 02d8 DE23     		movs	r3, #222
 1059 02da E052     		strh	r0, [r4, r3]
 1060 02dc E6E7     		b	.L33
 1061              		.cfi_endproc
 1062              	.LFE1468:
ARM GAS  /tmp/ccNe6E36.s 			page 28


 1064              		.align	1
 1065              		.global	_ZN12StepperMotor10Speed_LoopEv
 1066              		.syntax unified
 1067              		.code	16
 1068              		.thumb_func
 1070              	_ZN12StepperMotor10Speed_LoopEv:
 1071              	.LVL112:
 1072              	.LFB1469:
  91:My_Top/Step_Motor/StepperMotor_Loop.cpp ****     float _delta_fre = 0.0f;
 1073              		.loc 1 91 1 is_stmt 1 view -0
 1074              		.cfi_startproc
 1075              		@ args = 0, pretend = 0, frame = 0
 1076              		@ frame_needed = 0, uses_anonymous_args = 0
  91:My_Top/Step_Motor/StepperMotor_Loop.cpp ****     float _delta_fre = 0.0f;
 1077              		.loc 1 91 1 is_stmt 0 view .LVU250
 1078 02de 10B5     		push	{r4, lr}
 1079              		.cfi_def_cfa_offset 8
 1080              		.cfi_offset 4, -8
 1081              		.cfi_offset 14, -4
 1082 02e0 0400     		movs	r4, r0
  92:My_Top/Step_Motor/StepperMotor_Loop.cpp ****     _error_speed = _target_speed - Angular_velocity_final; //иЃ°зЃЧйАЯеЇ¶иѓѓеЈЃ
 1083              		.loc 1 92 5 is_stmt 1 view .LVU251
 1084              	.LVL113:
  93:My_Top/Step_Motor/StepperMotor_Loop.cpp ****     _delta_fre = pid_speed.update(_error_speed); //иЃ°зЃЧPIDеҐЮйЗП
 1085              		.loc 1 93 5 view .LVU252
  93:My_Top/Step_Motor/StepperMotor_Loop.cpp ****     _delta_fre = pid_speed.update(_error_speed); //иЃ°зЃЧPIDеҐЮйЗП
 1086              		.loc 1 93 20 is_stmt 0 view .LVU253
 1087 02e2 406C     		ldr	r0, [r0, #68]
 1088              	.LVL114:
  93:My_Top/Step_Motor/StepperMotor_Loop.cpp ****     _delta_fre = pid_speed.update(_error_speed); //иЃ°зЃЧPIDеҐЮйЗП
 1089              		.loc 1 93 36 view .LVU254
 1090 02e4 216B     		ldr	r1, [r4, #48]
  93:My_Top/Step_Motor/StepperMotor_Loop.cpp ****     _delta_fre = pid_speed.update(_error_speed); //иЃ°зЃЧPIDеҐЮйЗП
 1091              		.loc 1 93 34 view .LVU255
 1092 02e6 FFF7FEFF 		bl	__aeabi_fsub
 1093              	.LVL115:
 1094 02ea 011C     		adds	r1, r0, #0
  93:My_Top/Step_Motor/StepperMotor_Loop.cpp ****     _delta_fre = pid_speed.update(_error_speed); //иЃ°зЃЧPIDеҐЮйЗП
 1095              		.loc 1 93 18 view .LVU256
 1096 02ec 2064     		str	r0, [r4, #64]
  94:My_Top/Step_Motor/StepperMotor_Loop.cpp ****     motor_fre += _delta_fre; //жЫіжЦ∞зФµжЬЇйҐСзОЗ
 1097              		.loc 1 94 5 is_stmt 1 view .LVU257
  94:My_Top/Step_Motor/StepperMotor_Loop.cpp ****     motor_fre += _delta_fre; //жЫіжЦ∞зФµжЬЇйҐСзОЗ
 1098              		.loc 1 94 34 is_stmt 0 view .LVU258
 1099 02ee 2000     		movs	r0, r4
 1100 02f0 6030     		adds	r0, r0, #96
 1101 02f2 FFF7FEFF 		bl	_ZN13PID_Increment6updateEf
 1102              	.LVL116:
 1103 02f6 011C     		adds	r1, r0, #0
 1104              	.LVL117:
  95:My_Top/Step_Motor/StepperMotor_Loop.cpp ****     if(motor_fre > 3000) motor_fre = 3000;
 1105              		.loc 1 95 5 is_stmt 1 view .LVU259
 1106 02f8 606B     		ldr	r0, [r4, #52]
 1107              	.LVL118:
  95:My_Top/Step_Motor/StepperMotor_Loop.cpp ****     if(motor_fre > 3000) motor_fre = 3000;
 1108              		.loc 1 95 15 is_stmt 0 view .LVU260
 1109 02fa FFF7FEFF 		bl	__aeabi_fadd
ARM GAS  /tmp/ccNe6E36.s 			page 29


 1110              	.LVL119:
  95:My_Top/Step_Motor/StepperMotor_Loop.cpp ****     if(motor_fre > 3000) motor_fre = 3000;
 1111              		.loc 1 95 15 view .LVU261
 1112 02fe 6063     		str	r0, [r4, #52]
  96:My_Top/Step_Motor/StepperMotor_Loop.cpp ****     if(motor_fre < -3000) motor_fre = -3000;
 1113              		.loc 1 96 5 is_stmt 1 view .LVU262
 1114 0300 0949     		ldr	r1, .L43
 1115 0302 FFF7FEFF 		bl	__aeabi_fcmpgt
 1116              	.LVL120:
 1117 0306 0028     		cmp	r0, #0
 1118 0308 01D0     		beq	.L37
  96:My_Top/Step_Motor/StepperMotor_Loop.cpp ****     if(motor_fre < -3000) motor_fre = -3000;
 1119              		.loc 1 96 26 discriminator 1 view .LVU263
  96:My_Top/Step_Motor/StepperMotor_Loop.cpp ****     if(motor_fre < -3000) motor_fre = -3000;
 1120              		.loc 1 96 36 is_stmt 0 discriminator 1 view .LVU264
 1121 030a 074B     		ldr	r3, .L43
 1122 030c 6363     		str	r3, [r4, #52]
 1123              	.L37:
  97:My_Top/Step_Motor/StepperMotor_Loop.cpp ****     setFre(); //иЃЊзљЃзФµжЬЇйҐСзОЗ
 1124              		.loc 1 97 5 is_stmt 1 view .LVU265
  97:My_Top/Step_Motor/StepperMotor_Loop.cpp ****     setFre(); //иЃЊзљЃзФµжЬЇйҐСзОЗ
 1125              		.loc 1 97 8 is_stmt 0 view .LVU266
 1126 030e 606B     		ldr	r0, [r4, #52]
  97:My_Top/Step_Motor/StepperMotor_Loop.cpp ****     setFre(); //иЃЊзљЃзФµжЬЇйҐСзОЗ
 1127              		.loc 1 97 5 view .LVU267
 1128 0310 0649     		ldr	r1, .L43+4
 1129 0312 FFF7FEFF 		bl	__aeabi_fcmplt
 1130              	.LVL121:
 1131 0316 0028     		cmp	r0, #0
 1132 0318 01D0     		beq	.L39
  97:My_Top/Step_Motor/StepperMotor_Loop.cpp ****     setFre(); //иЃЊзљЃзФµжЬЇйҐСзОЗ
 1133              		.loc 1 97 27 is_stmt 1 discriminator 1 view .LVU268
  97:My_Top/Step_Motor/StepperMotor_Loop.cpp ****     setFre(); //иЃЊзљЃзФµжЬЇйҐСзОЗ
 1134              		.loc 1 97 37 is_stmt 0 discriminator 1 view .LVU269
 1135 031a 044B     		ldr	r3, .L43+4
 1136 031c 6363     		str	r3, [r4, #52]
 1137              	.L39:
  98:My_Top/Step_Motor/StepperMotor_Loop.cpp **** }
 1138              		.loc 1 98 5 is_stmt 1 view .LVU270
  98:My_Top/Step_Motor/StepperMotor_Loop.cpp **** }
 1139              		.loc 1 98 11 is_stmt 0 view .LVU271
 1140 031e 2000     		movs	r0, r4
 1141 0320 FFF7FEFF 		bl	_ZN12StepperMotor6setFreEv
 1142              	.LVL122:
  99:My_Top/Step_Motor/StepperMotor_Loop.cpp **** 
 1143              		.loc 1 99 1 view .LVU272
 1144              		@ sp needed
 1145              	.LVL123:
  99:My_Top/Step_Motor/StepperMotor_Loop.cpp **** 
 1146              		.loc 1 99 1 view .LVU273
 1147 0324 10BD     		pop	{r4, pc}
 1148              	.L44:
 1149 0326 C046     		.align	2
 1150              	.L43:
 1151 0328 00803B45 		.word	1161527296
 1152 032c 00803BC5 		.word	-985956352
 1153              		.cfi_endproc
ARM GAS  /tmp/ccNe6E36.s 			page 30


 1154              	.LFE1469:
 1156              		.align	1
 1157              		.global	_ZN12StepperMotor13Position_LoopEv
 1158              		.syntax unified
 1159              		.code	16
 1160              		.thumb_func
 1162              	_ZN12StepperMotor13Position_LoopEv:
 1163              	.LVL124:
 1164              	.LFB1470:
 103:My_Top/Step_Motor/StepperMotor_Loop.cpp ****     float _delta_fre = 0.0f;
 1165              		.loc 1 103 1 is_stmt 1 view -0
 1166              		.cfi_startproc
 1167              		@ args = 0, pretend = 0, frame = 0
 1168              		@ frame_needed = 0, uses_anonymous_args = 0
 103:My_Top/Step_Motor/StepperMotor_Loop.cpp ****     float _delta_fre = 0.0f;
 1169              		.loc 1 103 1 is_stmt 0 view .LVU275
 1170 0330 10B5     		push	{r4, lr}
 1171              		.cfi_def_cfa_offset 8
 1172              		.cfi_offset 4, -8
 1173              		.cfi_offset 14, -4
 1174 0332 0400     		movs	r4, r0
 104:My_Top/Step_Motor/StepperMotor_Loop.cpp ****     _target_error_location = _target_location1 - reg_final; //иЃ°зЃЧдљНзљЃиѓѓеЈЃ
 1175              		.loc 1 104 5 is_stmt 1 view .LVU276
 1176              	.LVL125:
 105:My_Top/Step_Motor/StepperMotor_Loop.cpp ****     _delta_fre = pid_location.update(_target_error_location); //иЃ°зЃЧPIDеҐЮйЗП
 1177              		.loc 1 105 5 view .LVU277
 105:My_Top/Step_Motor/StepperMotor_Loop.cpp ****     _delta_fre = pid_location.update(_target_error_location); //иЃ°зЃЧPIDеҐЮйЗП
 1178              		.loc 1 105 30 is_stmt 0 view .LVU278
 1179 0334 806C     		ldr	r0, [r0, #72]
 1180              	.LVL126:
 105:My_Top/Step_Motor/StepperMotor_Loop.cpp ****     _delta_fre = pid_location.update(_target_error_location); //иЃ°зЃЧPIDеҐЮйЗП
 1181              		.loc 1 105 50 view .LVU279
 1182 0336 A16A     		ldr	r1, [r4, #40]
 105:My_Top/Step_Motor/StepperMotor_Loop.cpp ****     _delta_fre = pid_location.update(_target_error_location); //иЃ°зЃЧPIDеҐЮйЗП
 1183              		.loc 1 105 48 view .LVU280
 1184 0338 FFF7FEFF 		bl	__aeabi_fsub
 1185              	.LVL127:
 1186 033c 011C     		adds	r1, r0, #0
 105:My_Top/Step_Motor/StepperMotor_Loop.cpp ****     _delta_fre = pid_location.update(_target_error_location); //иЃ°зЃЧPIDеҐЮйЗП
 1187              		.loc 1 105 28 view .LVU281
 1188 033e E064     		str	r0, [r4, #76]
 106:My_Top/Step_Motor/StepperMotor_Loop.cpp ****     _target_speed +=_delta_fre; //жЫіжЦ∞зЫЃж†ЗйАЯеЇ¶
 1189              		.loc 1 106 5 is_stmt 1 view .LVU282
 106:My_Top/Step_Motor/StepperMotor_Loop.cpp ****     _target_speed +=_delta_fre; //жЫіжЦ∞зЫЃж†ЗйАЯеЇ¶
 1190              		.loc 1 106 37 is_stmt 0 view .LVU283
 1191 0340 2000     		movs	r0, r4
 1192 0342 8430     		adds	r0, r0, #132
 1193 0344 FFF7FEFF 		bl	_ZN13PID_Increment6updateEf
 1194              	.LVL128:
 1195 0348 011C     		adds	r1, r0, #0
 1196              	.LVL129:
 107:My_Top/Step_Motor/StepperMotor_Loop.cpp ****     if(_target_speed > 60.0f) _target_speed = 60.0f;
 1197              		.loc 1 107 5 is_stmt 1 view .LVU284
 1198 034a 606C     		ldr	r0, [r4, #68]
 1199              	.LVL130:
 107:My_Top/Step_Motor/StepperMotor_Loop.cpp ****     if(_target_speed > 60.0f) _target_speed = 60.0f;
 1200              		.loc 1 107 19 is_stmt 0 view .LVU285
ARM GAS  /tmp/ccNe6E36.s 			page 31


 1201 034c FFF7FEFF 		bl	__aeabi_fadd
 1202              	.LVL131:
 107:My_Top/Step_Motor/StepperMotor_Loop.cpp ****     if(_target_speed > 60.0f) _target_speed = 60.0f;
 1203              		.loc 1 107 19 view .LVU286
 1204 0350 6064     		str	r0, [r4, #68]
 108:My_Top/Step_Motor/StepperMotor_Loop.cpp ****     if(_target_speed < -60.0f) _target_speed = -60.0f;
 1205              		.loc 1 108 5 is_stmt 1 view .LVU287
 1206 0352 0949     		ldr	r1, .L52
 1207 0354 FFF7FEFF 		bl	__aeabi_fcmpgt
 1208              	.LVL132:
 1209 0358 0028     		cmp	r0, #0
 1210 035a 01D0     		beq	.L46
 108:My_Top/Step_Motor/StepperMotor_Loop.cpp ****     if(_target_speed < -60.0f) _target_speed = -60.0f;
 1211              		.loc 1 108 31 discriminator 1 view .LVU288
 108:My_Top/Step_Motor/StepperMotor_Loop.cpp ****     if(_target_speed < -60.0f) _target_speed = -60.0f;
 1212              		.loc 1 108 45 is_stmt 0 discriminator 1 view .LVU289
 1213 035c 064B     		ldr	r3, .L52
 1214 035e 6364     		str	r3, [r4, #68]
 1215              	.L46:
 109:My_Top/Step_Motor/StepperMotor_Loop.cpp ****     Speed_Loop(); //дљНзљЃзОѓеЖЕйГ®и∞ГзФ®йАЯеЇ¶зОѓжОІеИґ
 1216              		.loc 1 109 5 is_stmt 1 view .LVU290
 109:My_Top/Step_Motor/StepperMotor_Loop.cpp ****     Speed_Loop(); //дљНзљЃзОѓеЖЕйГ®и∞ГзФ®йАЯеЇ¶зОѓжОІеИґ
 1217              		.loc 1 109 8 is_stmt 0 view .LVU291
 1218 0360 606C     		ldr	r0, [r4, #68]
 109:My_Top/Step_Motor/StepperMotor_Loop.cpp ****     Speed_Loop(); //дљНзљЃзОѓеЖЕйГ®и∞ГзФ®йАЯеЇ¶зОѓжОІеИґ
 1219              		.loc 1 109 5 view .LVU292
 1220 0362 0649     		ldr	r1, .L52+4
 1221 0364 FFF7FEFF 		bl	__aeabi_fcmplt
 1222              	.LVL133:
 1223 0368 0028     		cmp	r0, #0
 1224 036a 01D0     		beq	.L48
 109:My_Top/Step_Motor/StepperMotor_Loop.cpp ****     Speed_Loop(); //дљНзљЃзОѓеЖЕйГ®и∞ГзФ®йАЯеЇ¶зОѓжОІеИґ
 1225              		.loc 1 109 32 is_stmt 1 discriminator 1 view .LVU293
 109:My_Top/Step_Motor/StepperMotor_Loop.cpp ****     Speed_Loop(); //дљНзљЃзОѓеЖЕйГ®и∞ГзФ®йАЯеЇ¶зОѓжОІеИґ
 1226              		.loc 1 109 46 is_stmt 0 discriminator 1 view .LVU294
 1227 036c 034B     		ldr	r3, .L52+4
 1228 036e 6364     		str	r3, [r4, #68]
 1229              	.L48:
 110:My_Top/Step_Motor/StepperMotor_Loop.cpp **** }
 1230              		.loc 1 110 5 is_stmt 1 view .LVU295
 110:My_Top/Step_Motor/StepperMotor_Loop.cpp **** }
 1231              		.loc 1 110 15 is_stmt 0 view .LVU296
 1232 0370 2000     		movs	r0, r4
 1233 0372 FFF7FEFF 		bl	_ZN12StepperMotor10Speed_LoopEv
 1234              	.LVL134:
 111:My_Top/Step_Motor/StepperMotor_Loop.cpp **** 
 1235              		.loc 1 111 1 view .LVU297
 1236              		@ sp needed
 1237              	.LVL135:
 111:My_Top/Step_Motor/StepperMotor_Loop.cpp **** 
 1238              		.loc 1 111 1 view .LVU298
 1239 0376 10BD     		pop	{r4, pc}
 1240              	.L53:
 1241              		.align	2
 1242              	.L52:
 1243 0378 00007042 		.word	1114636288
 1244 037c 000070C2 		.word	-1032847360
ARM GAS  /tmp/ccNe6E36.s 			page 32


 1245              		.cfi_endproc
 1246              	.LFE1470:
 1248              		.align	1
 1249              		.global	_ZN12StepperMotor12Step_HandlerEv
 1250              		.syntax unified
 1251              		.code	16
 1252              		.thumb_func
 1254              	_ZN12StepperMotor12Step_HandlerEv:
 1255              	.LVL136:
 1256              	.LFB1471:
 128:My_Top/Step_Motor/StepperMotor_Loop.cpp ****     if (!control_init_flag) return;
 1257              		.loc 1 128 1 is_stmt 1 view -0
 1258              		.cfi_startproc
 1259              		@ args = 0, pretend = 0, frame = 0
 1260              		@ frame_needed = 0, uses_anonymous_args = 0
 128:My_Top/Step_Motor/StepperMotor_Loop.cpp ****     if (!control_init_flag) return;
 1261              		.loc 1 128 1 is_stmt 0 view .LVU300
 1262 0380 10B5     		push	{r4, lr}
 1263              		.cfi_def_cfa_offset 8
 1264              		.cfi_offset 4, -8
 1265              		.cfi_offset 14, -4
 1266 0382 0400     		movs	r4, r0
 129:My_Top/Step_Motor/StepperMotor_Loop.cpp **** 
 1267              		.loc 1 129 5 is_stmt 1 view .LVU301
 129:My_Top/Step_Motor/StepperMotor_Loop.cpp **** 
 1268              		.loc 1 129 10 is_stmt 0 view .LVU302
 1269 0384 4378     		ldrb	r3, [r0, #1]
 129:My_Top/Step_Motor/StepperMotor_Loop.cpp **** 
 1270              		.loc 1 129 5 view .LVU303
 1271 0386 002B     		cmp	r3, #0
 1272 0388 18D0     		beq	.L54
 131:My_Top/Step_Motor/StepperMotor_Loop.cpp ****     {
 1273              		.loc 1 131 5 is_stmt 1 view .LVU304
 131:My_Top/Step_Motor/StepperMotor_Loop.cpp ****     {
 1274              		.loc 1 131 19 is_stmt 0 view .LVU305
 1275 038a 806D     		ldr	r0, [r0, #88]
 1276              	.LVL137:
 131:My_Top/Step_Motor/StepperMotor_Loop.cpp ****     {
 1277              		.loc 1 131 9 view .LVU306
 1278 038c FFF7FEFF 		bl	__aeabi_f2uiz
 1279              	.LVL138:
 131:My_Top/Step_Motor/StepperMotor_Loop.cpp ****     {
 1280              		.loc 1 131 37 view .LVU307
 1281 0390 E023     		movs	r3, #224
 1282 0392 E358     		ldr	r3, [r4, r3]
 131:My_Top/Step_Motor/StepperMotor_Loop.cpp ****     {
 1283              		.loc 1 131 5 view .LVU308
 1284 0394 9842     		cmp	r0, r3
 1285 0396 12D1     		bne	.L58
 1286              	.L56:
 139:My_Top/Step_Motor/StepperMotor_Loop.cpp ****     motor_step_cnt++;//иЃ°ж≠•
 1287              		.loc 1 139 5 is_stmt 1 view .LVU309
 139:My_Top/Step_Motor/StepperMotor_Loop.cpp ****     motor_step_cnt++;//иЃ°ж≠•
 1288              		.loc 1 139 19 is_stmt 0 view .LVU310
 1289 0398 A06D     		ldr	r0, [r4, #88]
 139:My_Top/Step_Motor/StepperMotor_Loop.cpp ****     motor_step_cnt++;//иЃ°ж≠•
 1290              		.loc 1 139 9 view .LVU311
ARM GAS  /tmp/ccNe6E36.s 			page 33


 1291 039a FFF7FEFF 		bl	__aeabi_f2uiz
 1292              	.LVL139:
 139:My_Top/Step_Motor/StepperMotor_Loop.cpp ****     motor_step_cnt++;//иЃ°ж≠•
 1293              		.loc 1 139 5 view .LVU312
 1294 039e 0028     		cmp	r0, #0
 1295 03a0 03D0     		beq	.L57
 139:My_Top/Step_Motor/StepperMotor_Loop.cpp ****     motor_step_cnt++;//иЃ°ж≠•
 1296              		.loc 1 139 42 discriminator 1 view .LVU313
 1297 03a2 5423     		movs	r3, #84
 1298 03a4 E35A     		ldrh	r3, [r4, r3]
 139:My_Top/Step_Motor/StepperMotor_Loop.cpp ****     motor_step_cnt++;//иЃ°ж≠•
 1299              		.loc 1 139 39 discriminator 1 view .LVU314
 1300 03a6 9842     		cmp	r0, r3
 1301 03a8 08D9     		bls	.L54
 1302              	.L57:
 140:My_Top/Step_Motor/StepperMotor_Loop.cpp ****     // еИЪеИ∞дЄКйЩР вЖТ еЕ≥зФµжЬЇ
 1303              		.loc 1 140 5 is_stmt 1 view .LVU315
 1304 03aa 5422     		movs	r2, #84
 1305 03ac A35A     		ldrh	r3, [r4, r2]
 140:My_Top/Step_Motor/StepperMotor_Loop.cpp ****     // еИЪеИ∞дЄКйЩР вЖТ еЕ≥зФµжЬЇ
 1306              		.loc 1 140 19 is_stmt 0 view .LVU316
 1307 03ae 0133     		adds	r3, r3, #1
 1308 03b0 9BB2     		uxth	r3, r3
 1309 03b2 A352     		strh	r3, [r4, r2]
 142:My_Top/Step_Motor/StepperMotor_Loop.cpp ****     {
 1310              		.loc 1 142 5 is_stmt 1 view .LVU317
 1311 03b4 0028     		cmp	r0, #0
 1312 03b6 01D0     		beq	.L54
 142:My_Top/Step_Motor/StepperMotor_Loop.cpp ****     {
 1313              		.loc 1 142 39 is_stmt 0 discriminator 1 view .LVU318
 1314 03b8 9842     		cmp	r0, r3
 1315 03ba 0AD9     		bls	.L59
 1316              	.L54:
 1317              		.loc 1 146 1 view .LVU319
 1318              		@ sp needed
 1319              	.LVL140:
 1320              		.loc 1 146 1 view .LVU320
 1321 03bc 10BD     		pop	{r4, pc}
 1322              	.LVL141:
 1323              	.L58:
 133:My_Top/Step_Motor/StepperMotor_Loop.cpp ****         motor_step_max_last_ = (uint32_t)motor_step_max;
 1324              		.loc 1 133 9 is_stmt 1 view .LVU321
 133:My_Top/Step_Motor/StepperMotor_Loop.cpp ****         motor_step_max_last_ = (uint32_t)motor_step_max;
 1325              		.loc 1 133 24 is_stmt 0 view .LVU322
 1326 03be 5423     		movs	r3, #84
 1327 03c0 0022     		movs	r2, #0
 1328 03c2 E252     		strh	r2, [r4, r3]
 134:My_Top/Step_Motor/StepperMotor_Loop.cpp ****         _motor->Set_Motor_EN(true);//зФµжЬЇдљњиГљ
 1329              		.loc 1 134 9 is_stmt 1 view .LVU323
 134:My_Top/Step_Motor/StepperMotor_Loop.cpp ****         _motor->Set_Motor_EN(true);//зФµжЬЇдљњиГљ
 1330              		.loc 1 134 30 is_stmt 0 view .LVU324
 1331 03c4 8C33     		adds	r3, r3, #140
 1332 03c6 E050     		str	r0, [r4, r3]
 135:My_Top/Step_Motor/StepperMotor_Loop.cpp ****     }
 1333              		.loc 1 135 9 is_stmt 1 view .LVU325
 1334 03c8 E06D     		ldr	r0, [r4, #92]
 135:My_Top/Step_Motor/StepperMotor_Loop.cpp ****     }
ARM GAS  /tmp/ccNe6E36.s 			page 34


 1335              		.loc 1 135 29 is_stmt 0 view .LVU326
 1336 03ca 0121     		movs	r1, #1
 1337 03cc FFF7FEFF 		bl	_ZN10Step_Motor12Set_Motor_ENEb
 1338              	.LVL142:
 1339 03d0 E2E7     		b	.L56
 1340              	.L59:
 144:My_Top/Step_Motor/StepperMotor_Loop.cpp ****     }
 1341              		.loc 1 144 9 is_stmt 1 view .LVU327
 1342 03d2 E06D     		ldr	r0, [r4, #92]
 144:My_Top/Step_Motor/StepperMotor_Loop.cpp ****     }
 1343              		.loc 1 144 29 is_stmt 0 view .LVU328
 1344 03d4 0021     		movs	r1, #0
 1345 03d6 FFF7FEFF 		bl	_ZN10Step_Motor12Set_Motor_ENEb
 1346              	.LVL143:
 1347 03da EFE7     		b	.L54
 1348              		.cfi_endproc
 1349              	.LFE1471:
 1351              		.align	1
 1352              		.syntax unified
 1353              		.code	16
 1354              		.thumb_func
 1356              	_GLOBAL__sub_I_pll_conf:
 1357              	.LFB1623:
 1358              		.loc 1 146 1 is_stmt 1 view -0
 1359              		.cfi_startproc
 1360              		@ args = 0, pretend = 0, frame = 0
 1361              		@ frame_needed = 0, uses_anonymous_args = 0
 1362 03dc 10B5     		push	{r4, lr}
 1363              		.cfi_def_cfa_offset 8
 1364              		.cfi_offset 4, -8
 1365              		.cfi_offset 14, -4
 1366              		.loc 1 146 1 is_stmt 0 view .LVU330
 1367 03de FFF70FFE 		bl	_Z41__static_initialization_and_destruction_0v
 1368              	.LVL144:
 1369              		@ sp needed
 1370 03e2 10BD     		pop	{r4, pc}
 1371              		.cfi_endproc
 1372              	.LFE1623:
 1374              		.section	.init_array,"aw",%init_array
 1375              		.align	2
 1376 0000 00000000 		.word	_GLOBAL__sub_I_pll_conf(target1)
 1377              		.global	M2
 1378              		.global	M1
 1379              		.global	kth7111_B
 1380              		.global	kth7111_A
 1381              		.global	pll_conf
 1382              		.bss
 1383              		.align	3
 1384              		.set	.LANCHOR0,. + 0
 1387              	pll_conf:
 1388 0000 00000000 		.space	16
 1388      00000000 
 1388      00000000 
 1388      00000000 
 1391              	kth7111_A:
 1392 0010 00000000 		.space	28
 1392      00000000 
ARM GAS  /tmp/ccNe6E36.s 			page 35


 1392      00000000 
 1392      00000000 
 1392      00000000 
 1395              	kth7111_B:
 1396 002c 00000000 		.space	28
 1396      00000000 
 1396      00000000 
 1396      00000000 
 1396      00000000 
 1399              	_ZZN12StepperMotor28Update_Speed_Angle_LPFAndPLLEvE9fudu_test:
 1400 0048 00000000 		.space	4
 1403              	_ZZN12StepperMotor28Update_Speed_Angle_LPFAndPLLEvE18theta_m_offic_temp:
 1404 004c 00000000 		.space	4
 1407              	M2:
 1408 0050 00000000 		.space	228
 1408      00000000 
 1408      00000000 
 1408      00000000 
 1408      00000000 
 1411              	M1:
 1412 0134 00000000 		.space	228
 1412      00000000 
 1412      00000000 
 1412      00000000 
 1412      00000000 
 1413              		.text
 1414              	.Letext0:
 1415              		.file 6 "/opt/arm-gnu-toolchain-14.2/arm-none-eabi/include/machine/_default_types.h"
 1416              		.file 7 "/opt/arm-gnu-toolchain-14.2/arm-none-eabi/include/sys/_stdint.h"
 1417              		.file 8 "/opt/arm-gnu-toolchain-14.2/arm-none-eabi/include/c++/14.2.1/cmath"
 1418              		.file 9 "/opt/arm-gnu-toolchain-14.2/arm-none-eabi/include/c++/14.2.1/type_traits"
 1419              		.file 10 "/opt/arm-gnu-toolchain-14.2/arm-none-eabi/include/c++/14.2.1/debug/debug.h"
 1420              		.file 11 "/opt/arm-gnu-toolchain-14.2/arm-none-eabi/include/c++/14.2.1/bits/std_abs.h"
 1421              		.file 12 "/opt/arm-gnu-toolchain-14.2/arm-none-eabi/include/c++/14.2.1/bits/predefined_ops.h"
 1422              		.file 13 "/opt/arm-gnu-toolchain-14.2/arm-none-eabi/include/math.h"
 1423              		.file 14 "/opt/arm-gnu-toolchain-14.2/arm-none-eabi/include/c++/14.2.1/arm-none-eabi/thumb/v6-m/no
 1424              		.file 15 "/opt/arm-gnu-toolchain-14.2/arm-none-eabi/include/c++/14.2.1/math.h"
 1425              		.file 16 "Lib/compute/ex_math.hpp"
 1426              		.file 17 "Drivers/CMSIS/Device/ST/STM32G0xx/Include/stm32g071xx.h"
 1427              		.file 18 "Drivers/STM32G0xx_HAL_Driver/Inc/stm32g0xx_hal_def.h"
 1428              		.file 19 "Drivers/STM32G0xx_HAL_Driver/Inc/stm32g0xx_hal_gpio.h"
 1429              		.file 20 "Drivers/STM32G0xx_HAL_Driver/Inc/stm32g0xx_hal_dma.h"
 1430              		.file 21 "Drivers/STM32G0xx_HAL_Driver/Inc/stm32g0xx_hal_spi.h"
 1431              		.file 22 "Drivers/STM32G0xx_HAL_Driver/Inc/stm32g0xx_hal_tim.h"
 1432              		.file 23 "Core/Inc/spi.h"
 1433              		.file 24 "My_Top/Step_Motor/Step.hpp"
 1434              		.file 25 "Drivers/STM32G0xx_HAL_Driver/Inc/stm32g0xx_ll_dma.h"
ARM GAS  /tmp/ccNe6E36.s 			page 36


DEFINED SYMBOLS
                            *ABS*:00000000 StepperMotor_Loop.cpp
     /tmp/ccNe6E36.s:19     .text._ZN13PID_Increment6updateEf:00000000 $t
     /tmp/ccNe6E36.s:25     .text._ZN13PID_Increment6updateEf:00000000 _ZN13PID_Increment6updateEf
     /tmp/ccNe6E36.s:191    .text._ZN12StepperMotorC2EP10Step_MotorP7KTH7111ffffffbP12GPIO_TypeDeft:00000000 $t
     /tmp/ccNe6E36.s:197    .text._ZN12StepperMotorC2EP10Step_MotorP7KTH7111ffffffbP12GPIO_TypeDeft:00000000 _ZN12StepperMotorC2EP10Step_MotorP7KTH7111ffffffbP12GPIO_TypeDeft
     /tmp/ccNe6E36.s:393    .text._ZN12StepperMotorC2EP10Step_MotorP7KTH7111ffffffbP12GPIO_TypeDeft:000000b8 $d
     /tmp/ccNe6E36.s:197    .text._ZN12StepperMotorC2EP10Step_MotorP7KTH7111ffffffbP12GPIO_TypeDeft:00000000 _ZN12StepperMotorC1EP10Step_MotorP7KTH7111ffffffbP12GPIO_TypeDeft
     /tmp/ccNe6E36.s:404    .text:00000000 $t
     /tmp/ccNe6E36.s:409    .text:00000000 _Z41__static_initialization_and_destruction_0v
     /tmp/ccNe6E36.s:568    .text:000000b0 $d
     /tmp/ccNe6E36.s:1411   .bss:00000134 M1
     /tmp/ccNe6E36.s:1407   .bss:00000050 M2
     /tmp/ccNe6E36.s:585    .text:000000e8 $t
     /tmp/ccNe6E36.s:591    .text:000000e8 _ZN12StepperMotor15My_Stepper_InitEv
     /tmp/ccNe6E36.s:682    .text:00000148 $d
     /tmp/ccNe6E36.s:686    .text:0000014c $t
     /tmp/ccNe6E36.s:692    .text:0000014c _ZN12StepperMotor28Update_Speed_Angle_LPFAndPLLEv
     /tmp/ccNe6E36.s:969    .text:00000278 $d
     /tmp/ccNe6E36.s:980    .text:00000298 $t
     /tmp/ccNe6E36.s:986    .text:00000298 _ZN12StepperMotor6setFreEv
     /tmp/ccNe6E36.s:1070   .text:000002de _ZN12StepperMotor10Speed_LoopEv
     /tmp/ccNe6E36.s:1151   .text:00000328 $d
     /tmp/ccNe6E36.s:1156   .text:00000330 $t
     /tmp/ccNe6E36.s:1162   .text:00000330 _ZN12StepperMotor13Position_LoopEv
     /tmp/ccNe6E36.s:1243   .text:00000378 $d
     /tmp/ccNe6E36.s:1248   .text:00000380 $t
     /tmp/ccNe6E36.s:1254   .text:00000380 _ZN12StepperMotor12Step_HandlerEv
     /tmp/ccNe6E36.s:1356   .text:000003dc _GLOBAL__sub_I_pll_conf
     /tmp/ccNe6E36.s:1375   .init_array:00000000 $d
     /tmp/ccNe6E36.s:1395   .bss:0000002c kth7111_B
     /tmp/ccNe6E36.s:1391   .bss:00000010 kth7111_A
     /tmp/ccNe6E36.s:1387   .bss:00000000 pll_conf
     /tmp/ccNe6E36.s:1383   .bss:00000000 $d
     /tmp/ccNe6E36.s:1399   .bss:00000048 _ZZN12StepperMotor28Update_Speed_Angle_LPFAndPLLEvE9fudu_test
     /tmp/ccNe6E36.s:1403   .bss:0000004c _ZZN12StepperMotor28Update_Speed_Angle_LPFAndPLLEvE18theta_m_offic_temp
                           .group:00000000 _ZN12StepperMotorC5EP10Step_MotorP7KTH7111ffffffbP12GPIO_TypeDeft

UNDEFINED SYMBOLS
__aeabi_fsub
__aeabi_fmul
__aeabi_fdiv
__aeabi_fadd
__aeabi_fcmpgt
__aeabi_fcmplt
hspi1
hspi2
Motor_M1
Motor_M2
_ZN13LowpassFilter4initEf
_ZN9AvgFilter4initEh
_ZN7KTH711112KTH7111_InitEb
_ZN10Step_Motor10Motor_InitEv
__aeabi_fcmpeq
HAL_GPIO_WritePin
_ZN7KTH711121KTH7111_Send_JIAO_CMDEv
_ZN7KTH711118Get_KTH7111_RadianEv
ARM GAS  /tmp/ccNe6E36.s 			page 37


__aeabi_f2d
__aeabi_dadd
__aeabi_d2f
fmodf
__aeabi_dsub
_ZN13LowpassFilter6filterEf
_ZN9AvgFilter6filterEf
__aeabi_dmul
_Z11foc_pll_runffPfS_P13PLL_Parameter
__aeabi_f2uiz
_ZN10Step_Motor19Set_Motor_FrequencyEf
_ZN10Step_Motor12Set_Motor_ENEb
