ARM GAS  /tmp/cc0MMaA6.s 			page 1


   1              		.cpu cortex-m0plus
   2              		.arch armv6s-m
   3              		.fpu softvfp
   4              		.eabi_attribute 20, 1
   5              		.eabi_attribute 21, 1
   6              		.eabi_attribute 23, 3
   7              		.eabi_attribute 24, 1
   8              		.eabi_attribute 25, 1
   9              		.eabi_attribute 26, 1
  10              		.eabi_attribute 30, 1
  11              		.eabi_attribute 34, 0
  12              		.eabi_attribute 18, 4
  13              		.file	"stm32g0xx_hal_timebase_tim.c"
  14              		.text
  15              	.Ltext0:
  16              		.cfi_sections	.debug_frame
  17              		.file 1 "Core/Src/stm32g0xx_hal_timebase_tim.c"
  18              		.section	.text.HAL_InitTick,"ax",%progbits
  19              		.align	1
  20              		.global	HAL_InitTick
  21              		.syntax unified
  22              		.code	16
  23              		.thumb_func
  25              	HAL_InitTick:
  26              	.LVL0:
  27              	.LFB457:
   1:Core/Src/stm32g0xx_hal_timebase_tim.c **** /* USER CODE BEGIN Header */
   2:Core/Src/stm32g0xx_hal_timebase_tim.c **** /**
   3:Core/Src/stm32g0xx_hal_timebase_tim.c ****   ******************************************************************************
   4:Core/Src/stm32g0xx_hal_timebase_tim.c ****   * @file    stm32g0xx_hal_timebase_tim.c
   5:Core/Src/stm32g0xx_hal_timebase_tim.c ****   * @brief   HAL time base based on the hardware TIM.
   6:Core/Src/stm32g0xx_hal_timebase_tim.c ****   ******************************************************************************
   7:Core/Src/stm32g0xx_hal_timebase_tim.c ****   * @attention
   8:Core/Src/stm32g0xx_hal_timebase_tim.c ****   *
   9:Core/Src/stm32g0xx_hal_timebase_tim.c ****   * Copyright (c) 2026 STMicroelectronics.
  10:Core/Src/stm32g0xx_hal_timebase_tim.c ****   * All rights reserved.
  11:Core/Src/stm32g0xx_hal_timebase_tim.c ****   *
  12:Core/Src/stm32g0xx_hal_timebase_tim.c ****   * This software is licensed under terms that can be found in the LICENSE file
  13:Core/Src/stm32g0xx_hal_timebase_tim.c ****   * in the root directory of this software component.
  14:Core/Src/stm32g0xx_hal_timebase_tim.c ****   * If no LICENSE file comes with this software, it is provided AS-IS.
  15:Core/Src/stm32g0xx_hal_timebase_tim.c ****   *
  16:Core/Src/stm32g0xx_hal_timebase_tim.c ****   ******************************************************************************
  17:Core/Src/stm32g0xx_hal_timebase_tim.c ****   */
  18:Core/Src/stm32g0xx_hal_timebase_tim.c **** /* USER CODE END Header */
  19:Core/Src/stm32g0xx_hal_timebase_tim.c **** 
  20:Core/Src/stm32g0xx_hal_timebase_tim.c **** /* Includes ------------------------------------------------------------------*/
  21:Core/Src/stm32g0xx_hal_timebase_tim.c **** #include "stm32g0xx_hal.h"
  22:Core/Src/stm32g0xx_hal_timebase_tim.c **** #include "stm32g0xx_hal_tim.h"
  23:Core/Src/stm32g0xx_hal_timebase_tim.c **** 
  24:Core/Src/stm32g0xx_hal_timebase_tim.c **** /* Private typedef -----------------------------------------------------------*/
  25:Core/Src/stm32g0xx_hal_timebase_tim.c **** /* Private define ------------------------------------------------------------*/
  26:Core/Src/stm32g0xx_hal_timebase_tim.c **** /* Private macro -------------------------------------------------------------*/
  27:Core/Src/stm32g0xx_hal_timebase_tim.c **** /* Private variables ---------------------------------------------------------*/
  28:Core/Src/stm32g0xx_hal_timebase_tim.c **** TIM_HandleTypeDef        htim17;
  29:Core/Src/stm32g0xx_hal_timebase_tim.c **** /* Private function prototypes -----------------------------------------------*/
  30:Core/Src/stm32g0xx_hal_timebase_tim.c **** /* Private functions ---------------------------------------------------------*/
  31:Core/Src/stm32g0xx_hal_timebase_tim.c **** 
ARM GAS  /tmp/cc0MMaA6.s 			page 2


  32:Core/Src/stm32g0xx_hal_timebase_tim.c **** /**
  33:Core/Src/stm32g0xx_hal_timebase_tim.c ****   * @brief  This function configures the TIM17 as a time base source.
  34:Core/Src/stm32g0xx_hal_timebase_tim.c ****   *         The time source is configured  to have 1ms time base with a dedicated
  35:Core/Src/stm32g0xx_hal_timebase_tim.c ****   *         Tick interrupt priority.
  36:Core/Src/stm32g0xx_hal_timebase_tim.c ****   * @note   This function is called  automatically at the beginning of program after
  37:Core/Src/stm32g0xx_hal_timebase_tim.c ****   *         reset by HAL_Init() or at any time when clock is configured, by HAL_RCC_ClockConfig().
  38:Core/Src/stm32g0xx_hal_timebase_tim.c ****   * @param  TickPriority: Tick interrupt priority.
  39:Core/Src/stm32g0xx_hal_timebase_tim.c ****   * @retval HAL status
  40:Core/Src/stm32g0xx_hal_timebase_tim.c ****   */
  41:Core/Src/stm32g0xx_hal_timebase_tim.c **** HAL_StatusTypeDef HAL_InitTick(uint32_t TickPriority)
  42:Core/Src/stm32g0xx_hal_timebase_tim.c **** {
  28              		.loc 1 42 1 view -0
  29              		.cfi_startproc
  30              		@ args = 0, pretend = 0, frame = 24
  31              		@ frame_needed = 0, uses_anonymous_args = 0
  32              		.loc 1 42 1 is_stmt 0 view .LVU1
  33 0000 30B5     		push	{r4, r5, lr}
  34              		.cfi_def_cfa_offset 12
  35              		.cfi_offset 4, -12
  36              		.cfi_offset 5, -8
  37              		.cfi_offset 14, -4
  38 0002 87B0     		sub	sp, sp, #28
  39              		.cfi_def_cfa_offset 40
  40 0004 0500     		movs	r5, r0
  43:Core/Src/stm32g0xx_hal_timebase_tim.c ****   RCC_ClkInitTypeDef    clkconfig;
  41              		.loc 1 43 3 is_stmt 1 view .LVU2
  44:Core/Src/stm32g0xx_hal_timebase_tim.c ****   uint32_t              uwTimclock, uwAPB1Prescaler;
  42              		.loc 1 44 3 view .LVU3
  45:Core/Src/stm32g0xx_hal_timebase_tim.c ****   uint32_t              uwPrescalerValue;
  43              		.loc 1 45 3 view .LVU4
  46:Core/Src/stm32g0xx_hal_timebase_tim.c ****   uint32_t              pFLatency;
  44              		.loc 1 46 3 view .LVU5
  47:Core/Src/stm32g0xx_hal_timebase_tim.c **** 
  48:Core/Src/stm32g0xx_hal_timebase_tim.c ****   HAL_StatusTypeDef     status = HAL_OK;
  45              		.loc 1 48 3 view .LVU6
  46              	.LVL1:
  49:Core/Src/stm32g0xx_hal_timebase_tim.c **** 
  50:Core/Src/stm32g0xx_hal_timebase_tim.c ****   /* Enable TIM17 clock */
  51:Core/Src/stm32g0xx_hal_timebase_tim.c ****   __HAL_RCC_TIM17_CLK_ENABLE();
  47              		.loc 1 51 3 view .LVU7
  48              	.LBB2:
  49              		.loc 1 51 3 view .LVU8
  50              		.loc 1 51 3 view .LVU9
  51 0006 214B     		ldr	r3, .L8
  52 0008 1A6C     		ldr	r2, [r3, #64]
  53 000a 8021     		movs	r1, #128
  54 000c C902     		lsls	r1, r1, #11
  55 000e 0A43     		orrs	r2, r1
  56 0010 1A64     		str	r2, [r3, #64]
  57              		.loc 1 51 3 view .LVU10
  58 0012 1B6C     		ldr	r3, [r3, #64]
  59 0014 0B40     		ands	r3, r1
  60 0016 0093     		str	r3, [sp]
  61              		.loc 1 51 3 view .LVU11
  62 0018 009B     		ldr	r3, [sp]
  63              	.LBE2:
  64              		.loc 1 51 3 view .LVU12
ARM GAS  /tmp/cc0MMaA6.s 			page 3


  52:Core/Src/stm32g0xx_hal_timebase_tim.c **** 
  53:Core/Src/stm32g0xx_hal_timebase_tim.c ****   /* Get clock configuration */
  54:Core/Src/stm32g0xx_hal_timebase_tim.c ****   HAL_RCC_GetClockConfig(&clkconfig, &pFLatency);
  65              		.loc 1 54 3 view .LVU13
  66 001a 02AC     		add	r4, sp, #8
  67 001c 01A9     		add	r1, sp, #4
  68 001e 2000     		movs	r0, r4
  69              	.LVL2:
  70              		.loc 1 54 3 is_stmt 0 view .LVU14
  71 0020 FFF7FEFF 		bl	HAL_RCC_GetClockConfig
  72              	.LVL3:
  55:Core/Src/stm32g0xx_hal_timebase_tim.c **** 
  56:Core/Src/stm32g0xx_hal_timebase_tim.c ****   /* Get APB1 prescaler */
  57:Core/Src/stm32g0xx_hal_timebase_tim.c ****   uwAPB1Prescaler = clkconfig.APB1CLKDivider;
  73              		.loc 1 57 3 is_stmt 1 view .LVU15
  74              		.loc 1 57 19 is_stmt 0 view .LVU16
  75 0024 059B     		ldr	r3, [sp, #20]
  76              	.LVL4:
  58:Core/Src/stm32g0xx_hal_timebase_tim.c ****   /* Compute TIM17 clock */
  59:Core/Src/stm32g0xx_hal_timebase_tim.c ****   if (uwAPB1Prescaler == RCC_HCLK_DIV1)
  77              		.loc 1 59 3 is_stmt 1 view .LVU17
  78              		.loc 1 59 6 is_stmt 0 view .LVU18
  79 0026 002B     		cmp	r3, #0
  80 0028 17D1     		bne	.L2
  60:Core/Src/stm32g0xx_hal_timebase_tim.c ****   {
  61:Core/Src/stm32g0xx_hal_timebase_tim.c ****     uwTimclock = HAL_RCC_GetPCLK1Freq();
  81              		.loc 1 61 5 is_stmt 1 view .LVU19
  82              		.loc 1 61 18 is_stmt 0 view .LVU20
  83 002a FFF7FEFF 		bl	HAL_RCC_GetPCLK1Freq
  84              	.LVL5:
  85              	.L3:
  62:Core/Src/stm32g0xx_hal_timebase_tim.c ****   }
  63:Core/Src/stm32g0xx_hal_timebase_tim.c ****   else
  64:Core/Src/stm32g0xx_hal_timebase_tim.c ****   {
  65:Core/Src/stm32g0xx_hal_timebase_tim.c ****     uwTimclock = 2UL * HAL_RCC_GetPCLK1Freq();
  66:Core/Src/stm32g0xx_hal_timebase_tim.c ****   }
  67:Core/Src/stm32g0xx_hal_timebase_tim.c **** 
  68:Core/Src/stm32g0xx_hal_timebase_tim.c ****   /* Compute the prescaler value to have TIM17 counter clock equal to 1MHz */
  69:Core/Src/stm32g0xx_hal_timebase_tim.c ****   uwPrescalerValue = (uint32_t) ((uwTimclock / 1000000U) - 1U);
  86              		.loc 1 69 3 is_stmt 1 view .LVU21
  87              		.loc 1 69 46 is_stmt 0 view .LVU22
  88 002e 1849     		ldr	r1, .L8+4
  89 0030 FFF7FEFF 		bl	__aeabi_uidiv
  90              	.LVL6:
  91              		.loc 1 69 20 view .LVU23
  92 0034 421E     		subs	r2, r0, #1
  93              	.LVL7:
  70:Core/Src/stm32g0xx_hal_timebase_tim.c **** 
  71:Core/Src/stm32g0xx_hal_timebase_tim.c ****   /* Initialize TIM17 */
  72:Core/Src/stm32g0xx_hal_timebase_tim.c ****   htim17.Instance = TIM17;
  94              		.loc 1 72 3 is_stmt 1 view .LVU24
  95              		.loc 1 72 19 is_stmt 0 view .LVU25
  96 0036 174B     		ldr	r3, .L8+8
  97 0038 1749     		ldr	r1, .L8+12
  98 003a 1800     		movs	r0, r3
  99 003c 1960     		str	r1, [r3]
  73:Core/Src/stm32g0xx_hal_timebase_tim.c **** 
ARM GAS  /tmp/cc0MMaA6.s 			page 4


  74:Core/Src/stm32g0xx_hal_timebase_tim.c ****   /* Initialize TIMx peripheral as follow:
  75:Core/Src/stm32g0xx_hal_timebase_tim.c ****    * Period = [(TIM17CLK/1000) - 1]. to have a (1/1000) s time base.
  76:Core/Src/stm32g0xx_hal_timebase_tim.c ****    * Prescaler = (uwTimclock/1000000 - 1) to have a 1MHz counter clock.
  77:Core/Src/stm32g0xx_hal_timebase_tim.c ****    * ClockDivision = 0
  78:Core/Src/stm32g0xx_hal_timebase_tim.c ****    * Counter direction = Up
  79:Core/Src/stm32g0xx_hal_timebase_tim.c ****    */
  80:Core/Src/stm32g0xx_hal_timebase_tim.c ****   htim17.Init.Period = (1000000U / 1000U) - 1U;
 100              		.loc 1 80 3 is_stmt 1 view .LVU26
 101              		.loc 1 80 22 is_stmt 0 view .LVU27
 102 003e 174B     		ldr	r3, .L8+16
 103 0040 C360     		str	r3, [r0, #12]
  81:Core/Src/stm32g0xx_hal_timebase_tim.c ****   htim17.Init.Prescaler = uwPrescalerValue;
 104              		.loc 1 81 3 is_stmt 1 view .LVU28
 105              		.loc 1 81 25 is_stmt 0 view .LVU29
 106 0042 4260     		str	r2, [r0, #4]
  82:Core/Src/stm32g0xx_hal_timebase_tim.c ****   htim17.Init.ClockDivision = 0;
 107              		.loc 1 82 3 is_stmt 1 view .LVU30
 108              		.loc 1 82 29 is_stmt 0 view .LVU31
 109 0044 0023     		movs	r3, #0
 110 0046 0361     		str	r3, [r0, #16]
  83:Core/Src/stm32g0xx_hal_timebase_tim.c ****   htim17.Init.CounterMode = TIM_COUNTERMODE_UP;
 111              		.loc 1 83 3 is_stmt 1 view .LVU32
 112              		.loc 1 83 27 is_stmt 0 view .LVU33
 113 0048 8360     		str	r3, [r0, #8]
  84:Core/Src/stm32g0xx_hal_timebase_tim.c ****   htim17.Init.AutoReloadPreload = TIM_AUTORELOAD_PRELOAD_DISABLE;
 114              		.loc 1 84 3 is_stmt 1 view .LVU34
 115              		.loc 1 84 33 is_stmt 0 view .LVU35
 116 004a 8361     		str	r3, [r0, #24]
  85:Core/Src/stm32g0xx_hal_timebase_tim.c **** 
  86:Core/Src/stm32g0xx_hal_timebase_tim.c ****   status = HAL_TIM_Base_Init(&htim17);
 117              		.loc 1 86 3 is_stmt 1 view .LVU36
 118              		.loc 1 86 12 is_stmt 0 view .LVU37
 119 004c FFF7FEFF 		bl	HAL_TIM_Base_Init
 120              	.LVL8:
 121              		.loc 1 86 12 view .LVU38
 122 0050 041E     		subs	r4, r0, #0
 123              	.LVL9:
  87:Core/Src/stm32g0xx_hal_timebase_tim.c ****   if (status == HAL_OK)
 124              		.loc 1 87 3 is_stmt 1 view .LVU39
 125              		.loc 1 87 6 is_stmt 0 view .LVU40
 126 0052 06D0     		beq	.L6
 127              	.LVL10:
 128              	.L4:
  88:Core/Src/stm32g0xx_hal_timebase_tim.c ****   {
  89:Core/Src/stm32g0xx_hal_timebase_tim.c ****     /* Start the TIM time Base generation in interrupt mode */
  90:Core/Src/stm32g0xx_hal_timebase_tim.c ****     status = HAL_TIM_Base_Start_IT(&htim17);
  91:Core/Src/stm32g0xx_hal_timebase_tim.c ****     if (status == HAL_OK)
  92:Core/Src/stm32g0xx_hal_timebase_tim.c ****     {
  93:Core/Src/stm32g0xx_hal_timebase_tim.c ****     /* Enable the TIM17 global Interrupt */
  94:Core/Src/stm32g0xx_hal_timebase_tim.c ****         HAL_NVIC_EnableIRQ(TIM17_IRQn);
  95:Core/Src/stm32g0xx_hal_timebase_tim.c ****       /* Configure the SysTick IRQ priority */
  96:Core/Src/stm32g0xx_hal_timebase_tim.c ****       if (TickPriority < (1UL << __NVIC_PRIO_BITS))
  97:Core/Src/stm32g0xx_hal_timebase_tim.c ****       {
  98:Core/Src/stm32g0xx_hal_timebase_tim.c ****         /* Configure the TIM IRQ priority */
  99:Core/Src/stm32g0xx_hal_timebase_tim.c ****         HAL_NVIC_SetPriority(TIM17_IRQn, TickPriority, 0U);
 100:Core/Src/stm32g0xx_hal_timebase_tim.c ****         uwTickPrio = TickPriority;
 101:Core/Src/stm32g0xx_hal_timebase_tim.c ****       }
ARM GAS  /tmp/cc0MMaA6.s 			page 5


 102:Core/Src/stm32g0xx_hal_timebase_tim.c ****       else
 103:Core/Src/stm32g0xx_hal_timebase_tim.c ****       {
 104:Core/Src/stm32g0xx_hal_timebase_tim.c ****         status = HAL_ERROR;
 105:Core/Src/stm32g0xx_hal_timebase_tim.c ****       }
 106:Core/Src/stm32g0xx_hal_timebase_tim.c ****     }
 107:Core/Src/stm32g0xx_hal_timebase_tim.c ****   }
 108:Core/Src/stm32g0xx_hal_timebase_tim.c **** 
 109:Core/Src/stm32g0xx_hal_timebase_tim.c ****  /* Return function status */
 110:Core/Src/stm32g0xx_hal_timebase_tim.c ****   return status;
 129              		.loc 1 110 3 is_stmt 1 view .LVU41
 111:Core/Src/stm32g0xx_hal_timebase_tim.c **** }
 130              		.loc 1 111 1 is_stmt 0 view .LVU42
 131 0054 2000     		movs	r0, r4
 132 0056 07B0     		add	sp, sp, #28
 133              		@ sp needed
 134              	.LVL11:
 135              	.LVL12:
 136              		.loc 1 111 1 view .LVU43
 137 0058 30BD     		pop	{r4, r5, pc}
 138              	.LVL13:
 139              	.L2:
  65:Core/Src/stm32g0xx_hal_timebase_tim.c ****   }
 140              		.loc 1 65 5 is_stmt 1 view .LVU44
  65:Core/Src/stm32g0xx_hal_timebase_tim.c ****   }
 141              		.loc 1 65 24 is_stmt 0 view .LVU45
 142 005a FFF7FEFF 		bl	HAL_RCC_GetPCLK1Freq
 143              	.LVL14:
  65:Core/Src/stm32g0xx_hal_timebase_tim.c ****   }
 144              		.loc 1 65 16 discriminator 1 view .LVU46
 145 005e 4000     		lsls	r0, r0, #1
 146 0060 E5E7     		b	.L3
 147              	.LVL15:
 148              	.L6:
  90:Core/Src/stm32g0xx_hal_timebase_tim.c ****     if (status == HAL_OK)
 149              		.loc 1 90 5 is_stmt 1 view .LVU47
  90:Core/Src/stm32g0xx_hal_timebase_tim.c ****     if (status == HAL_OK)
 150              		.loc 1 90 14 is_stmt 0 view .LVU48
 151 0062 0C48     		ldr	r0, .L8+8
 152              	.LVL16:
  90:Core/Src/stm32g0xx_hal_timebase_tim.c ****     if (status == HAL_OK)
 153              		.loc 1 90 14 view .LVU49
 154 0064 FFF7FEFF 		bl	HAL_TIM_Base_Start_IT
 155              	.LVL17:
 156 0068 041E     		subs	r4, r0, #0
 157              	.LVL18:
  91:Core/Src/stm32g0xx_hal_timebase_tim.c ****     {
 158              		.loc 1 91 5 is_stmt 1 view .LVU50
  91:Core/Src/stm32g0xx_hal_timebase_tim.c ****     {
 159              		.loc 1 91 8 is_stmt 0 view .LVU51
 160 006a F3D1     		bne	.L4
  94:Core/Src/stm32g0xx_hal_timebase_tim.c ****       /* Configure the SysTick IRQ priority */
 161              		.loc 1 94 9 is_stmt 1 view .LVU52
 162 006c 1620     		movs	r0, #22
 163              	.LVL19:
  94:Core/Src/stm32g0xx_hal_timebase_tim.c ****       /* Configure the SysTick IRQ priority */
 164              		.loc 1 94 9 is_stmt 0 view .LVU53
 165 006e FFF7FEFF 		bl	HAL_NVIC_EnableIRQ
ARM GAS  /tmp/cc0MMaA6.s 			page 6


 166              	.LVL20:
  96:Core/Src/stm32g0xx_hal_timebase_tim.c ****       {
 167              		.loc 1 96 7 is_stmt 1 view .LVU54
  96:Core/Src/stm32g0xx_hal_timebase_tim.c ****       {
 168              		.loc 1 96 10 is_stmt 0 view .LVU55
 169 0072 032D     		cmp	r5, #3
 170 0074 01D9     		bls	.L7
 104:Core/Src/stm32g0xx_hal_timebase_tim.c ****       }
 171              		.loc 1 104 16 view .LVU56
 172 0076 0124     		movs	r4, #1
 173              	.LVL21:
 104:Core/Src/stm32g0xx_hal_timebase_tim.c ****       }
 174              		.loc 1 104 16 view .LVU57
 175 0078 ECE7     		b	.L4
 176              	.LVL22:
 177              	.L7:
  99:Core/Src/stm32g0xx_hal_timebase_tim.c ****         uwTickPrio = TickPriority;
 178              		.loc 1 99 9 is_stmt 1 view .LVU58
 179 007a 0022     		movs	r2, #0
 180 007c 2900     		movs	r1, r5
 181 007e 1620     		movs	r0, #22
 182 0080 FFF7FEFF 		bl	HAL_NVIC_SetPriority
 183              	.LVL23:
 100:Core/Src/stm32g0xx_hal_timebase_tim.c ****       }
 184              		.loc 1 100 9 view .LVU59
 100:Core/Src/stm32g0xx_hal_timebase_tim.c ****       }
 185              		.loc 1 100 20 is_stmt 0 view .LVU60
 186 0084 064B     		ldr	r3, .L8+20
 187 0086 1D60     		str	r5, [r3]
 188 0088 E4E7     		b	.L4
 189              	.L9:
 190 008a C046     		.align	2
 191              	.L8:
 192 008c 00100240 		.word	1073876992
 193 0090 40420F00 		.word	1000000
 194 0094 00000000 		.word	htim17
 195 0098 00480140 		.word	1073825792
 196 009c E7030000 		.word	999
 197 00a0 00000000 		.word	uwTickPrio
 198              		.cfi_endproc
 199              	.LFE457:
 201              		.section	.text.HAL_SuspendTick,"ax",%progbits
 202              		.align	1
 203              		.global	HAL_SuspendTick
 204              		.syntax unified
 205              		.code	16
 206              		.thumb_func
 208              	HAL_SuspendTick:
 209              	.LFB458:
 112:Core/Src/stm32g0xx_hal_timebase_tim.c **** 
 113:Core/Src/stm32g0xx_hal_timebase_tim.c **** /**
 114:Core/Src/stm32g0xx_hal_timebase_tim.c ****   * @brief  Suspend Tick increment.
 115:Core/Src/stm32g0xx_hal_timebase_tim.c ****   * @note   Disable the tick increment by disabling TIM17 update interrupt.
 116:Core/Src/stm32g0xx_hal_timebase_tim.c ****   * @param  None
 117:Core/Src/stm32g0xx_hal_timebase_tim.c ****   * @retval None
 118:Core/Src/stm32g0xx_hal_timebase_tim.c ****   */
 119:Core/Src/stm32g0xx_hal_timebase_tim.c **** void HAL_SuspendTick(void)
ARM GAS  /tmp/cc0MMaA6.s 			page 7


 120:Core/Src/stm32g0xx_hal_timebase_tim.c **** {
 210              		.loc 1 120 1 is_stmt 1 view -0
 211              		.cfi_startproc
 212              		@ args = 0, pretend = 0, frame = 0
 213              		@ frame_needed = 0, uses_anonymous_args = 0
 214              		@ link register save eliminated.
 121:Core/Src/stm32g0xx_hal_timebase_tim.c ****   /* Disable TIM17 update Interrupt */
 122:Core/Src/stm32g0xx_hal_timebase_tim.c ****   __HAL_TIM_DISABLE_IT(&htim17, TIM_IT_UPDATE);
 215              		.loc 1 122 3 view .LVU62
 216 0000 034B     		ldr	r3, .L11
 217 0002 1A68     		ldr	r2, [r3]
 218 0004 D368     		ldr	r3, [r2, #12]
 219 0006 0121     		movs	r1, #1
 220 0008 8B43     		bics	r3, r1
 221 000a D360     		str	r3, [r2, #12]
 123:Core/Src/stm32g0xx_hal_timebase_tim.c **** }
 222              		.loc 1 123 1 is_stmt 0 view .LVU63
 223              		@ sp needed
 224 000c 7047     		bx	lr
 225              	.L12:
 226 000e C046     		.align	2
 227              	.L11:
 228 0010 00000000 		.word	htim17
 229              		.cfi_endproc
 230              	.LFE458:
 232              		.section	.text.HAL_ResumeTick,"ax",%progbits
 233              		.align	1
 234              		.global	HAL_ResumeTick
 235              		.syntax unified
 236              		.code	16
 237              		.thumb_func
 239              	HAL_ResumeTick:
 240              	.LFB459:
 124:Core/Src/stm32g0xx_hal_timebase_tim.c **** 
 125:Core/Src/stm32g0xx_hal_timebase_tim.c **** /**
 126:Core/Src/stm32g0xx_hal_timebase_tim.c ****   * @brief  Resume Tick increment.
 127:Core/Src/stm32g0xx_hal_timebase_tim.c ****   * @note   Enable the tick increment by Enabling TIM17 update interrupt.
 128:Core/Src/stm32g0xx_hal_timebase_tim.c ****   * @param  None
 129:Core/Src/stm32g0xx_hal_timebase_tim.c ****   * @retval None
 130:Core/Src/stm32g0xx_hal_timebase_tim.c ****   */
 131:Core/Src/stm32g0xx_hal_timebase_tim.c **** void HAL_ResumeTick(void)
 132:Core/Src/stm32g0xx_hal_timebase_tim.c **** {
 241              		.loc 1 132 1 is_stmt 1 view -0
 242              		.cfi_startproc
 243              		@ args = 0, pretend = 0, frame = 0
 244              		@ frame_needed = 0, uses_anonymous_args = 0
 245              		@ link register save eliminated.
 133:Core/Src/stm32g0xx_hal_timebase_tim.c ****   /* Enable TIM17 Update interrupt */
 134:Core/Src/stm32g0xx_hal_timebase_tim.c ****   __HAL_TIM_ENABLE_IT(&htim17, TIM_IT_UPDATE);
 246              		.loc 1 134 3 view .LVU65
 247 0000 034B     		ldr	r3, .L14
 248 0002 1A68     		ldr	r2, [r3]
 249 0004 D368     		ldr	r3, [r2, #12]
 250 0006 0121     		movs	r1, #1
 251 0008 0B43     		orrs	r3, r1
 252 000a D360     		str	r3, [r2, #12]
 135:Core/Src/stm32g0xx_hal_timebase_tim.c **** }
ARM GAS  /tmp/cc0MMaA6.s 			page 8


 253              		.loc 1 135 1 is_stmt 0 view .LVU66
 254              		@ sp needed
 255 000c 7047     		bx	lr
 256              	.L15:
 257 000e C046     		.align	2
 258              	.L14:
 259 0010 00000000 		.word	htim17
 260              		.cfi_endproc
 261              	.LFE459:
 263              		.global	htim17
 264              		.section	.bss.htim17,"aw",%nobits
 265              		.align	2
 268              	htim17:
 269 0000 00000000 		.space	188
 269      00000000 
 269      00000000 
 269      00000000 
 269      00000000 
 270              		.text
 271              	.Letext0:
 272              		.file 2 "Drivers/CMSIS/Device/ST/STM32G0xx/Include/stm32g071xx.h"
 273              		.file 3 "/opt/arm-gnu-toolchain-14.2/arm-none-eabi/include/machine/_default_types.h"
 274              		.file 4 "/opt/arm-gnu-toolchain-14.2/arm-none-eabi/include/sys/_stdint.h"
 275              		.file 5 "Drivers/STM32G0xx_HAL_Driver/Inc/stm32g0xx_hal_def.h"
 276              		.file 6 "Drivers/STM32G0xx_HAL_Driver/Inc/stm32g0xx_hal_rcc.h"
 277              		.file 7 "Drivers/STM32G0xx_HAL_Driver/Inc/stm32g0xx_hal_dma.h"
 278              		.file 8 "Drivers/STM32G0xx_HAL_Driver/Inc/stm32g0xx_hal_tim.h"
 279              		.file 9 "Drivers/STM32G0xx_HAL_Driver/Inc/stm32g0xx_hal.h"
 280              		.file 10 "Drivers/STM32G0xx_HAL_Driver/Inc/stm32g0xx_hal_cortex.h"
 281              		.file 11 "Drivers/STM32G0xx_HAL_Driver/Inc/stm32g0xx_ll_dma.h"
ARM GAS  /tmp/cc0MMaA6.s 			page 9

