ARM GAS  /tmp/cc0iTtyI.s 			page 1


   1              		.cpu cortex-m0plus
   2              		.arch armv6s-m
   3              		.fpu softvfp
   4              		.eabi_attribute 20, 1
   5              		.eabi_attribute 21, 1
   6              		.eabi_attribute 23, 3
   7              		.eabi_attribute 24, 1
   8              		.eabi_attribute 25, 1
   9              		.eabi_attribute 26, 1
  10              		.eabi_attribute 30, 1
  11              		.eabi_attribute 34, 0
  12              		.eabi_attribute 18, 4
  13              		.file	"Task_Test.cpp"
  14              		.text
  15              	.Ltext0:
  16              		.cfi_sections	.debug_frame
  17              		.file 1 "My_Top/Task/Task_Test.cpp"
  18              		.align	1
  19              		.syntax unified
  20              		.code	16
  21              		.thumb_func
  23              	_Z41__static_initialization_and_destruction_0v:
  24              	.LFB1631:
   1:My_Top/Task/Task_Test.cpp **** 
   2:My_Top/Task/Task_Test.cpp **** #include "FreeRTOS.h"
   3:My_Top/Task/Task_Test.cpp **** #include "task.h"
   4:My_Top/Task/Task_Test.cpp **** #include "MC_Serial.hpp"
   5:My_Top/Task/Task_Test.cpp **** #include "My_Vofa.hpp"
   6:My_Top/Task/Task_Test.cpp **** 
   7:My_Top/Task/Task_Test.cpp **** #include "StepperMotor_Loop.hpp"
   8:My_Top/Task/Task_Test.cpp **** 
   9:My_Top/Task/Task_Test.cpp **** BL24C16F EEPROM1(EEPROM_hi2c);
  10:My_Top/Task/Task_Test.cpp **** 
  11:My_Top/Task/Task_Test.cpp **** uint8_t test1,test2 = 0;
  12:My_Top/Task/Task_Test.cpp **** uint8_t bufff_tx[10] = {0x01, 0x02, 0xa3, 0xb4, 0x05, 0x06, 0xc7, 0xf8, 0x09, 0x0a};
  13:My_Top/Task/Task_Test.cpp **** uint8_t bufff_rx[10];
  14:My_Top/Task/Task_Test.cpp **** 
  15:My_Top/Task/Task_Test.cpp **** 
  16:My_Top/Task/Task_Test.cpp **** 
  17:My_Top/Task/Task_Test.cpp **** void lajio()
  18:My_Top/Task/Task_Test.cpp **** {
  19:My_Top/Task/Task_Test.cpp ****     uint16_t x = 60;
  20:My_Top/Task/Task_Test.cpp ****     uint16_t y = 60;
  21:My_Top/Task/Task_Test.cpp ****     HAL_TIM_PWM_Start(M1_STEP_htim, M1_STEP_CHANNEL);
  22:My_Top/Task/Task_Test.cpp ****     HAL_TIM_PWM_Start(M2_STEP_htim, M2_STEP_CHANNEL);
  23:My_Top/Task/Task_Test.cpp ****     HAL_GPIO_WritePin(M1_EN_PORT,M1_EN_PIN,GPIO_PIN_RESET);
  24:My_Top/Task/Task_Test.cpp ****     HAL_GPIO_WritePin(M2_EN_PORT,M2_EN_PIN,GPIO_PIN_RESET);
  25:My_Top/Task/Task_Test.cpp ****     __HAL_TIM_SET_AUTORELOAD(M1_STEP_htim,x);//и®ѕзЅ®е‘Ёжњџ
  26:My_Top/Task/Task_Test.cpp ****     __HAL_TIM_SET_AUTORELOAD(M2_STEP_htim, y);//и®ѕзЅ®е‘Ёжњџ
  27:My_Top/Task/Task_Test.cpp ****     __HAL_TIM_SET_COMPARE(M1_STEP_htim, M1_STEP_CHANNEL, x/2);//и®ѕзЅ®еЌ з©єжЇ”
  28:My_Top/Task/Task_Test.cpp ****     __HAL_TIM_SET_COMPARE(M2_STEP_htim, M2_STEP_CHANNEL, y/2);//и®ѕзЅ®еЌ з©єжЇ”
  29:My_Top/Task/Task_Test.cpp **** }
  30:My_Top/Task/Task_Test.cpp **** 
  31:My_Top/Task/Task_Test.cpp **** 
  32:My_Top/Task/Task_Test.cpp **** void Task_Test(void *argument)
  33:My_Top/Task/Task_Test.cpp **** {
  34:My_Top/Task/Task_Test.cpp ****     // зЁ‹еєЏRAMеЌ з”Ё10752/1024 = 10.5KBзљ„RAMпјЊе‰©дЅ™RAM 36KB-10.5KB  = 25.5KB еЏЇе€†й…Ќз»™ж“ЌдЅ
ARM GAS  /tmp/cc0iTtyI.s 			page 2


  35:My_Top/Task/Task_Test.cpp **** 
  36:My_Top/Task/Task_Test.cpp ****     // lajio();
  37:My_Top/Task/Task_Test.cpp ****     while (1)
  38:My_Top/Task/Task_Test.cpp ****     {
  39:My_Top/Task/Task_Test.cpp ****         printf("laji1:%d laji2:%d \r\n",M1.laji,M2.laji);
  40:My_Top/Task/Task_Test.cpp ****         vTaskDelay(pdMS_TO_TICKS(500));
  41:My_Top/Task/Task_Test.cpp ****     }
  42:My_Top/Task/Task_Test.cpp **** }
  25              		.loc 1 42 1 view -0
  26              		.cfi_startproc
  27              		@ args = 0, pretend = 0, frame = 0
  28              		@ frame_needed = 0, uses_anonymous_args = 0
  29              		@ link register save eliminated.
  30              	.LVL0:
  31              	.LBB5:
  32              	.LBI5:
  33              		.file 2 "My_Top/System/BL24C16F.hpp"
   1:My_Top/System/BL24C16F.hpp **** #pragma once
   2:My_Top/System/BL24C16F.hpp **** 
   3:My_Top/System/BL24C16F.hpp **** #include "bsp.hpp" 
   4:My_Top/System/BL24C16F.hpp **** 
   5:My_Top/System/BL24C16F.hpp **** // ============================================================
   6:My_Top/System/BL24C16F.hpp **** // BL24C16F EEPROM й©±еЉЁз±»
   7:My_Top/System/BL24C16F.hpp **** // BL24C16F: 16Kbit (2048 Г— 8bit) I2C EEPROM
   8:My_Top/System/BL24C16F.hpp **** //   - ењ°еќЂиЊѓе›ґ: 0x000 ~ 0x7FF (11дЅЌењ°еќЂ)
   9:My_Top/System/BL24C16F.hpp **** //   - йЎµе†™е…Ґ: 16е­—иЉ‚/йЎµ
  10:My_Top/System/BL24C16F.hpp **** //   - е™Ёд»¶ењ°еќЂ(7bit): 0x50
  11:My_Top/System/BL24C16F.hpp **** //   - I2C йЂџзЋ‡: Fast Mode (400kHz)
  12:My_Top/System/BL24C16F.hpp **** //   - е†…йѓЁе†™е…Ґж—¶й—ґ: ~5ms
  13:My_Top/System/BL24C16F.hpp **** //
  14:My_Top/System/BL24C16F.hpp **** // дЅїз”Ёж–№ејЏ:
  15:My_Top/System/BL24C16F.hpp **** //   BL24C16F::init();
  16:My_Top/System/BL24C16F.hpp **** //   BL24C16F::write_byte(0x0100, 0xAB);
  17:My_Top/System/BL24C16F.hpp **** //   uint8_t val = BL24C16F::read_byte(0x0100);
  18:My_Top/System/BL24C16F.hpp **** //   BL24C16F::write(0x0000, buf, 32);
  19:My_Top/System/BL24C16F.hpp **** //   BL24C16F::read(0x0000, buf, 32);
  20:My_Top/System/BL24C16F.hpp **** // ============================================================
  21:My_Top/System/BL24C16F.hpp **** 
  22:My_Top/System/BL24C16F.hpp **** class BL24C16F
  23:My_Top/System/BL24C16F.hpp **** {
  24:My_Top/System/BL24C16F.hpp **** public:
  25:My_Top/System/BL24C16F.hpp ****     BL24C16F(I2C_HandleTypeDef *hi2c)
  34              		.loc 2 25 5 view .LVU1
  35              	.LBB6:
  26:My_Top/System/BL24C16F.hpp ****     {
  27:My_Top/System/BL24C16F.hpp ****         _hi2c = hi2c;
  36              		.loc 2 27 9 view .LVU2
  37              		.loc 2 27 15 is_stmt 0 view .LVU3
  38 0000 014B     		ldr	r3, .L2
  39 0002 024A     		ldr	r2, .L2+4
  40 0004 1A60     		str	r2, [r3]
  41              	.LVL1:
  42              		.loc 2 27 15 view .LVU4
  43              	.LBE6:
  44              	.LBE5:
  45              		.loc 1 42 1 view .LVU5
  46              		@ sp needed
ARM GAS  /tmp/cc0iTtyI.s 			page 3


  47 0006 7047     		bx	lr
  48              	.L3:
  49              		.align	2
  50              	.L2:
  51 0008 00000000 		.word	_ZN8BL24C16F5_hi2cE
  52 000c 00000000 		.word	hi2c2
  53              		.cfi_endproc
  54              	.LFE1631:
  56              		.align	1
  57              		.global	_Z5lajiov
  58              		.syntax unified
  59              		.code	16
  60              		.thumb_func
  62              	_Z5lajiov:
  63              	.LFB1479:
  18:My_Top/Task/Task_Test.cpp ****     uint16_t x = 60;
  64              		.loc 1 18 1 is_stmt 1 view -0
  65              		.cfi_startproc
  66              		@ args = 0, pretend = 0, frame = 0
  67              		@ frame_needed = 0, uses_anonymous_args = 0
  68 0010 70B5     		push	{r4, r5, r6, lr}
  69              		.cfi_def_cfa_offset 16
  70              		.cfi_offset 4, -16
  71              		.cfi_offset 5, -12
  72              		.cfi_offset 6, -8
  73              		.cfi_offset 14, -4
  19:My_Top/Task/Task_Test.cpp ****     uint16_t y = 60;
  74              		.loc 1 19 5 view .LVU7
  75              	.LVL2:
  20:My_Top/Task/Task_Test.cpp ****     HAL_TIM_PWM_Start(M1_STEP_htim, M1_STEP_CHANNEL);
  76              		.loc 1 20 5 view .LVU8
  21:My_Top/Task/Task_Test.cpp ****     HAL_TIM_PWM_Start(M2_STEP_htim, M2_STEP_CHANNEL);
  77              		.loc 1 21 5 view .LVU9
  21:My_Top/Task/Task_Test.cpp ****     HAL_TIM_PWM_Start(M2_STEP_htim, M2_STEP_CHANNEL);
  78              		.loc 1 21 22 is_stmt 0 view .LVU10
  79 0012 104D     		ldr	r5, .L5
  80 0014 0021     		movs	r1, #0
  81 0016 2800     		movs	r0, r5
  82 0018 FFF7FEFF 		bl	HAL_TIM_PWM_Start
  83              	.LVL3:
  22:My_Top/Task/Task_Test.cpp ****     HAL_GPIO_WritePin(M1_EN_PORT,M1_EN_PIN,GPIO_PIN_RESET);
  84              		.loc 1 22 5 is_stmt 1 view .LVU11
  22:My_Top/Task/Task_Test.cpp ****     HAL_GPIO_WritePin(M1_EN_PORT,M1_EN_PIN,GPIO_PIN_RESET);
  85              		.loc 1 22 22 is_stmt 0 view .LVU12
  86 001c 0E4C     		ldr	r4, .L5+4
  87 001e 0421     		movs	r1, #4
  88 0020 2000     		movs	r0, r4
  89 0022 FFF7FEFF 		bl	HAL_TIM_PWM_Start
  90              	.LVL4:
  23:My_Top/Task/Task_Test.cpp ****     HAL_GPIO_WritePin(M2_EN_PORT,M2_EN_PIN,GPIO_PIN_RESET);
  91              		.loc 1 23 5 is_stmt 1 view .LVU13
  23:My_Top/Task/Task_Test.cpp ****     HAL_GPIO_WritePin(M2_EN_PORT,M2_EN_PIN,GPIO_PIN_RESET);
  92              		.loc 1 23 22 is_stmt 0 view .LVU14
  93 0026 0D4E     		ldr	r6, .L5+8
  94 0028 0022     		movs	r2, #0
  95 002a 0221     		movs	r1, #2
  96 002c 3000     		movs	r0, r6
ARM GAS  /tmp/cc0iTtyI.s 			page 4


  97 002e FFF7FEFF 		bl	HAL_GPIO_WritePin
  98              	.LVL5:
  24:My_Top/Task/Task_Test.cpp ****     __HAL_TIM_SET_AUTORELOAD(M1_STEP_htim,x);//и®ѕзЅ®е‘Ёжњџ
  99              		.loc 1 24 5 is_stmt 1 view .LVU15
  24:My_Top/Task/Task_Test.cpp ****     __HAL_TIM_SET_AUTORELOAD(M1_STEP_htim,x);//и®ѕзЅ®е‘Ёжњџ
 100              		.loc 1 24 22 is_stmt 0 view .LVU16
 101 0032 0022     		movs	r2, #0
 102 0034 2021     		movs	r1, #32
 103 0036 3000     		movs	r0, r6
 104 0038 FFF7FEFF 		bl	HAL_GPIO_WritePin
 105              	.LVL6:
  25:My_Top/Task/Task_Test.cpp ****     __HAL_TIM_SET_AUTORELOAD(M2_STEP_htim, y);//и®ѕзЅ®е‘Ёжњџ
 106              		.loc 1 25 5 is_stmt 1 view .LVU17
  25:My_Top/Task/Task_Test.cpp ****     __HAL_TIM_SET_AUTORELOAD(M2_STEP_htim, y);//и®ѕзЅ®е‘Ёжњџ
 107              		.loc 1 25 5 view .LVU18
 108 003c 2968     		ldr	r1, [r5]
 109 003e 3C23     		movs	r3, #60
 110 0040 CB62     		str	r3, [r1, #44]
  25:My_Top/Task/Task_Test.cpp ****     __HAL_TIM_SET_AUTORELOAD(M2_STEP_htim, y);//и®ѕзЅ®е‘Ёжњџ
 111              		.loc 1 25 5 view .LVU19
 112 0042 EB60     		str	r3, [r5, #12]
  25:My_Top/Task/Task_Test.cpp ****     __HAL_TIM_SET_AUTORELOAD(M2_STEP_htim, y);//и®ѕзЅ®е‘Ёжњџ
 113              		.loc 1 25 5 view .LVU20
  26:My_Top/Task/Task_Test.cpp ****     __HAL_TIM_SET_COMPARE(M1_STEP_htim, M1_STEP_CHANNEL, x/2);//и®ѕзЅ®еЌ з©єжЇ”
 114              		.loc 1 26 5 view .LVU21
  26:My_Top/Task/Task_Test.cpp ****     __HAL_TIM_SET_COMPARE(M1_STEP_htim, M1_STEP_CHANNEL, x/2);//и®ѕзЅ®еЌ з©єжЇ”
 115              		.loc 1 26 5 view .LVU22
 116 0044 2268     		ldr	r2, [r4]
 117 0046 D362     		str	r3, [r2, #44]
  26:My_Top/Task/Task_Test.cpp ****     __HAL_TIM_SET_COMPARE(M1_STEP_htim, M1_STEP_CHANNEL, x/2);//и®ѕзЅ®еЌ з©єжЇ”
 118              		.loc 1 26 5 view .LVU23
 119 0048 E360     		str	r3, [r4, #12]
  26:My_Top/Task/Task_Test.cpp ****     __HAL_TIM_SET_COMPARE(M1_STEP_htim, M1_STEP_CHANNEL, x/2);//и®ѕзЅ®еЌ з©єжЇ”
 120              		.loc 1 26 5 view .LVU24
  27:My_Top/Task/Task_Test.cpp ****     __HAL_TIM_SET_COMPARE(M2_STEP_htim, M2_STEP_CHANNEL, y/2);//и®ѕзЅ®еЌ з©єжЇ”
 121              		.loc 1 27 5 view .LVU25
 122 004a 1E3B     		subs	r3, r3, #30
 123 004c 4B63     		str	r3, [r1, #52]
  28:My_Top/Task/Task_Test.cpp **** }
 124              		.loc 1 28 5 view .LVU26
 125 004e 9363     		str	r3, [r2, #56]
  29:My_Top/Task/Task_Test.cpp **** 
 126              		.loc 1 29 1 is_stmt 0 view .LVU27
 127              		@ sp needed
 128 0050 70BD     		pop	{r4, r5, r6, pc}
 129              	.L6:
 130 0052 C046     		.align	2
 131              	.L5:
 132 0054 00000000 		.word	htim1
 133 0058 00000000 		.word	htim2
 134 005c 00040050 		.word	1342178304
 135              		.cfi_endproc
 136              	.LFE1479:
 138              		.section	.rodata.str1.4,"aMS",%progbits,1
 139              		.align	2
 140              	.LC6:
 141 0000 6C616A69 		.ascii	"laji1:%d laji2:%d \015\012\000"
ARM GAS  /tmp/cc0iTtyI.s 			page 5


 141      313A2564 
 141      206C616A 
 141      69323A25 
 141      64200D0A 
 142              		.text
 143              		.align	1
 144              		.global	_Z9Task_TestPv
 145              		.syntax unified
 146              		.code	16
 147              		.thumb_func
 149              	_Z9Task_TestPv:
 150              	.LFB1480:
  33:My_Top/Task/Task_Test.cpp ****     // зЁ‹еєЏRAMеЌ з”Ё10752/1024 = 10.5KBзљ„RAMпјЊе‰©дЅ™RAM 36KB-10.5KB  = 25.5KB еЏЇе€†й…Ќз»™ж“ЌдЅ
 151              		.loc 1 33 1 is_stmt 1 view -0
 152              		.cfi_startproc
 153              		@ Volatile: function does not return.
 154              		@ args = 0, pretend = 0, frame = 0
 155              		@ frame_needed = 0, uses_anonymous_args = 0
 156              	.LVL7:
  33:My_Top/Task/Task_Test.cpp ****     // зЁ‹еєЏRAMеЌ з”Ё10752/1024 = 10.5KBзљ„RAMпјЊе‰©дЅ™RAM 36KB-10.5KB  = 25.5KB еЏЇе€†й…Ќз»™ж“ЌдЅ
 157              		.loc 1 33 1 is_stmt 0 view .LVU29
 158 0060 10B5     		push	{r4, lr}
 159              		.cfi_def_cfa_offset 8
 160              		.cfi_offset 4, -8
 161              		.cfi_offset 14, -4
 162              	.LVL8:
 163              	.L8:
  37:My_Top/Task/Task_Test.cpp ****     {
 164              		.loc 1 37 5 is_stmt 1 view .LVU30
  39:My_Top/Task/Task_Test.cpp ****         vTaskDelay(pdMS_TO_TICKS(500));
 165              		.loc 1 39 9 view .LVU31
  39:My_Top/Task/Task_Test.cpp ****         vTaskDelay(pdMS_TO_TICKS(500));
 166              		.loc 1 39 15 is_stmt 0 view .LVU32
 167 0062 064B     		ldr	r3, .L9
 168 0064 1A6D     		ldr	r2, [r3, #80]
 169 0066 064B     		ldr	r3, .L9+4
 170 0068 196D     		ldr	r1, [r3, #80]
 171 006a 0648     		ldr	r0, .L9+8
 172 006c FFF7FEFF 		bl	printf_
 173              	.LVL9:
  40:My_Top/Task/Task_Test.cpp ****     }
 174              		.loc 1 40 9 is_stmt 1 discriminator 1 view .LVU33
  40:My_Top/Task/Task_Test.cpp ****     }
 175              		.loc 1 40 19 is_stmt 0 discriminator 1 view .LVU34
 176 0070 FA20     		movs	r0, #250
 177 0072 4000     		lsls	r0, r0, #1
 178 0074 FFF7FEFF 		bl	vTaskDelay
 179              	.LVL10:
  37:My_Top/Task/Task_Test.cpp ****     {
 180              		.loc 1 37 5 is_stmt 1 view .LVU35
 181 0078 F3E7     		b	.L8
 182              	.L10:
 183 007a C046     		.align	2
 184              	.L9:
 185 007c 00000000 		.word	M2
 186 0080 00000000 		.word	M1
 187 0084 00000000 		.word	.LC6
ARM GAS  /tmp/cc0iTtyI.s 			page 6


 188              		.cfi_endproc
 189              	.LFE1480:
 191              		.align	1
 192              		.syntax unified
 193              		.code	16
 194              		.thumb_func
 196              	_GLOBAL__sub_I_EEPROM1:
 197              	.LFB1632:
 198              		.loc 1 42 1 view -0
 199              		.cfi_startproc
 200              		@ args = 0, pretend = 0, frame = 0
 201              		@ frame_needed = 0, uses_anonymous_args = 0
 202 0088 10B5     		push	{r4, lr}
 203              		.cfi_def_cfa_offset 8
 204              		.cfi_offset 4, -8
 205              		.cfi_offset 14, -4
 206              		.loc 1 42 1 is_stmt 0 view .LVU37
 207 008a FFF7B9FF 		bl	_Z41__static_initialization_and_destruction_0v
 208              	.LVL11:
 209              		@ sp needed
 210 008e 10BD     		pop	{r4, pc}
 211              		.cfi_endproc
 212              	.LFE1632:
 214              		.section	.init_array,"aw",%init_array
 215              		.align	2
 216 0000 00000000 		.word	_GLOBAL__sub_I_EEPROM1(target1)
 217              		.global	bufff_rx
 218              		.global	bufff_tx
 219              		.global	test2
 220              		.global	test1
 221              		.global	EEPROM1
 222              		.data
 223              		.align	2
 226              	bufff_tx:
 227 0000 0102A3B4 		.ascii	"\001\002\243\264\005\006\307\370\011\012"
 227      0506C7F8 
 227      090A
 228              		.bss
 229              		.align	2
 232              	bufff_rx:
 233 0000 00000000 		.space	10
 233      00000000 
 233      0000
 236              	test2:
 237 000a 00       		.space	1
 240              	test1:
 241 000b 00       		.space	1
 244              	EEPROM1:
 245 000c 00       		.space	1
 246              		.text
 247              	.Letext0:
 248              		.file 3 "/opt/arm-gnu-toolchain-14.2/lib/gcc/arm-none-eabi/14.2.1/include/stddef.h"
 249              		.file 4 "/opt/arm-gnu-toolchain-14.2/arm-none-eabi/include/machine/_default_types.h"
 250              		.file 5 "/opt/arm-gnu-toolchain-14.2/arm-none-eabi/include/sys/_stdint.h"
 251              		.file 6 "Middlewares/Third_Party/FreeRTOS/Source/portable/GCC/ARM_CM0/portmacro.h"
 252              		.file 7 "Drivers/CMSIS/Device/ST/STM32G0xx/Include/stm32g071xx.h"
 253              		.file 8 "Drivers/STM32G0xx_HAL_Driver/Inc/stm32g0xx_hal_def.h"
ARM GAS  /tmp/cc0iTtyI.s 			page 7


 254              		.file 9 "Drivers/STM32G0xx_HAL_Driver/Inc/stm32g0xx_hal_gpio.h"
 255              		.file 10 "Drivers/STM32G0xx_HAL_Driver/Inc/stm32g0xx_hal_dma.h"
 256              		.file 11 "Drivers/STM32G0xx_HAL_Driver/Inc/stm32g0xx_hal_i2c.h"
 257              		.file 12 "Drivers/STM32G0xx_HAL_Driver/Inc/stm32g0xx_hal_spi.h"
 258              		.file 13 "Drivers/STM32G0xx_HAL_Driver/Inc/stm32g0xx_hal_tim.h"
 259              		.file 14 "Core/Inc/tim.h"
 260              		.file 15 "Core/Inc/i2c.h"
 261              		.file 16 "/opt/arm-gnu-toolchain-14.2/arm-none-eabi/include/stdlib.h"
 262              		.file 17 "/opt/arm-gnu-toolchain-14.2/arm-none-eabi/include/c++/14.2.1/cstdlib"
 263              		.file 18 "/opt/arm-gnu-toolchain-14.2/arm-none-eabi/include/c++/14.2.1/bits/std_abs.h"
 264              		.file 19 "/opt/arm-gnu-toolchain-14.2/arm-none-eabi/include/c++/14.2.1/cmath"
 265              		.file 20 "/opt/arm-gnu-toolchain-14.2/arm-none-eabi/include/c++/14.2.1/type_traits"
 266              		.file 21 "/opt/arm-gnu-toolchain-14.2/arm-none-eabi/include/c++/14.2.1/debug/debug.h"
 267              		.file 22 "/opt/arm-gnu-toolchain-14.2/arm-none-eabi/include/c++/14.2.1/bits/predefined_ops.h"
 268              		.file 23 "/opt/arm-gnu-toolchain-14.2/arm-none-eabi/include/c++/14.2.1/stdlib.h"
 269              		.file 24 "My_Top/System/pid_Increment.hpp"
 270              		.file 25 "/opt/arm-gnu-toolchain-14.2/arm-none-eabi/include/math.h"
 271              		.file 26 "/opt/arm-gnu-toolchain-14.2/arm-none-eabi/include/c++/14.2.1/arm-none-eabi/thumb/v6-m/no
 272              		.file 27 "/opt/arm-gnu-toolchain-14.2/arm-none-eabi/include/c++/14.2.1/math.h"
 273              		.file 28 "Lib/compute/ex_math.hpp"
 274              		.file 29 "My_Top/System/kth_read.hpp"
 275              		.file 30 "My_Top/Step_Motor/Step.hpp"
 276              		.file 31 "My_Top/Step_Motor/StepperMotor_Loop.hpp"
 277              		.file 32 "Middlewares/Third_Party/FreeRTOS/Source/include/task.h"
 278              		.file 33 "Lib/serial/printf.h"
 279              		.file 34 "Drivers/STM32G0xx_HAL_Driver/Inc/stm32g0xx_ll_dma.h"
ARM GAS  /tmp/cc0iTtyI.s 			page 8


DEFINED SYMBOLS
                            *ABS*:00000000 Task_Test.cpp
     /tmp/cc0iTtyI.s:18     .text:00000000 $t
     /tmp/cc0iTtyI.s:23     .text:00000000 _Z41__static_initialization_and_destruction_0v
     /tmp/cc0iTtyI.s:51     .text:00000008 $d
     /tmp/cc0iTtyI.s:56     .text:00000010 $t
     /tmp/cc0iTtyI.s:62     .text:00000010 _Z5lajiov
     /tmp/cc0iTtyI.s:132    .text:00000054 $d
     /tmp/cc0iTtyI.s:139    .rodata.str1.4:00000000 $d
     /tmp/cc0iTtyI.s:143    .text:00000060 $t
     /tmp/cc0iTtyI.s:149    .text:00000060 _Z9Task_TestPv
     /tmp/cc0iTtyI.s:185    .text:0000007c $d
     /tmp/cc0iTtyI.s:191    .text:00000088 $t
     /tmp/cc0iTtyI.s:196    .text:00000088 _GLOBAL__sub_I_EEPROM1
     /tmp/cc0iTtyI.s:215    .init_array:00000000 $d
     /tmp/cc0iTtyI.s:232    .bss:00000000 bufff_rx
     /tmp/cc0iTtyI.s:226    .data:00000000 bufff_tx
     /tmp/cc0iTtyI.s:236    .bss:0000000a test2
     /tmp/cc0iTtyI.s:240    .bss:0000000b test1
     /tmp/cc0iTtyI.s:244    .bss:0000000c EEPROM1
     /tmp/cc0iTtyI.s:223    .data:00000000 $d
     /tmp/cc0iTtyI.s:229    .bss:00000000 $d

UNDEFINED SYMBOLS
_ZN8BL24C16F5_hi2cE
hi2c2
HAL_TIM_PWM_Start
HAL_GPIO_WritePin
htim1
htim2
printf_
vTaskDelay
M2
M1
