ARM GAS  /tmp/ccBjs6KT.s 			page 1


   1              		.cpu cortex-m0plus
   2              		.arch armv6s-m
   3              		.fpu softvfp
   4              		.eabi_attribute 20, 1
   5              		.eabi_attribute 21, 1
   6              		.eabi_attribute 23, 3
   7              		.eabi_attribute 24, 1
   8              		.eabi_attribute 25, 1
   9              		.eabi_attribute 26, 1
  10              		.eabi_attribute 30, 1
  11              		.eabi_attribute 34, 0
  12              		.eabi_attribute 18, 4
  13              		.file	"Task_Launch.cpp"
  14              		.text
  15              	.Ltext0:
  16              		.cfi_sections	.debug_frame
  17              		.file 1 "My_Top/Task/Task_Launch.cpp"
  18              		.section	.rodata.str1.4,"aMS",%progbits,1
  19              		.align	2
  20              	.LC0:
  21 0000 53797374 		.ascii	"SystemInit\000"
  21      656D496E 
  21      697400
  22 000b 00       		.align	2
  23              	.LC4:
  24 000c 54657374 		.ascii	"Test\000"
  24      00
  25 0011 000000   		.align	2
  26              	.LC7:
  27 0014 5461736B 		.ascii	"Task_VofaRx\000"
  27      5F566F66 
  27      61527800 
  28              		.align	2
  29              	.LC10:
  30 0020 556F7262 		.ascii	"UorbDemo\000"
  30      44656D6F 
  30      00
  31              		.text
  32              		.align	1
  33              		.global	_Z12MC_TaskStartv
  34              		.syntax unified
  35              		.code	16
  36              		.thumb_func
  38              	_Z12MC_TaskStartv:
  39              	.LFB1472:
   1:My_Top/Task/Task_Launch.cpp **** 
   2:My_Top/Task/Task_Launch.cpp **** /* FreeRTOS includes */
   3:My_Top/Task/Task_Launch.cpp **** #include "cmsis_os2.h"
   4:My_Top/Task/Task_Launch.cpp **** #include "FreeRTOS.h"
   5:My_Top/Task/Task_Launch.cpp **** #include "task.h"
   6:My_Top/Task/Task_Launch.cpp **** #include "timers.h"
   7:My_Top/Task/Task_Launch.cpp **** #include "StepperMotor_Loop.hpp"
   8:My_Top/Task/Task_Launch.cpp **** #include "MC_Serial.hpp"
   9:My_Top/Task/Task_Launch.cpp **** 
  10:My_Top/Task/Task_Launch.cpp **** 
  11:My_Top/Task/Task_Launch.cpp **** /* Task Handle */
  12:My_Top/Task/Task_Launch.cpp **** TaskHandle_t SystemInitHandle;
ARM GAS  /tmp/ccBjs6KT.s 			page 2


  13:My_Top/Task/Task_Launch.cpp **** TaskHandle_t TestHandle;
  14:My_Top/Task/Task_Launch.cpp **** TaskHandle_t Task_VofaRxHandle;
  15:My_Top/Task/Task_Launch.cpp **** 
  16:My_Top/Task/Task_Launch.cpp **** /* Task Function */
  17:My_Top/Task/Task_Launch.cpp **** extern void Task_SystemInit(void *argument);
  18:My_Top/Task/Task_Launch.cpp **** extern void Task_Test(void *argument);
  19:My_Top/Task/Task_Launch.cpp **** extern void Task_VofaRx(void *argument);
  20:My_Top/Task/Task_Launch.cpp **** extern void Task_MsgQueueDemo(void *argument);
  21:My_Top/Task/Task_Launch.cpp **** extern void Task_UorbDemo(void *argument);
  22:My_Top/Task/Task_Launch.cpp **** BaseType_t retA,retB,retC,retD,retE;
  23:My_Top/Task/Task_Launch.cpp **** void MC_TaskStart(void)
  24:My_Top/Task/Task_Launch.cpp **** {
  40              		.loc 1 24 1 view -0
  41              		.cfi_startproc
  42              		@ args = 0, pretend = 0, frame = 0
  43              		@ frame_needed = 0, uses_anonymous_args = 0
  44 0000 70B5     		push	{r4, r5, r6, lr}
  45              		.cfi_def_cfa_offset 16
  46              		.cfi_offset 4, -16
  47              		.cfi_offset 5, -12
  48              		.cfi_offset 6, -8
  49              		.cfi_offset 14, -4
  50 0002 82B0     		sub	sp, sp, #8
  51              		.cfi_def_cfa_offset 24
  25:My_Top/Task/Task_Launch.cpp ****     /* Task åˆ›å»º */
  26:My_Top/Task/Task_Launch.cpp ****     retA = xTaskCreate(Task_SystemInit, "SystemInit", 256, NULL, osPriorityHigh, &SystemInitHandle)
  52              		.loc 1 26 5 view .LVU1
  53              		.loc 1 26 23 is_stmt 0 view .LVU2
  54 0004 8025     		movs	r5, #128
  55 0006 6D00     		lsls	r5, r5, #1
  56 0008 1649     		ldr	r1, .L3
  57 000a 1748     		ldr	r0, .L3+4
  58 000c 174C     		ldr	r4, .L3+8
  59 000e 0194     		str	r4, [sp, #4]
  60 0010 2823     		movs	r3, #40
  61 0012 0093     		str	r3, [sp]
  62 0014 0023     		movs	r3, #0
  63 0016 2A00     		movs	r2, r5
  64 0018 FFF7FEFF 		bl	xTaskCreate
  65              	.LVL0:
  66              		.loc 1 26 10 discriminator 1 view .LVU3
  67 001c 6060     		str	r0, [r4, #4]
  27:My_Top/Task/Task_Launch.cpp ****     retB = xTaskCreate(Task_Test, "Test", 256, NULL, osPriorityNormal, &TestHandle); //æµ‹è¯•ä»»åŠ¡
  68              		.loc 1 27 5 is_stmt 1 view .LVU4
  69              		.loc 1 27 23 is_stmt 0 view .LVU5
  70 001e 1449     		ldr	r1, .L3+12
  71 0020 1448     		ldr	r0, .L3+16
  72 0022 2300     		movs	r3, r4
  73 0024 0833     		adds	r3, r3, #8
  74 0026 0193     		str	r3, [sp, #4]
  75 0028 1826     		movs	r6, #24
  76 002a 0096     		str	r6, [sp]
  77 002c 0023     		movs	r3, #0
  78 002e 2A00     		movs	r2, r5
  79 0030 FFF7FEFF 		bl	xTaskCreate
  80              	.LVL1:
  81              		.loc 1 27 10 discriminator 1 view .LVU6
ARM GAS  /tmp/ccBjs6KT.s 			page 3


  82 0034 E060     		str	r0, [r4, #12]
  28:My_Top/Task/Task_Launch.cpp ****     retC = xTaskCreate(Task_VofaRx, "Task_VofaRx", 256, NULL, osPriorityNormal, &Task_VofaRxHandle)
  83              		.loc 1 28 5 is_stmt 1 view .LVU7
  84              		.loc 1 28 23 is_stmt 0 view .LVU8
  85 0036 1049     		ldr	r1, .L3+20
  86 0038 1048     		ldr	r0, .L3+24
  87 003a 2300     		movs	r3, r4
  88 003c 1033     		adds	r3, r3, #16
  89 003e 0193     		str	r3, [sp, #4]
  90 0040 0096     		str	r6, [sp]
  91 0042 0023     		movs	r3, #0
  92 0044 2A00     		movs	r2, r5
  93 0046 FFF7FEFF 		bl	xTaskCreate
  94              	.LVL2:
  95              		.loc 1 28 10 discriminator 1 view .LVU9
  96 004a 6061     		str	r0, [r4, #20]
  29:My_Top/Task/Task_Launch.cpp ****     //retD = xTaskCreate(Task_MsgQueueDemo, "QDemo", 256, NULL, osPriorityBelowNormal, NULL);//æ¶ˆæ
  30:My_Top/Task/Task_Launch.cpp ****     retE = xTaskCreate(Task_UorbDemo, "UorbDemo", 256, NULL, osPriorityNormal, NULL);//uORBè®¢é˜…æ¼
  97              		.loc 1 30 5 is_stmt 1 view .LVU10
  98              		.loc 1 30 23 is_stmt 0 view .LVU11
  99 004c 0C49     		ldr	r1, .L3+28
 100 004e 0D48     		ldr	r0, .L3+32
 101 0050 0023     		movs	r3, #0
 102 0052 0193     		str	r3, [sp, #4]
 103 0054 0096     		str	r6, [sp]
 104 0056 2A00     		movs	r2, r5
 105 0058 FFF7FEFF 		bl	xTaskCreate
 106              	.LVL3:
 107              		.loc 1 30 10 discriminator 1 view .LVU12
 108 005c A061     		str	r0, [r4, #24]
  31:My_Top/Task/Task_Launch.cpp ****     if(retA != pdPASS || retB != pdPASS || retC != pdPASS || retE != pdPASS){
 109              		.loc 1 31 5 is_stmt 1 view .LVU13
  32:My_Top/Task/Task_Launch.cpp ****         return;
  33:My_Top/Task/Task_Launch.cpp ****     }
  34:My_Top/Task/Task_Launch.cpp **** }
 110              		.loc 1 34 1 is_stmt 0 view .LVU14
 111 005e 02B0     		add	sp, sp, #8
 112              		@ sp needed
 113 0060 70BD     		pop	{r4, r5, r6, pc}
 114              	.L4:
 115 0062 C046     		.align	2
 116              	.L3:
 117 0064 00000000 		.word	.LC0
 118 0068 00000000 		.word	_Z15Task_SystemInitPv
 119 006c 00000000 		.word	.LANCHOR0
 120 0070 0C000000 		.word	.LC4
 121 0074 00000000 		.word	_Z9Task_TestPv
 122 0078 14000000 		.word	.LC7
 123 007c 00000000 		.word	_Z11Task_VofaRxPv
 124 0080 20000000 		.word	.LC10
 125 0084 00000000 		.word	_Z13Task_UorbDemoPv
 126              		.cfi_endproc
 127              	.LFE1472:
 129              		.align	1
 130              		.global	MC_ScheduleStart
 131              		.syntax unified
 132              		.code	16
ARM GAS  /tmp/ccBjs6KT.s 			page 4


 133              		.thumb_func
 135              	MC_ScheduleStart:
 136              	.LFB1473:
  35:My_Top/Task/Task_Launch.cpp **** 
  36:My_Top/Task/Task_Launch.cpp **** extern "C" void MC_ScheduleStart(void)
  37:My_Top/Task/Task_Launch.cpp **** {
 137              		.loc 1 37 1 is_stmt 1 view -0
 138              		.cfi_startproc
 139              		@ args = 0, pretend = 0, frame = 0
 140              		@ frame_needed = 0, uses_anonymous_args = 0
 141 0088 10B5     		push	{r4, lr}
 142              		.cfi_def_cfa_offset 8
 143              		.cfi_offset 4, -8
 144              		.cfi_offset 14, -4
  38:My_Top/Task/Task_Launch.cpp ****     MC_TaskStart();//å¼€å§‹ä»»åŠ¡
 145              		.loc 1 38 5 view .LVU16
 146              		.loc 1 38 17 is_stmt 0 view .LVU17
 147 008a FFF7FEFF 		bl	_Z12MC_TaskStartv
 148              	.LVL4:
  39:My_Top/Task/Task_Launch.cpp **** }
 149              		.loc 1 39 1 view .LVU18
 150              		@ sp needed
 151 008e 10BD     		pop	{r4, pc}
 152              		.cfi_endproc
 153              	.LFE1473:
 155              		.global	retE
 156              		.global	retD
 157              		.global	retC
 158              		.global	retB
 159              		.global	retA
 160              		.global	Task_VofaRxHandle
 161              		.global	TestHandle
 162              		.global	SystemInitHandle
 163              		.bss
 164              		.align	2
 165              		.set	.LANCHOR0,. + 0
 168              	SystemInitHandle:
 169 0000 00000000 		.space	4
 172              	retA:
 173 0004 00000000 		.space	4
 176              	TestHandle:
 177 0008 00000000 		.space	4
 180              	retB:
 181 000c 00000000 		.space	4
 184              	Task_VofaRxHandle:
 185 0010 00000000 		.space	4
 188              	retC:
 189 0014 00000000 		.space	4
 192              	retE:
 193 0018 00000000 		.space	4
 196              	retD:
 197 001c 00000000 		.space	4
 198              		.text
 199              	.Letext0:
 200              		.file 2 "/opt/arm-gnu-toolchain-14.2/arm-none-eabi/include/machine/_default_types.h"
 201              		.file 3 "/opt/arm-gnu-toolchain-14.2/arm-none-eabi/include/sys/_stdint.h"
 202              		.file 4 "Middlewares/Third_Party/FreeRTOS/Source/CMSIS_RTOS_V2/cmsis_os2.h"
ARM GAS  /tmp/ccBjs6KT.s 			page 5


 203              		.file 5 "Middlewares/Third_Party/FreeRTOS/Source/include/projdefs.h"
 204              		.file 6 "Middlewares/Third_Party/FreeRTOS/Source/portable/GCC/ARM_CM0/portmacro.h"
 205              		.file 7 "Middlewares/Third_Party/FreeRTOS/Source/include/task.h"
 206              		.file 8 "/opt/arm-gnu-toolchain-14.2/arm-none-eabi/include/c++/14.2.1/cmath"
 207              		.file 9 "/opt/arm-gnu-toolchain-14.2/arm-none-eabi/include/c++/14.2.1/type_traits"
 208              		.file 10 "/opt/arm-gnu-toolchain-14.2/arm-none-eabi/include/c++/14.2.1/debug/debug.h"
 209              		.file 11 "/opt/arm-gnu-toolchain-14.2/arm-none-eabi/include/c++/14.2.1/bits/std_abs.h"
 210              		.file 12 "/opt/arm-gnu-toolchain-14.2/arm-none-eabi/include/c++/14.2.1/bits/predefined_ops.h"
 211              		.file 13 "/opt/arm-gnu-toolchain-14.2/arm-none-eabi/include/math.h"
 212              		.file 14 "/opt/arm-gnu-toolchain-14.2/arm-none-eabi/include/c++/14.2.1/arm-none-eabi/thumb/v6-m/no
 213              		.file 15 "/opt/arm-gnu-toolchain-14.2/arm-none-eabi/include/c++/14.2.1/math.h"
 214              		.file 16 "Drivers/STM32G0xx_HAL_Driver/Inc/stm32g0xx_ll_dma.h"
ARM GAS  /tmp/ccBjs6KT.s 			page 6


DEFINED SYMBOLS
                            *ABS*:00000000 Task_Launch.cpp
     /tmp/ccBjs6KT.s:19     .rodata.str1.4:00000000 $d
     /tmp/ccBjs6KT.s:32     .text:00000000 $t
     /tmp/ccBjs6KT.s:38     .text:00000000 _Z12MC_TaskStartv
     /tmp/ccBjs6KT.s:117    .text:00000064 $d
     /tmp/ccBjs6KT.s:129    .text:00000088 $t
     /tmp/ccBjs6KT.s:135    .text:00000088 MC_ScheduleStart
     /tmp/ccBjs6KT.s:192    .bss:00000018 retE
     /tmp/ccBjs6KT.s:196    .bss:0000001c retD
     /tmp/ccBjs6KT.s:188    .bss:00000014 retC
     /tmp/ccBjs6KT.s:180    .bss:0000000c retB
     /tmp/ccBjs6KT.s:172    .bss:00000004 retA
     /tmp/ccBjs6KT.s:184    .bss:00000010 Task_VofaRxHandle
     /tmp/ccBjs6KT.s:176    .bss:00000008 TestHandle
     /tmp/ccBjs6KT.s:168    .bss:00000000 SystemInitHandle
     /tmp/ccBjs6KT.s:164    .bss:00000000 $d

UNDEFINED SYMBOLS
xTaskCreate
_Z15Task_SystemInitPv
_Z9Task_TestPv
_Z11Task_VofaRxPv
_Z13Task_UorbDemoPv
