ARM GAS  /tmp/ccjljYQi.s 			page 1


   1              		.cpu cortex-m0plus
   2              		.arch armv6s-m
   3              		.fpu softvfp
   4              		.eabi_attribute 20, 1
   5              		.eabi_attribute 21, 1
   6              		.eabi_attribute 23, 3
   7              		.eabi_attribute 24, 1
   8              		.eabi_attribute 25, 1
   9              		.eabi_attribute 26, 1
  10              		.eabi_attribute 30, 1
  11              		.eabi_attribute 34, 0
  12              		.eabi_attribute 18, 4
  13              		.file	"Task_Test.cpp"
  14              		.text
  15              	.Ltext0:
  16              		.cfi_sections	.debug_frame
  17              		.file 1 "My_Top/Task/Task_Test.cpp"
  18              		.align	1
  19              		.syntax unified
  20              		.code	16
  21              		.thumb_func
  23              	_Z41__static_initialization_and_destruction_0v:
  24              	.LFB1631:
   1:My_Top/Task/Task_Test.cpp **** 
   2:My_Top/Task/Task_Test.cpp **** #include "FreeRTOS.h"
   3:My_Top/Task/Task_Test.cpp **** #include "task.h"
   4:My_Top/Task/Task_Test.cpp **** #include "MC_Serial.hpp"
   5:My_Top/Task/Task_Test.cpp **** #include "My_Vofa.hpp"
   6:My_Top/Task/Task_Test.cpp **** 
   7:My_Top/Task/Task_Test.cpp **** #include "StepperMotor_Loop.hpp"
   8:My_Top/Task/Task_Test.cpp **** 
   9:My_Top/Task/Task_Test.cpp **** BL24C16F EEPROM1(EEPROM_hi2c);
  10:My_Top/Task/Task_Test.cpp **** 
  11:My_Top/Task/Task_Test.cpp **** uint8_t test1,test2 = 0;
  12:My_Top/Task/Task_Test.cpp **** uint8_t bufff_tx[10] = {0x01, 0x02, 0xa3, 0xb4, 0x05, 0x06, 0xc7, 0xf8, 0x09, 0x0a};
  13:My_Top/Task/Task_Test.cpp **** uint8_t bufff_rx[10];
  14:My_Top/Task/Task_Test.cpp **** 
  15:My_Top/Task/Task_Test.cpp **** 
  16:My_Top/Task/Task_Test.cpp **** 
  17:My_Top/Task/Task_Test.cpp **** void lajio()
  18:My_Top/Task/Task_Test.cpp **** {
  19:My_Top/Task/Task_Test.cpp ****     uint16_t x = 60;
  20:My_Top/Task/Task_Test.cpp ****     uint16_t y = 60;
  21:My_Top/Task/Task_Test.cpp ****     HAL_TIM_PWM_Start(M1_STEP_htim, M1_STEP_CHANNEL);
  22:My_Top/Task/Task_Test.cpp ****     HAL_TIM_PWM_Start(M2_STEP_htim, M2_STEP_CHANNEL);
  23:My_Top/Task/Task_Test.cpp ****     HAL_GPIO_WritePin(M1_EN_PORT,M1_EN_PIN,GPIO_PIN_RESET);
  24:My_Top/Task/Task_Test.cpp ****     HAL_GPIO_WritePin(M2_EN_PORT,M2_EN_PIN,GPIO_PIN_RESET);
  25:My_Top/Task/Task_Test.cpp ****     __HAL_TIM_SET_AUTORELOAD(M1_STEP_htim,x);//Ķ«ŠńĮ«Õæ©µ£¤
  26:My_Top/Task/Task_Test.cpp ****     __HAL_TIM_SET_AUTORELOAD(M2_STEP_htim, y);//Ķ«ŠńĮ«Õæ©µ£¤
  27:My_Top/Task/Task_Test.cpp ****     __HAL_TIM_SET_COMPARE(M1_STEP_htim, M1_STEP_CHANNEL, x/2);//Ķ«ŠńĮ«ÕŹĀń®║µ»ö
  28:My_Top/Task/Task_Test.cpp ****     __HAL_TIM_SET_COMPARE(M2_STEP_htim, M2_STEP_CHANNEL, y/2);//Ķ«ŠńĮ«ÕŹĀń®║µ»ö
  29:My_Top/Task/Task_Test.cpp **** }
  30:My_Top/Task/Task_Test.cpp **** 
  31:My_Top/Task/Task_Test.cpp **** 
  32:My_Top/Task/Task_Test.cpp **** void Task_Test(void *argument)
  33:My_Top/Task/Task_Test.cpp **** {
  34:My_Top/Task/Task_Test.cpp ****     // ń©ŗÕ║ÅRAMÕŹĀńö©10752/1024 = 10.5KBńÜäRAM’╝īÕē®õĮÖRAM 36KB-10.5KB  = 25.5KB ÕÅ»ÕłåķģŹń╗ÖµōŹõĮ
ARM GAS  /tmp/ccjljYQi.s 			page 2


  35:My_Top/Task/Task_Test.cpp **** 
  36:My_Top/Task/Task_Test.cpp ****     // lajio();
  37:My_Top/Task/Task_Test.cpp ****     while (1)
  38:My_Top/Task/Task_Test.cpp ****     {
  39:My_Top/Task/Task_Test.cpp ****         // printf("laji1:%d laji2:%d \r\n",M1.laji,M2.laji);
  40:My_Top/Task/Task_Test.cpp ****         vTaskDelay(pdMS_TO_TICKS(500));
  41:My_Top/Task/Task_Test.cpp ****     }
  42:My_Top/Task/Task_Test.cpp **** }
  25              		.loc 1 42 1 view -0
  26              		.cfi_startproc
  27              		@ args = 0, pretend = 0, frame = 0
  28              		@ frame_needed = 0, uses_anonymous_args = 0
  29              		@ link register save eliminated.
  30              	.LVL0:
  31              	.LBB5:
  32              	.LBI5:
  33              		.file 2 "My_Top/System/BL24C16F.hpp"
   1:My_Top/System/BL24C16F.hpp **** #pragma once
   2:My_Top/System/BL24C16F.hpp **** 
   3:My_Top/System/BL24C16F.hpp **** #include "bsp.hpp" 
   4:My_Top/System/BL24C16F.hpp **** 
   5:My_Top/System/BL24C16F.hpp **** // ============================================================
   6:My_Top/System/BL24C16F.hpp **** // BL24C16F EEPROM ķ®▒ÕŖ©ń▒╗
   7:My_Top/System/BL24C16F.hpp **** // BL24C16F: 16Kbit (2048 ├Ś 8bit) I2C EEPROM
   8:My_Top/System/BL24C16F.hpp **** //   - Õ£░ÕØĆĶīāÕø┤: 0x000 ~ 0x7FF (11õĮŹÕ£░ÕØĆ)
   9:My_Top/System/BL24C16F.hpp **** //   - ķĪĄÕåÖÕģź: 16ÕŁŚĶŖé/ķĪĄ
  10:My_Top/System/BL24C16F.hpp **** //   - ÕÖ©õ╗ČÕ£░ÕØĆ(7bit): 0x50
  11:My_Top/System/BL24C16F.hpp **** //   - I2C ķĆ¤ńÄć: Fast Mode (400kHz)
  12:My_Top/System/BL24C16F.hpp **** //   - Õåģķā©ÕåÖÕģźµŚČķŚ┤: ~5ms
  13:My_Top/System/BL24C16F.hpp **** //
  14:My_Top/System/BL24C16F.hpp **** // õĮ┐ńö©µ¢╣Õ╝Å:
  15:My_Top/System/BL24C16F.hpp **** //   BL24C16F::init();
  16:My_Top/System/BL24C16F.hpp **** //   BL24C16F::write_byte(0x0100, 0xAB);
  17:My_Top/System/BL24C16F.hpp **** //   uint8_t val = BL24C16F::read_byte(0x0100);
  18:My_Top/System/BL24C16F.hpp **** //   BL24C16F::write(0x0000, buf, 32);
  19:My_Top/System/BL24C16F.hpp **** //   BL24C16F::read(0x0000, buf, 32);
  20:My_Top/System/BL24C16F.hpp **** // ============================================================
  21:My_Top/System/BL24C16F.hpp **** 
  22:My_Top/System/BL24C16F.hpp **** class BL24C16F
  23:My_Top/System/BL24C16F.hpp **** {
  24:My_Top/System/BL24C16F.hpp **** public:
  25:My_Top/System/BL24C16F.hpp ****     BL24C16F(I2C_HandleTypeDef *hi2c)
  34              		.loc 2 25 5 view .LVU1
  35              	.LBB6:
  26:My_Top/System/BL24C16F.hpp ****     {
  27:My_Top/System/BL24C16F.hpp ****         _hi2c = hi2c;
  36              		.loc 2 27 9 view .LVU2
  37              		.loc 2 27 15 is_stmt 0 view .LVU3
  38 0000 014B     		ldr	r3, .L2
  39 0002 024A     		ldr	r2, .L2+4
  40 0004 1A60     		str	r2, [r3]
  41              	.LVL1:
  42              		.loc 2 27 15 view .LVU4
  43              	.LBE6:
  44              	.LBE5:
  45              		.loc 1 42 1 view .LVU5
  46              		@ sp needed
ARM GAS  /tmp/ccjljYQi.s 			page 3


  47 0006 7047     		bx	lr
  48              	.L3:
  49              		.align	2
  50              	.L2:
  51 0008 00000000 		.word	_ZN8BL24C16F5_hi2cE
  52 000c 00000000 		.word	hi2c2
  53              		.cfi_endproc
  54              	.LFE1631:
  56              		.align	1
  57              		.global	_Z5lajiov
  58              		.syntax unified
  59              		.code	16
  60              		.thumb_func
  62              	_Z5lajiov:
  63              	.LFB1479:
  18:My_Top/Task/Task_Test.cpp ****     uint16_t x = 60;
  64              		.loc 1 18 1 is_stmt 1 view -0
  65              		.cfi_startproc
  66              		@ args = 0, pretend = 0, frame = 0
  67              		@ frame_needed = 0, uses_anonymous_args = 0
  68 0010 70B5     		push	{r4, r5, r6, lr}
  69              		.cfi_def_cfa_offset 16
  70              		.cfi_offset 4, -16
  71              		.cfi_offset 5, -12
  72              		.cfi_offset 6, -8
  73              		.cfi_offset 14, -4
  19:My_Top/Task/Task_Test.cpp ****     uint16_t y = 60;
  74              		.loc 1 19 5 view .LVU7
  75              	.LVL2:
  20:My_Top/Task/Task_Test.cpp ****     HAL_TIM_PWM_Start(M1_STEP_htim, M1_STEP_CHANNEL);
  76              		.loc 1 20 5 view .LVU8
  21:My_Top/Task/Task_Test.cpp ****     HAL_TIM_PWM_Start(M2_STEP_htim, M2_STEP_CHANNEL);
  77              		.loc 1 21 5 view .LVU9
  21:My_Top/Task/Task_Test.cpp ****     HAL_TIM_PWM_Start(M2_STEP_htim, M2_STEP_CHANNEL);
  78              		.loc 1 21 22 is_stmt 0 view .LVU10
  79 0012 104D     		ldr	r5, .L5
  80 0014 0021     		movs	r1, #0
  81 0016 2800     		movs	r0, r5
  82 0018 FFF7FEFF 		bl	HAL_TIM_PWM_Start
  83              	.LVL3:
  22:My_Top/Task/Task_Test.cpp ****     HAL_GPIO_WritePin(M1_EN_PORT,M1_EN_PIN,GPIO_PIN_RESET);
  84              		.loc 1 22 5 is_stmt 1 view .LVU11
  22:My_Top/Task/Task_Test.cpp ****     HAL_GPIO_WritePin(M1_EN_PORT,M1_EN_PIN,GPIO_PIN_RESET);
  85              		.loc 1 22 22 is_stmt 0 view .LVU12
  86 001c 0E4C     		ldr	r4, .L5+4
  87 001e 0421     		movs	r1, #4
  88 0020 2000     		movs	r0, r4
  89 0022 FFF7FEFF 		bl	HAL_TIM_PWM_Start
  90              	.LVL4:
  23:My_Top/Task/Task_Test.cpp ****     HAL_GPIO_WritePin(M2_EN_PORT,M2_EN_PIN,GPIO_PIN_RESET);
  91              		.loc 1 23 5 is_stmt 1 view .LVU13
  23:My_Top/Task/Task_Test.cpp ****     HAL_GPIO_WritePin(M2_EN_PORT,M2_EN_PIN,GPIO_PIN_RESET);
  92              		.loc 1 23 22 is_stmt 0 view .LVU14
  93 0026 0D4E     		ldr	r6, .L5+8
  94 0028 0022     		movs	r2, #0
  95 002a 0221     		movs	r1, #2
  96 002c 3000     		movs	r0, r6
ARM GAS  /tmp/ccjljYQi.s 			page 4


  97 002e FFF7FEFF 		bl	HAL_GPIO_WritePin
  98              	.LVL5:
  24:My_Top/Task/Task_Test.cpp ****     __HAL_TIM_SET_AUTORELOAD(M1_STEP_htim,x);//Ķ«ŠńĮ«Õæ©µ£¤
  99              		.loc 1 24 5 is_stmt 1 view .LVU15
  24:My_Top/Task/Task_Test.cpp ****     __HAL_TIM_SET_AUTORELOAD(M1_STEP_htim,x);//Ķ«ŠńĮ«Õæ©µ£¤
 100              		.loc 1 24 22 is_stmt 0 view .LVU16
 101 0032 0022     		movs	r2, #0
 102 0034 2021     		movs	r1, #32
 103 0036 3000     		movs	r0, r6
 104 0038 FFF7FEFF 		bl	HAL_GPIO_WritePin
 105              	.LVL6:
  25:My_Top/Task/Task_Test.cpp ****     __HAL_TIM_SET_AUTORELOAD(M2_STEP_htim, y);//Ķ«ŠńĮ«Õæ©µ£¤
 106              		.loc 1 25 5 is_stmt 1 view .LVU17
  25:My_Top/Task/Task_Test.cpp ****     __HAL_TIM_SET_AUTORELOAD(M2_STEP_htim, y);//Ķ«ŠńĮ«Õæ©µ£¤
 107              		.loc 1 25 5 view .LVU18
 108 003c 2968     		ldr	r1, [r5]
 109 003e 3C23     		movs	r3, #60
 110 0040 CB62     		str	r3, [r1, #44]
  25:My_Top/Task/Task_Test.cpp ****     __HAL_TIM_SET_AUTORELOAD(M2_STEP_htim, y);//Ķ«ŠńĮ«Õæ©µ£¤
 111              		.loc 1 25 5 view .LVU19
 112 0042 EB60     		str	r3, [r5, #12]
  25:My_Top/Task/Task_Test.cpp ****     __HAL_TIM_SET_AUTORELOAD(M2_STEP_htim, y);//Ķ«ŠńĮ«Õæ©µ£¤
 113              		.loc 1 25 5 view .LVU20
  26:My_Top/Task/Task_Test.cpp ****     __HAL_TIM_SET_COMPARE(M1_STEP_htim, M1_STEP_CHANNEL, x/2);//Ķ«ŠńĮ«ÕŹĀń®║µ»ö
 114              		.loc 1 26 5 view .LVU21
  26:My_Top/Task/Task_Test.cpp ****     __HAL_TIM_SET_COMPARE(M1_STEP_htim, M1_STEP_CHANNEL, x/2);//Ķ«ŠńĮ«ÕŹĀń®║µ»ö
 115              		.loc 1 26 5 view .LVU22
 116 0044 2268     		ldr	r2, [r4]
 117 0046 D362     		str	r3, [r2, #44]
  26:My_Top/Task/Task_Test.cpp ****     __HAL_TIM_SET_COMPARE(M1_STEP_htim, M1_STEP_CHANNEL, x/2);//Ķ«ŠńĮ«ÕŹĀń®║µ»ö
 118              		.loc 1 26 5 view .LVU23
 119 0048 E360     		str	r3, [r4, #12]
  26:My_Top/Task/Task_Test.cpp ****     __HAL_TIM_SET_COMPARE(M1_STEP_htim, M1_STEP_CHANNEL, x/2);//Ķ«ŠńĮ«ÕŹĀń®║µ»ö
 120              		.loc 1 26 5 view .LVU24
  27:My_Top/Task/Task_Test.cpp ****     __HAL_TIM_SET_COMPARE(M2_STEP_htim, M2_STEP_CHANNEL, y/2);//Ķ«ŠńĮ«ÕŹĀń®║µ»ö
 121              		.loc 1 27 5 view .LVU25
 122 004a 1E3B     		subs	r3, r3, #30
 123 004c 4B63     		str	r3, [r1, #52]
  28:My_Top/Task/Task_Test.cpp **** }
 124              		.loc 1 28 5 view .LVU26
 125 004e 9363     		str	r3, [r2, #56]
  29:My_Top/Task/Task_Test.cpp **** 
 126              		.loc 1 29 1 is_stmt 0 view .LVU27
 127              		@ sp needed
 128 0050 70BD     		pop	{r4, r5, r6, pc}
 129              	.L6:
 130 0052 C046     		.align	2
 131              	.L5:
 132 0054 00000000 		.word	htim1
 133 0058 00000000 		.word	htim2
 134 005c 00040050 		.word	1342178304
 135              		.cfi_endproc
 136              	.LFE1479:
 138              		.align	1
 139              		.global	_Z9Task_TestPv
 140              		.syntax unified
 141              		.code	16
ARM GAS  /tmp/ccjljYQi.s 			page 5


 142              		.thumb_func
 144              	_Z9Task_TestPv:
 145              	.LFB1480:
  33:My_Top/Task/Task_Test.cpp ****     // ń©ŗÕ║ÅRAMÕŹĀńö©10752/1024 = 10.5KBńÜäRAM’╝īÕē®õĮÖRAM 36KB-10.5KB  = 25.5KB ÕÅ»ÕłåķģŹń╗ÖµōŹõĮ
 146              		.loc 1 33 1 is_stmt 1 view -0
 147              		.cfi_startproc
 148              		@ Volatile: function does not return.
 149              		@ args = 0, pretend = 0, frame = 0
 150              		@ frame_needed = 0, uses_anonymous_args = 0
 151              	.LVL7:
  33:My_Top/Task/Task_Test.cpp ****     // ń©ŗÕ║ÅRAMÕŹĀńö©10752/1024 = 10.5KBńÜäRAM’╝īÕē®õĮÖRAM 36KB-10.5KB  = 25.5KB ÕÅ»ÕłåķģŹń╗ÖµōŹõĮ
 152              		.loc 1 33 1 is_stmt 0 view .LVU29
 153 0060 10B5     		push	{r4, lr}
 154              		.cfi_def_cfa_offset 8
 155              		.cfi_offset 4, -8
 156              		.cfi_offset 14, -4
 157              	.LVL8:
 158              	.L8:
  37:My_Top/Task/Task_Test.cpp ****     {
 159              		.loc 1 37 5 is_stmt 1 view .LVU30
  40:My_Top/Task/Task_Test.cpp ****     }
 160              		.loc 1 40 9 discriminator 1 view .LVU31
  40:My_Top/Task/Task_Test.cpp ****     }
 161              		.loc 1 40 19 is_stmt 0 discriminator 1 view .LVU32
 162 0062 FA20     		movs	r0, #250
 163 0064 4000     		lsls	r0, r0, #1
 164 0066 FFF7FEFF 		bl	vTaskDelay
 165              	.LVL9:
  37:My_Top/Task/Task_Test.cpp ****     {
 166              		.loc 1 37 5 is_stmt 1 view .LVU33
 167 006a FAE7     		b	.L8
 168              		.cfi_endproc
 169              	.LFE1480:
 171              		.align	1
 172              		.syntax unified
 173              		.code	16
 174              		.thumb_func
 176              	_GLOBAL__sub_I_EEPROM1:
 177              	.LFB1632:
 178              		.loc 1 42 1 view -0
 179              		.cfi_startproc
 180              		@ args = 0, pretend = 0, frame = 0
 181              		@ frame_needed = 0, uses_anonymous_args = 0
 182 006c 10B5     		push	{r4, lr}
 183              		.cfi_def_cfa_offset 8
 184              		.cfi_offset 4, -8
 185              		.cfi_offset 14, -4
 186              		.loc 1 42 1 is_stmt 0 view .LVU35
 187 006e FFF7C7FF 		bl	_Z41__static_initialization_and_destruction_0v
 188              	.LVL10:
 189              		@ sp needed
 190 0072 10BD     		pop	{r4, pc}
 191              		.cfi_endproc
 192              	.LFE1632:
 194              		.section	.init_array,"aw",%init_array
 195              		.align	2
 196 0000 00000000 		.word	_GLOBAL__sub_I_EEPROM1(target1)
ARM GAS  /tmp/ccjljYQi.s 			page 6


 197              		.global	bufff_rx
 198              		.global	bufff_tx
 199              		.global	test2
 200              		.global	test1
 201              		.global	EEPROM1
 202              		.data
 203              		.align	2
 206              	bufff_tx:
 207 0000 0102A3B4 		.ascii	"\001\002\243\264\005\006\307\370\011\012"
 207      0506C7F8 
 207      090A
 208              		.bss
 209              		.align	2
 212              	bufff_rx:
 213 0000 00000000 		.space	10
 213      00000000 
 213      0000
 216              	test2:
 217 000a 00       		.space	1
 220              	test1:
 221 000b 00       		.space	1
 224              	EEPROM1:
 225 000c 00       		.space	1
 226              		.text
 227              	.Letext0:
 228              		.file 3 "/opt/arm-gnu-toolchain-14.2/lib/gcc/arm-none-eabi/14.2.1/include/stddef.h"
 229              		.file 4 "/opt/arm-gnu-toolchain-14.2/arm-none-eabi/include/machine/_default_types.h"
 230              		.file 5 "/opt/arm-gnu-toolchain-14.2/arm-none-eabi/include/sys/_stdint.h"
 231              		.file 6 "Middlewares/Third_Party/FreeRTOS/Source/portable/GCC/ARM_CM0/portmacro.h"
 232              		.file 7 "Drivers/CMSIS/Device/ST/STM32G0xx/Include/stm32g071xx.h"
 233              		.file 8 "Drivers/STM32G0xx_HAL_Driver/Inc/stm32g0xx_hal_def.h"
 234              		.file 9 "Drivers/STM32G0xx_HAL_Driver/Inc/stm32g0xx_hal_gpio.h"
 235              		.file 10 "Drivers/STM32G0xx_HAL_Driver/Inc/stm32g0xx_hal_dma.h"
 236              		.file 11 "Drivers/STM32G0xx_HAL_Driver/Inc/stm32g0xx_hal_i2c.h"
 237              		.file 12 "Drivers/STM32G0xx_HAL_Driver/Inc/stm32g0xx_hal_tim.h"
 238              		.file 13 "Core/Inc/tim.h"
 239              		.file 14 "Core/Inc/i2c.h"
 240              		.file 15 "/opt/arm-gnu-toolchain-14.2/arm-none-eabi/include/stdlib.h"
 241              		.file 16 "/opt/arm-gnu-toolchain-14.2/arm-none-eabi/include/c++/14.2.1/cstdlib"
 242              		.file 17 "/opt/arm-gnu-toolchain-14.2/arm-none-eabi/include/c++/14.2.1/bits/std_abs.h"
 243              		.file 18 "/opt/arm-gnu-toolchain-14.2/arm-none-eabi/include/c++/14.2.1/cmath"
 244              		.file 19 "/opt/arm-gnu-toolchain-14.2/arm-none-eabi/include/c++/14.2.1/type_traits"
 245              		.file 20 "/opt/arm-gnu-toolchain-14.2/arm-none-eabi/include/c++/14.2.1/debug/debug.h"
 246              		.file 21 "/opt/arm-gnu-toolchain-14.2/arm-none-eabi/include/c++/14.2.1/bits/predefined_ops.h"
 247              		.file 22 "/opt/arm-gnu-toolchain-14.2/arm-none-eabi/include/c++/14.2.1/stdlib.h"
 248              		.file 23 "/opt/arm-gnu-toolchain-14.2/arm-none-eabi/include/math.h"
 249              		.file 24 "/opt/arm-gnu-toolchain-14.2/arm-none-eabi/include/c++/14.2.1/arm-none-eabi/thumb/v6-m/no
 250              		.file 25 "/opt/arm-gnu-toolchain-14.2/arm-none-eabi/include/c++/14.2.1/math.h"
 251              		.file 26 "Middlewares/Third_Party/FreeRTOS/Source/include/task.h"
 252              		.file 27 "Drivers/STM32G0xx_HAL_Driver/Inc/stm32g0xx_ll_dma.h"
 253              		.file 28 "My_Top/Step_Motor/StepperMotor_Loop.hpp"
ARM GAS  /tmp/ccjljYQi.s 			page 7

