ARM GAS  /tmp/cc7DqR8V.s 			page 1


   1              		.cpu cortex-m0plus
   2              		.arch armv6s-m
   3              		.fpu softvfp
   4              		.eabi_attribute 20, 1
   5              		.eabi_attribute 21, 1
   6              		.eabi_attribute 23, 3
   7              		.eabi_attribute 24, 1
   8              		.eabi_attribute 25, 1
   9              		.eabi_attribute 26, 1
  10              		.eabi_attribute 30, 1
  11              		.eabi_attribute 34, 0
  12              		.eabi_attribute 18, 4
  13              		.file	"Task_CLI.cpp"
  14              		.text
  15              	.Ltext0:
  16              		.cfi_sections	.debug_frame
  17              		.file 1 "My_Top/Task/Task_CLI.cpp"
  18              		.align	1
  19              		.syntax unified
  20              		.code	16
  21              		.thumb_func
  23              	_Z41__static_initialization_and_destruction_0v:
  24              	.LFB480:
   1:My_Top/Task/Task_CLI.cpp **** #include "My_CLI.hpp"
   2:My_Top/Task/Task_CLI.cpp **** 
   3:My_Top/Task/Task_CLI.cpp **** CLI_Module cli_console;  // 全局CLI实例
   4:My_Top/Task/Task_CLI.cpp **** 
   5:My_Top/Task/Task_CLI.cpp **** // ============================================================
   6:My_Top/Task/Task_CLI.cpp **** // 1. 命令处理函数声明
   7:My_Top/Task/Task_CLI.cpp **** // ============================================================
   8:My_Top/Task/Task_CLI.cpp **** 
   9:My_Top/Task/Task_CLI.cpp **** // ============================================================
  10:My_Top/Task/Task_CLI.cpp **** // 2. CLI 任务入口
  11:My_Top/Task/Task_CLI.cpp **** // ============================================================
  12:My_Top/Task/Task_CLI.cpp **** void Task_CLI(void *argument)
  13:My_Top/Task/Task_CLI.cpp **** {
  14:My_Top/Task/Task_CLI.cpp ****     cli_console.init("FOC_ZGJ");                       // CLI终端名称
  15:My_Top/Task/Task_CLI.cpp ****     cli_console.bind_write_data(&sr_console);       // 绑定串口1
  16:My_Top/Task/Task_CLI.cpp **** 
  17:My_Top/Task/Task_CLI.cpp ****     // 注册命令
  18:My_Top/Task/Task_CLI.cpp ****     CLI_Module::add_command_to_all("start", "start", true, NULL, start);//电机启动
  19:My_Top/Task/Task_CLI.cpp ****     CLI_Module::add_command_to_all("stop", "stop", true, NULL, stop);//电机停止
  20:My_Top/Task/Task_CLI.cpp ****     CLI_Module::add_command_to_all("reset", "reset", true, NULL, reset);//驱动板重启
  21:My_Top/Task/Task_CLI.cpp **** 
  22:My_Top/Task/Task_CLI.cpp ****     CLI_Module::add_command_to_all("set_dir", "set_dir [dir] 0-顺时针 1-逆时针", true, NULL, 
  23:My_Top/Task/Task_CLI.cpp ****     CLI_Module::add_command_to_all("set_fre", "set_fre", true, NULL, set_fre);//设置电机频率
  24:My_Top/Task/Task_CLI.cpp ****     CLI_Module::add_command_to_all("set_duty", "set_duty [duty] 范围0.0f-1.0f", true, NULL, set_d
  25:My_Top/Task/Task_CLI.cpp **** 
  26:My_Top/Task/Task_CLI.cpp ****     CLI_Module::start_all();  // 启动所有CLI
  27:My_Top/Task/Task_CLI.cpp **** 
  28:My_Top/Task/Task_CLI.cpp ****     vTaskDelete(NULL);
  29:My_Top/Task/Task_CLI.cpp **** }
  25              		.loc 1 29 1 view -0
  26              		.cfi_startproc
  27              		@ args = 0, pretend = 0, frame = 0
  28              		@ frame_needed = 0, uses_anonymous_args = 0
  29              		@ link register save eliminated.
ARM GAS  /tmp/cc7DqR8V.s 			page 2


  30              	.LVL0:
  31              	.LBB5:
  32              	.LBI5:
  33              		.file 2 "My_Top/Modules/CLI_Module.hpp"
   1:My_Top/Modules/CLI_Module.hpp **** #pragma once
   2:My_Top/Modules/CLI_Module.hpp **** 
   3:My_Top/Modules/CLI_Module.hpp **** #include <stdint.h>
   4:My_Top/Modules/CLI_Module.hpp **** 
   5:My_Top/Modules/CLI_Module.hpp **** #include "cmsis_os2.h"
   6:My_Top/Modules/CLI_Module.hpp **** #include "FreeRTOS.h"
   7:My_Top/Modules/CLI_Module.hpp **** #include "task.h"
   8:My_Top/Modules/CLI_Module.hpp **** #include "semphr.h"
   9:My_Top/Modules/CLI_Module.hpp **** 
  10:My_Top/Modules/CLI_Module.hpp **** #include "serial.hpp"
  11:My_Top/Modules/CLI_Module.hpp **** #include "embedded_cli.h"
  12:My_Top/Modules/CLI_Module.hpp **** 
  13:My_Top/Modules/CLI_Module.hpp **** #ifndef CLI_MODULE_INSTANCE_MAX_NUM
  14:My_Top/Modules/CLI_Module.hpp **** #define CLI_MODULE_INSTANCE_MAX_NUM 5
  15:My_Top/Modules/CLI_Module.hpp **** #endif
  16:My_Top/Modules/CLI_Module.hpp **** 
  17:My_Top/Modules/CLI_Module.hpp **** #ifndef CLI_MODULE_PRINT_BUFFER_MAX_SIZE
  18:My_Top/Modules/CLI_Module.hpp **** #define CLI_MODULE_PRINT_BUFFER_MAX_SIZE 200
  19:My_Top/Modules/CLI_Module.hpp **** #endif
  20:My_Top/Modules/CLI_Module.hpp **** 
  21:My_Top/Modules/CLI_Module.hpp **** #define CLI_MODULE_MAX_ARGS_NUM 10
  22:My_Top/Modules/CLI_Module.hpp **** 
  23:My_Top/Modules/CLI_Module.hpp **** enum class CLI_Status : uint8_t
  24:My_Top/Modules/CLI_Module.hpp **** {
  25:My_Top/Modules/CLI_Module.hpp ****     ArgsError,
  26:My_Top/Modules/CLI_Module.hpp ****     Success,
  27:My_Top/Modules/CLI_Module.hpp ****     Fail
  28:My_Top/Modules/CLI_Module.hpp **** };
  29:My_Top/Modules/CLI_Module.hpp **** 
  30:My_Top/Modules/CLI_Module.hpp **** class CLI_Module;
  31:My_Top/Modules/CLI_Module.hpp **** 
  32:My_Top/Modules/CLI_Module.hpp **** typedef CLI_Status (*cli_subcmd_func_t)(CLI_Module *mcli, const char **args, int argc);
  33:My_Top/Modules/CLI_Module.hpp **** 
  34:My_Top/Modules/CLI_Module.hpp **** typedef struct
  35:My_Top/Modules/CLI_Module.hpp **** {
  36:My_Top/Modules/CLI_Module.hpp ****     const char *name;
  37:My_Top/Modules/CLI_Module.hpp ****     cli_subcmd_func_t func;
  38:My_Top/Modules/CLI_Module.hpp **** } cli_subcmd_cfg_t;
  39:My_Top/Modules/CLI_Module.hpp **** 
  40:My_Top/Modules/CLI_Module.hpp **** class CLI_Module
  34              		.loc 2 40 7 view .LVU1
  35              	.LBB6:
  36 0000 034B     		ldr	r3, .L2
  37 0002 0022     		movs	r2, #0
  38 0004 1A70     		strb	r2, [r3]
  39 0006 5A60     		str	r2, [r3, #4]
  40 0008 9A60     		str	r2, [r3, #8]
  41 000a DA62     		str	r2, [r3, #44]
  42 000c 1A63     		str	r2, [r3, #48]
  43              	.LVL1:
  44              		.loc 2 40 7 is_stmt 0 view .LVU2
  45              	.LBE6:
  46              	.LBE5:
ARM GAS  /tmp/cc7DqR8V.s 			page 3


  47              		.loc 1 29 1 view .LVU3
  48              		@ sp needed
  49 000e 7047     		bx	lr
  50              	.L3:
  51              		.align	2
  52              	.L2:
  53 0010 00000000 		.word	.LANCHOR0
  54              		.cfi_endproc
  55              	.LFE480:
  57              		.section	.rodata.str1.4,"aMS",%progbits,1
  58              		.align	2
  59              	.LC1:
  60 0000 464F435F 		.ascii	"FOC_ZGJ\000"
  60      5A474A00 
  61              		.align	2
  62              	.LC5:
  63 0008 73746172 		.ascii	"start\000"
  63      7400
  64 000e 0000     		.align	2
  65              	.LC8:
  66 0010 73746F70 		.ascii	"stop\000"
  66      00
  67 0015 000000   		.align	2
  68              	.LC11:
  69 0018 72657365 		.ascii	"reset\000"
  69      7400
  70 001e 0000     		.align	2
  71              	.LC14:
  72 0020 7365745F 		.ascii	"set_dir [dir] 0-\351\241\272\346\227\266\351\222\210"
  72      64697220 
  72      5B646972 
  72      5D20302D 
  72      E9A1BAE6 
  73 0039 20312DE9 		.ascii	" 1-\351\200\206\346\227\266\351\222\210\000"
  73      8086E697 
  73      B6E99288 
  73      00
  74 0046 0000     		.align	2
  75              	.LC16:
  76 0048 7365745F 		.ascii	"set_dir\000"
  76      64697200 
  77              		.align	2
  78              	.LC19:
  79 0050 7365745F 		.ascii	"set_fre\000"
  79      66726500 
  80              		.align	2
  81              	.LC22:
  82 0058 7365745F 		.ascii	"set_duty [duty] \350\214\203\345\233\2640.0f-1.0f\000"
  82      64757479 
  82      205B6475 
  82      74795D20 
  82      E88C83E5 
  83              		.align	2
  84              	.LC24:
  85 0078 7365745F 		.ascii	"set_duty\000"
  85      64757479 
  85      00
ARM GAS  /tmp/cc7DqR8V.s 			page 4


  86              		.text
  87              		.align	1
  88              		.global	_Z8Task_CLIPv
  89              		.syntax unified
  90              		.code	16
  91              		.thumb_func
  93              	_Z8Task_CLIPv:
  94              	.LVL2:
  95              	.LFB479:
  13:My_Top/Task/Task_CLI.cpp ****     cli_console.init("FOC_ZGJ");                       // CLI终端名称
  96              		.loc 1 13 1 is_stmt 1 view -0
  97              		.cfi_startproc
  98              		@ args = 0, pretend = 0, frame = 0
  99              		@ frame_needed = 0, uses_anonymous_args = 0
  13:My_Top/Task/Task_CLI.cpp ****     cli_console.init("FOC_ZGJ");                       // CLI终端名称
 100              		.loc 1 13 1 is_stmt 0 view .LVU5
 101 0014 10B5     		push	{r4, lr}
 102              		.cfi_def_cfa_offset 8
 103              		.cfi_offset 4, -8
 104              		.cfi_offset 14, -4
 105 0016 82B0     		sub	sp, sp, #8
 106              		.cfi_def_cfa_offset 16
  14:My_Top/Task/Task_CLI.cpp ****     cli_console.bind_write_data(&sr_console);       // 绑定串口1
 107              		.loc 1 14 5 is_stmt 1 view .LVU6
  14:My_Top/Task/Task_CLI.cpp ****     cli_console.bind_write_data(&sr_console);       // 绑定串口1
 108              		.loc 1 14 21 is_stmt 0 view .LVU7
 109 0018 2049     		ldr	r1, .L5
 110 001a 214C     		ldr	r4, .L5+4
 111 001c 0A22     		movs	r2, #10
 112 001e 2000     		movs	r0, r4
 113              	.LVL3:
  14:My_Top/Task/Task_CLI.cpp ****     cli_console.bind_write_data(&sr_console);       // 绑定串口1
 114              		.loc 1 14 21 view .LVU8
 115 0020 FFF7FEFF 		bl	_ZN10CLI_Module4initEPKct
 116              	.LVL4:
  15:My_Top/Task/Task_CLI.cpp **** 
 117              		.loc 1 15 5 is_stmt 1 view .LVU9
  15:My_Top/Task/Task_CLI.cpp **** 
 118              		.loc 1 15 32 is_stmt 0 view .LVU10
 119 0024 1F49     		ldr	r1, .L5+8
 120 0026 2000     		movs	r0, r4
 121 0028 FFF7FEFF 		bl	_ZN10CLI_Module15bind_write_dataEP6Serial
 122              	.LVL5:
  18:My_Top/Task/Task_CLI.cpp ****     CLI_Module::add_command_to_all("stop", "stop", true, NULL, stop);//电机停止
 123              		.loc 1 18 5 is_stmt 1 view .LVU11
  18:My_Top/Task/Task_CLI.cpp ****     CLI_Module::add_command_to_all("stop", "stop", true, NULL, stop);//电机停止
 124              		.loc 1 18 35 is_stmt 0 view .LVU12
 125 002c 1E48     		ldr	r0, .L5+12
 126 002e 1F4B     		ldr	r3, .L5+16
 127 0030 0093     		str	r3, [sp]
 128 0032 0023     		movs	r3, #0
 129 0034 0122     		movs	r2, #1
 130 0036 0100     		movs	r1, r0
 131 0038 FFF7FEFF 		bl	_ZN10CLI_Module18add_command_to_allEPKcS1_bPvPFvP11EmbeddedCliPcS2_E
 132              	.LVL6:
  19:My_Top/Task/Task_CLI.cpp ****     CLI_Module::add_command_to_all("reset", "reset", true, NULL, reset);//驱动板重启
 133              		.loc 1 19 5 is_stmt 1 view .LVU13
ARM GAS  /tmp/cc7DqR8V.s 			page 5


  19:My_Top/Task/Task_CLI.cpp ****     CLI_Module::add_command_to_all("reset", "reset", true, NULL, reset);//驱动板重启
 134              		.loc 1 19 35 is_stmt 0 view .LVU14
 135 003c 1C48     		ldr	r0, .L5+20
 136 003e 1D4B     		ldr	r3, .L5+24
 137 0040 0093     		str	r3, [sp]
 138 0042 0023     		movs	r3, #0
 139 0044 0122     		movs	r2, #1
 140 0046 0100     		movs	r1, r0
 141 0048 FFF7FEFF 		bl	_ZN10CLI_Module18add_command_to_allEPKcS1_bPvPFvP11EmbeddedCliPcS2_E
 142              	.LVL7:
  20:My_Top/Task/Task_CLI.cpp **** 
 143              		.loc 1 20 5 is_stmt 1 view .LVU15
  20:My_Top/Task/Task_CLI.cpp **** 
 144              		.loc 1 20 35 is_stmt 0 view .LVU16
 145 004c 1A48     		ldr	r0, .L5+28
 146 004e 1B4B     		ldr	r3, .L5+32
 147 0050 0093     		str	r3, [sp]
 148 0052 0023     		movs	r3, #0
 149 0054 0122     		movs	r2, #1
 150 0056 0100     		movs	r1, r0
 151 0058 FFF7FEFF 		bl	_ZN10CLI_Module18add_command_to_allEPKcS1_bPvPFvP11EmbeddedCliPcS2_E
 152              	.LVL8:
  22:My_Top/Task/Task_CLI.cpp ****     CLI_Module::add_command_to_all("set_fre", "set_fre", true, NULL, set_fre);//设置电机频率
 153              		.loc 1 22 5 is_stmt 1 view .LVU17
  22:My_Top/Task/Task_CLI.cpp ****     CLI_Module::add_command_to_all("set_fre", "set_fre", true, NULL, set_fre);//设置电机频率
 154              		.loc 1 22 35 is_stmt 0 view .LVU18
 155 005c 1849     		ldr	r1, .L5+36
 156 005e 1948     		ldr	r0, .L5+40
 157 0060 194B     		ldr	r3, .L5+44
 158 0062 0093     		str	r3, [sp]
 159 0064 0023     		movs	r3, #0
 160 0066 0122     		movs	r2, #1
 161 0068 FFF7FEFF 		bl	_ZN10CLI_Module18add_command_to_allEPKcS1_bPvPFvP11EmbeddedCliPcS2_E
 162              	.LVL9:
  23:My_Top/Task/Task_CLI.cpp ****     CLI_Module::add_command_to_all("set_duty", "set_duty [duty] 范围0.0f-1.0f", true, NULL, set_d
 163              		.loc 1 23 5 is_stmt 1 view .LVU19
  23:My_Top/Task/Task_CLI.cpp ****     CLI_Module::add_command_to_all("set_duty", "set_duty [duty] 范围0.0f-1.0f", true, NULL, set_d
 164              		.loc 1 23 35 is_stmt 0 view .LVU20
 165 006c 1748     		ldr	r0, .L5+48
 166 006e 184B     		ldr	r3, .L5+52
 167 0070 0093     		str	r3, [sp]
 168 0072 0023     		movs	r3, #0
 169 0074 0122     		movs	r2, #1
 170 0076 0100     		movs	r1, r0
 171 0078 FFF7FEFF 		bl	_ZN10CLI_Module18add_command_to_allEPKcS1_bPvPFvP11EmbeddedCliPcS2_E
 172              	.LVL10:
  24:My_Top/Task/Task_CLI.cpp **** 
 173              		.loc 1 24 5 is_stmt 1 view .LVU21
  24:My_Top/Task/Task_CLI.cpp **** 
 174              		.loc 1 24 35 is_stmt 0 view .LVU22
 175 007c 1549     		ldr	r1, .L5+56
 176 007e 1648     		ldr	r0, .L5+60
 177 0080 164B     		ldr	r3, .L5+64
 178 0082 0093     		str	r3, [sp]
 179 0084 0023     		movs	r3, #0
 180 0086 0122     		movs	r2, #1
 181 0088 FFF7FEFF 		bl	_ZN10CLI_Module18add_command_to_allEPKcS1_bPvPFvP11EmbeddedCliPcS2_E
ARM GAS  /tmp/cc7DqR8V.s 			page 6


 182              	.LVL11:
  26:My_Top/Task/Task_CLI.cpp **** 
 183              		.loc 1 26 5 is_stmt 1 view .LVU23
  26:My_Top/Task/Task_CLI.cpp **** 
 184              		.loc 1 26 26 is_stmt 0 view .LVU24
 185 008c FFF7FEFF 		bl	_ZN10CLI_Module9start_allEv
 186              	.LVL12:
  28:My_Top/Task/Task_CLI.cpp **** }
 187              		.loc 1 28 5 is_stmt 1 view .LVU25
  28:My_Top/Task/Task_CLI.cpp **** }
 188              		.loc 1 28 16 is_stmt 0 view .LVU26
 189 0090 0020     		movs	r0, #0
 190 0092 FFF7FEFF 		bl	vTaskDelete
 191              	.LVL13:
 192              		.loc 1 29 1 view .LVU27
 193 0096 02B0     		add	sp, sp, #8
 194              		@ sp needed
 195 0098 10BD     		pop	{r4, pc}
 196              	.L6:
 197 009a C046     		.align	2
 198              	.L5:
 199 009c 00000000 		.word	.LC1
 200 00a0 00000000 		.word	.LANCHOR0
 201 00a4 00000000 		.word	sr_console
 202 00a8 08000000 		.word	.LC5
 203 00ac 00000000 		.word	_Z5startP11EmbeddedCliPcPv
 204 00b0 10000000 		.word	.LC8
 205 00b4 00000000 		.word	_Z4stopP11EmbeddedCliPcPv
 206 00b8 18000000 		.word	.LC11
 207 00bc 00000000 		.word	_Z5resetP11EmbeddedCliPcPv
 208 00c0 20000000 		.word	.LC14
 209 00c4 48000000 		.word	.LC16
 210 00c8 00000000 		.word	_Z7set_dirP11EmbeddedCliPcPv
 211 00cc 50000000 		.word	.LC19
 212 00d0 00000000 		.word	_Z7set_freP11EmbeddedCliPcPv
 213 00d4 58000000 		.word	.LC22
 214 00d8 78000000 		.word	.LC24
 215 00dc 00000000 		.word	_Z8set_dutyP11EmbeddedCliPcPv
 216              		.cfi_endproc
 217              	.LFE479:
 219              		.align	1
 220              		.syntax unified
 221              		.code	16
 222              		.thumb_func
 224              	_GLOBAL__sub_I_cli_console:
 225              	.LFB481:
 226              		.loc 1 29 1 is_stmt 1 view -0
 227              		.cfi_startproc
 228              		@ args = 0, pretend = 0, frame = 0
 229              		@ frame_needed = 0, uses_anonymous_args = 0
 230 00e0 10B5     		push	{r4, lr}
 231              		.cfi_def_cfa_offset 8
 232              		.cfi_offset 4, -8
 233              		.cfi_offset 14, -4
 234              		.loc 1 29 1 is_stmt 0 view .LVU29
 235 00e2 FFF78DFF 		bl	_Z41__static_initialization_and_destruction_0v
 236              	.LVL14:
ARM GAS  /tmp/cc7DqR8V.s 			page 7


 237              		@ sp needed
 238 00e6 10BD     		pop	{r4, pc}
 239              		.cfi_endproc
 240              	.LFE481:
 242              		.section	.init_array,"aw",%init_array
 243              		.align	2
 244 0000 00000000 		.word	_GLOBAL__sub_I_cli_console(target1)
 245              		.global	cli_console
 246              		.bss
 247              		.align	2
 248              		.set	.LANCHOR0,. + 0
 251              	cli_console:
 252 0000 00000000 		.space	56
 252      00000000 
 252      00000000 
 252      00000000 
 252      00000000 
 253              		.text
 254              	.Letext0:
 255              		.file 3 "/opt/arm-gnu-toolchain-14.2/lib/gcc/arm-none-eabi/14.2.1/include/stddef.h"
 256              		.file 4 "/opt/arm-gnu-toolchain-14.2/arm-none-eabi/include/machine/_default_types.h"
 257              		.file 5 "/opt/arm-gnu-toolchain-14.2/arm-none-eabi/include/sys/_stdint.h"
 258              		.file 6 "Middlewares/Third_Party/FreeRTOS/Source/include/task.h"
 259              		.file 7 "/opt/arm-gnu-toolchain-14.2/arm-none-eabi/include/stdlib.h"
 260              		.file 8 "/opt/arm-gnu-toolchain-14.2/arm-none-eabi/include/c++/14.2.1/cstdlib"
 261              		.file 9 "Middlewares/Third_Party/FreeRTOS/Source/include/queue.h"
 262              		.file 10 "Middlewares/Third_Party/FreeRTOS/Source/include/semphr.h"
 263              		.file 11 "Drivers/CMSIS/Device/ST/STM32G0xx/Include/stm32g071xx.h"
 264              		.file 12 "Drivers/STM32G0xx_HAL_Driver/Inc/stm32g0xx_hal_def.h"
 265              		.file 13 "Drivers/STM32G0xx_HAL_Driver/Inc/stm32g0xx_hal_dma.h"
 266              		.file 14 "Drivers/STM32G0xx_HAL_Driver/Inc/stm32g0xx_hal_uart.h"
 267              		.file 15 "Lib/serial/serial.hpp"
 268              		.file 16 "Lib/embedded-cli/embedded_cli.h"
 269              		.file 17 "My_Top/MC/MC_Serial.hpp"
 270              		.file 18 "My_Top/System/My_CLI.hpp"
 271              		.file 19 "/opt/arm-gnu-toolchain-14.2/arm-none-eabi/include/c++/14.2.1/arm-none-eabi/thumb/v6-m/no
 272              		.file 20 "Drivers/STM32G0xx_HAL_Driver/Inc/stm32g0xx_ll_dma.h"
ARM GAS  /tmp/cc7DqR8V.s 			page 8


DEFINED SYMBOLS
                            *ABS*:00000000 Task_CLI.cpp
     /tmp/cc7DqR8V.s:18     .text:00000000 $t
     /tmp/cc7DqR8V.s:23     .text:00000000 _Z41__static_initialization_and_destruction_0v
     /tmp/cc7DqR8V.s:53     .text:00000010 $d
     /tmp/cc7DqR8V.s:58     .rodata.str1.4:00000000 $d
     /tmp/cc7DqR8V.s:87     .text:00000014 $t
     /tmp/cc7DqR8V.s:93     .text:00000014 _Z8Task_CLIPv
     /tmp/cc7DqR8V.s:199    .text:0000009c $d
     /tmp/cc7DqR8V.s:219    .text:000000e0 $t
     /tmp/cc7DqR8V.s:224    .text:000000e0 _GLOBAL__sub_I_cli_console
     /tmp/cc7DqR8V.s:243    .init_array:00000000 $d
     /tmp/cc7DqR8V.s:251    .bss:00000000 cli_console
     /tmp/cc7DqR8V.s:247    .bss:00000000 $d

UNDEFINED SYMBOLS
_ZN10CLI_Module4initEPKct
_ZN10CLI_Module15bind_write_dataEP6Serial
_ZN10CLI_Module18add_command_to_allEPKcS1_bPvPFvP11EmbeddedCliPcS2_E
_ZN10CLI_Module9start_allEv
vTaskDelete
sr_console
_Z5startP11EmbeddedCliPcPv
_Z4stopP11EmbeddedCliPcPv
_Z5resetP11EmbeddedCliPcPv
_Z7set_dirP11EmbeddedCliPcPv
_Z7set_freP11EmbeddedCliPcPv
_Z8set_dutyP11EmbeddedCliPcPv
