ARM GAS  /tmp/ccjOdkOi.s 			page 1


   1              		.cpu cortex-m0plus
   2              		.arch armv6s-m
   3              		.fpu softvfp
   4              		.eabi_attribute 20, 1
   5              		.eabi_attribute 21, 1
   6              		.eabi_attribute 23, 3
   7              		.eabi_attribute 24, 1
   8              		.eabi_attribute 25, 1
   9              		.eabi_attribute 26, 1
  10              		.eabi_attribute 30, 1
  11              		.eabi_attribute 34, 0
  12              		.eabi_attribute 18, 4
  13              		.file	"tim.c"
  14              		.text
  15              	.Ltext0:
  16              		.cfi_sections	.debug_frame
  17              		.file 1 "Core/Src/tim.c"
  18              		.section	.text.MX_TIM3_Init,"ax",%progbits
  19              		.align	1
  20              		.global	MX_TIM3_Init
  21              		.syntax unified
  22              		.code	16
  23              		.thumb_func
  25              	MX_TIM3_Init:
  26              	.LFB459:
   1:Core/Src/tim.c **** /* USER CODE BEGIN Header */
   2:Core/Src/tim.c **** /**
   3:Core/Src/tim.c ****   ******************************************************************************
   4:Core/Src/tim.c ****   * @file    tim.c
   5:Core/Src/tim.c ****   * @brief   This file provides code for the configuration
   6:Core/Src/tim.c ****   *          of the TIM instances.
   7:Core/Src/tim.c ****   ******************************************************************************
   8:Core/Src/tim.c ****   * @attention
   9:Core/Src/tim.c ****   *
  10:Core/Src/tim.c ****   * Copyright (c) 2026 STMicroelectronics.
  11:Core/Src/tim.c ****   * All rights reserved.
  12:Core/Src/tim.c ****   *
  13:Core/Src/tim.c ****   * This software is licensed under terms that can be found in the LICENSE file
  14:Core/Src/tim.c ****   * in the root directory of this software component.
  15:Core/Src/tim.c ****   * If no LICENSE file comes with this software, it is provided AS-IS.
  16:Core/Src/tim.c ****   *
  17:Core/Src/tim.c ****   ******************************************************************************
  18:Core/Src/tim.c ****   */
  19:Core/Src/tim.c **** /* USER CODE END Header */
  20:Core/Src/tim.c **** /* Includes ------------------------------------------------------------------*/
  21:Core/Src/tim.c **** #include "tim.h"
  22:Core/Src/tim.c **** 
  23:Core/Src/tim.c **** /* USER CODE BEGIN 0 */
  24:Core/Src/tim.c **** 
  25:Core/Src/tim.c **** /* USER CODE END 0 */
  26:Core/Src/tim.c **** 
  27:Core/Src/tim.c **** TIM_HandleTypeDef htim1;
  28:Core/Src/tim.c **** TIM_HandleTypeDef htim2;
  29:Core/Src/tim.c **** TIM_HandleTypeDef htim3;
  30:Core/Src/tim.c **** TIM_HandleTypeDef htim15;
  31:Core/Src/tim.c **** 
  32:Core/Src/tim.c **** /* TIM1 init function */
ARM GAS  /tmp/ccjOdkOi.s 			page 2


  33:Core/Src/tim.c **** void MX_TIM1_Init(void)
  34:Core/Src/tim.c **** {
  35:Core/Src/tim.c **** 
  36:Core/Src/tim.c ****   /* USER CODE BEGIN TIM1_Init 0 */
  37:Core/Src/tim.c **** 
  38:Core/Src/tim.c ****   /* USER CODE END TIM1_Init 0 */
  39:Core/Src/tim.c **** 
  40:Core/Src/tim.c ****   TIM_ClockConfigTypeDef sClockSourceConfig = {0};
  41:Core/Src/tim.c ****   TIM_MasterConfigTypeDef sMasterConfig = {0};
  42:Core/Src/tim.c ****   TIM_OC_InitTypeDef sConfigOC = {0};
  43:Core/Src/tim.c ****   TIM_BreakDeadTimeConfigTypeDef sBreakDeadTimeConfig = {0};
  44:Core/Src/tim.c **** 
  45:Core/Src/tim.c ****   /* USER CODE BEGIN TIM1_Init 1 */
  46:Core/Src/tim.c **** 
  47:Core/Src/tim.c ****   /* USER CODE END TIM1_Init 1 */
  48:Core/Src/tim.c ****   htim1.Instance = TIM1;
  49:Core/Src/tim.c ****   htim1.Init.Prescaler = 640-1;
  50:Core/Src/tim.c ****   htim1.Init.CounterMode = TIM_COUNTERMODE_UP;
  51:Core/Src/tim.c ****   htim1.Init.Period = 1000-1;
  52:Core/Src/tim.c ****   htim1.Init.ClockDivision = TIM_CLOCKDIVISION_DIV1;
  53:Core/Src/tim.c ****   htim1.Init.RepetitionCounter = 0;
  54:Core/Src/tim.c ****   htim1.Init.AutoReloadPreload = TIM_AUTORELOAD_PRELOAD_DISABLE;
  55:Core/Src/tim.c ****   if (HAL_TIM_Base_Init(&htim1) != HAL_OK)
  56:Core/Src/tim.c ****   {
  57:Core/Src/tim.c ****     Error_Handler();
  58:Core/Src/tim.c ****   }
  59:Core/Src/tim.c ****   sClockSourceConfig.ClockSource = TIM_CLOCKSOURCE_INTERNAL;
  60:Core/Src/tim.c ****   if (HAL_TIM_ConfigClockSource(&htim1, &sClockSourceConfig) != HAL_OK)
  61:Core/Src/tim.c ****   {
  62:Core/Src/tim.c ****     Error_Handler();
  63:Core/Src/tim.c ****   }
  64:Core/Src/tim.c ****   if (HAL_TIM_PWM_Init(&htim1) != HAL_OK)
  65:Core/Src/tim.c ****   {
  66:Core/Src/tim.c ****     Error_Handler();
  67:Core/Src/tim.c ****   }
  68:Core/Src/tim.c ****   sMasterConfig.MasterOutputTrigger = TIM_TRGO_RESET;
  69:Core/Src/tim.c ****   sMasterConfig.MasterOutputTrigger2 = TIM_TRGO2_RESET;
  70:Core/Src/tim.c ****   sMasterConfig.MasterSlaveMode = TIM_MASTERSLAVEMODE_DISABLE;
  71:Core/Src/tim.c ****   if (HAL_TIMEx_MasterConfigSynchronization(&htim1, &sMasterConfig) != HAL_OK)
  72:Core/Src/tim.c ****   {
  73:Core/Src/tim.c ****     Error_Handler();
  74:Core/Src/tim.c ****   }
  75:Core/Src/tim.c ****   sConfigOC.OCMode = TIM_OCMODE_PWM1;
  76:Core/Src/tim.c ****   sConfigOC.Pulse = 0;
  77:Core/Src/tim.c ****   sConfigOC.OCPolarity = TIM_OCPOLARITY_HIGH;
  78:Core/Src/tim.c ****   sConfigOC.OCNPolarity = TIM_OCNPOLARITY_HIGH;
  79:Core/Src/tim.c ****   sConfigOC.OCFastMode = TIM_OCFAST_DISABLE;
  80:Core/Src/tim.c ****   sConfigOC.OCIdleState = TIM_OCIDLESTATE_RESET;
  81:Core/Src/tim.c ****   sConfigOC.OCNIdleState = TIM_OCNIDLESTATE_RESET;
  82:Core/Src/tim.c ****   if (HAL_TIM_PWM_ConfigChannel(&htim1, &sConfigOC, TIM_CHANNEL_1) != HAL_OK)
  83:Core/Src/tim.c ****   {
  84:Core/Src/tim.c ****     Error_Handler();
  85:Core/Src/tim.c ****   }
  86:Core/Src/tim.c ****   sBreakDeadTimeConfig.OffStateRunMode = TIM_OSSR_DISABLE;
  87:Core/Src/tim.c ****   sBreakDeadTimeConfig.OffStateIDLEMode = TIM_OSSI_DISABLE;
  88:Core/Src/tim.c ****   sBreakDeadTimeConfig.LockLevel = TIM_LOCKLEVEL_OFF;
  89:Core/Src/tim.c ****   sBreakDeadTimeConfig.DeadTime = 0;
ARM GAS  /tmp/ccjOdkOi.s 			page 3


  90:Core/Src/tim.c ****   sBreakDeadTimeConfig.BreakState = TIM_BREAK_DISABLE;
  91:Core/Src/tim.c ****   sBreakDeadTimeConfig.BreakPolarity = TIM_BREAKPOLARITY_HIGH;
  92:Core/Src/tim.c ****   sBreakDeadTimeConfig.BreakFilter = 0;
  93:Core/Src/tim.c ****   sBreakDeadTimeConfig.BreakAFMode = TIM_BREAK_AFMODE_INPUT;
  94:Core/Src/tim.c ****   sBreakDeadTimeConfig.Break2State = TIM_BREAK2_DISABLE;
  95:Core/Src/tim.c ****   sBreakDeadTimeConfig.Break2Polarity = TIM_BREAK2POLARITY_HIGH;
  96:Core/Src/tim.c ****   sBreakDeadTimeConfig.Break2Filter = 0;
  97:Core/Src/tim.c ****   sBreakDeadTimeConfig.Break2AFMode = TIM_BREAK_AFMODE_INPUT;
  98:Core/Src/tim.c ****   sBreakDeadTimeConfig.AutomaticOutput = TIM_AUTOMATICOUTPUT_DISABLE;
  99:Core/Src/tim.c ****   if (HAL_TIMEx_ConfigBreakDeadTime(&htim1, &sBreakDeadTimeConfig) != HAL_OK)
 100:Core/Src/tim.c ****   {
 101:Core/Src/tim.c ****     Error_Handler();
 102:Core/Src/tim.c ****   }
 103:Core/Src/tim.c ****   /* USER CODE BEGIN TIM1_Init 2 */
 104:Core/Src/tim.c **** 
 105:Core/Src/tim.c ****   /* USER CODE END TIM1_Init 2 */
 106:Core/Src/tim.c ****   HAL_TIM_MspPostInit(&htim1);
 107:Core/Src/tim.c **** 
 108:Core/Src/tim.c **** }
 109:Core/Src/tim.c **** /* TIM2 init function */
 110:Core/Src/tim.c **** void MX_TIM2_Init(void)
 111:Core/Src/tim.c **** {
 112:Core/Src/tim.c **** 
 113:Core/Src/tim.c ****   /* USER CODE BEGIN TIM2_Init 0 */
 114:Core/Src/tim.c **** 
 115:Core/Src/tim.c ****   /* USER CODE END TIM2_Init 0 */
 116:Core/Src/tim.c **** 
 117:Core/Src/tim.c ****   TIM_ClockConfigTypeDef sClockSourceConfig = {0};
 118:Core/Src/tim.c ****   TIM_MasterConfigTypeDef sMasterConfig = {0};
 119:Core/Src/tim.c ****   TIM_OC_InitTypeDef sConfigOC = {0};
 120:Core/Src/tim.c **** 
 121:Core/Src/tim.c ****   /* USER CODE BEGIN TIM2_Init 1 */
 122:Core/Src/tim.c **** 
 123:Core/Src/tim.c ****   /* USER CODE END TIM2_Init 1 */
 124:Core/Src/tim.c ****   htim2.Instance = TIM2;
 125:Core/Src/tim.c ****   htim2.Init.Prescaler = 640-1;
 126:Core/Src/tim.c ****   htim2.Init.CounterMode = TIM_COUNTERMODE_UP;
 127:Core/Src/tim.c ****   htim2.Init.Period = 1000-1;
 128:Core/Src/tim.c ****   htim2.Init.ClockDivision = TIM_CLOCKDIVISION_DIV1;
 129:Core/Src/tim.c ****   htim2.Init.AutoReloadPreload = TIM_AUTORELOAD_PRELOAD_DISABLE;
 130:Core/Src/tim.c ****   if (HAL_TIM_Base_Init(&htim2) != HAL_OK)
 131:Core/Src/tim.c ****   {
 132:Core/Src/tim.c ****     Error_Handler();
 133:Core/Src/tim.c ****   }
 134:Core/Src/tim.c ****   sClockSourceConfig.ClockSource = TIM_CLOCKSOURCE_INTERNAL;
 135:Core/Src/tim.c ****   if (HAL_TIM_ConfigClockSource(&htim2, &sClockSourceConfig) != HAL_OK)
 136:Core/Src/tim.c ****   {
 137:Core/Src/tim.c ****     Error_Handler();
 138:Core/Src/tim.c ****   }
 139:Core/Src/tim.c ****   if (HAL_TIM_PWM_Init(&htim2) != HAL_OK)
 140:Core/Src/tim.c ****   {
 141:Core/Src/tim.c ****     Error_Handler();
 142:Core/Src/tim.c ****   }
 143:Core/Src/tim.c ****   sMasterConfig.MasterOutputTrigger = TIM_TRGO_RESET;
 144:Core/Src/tim.c ****   sMasterConfig.MasterSlaveMode = TIM_MASTERSLAVEMODE_DISABLE;
 145:Core/Src/tim.c ****   if (HAL_TIMEx_MasterConfigSynchronization(&htim2, &sMasterConfig) != HAL_OK)
 146:Core/Src/tim.c ****   {
ARM GAS  /tmp/ccjOdkOi.s 			page 4


 147:Core/Src/tim.c ****     Error_Handler();
 148:Core/Src/tim.c ****   }
 149:Core/Src/tim.c ****   sConfigOC.OCMode = TIM_OCMODE_PWM1;
 150:Core/Src/tim.c ****   sConfigOC.Pulse = 0;
 151:Core/Src/tim.c ****   sConfigOC.OCPolarity = TIM_OCPOLARITY_HIGH;
 152:Core/Src/tim.c ****   sConfigOC.OCFastMode = TIM_OCFAST_DISABLE;
 153:Core/Src/tim.c ****   if (HAL_TIM_PWM_ConfigChannel(&htim2, &sConfigOC, TIM_CHANNEL_2) != HAL_OK)
 154:Core/Src/tim.c ****   {
 155:Core/Src/tim.c ****     Error_Handler();
 156:Core/Src/tim.c ****   }
 157:Core/Src/tim.c ****   /* USER CODE BEGIN TIM2_Init 2 */
 158:Core/Src/tim.c **** 
 159:Core/Src/tim.c ****   /* USER CODE END TIM2_Init 2 */
 160:Core/Src/tim.c ****   HAL_TIM_MspPostInit(&htim2);
 161:Core/Src/tim.c **** 
 162:Core/Src/tim.c **** }
 163:Core/Src/tim.c **** /* TIM3 init function */
 164:Core/Src/tim.c **** void MX_TIM3_Init(void)
 165:Core/Src/tim.c **** {
  27              		.loc 1 165 1 view -0
  28              		.cfi_startproc
  29              		@ args = 0, pretend = 0, frame = 56
  30              		@ frame_needed = 0, uses_anonymous_args = 0
  31 0000 00B5     		push	{lr}
  32              		.cfi_def_cfa_offset 4
  33              		.cfi_offset 14, -4
  34 0002 8FB0     		sub	sp, sp, #60
  35              		.cfi_def_cfa_offset 64
 166:Core/Src/tim.c **** 
 167:Core/Src/tim.c ****   /* USER CODE BEGIN TIM3_Init 0 */
 168:Core/Src/tim.c **** 
 169:Core/Src/tim.c ****   /* USER CODE END TIM3_Init 0 */
 170:Core/Src/tim.c **** 
 171:Core/Src/tim.c ****   TIM_ClockConfigTypeDef sClockSourceConfig = {0};
  36              		.loc 1 171 3 view .LVU1
  37              		.loc 1 171 26 is_stmt 0 view .LVU2
  38 0004 1022     		movs	r2, #16
  39 0006 0021     		movs	r1, #0
  40 0008 0AA8     		add	r0, sp, #40
  41 000a FFF7FEFF 		bl	memset
  42              	.LVL0:
 172:Core/Src/tim.c ****   TIM_MasterConfigTypeDef sMasterConfig = {0};
  43              		.loc 1 172 3 is_stmt 1 view .LVU3
  44              		.loc 1 172 27 is_stmt 0 view .LVU4
  45 000e 0C22     		movs	r2, #12
  46 0010 0021     		movs	r1, #0
  47 0012 07A8     		add	r0, sp, #28
  48 0014 FFF7FEFF 		bl	memset
  49              	.LVL1:
 173:Core/Src/tim.c ****   TIM_OC_InitTypeDef sConfigOC = {0};
  50              		.loc 1 173 3 is_stmt 1 view .LVU5
  51              		.loc 1 173 22 is_stmt 0 view .LVU6
  52 0018 1C22     		movs	r2, #28
  53 001a 0021     		movs	r1, #0
  54 001c 6846     		mov	r0, sp
  55 001e FFF7FEFF 		bl	memset
  56              	.LVL2:
ARM GAS  /tmp/ccjOdkOi.s 			page 5


 174:Core/Src/tim.c **** 
 175:Core/Src/tim.c ****   /* USER CODE BEGIN TIM3_Init 1 */
 176:Core/Src/tim.c **** 
 177:Core/Src/tim.c ****   /* USER CODE END TIM3_Init 1 */
 178:Core/Src/tim.c ****   htim3.Instance = TIM3;
  57              		.loc 1 178 3 is_stmt 1 view .LVU7
  58              		.loc 1 178 18 is_stmt 0 view .LVU8
  59 0022 2248     		ldr	r0, .L12
  60 0024 224B     		ldr	r3, .L12+4
  61 0026 0360     		str	r3, [r0]
 179:Core/Src/tim.c ****   htim3.Init.Prescaler = 40-1;
  62              		.loc 1 179 3 is_stmt 1 view .LVU9
  63              		.loc 1 179 24 is_stmt 0 view .LVU10
  64 0028 2723     		movs	r3, #39
  65 002a 4360     		str	r3, [r0, #4]
 180:Core/Src/tim.c ****   htim3.Init.CounterMode = TIM_COUNTERMODE_UP;
  66              		.loc 1 180 3 is_stmt 1 view .LVU11
  67              		.loc 1 180 26 is_stmt 0 view .LVU12
  68 002c 0023     		movs	r3, #0
  69 002e 8360     		str	r3, [r0, #8]
 181:Core/Src/tim.c ****   htim3.Init.Period = 100-1;
  70              		.loc 1 181 3 is_stmt 1 view .LVU13
  71              		.loc 1 181 21 is_stmt 0 view .LVU14
  72 0030 6322     		movs	r2, #99
  73 0032 C260     		str	r2, [r0, #12]
 182:Core/Src/tim.c ****   htim3.Init.ClockDivision = TIM_CLOCKDIVISION_DIV1;
  74              		.loc 1 182 3 is_stmt 1 view .LVU15
  75              		.loc 1 182 28 is_stmt 0 view .LVU16
  76 0034 0361     		str	r3, [r0, #16]
 183:Core/Src/tim.c ****   htim3.Init.AutoReloadPreload = TIM_AUTORELOAD_PRELOAD_DISABLE;
  77              		.loc 1 183 3 is_stmt 1 view .LVU17
  78              		.loc 1 183 32 is_stmt 0 view .LVU18
  79 0036 8361     		str	r3, [r0, #24]
 184:Core/Src/tim.c ****   if (HAL_TIM_Base_Init(&htim3) != HAL_OK)
  80              		.loc 1 184 3 is_stmt 1 view .LVU19
  81              		.loc 1 184 7 is_stmt 0 view .LVU20
  82 0038 FFF7FEFF 		bl	HAL_TIM_Base_Init
  83              	.LVL3:
  84              		.loc 1 184 6 discriminator 1 view .LVU21
  85 003c 0028     		cmp	r0, #0
  86 003e 25D1     		bne	.L7
  87              	.L2:
 185:Core/Src/tim.c ****   {
 186:Core/Src/tim.c ****     Error_Handler();
 187:Core/Src/tim.c ****   }
 188:Core/Src/tim.c ****   sClockSourceConfig.ClockSource = TIM_CLOCKSOURCE_INTERNAL;
  88              		.loc 1 188 3 is_stmt 1 view .LVU22
  89              		.loc 1 188 34 is_stmt 0 view .LVU23
  90 0040 8023     		movs	r3, #128
  91 0042 5B01     		lsls	r3, r3, #5
  92 0044 0A93     		str	r3, [sp, #40]
 189:Core/Src/tim.c ****   if (HAL_TIM_ConfigClockSource(&htim3, &sClockSourceConfig) != HAL_OK)
  93              		.loc 1 189 3 is_stmt 1 view .LVU24
  94              		.loc 1 189 7 is_stmt 0 view .LVU25
  95 0046 1948     		ldr	r0, .L12
  96 0048 0AA9     		add	r1, sp, #40
  97 004a FFF7FEFF 		bl	HAL_TIM_ConfigClockSource
ARM GAS  /tmp/ccjOdkOi.s 			page 6


  98              	.LVL4:
  99              		.loc 1 189 6 discriminator 1 view .LVU26
 100 004e 0028     		cmp	r0, #0
 101 0050 1FD1     		bne	.L8
 102              	.L3:
 190:Core/Src/tim.c ****   {
 191:Core/Src/tim.c ****     Error_Handler();
 192:Core/Src/tim.c ****   }
 193:Core/Src/tim.c ****   if (HAL_TIM_PWM_Init(&htim3) != HAL_OK)
 103              		.loc 1 193 3 is_stmt 1 view .LVU27
 104              		.loc 1 193 7 is_stmt 0 view .LVU28
 105 0052 1648     		ldr	r0, .L12
 106 0054 FFF7FEFF 		bl	HAL_TIM_PWM_Init
 107              	.LVL5:
 108              		.loc 1 193 6 discriminator 1 view .LVU29
 109 0058 0028     		cmp	r0, #0
 110 005a 1DD1     		bne	.L9
 111              	.L4:
 194:Core/Src/tim.c ****   {
 195:Core/Src/tim.c ****     Error_Handler();
 196:Core/Src/tim.c ****   }
 197:Core/Src/tim.c ****   sMasterConfig.MasterOutputTrigger = TIM_TRGO_RESET;
 112              		.loc 1 197 3 is_stmt 1 view .LVU30
 113              		.loc 1 197 37 is_stmt 0 view .LVU31
 114 005c 07A9     		add	r1, sp, #28
 115 005e 0023     		movs	r3, #0
 116 0060 0793     		str	r3, [sp, #28]
 198:Core/Src/tim.c ****   sMasterConfig.MasterSlaveMode = TIM_MASTERSLAVEMODE_DISABLE;
 117              		.loc 1 198 3 is_stmt 1 view .LVU32
 118              		.loc 1 198 33 is_stmt 0 view .LVU33
 119 0062 8B60     		str	r3, [r1, #8]
 199:Core/Src/tim.c ****   if (HAL_TIMEx_MasterConfigSynchronization(&htim3, &sMasterConfig) != HAL_OK)
 120              		.loc 1 199 3 is_stmt 1 view .LVU34
 121              		.loc 1 199 7 is_stmt 0 view .LVU35
 122 0064 1148     		ldr	r0, .L12
 123 0066 FFF7FEFF 		bl	HAL_TIMEx_MasterConfigSynchronization
 124              	.LVL6:
 125              		.loc 1 199 6 discriminator 1 view .LVU36
 126 006a 0028     		cmp	r0, #0
 127 006c 17D1     		bne	.L10
 128              	.L5:
 200:Core/Src/tim.c ****   {
 201:Core/Src/tim.c ****     Error_Handler();
 202:Core/Src/tim.c ****   }
 203:Core/Src/tim.c ****   sConfigOC.OCMode = TIM_OCMODE_PWM1;
 129              		.loc 1 203 3 is_stmt 1 view .LVU37
 130              		.loc 1 203 20 is_stmt 0 view .LVU38
 131 006e 6946     		mov	r1, sp
 132 0070 6023     		movs	r3, #96
 133 0072 0093     		str	r3, [sp]
 204:Core/Src/tim.c ****   sConfigOC.Pulse = 0;
 134              		.loc 1 204 3 is_stmt 1 view .LVU39
 135              		.loc 1 204 19 is_stmt 0 view .LVU40
 136 0074 0023     		movs	r3, #0
 137 0076 0193     		str	r3, [sp, #4]
 205:Core/Src/tim.c ****   sConfigOC.OCPolarity = TIM_OCPOLARITY_HIGH;
 138              		.loc 1 205 3 is_stmt 1 view .LVU41
ARM GAS  /tmp/ccjOdkOi.s 			page 7


 139              		.loc 1 205 24 is_stmt 0 view .LVU42
 140 0078 0293     		str	r3, [sp, #8]
 206:Core/Src/tim.c ****   sConfigOC.OCFastMode = TIM_OCFAST_DISABLE;
 141              		.loc 1 206 3 is_stmt 1 view .LVU43
 142              		.loc 1 206 24 is_stmt 0 view .LVU44
 143 007a 0493     		str	r3, [sp, #16]
 207:Core/Src/tim.c ****   if (HAL_TIM_PWM_ConfigChannel(&htim3, &sConfigOC, TIM_CHANNEL_1) != HAL_OK)
 144              		.loc 1 207 3 is_stmt 1 view .LVU45
 145              		.loc 1 207 7 is_stmt 0 view .LVU46
 146 007c 0B48     		ldr	r0, .L12
 147 007e 0022     		movs	r2, #0
 148 0080 FFF7FEFF 		bl	HAL_TIM_PWM_ConfigChannel
 149              	.LVL7:
 150              		.loc 1 207 6 discriminator 1 view .LVU47
 151 0084 0028     		cmp	r0, #0
 152 0086 0DD1     		bne	.L11
 153              	.L1:
 208:Core/Src/tim.c ****   {
 209:Core/Src/tim.c ****     Error_Handler();
 210:Core/Src/tim.c ****   }
 211:Core/Src/tim.c ****   /* USER CODE BEGIN TIM3_Init 2 */
 212:Core/Src/tim.c **** 
 213:Core/Src/tim.c ****   /* USER CODE END TIM3_Init 2 */
 214:Core/Src/tim.c **** 
 215:Core/Src/tim.c **** }
 154              		.loc 1 215 1 view .LVU48
 155 0088 0FB0     		add	sp, sp, #60
 156              		@ sp needed
 157 008a 00BD     		pop	{pc}
 158              	.L7:
 186:Core/Src/tim.c ****   }
 159              		.loc 1 186 5 is_stmt 1 view .LVU49
 160 008c FFF7FEFF 		bl	Error_Handler
 161              	.LVL8:
 162 0090 D6E7     		b	.L2
 163              	.L8:
 191:Core/Src/tim.c ****   }
 164              		.loc 1 191 5 view .LVU50
 165 0092 FFF7FEFF 		bl	Error_Handler
 166              	.LVL9:
 167 0096 DCE7     		b	.L3
 168              	.L9:
 195:Core/Src/tim.c ****   }
 169              		.loc 1 195 5 view .LVU51
 170 0098 FFF7FEFF 		bl	Error_Handler
 171              	.LVL10:
 172 009c DEE7     		b	.L4
 173              	.L10:
 201:Core/Src/tim.c ****   }
 174              		.loc 1 201 5 view .LVU52
 175 009e FFF7FEFF 		bl	Error_Handler
 176              	.LVL11:
 177 00a2 E4E7     		b	.L5
 178              	.L11:
 209:Core/Src/tim.c ****   }
 179              		.loc 1 209 5 view .LVU53
 180 00a4 FFF7FEFF 		bl	Error_Handler
ARM GAS  /tmp/ccjOdkOi.s 			page 8


 181              	.LVL12:
 182              		.loc 1 215 1 is_stmt 0 view .LVU54
 183 00a8 EEE7     		b	.L1
 184              	.L13:
 185 00aa C046     		.align	2
 186              	.L12:
 187 00ac 00000000 		.word	htim3
 188 00b0 00040040 		.word	1073742848
 189              		.cfi_endproc
 190              	.LFE459:
 192              		.section	.text.MX_TIM15_Init,"ax",%progbits
 193              		.align	1
 194              		.global	MX_TIM15_Init
 195              		.syntax unified
 196              		.code	16
 197              		.thumb_func
 199              	MX_TIM15_Init:
 200              	.LFB460:
 216:Core/Src/tim.c **** /* TIM15 init function */
 217:Core/Src/tim.c **** void MX_TIM15_Init(void)
 218:Core/Src/tim.c **** {
 201              		.loc 1 218 1 is_stmt 1 view -0
 202              		.cfi_startproc
 203              		@ args = 0, pretend = 0, frame = 32
 204              		@ frame_needed = 0, uses_anonymous_args = 0
 205 0000 00B5     		push	{lr}
 206              		.cfi_def_cfa_offset 4
 207              		.cfi_offset 14, -4
 208 0002 89B0     		sub	sp, sp, #36
 209              		.cfi_def_cfa_offset 40
 219:Core/Src/tim.c **** 
 220:Core/Src/tim.c ****   /* USER CODE BEGIN TIM15_Init 0 */
 221:Core/Src/tim.c **** 
 222:Core/Src/tim.c ****   /* USER CODE END TIM15_Init 0 */
 223:Core/Src/tim.c **** 
 224:Core/Src/tim.c ****   TIM_ClockConfigTypeDef sClockSourceConfig = {0};
 210              		.loc 1 224 3 view .LVU56
 211              		.loc 1 224 26 is_stmt 0 view .LVU57
 212 0004 1022     		movs	r2, #16
 213 0006 0021     		movs	r1, #0
 214 0008 04A8     		add	r0, sp, #16
 215 000a FFF7FEFF 		bl	memset
 216              	.LVL13:
 225:Core/Src/tim.c ****   TIM_MasterConfigTypeDef sMasterConfig = {0};
 217              		.loc 1 225 3 is_stmt 1 view .LVU58
 218              		.loc 1 225 27 is_stmt 0 view .LVU59
 219 000e 0C22     		movs	r2, #12
 220 0010 0021     		movs	r1, #0
 221 0012 01A8     		add	r0, sp, #4
 222 0014 FFF7FEFF 		bl	memset
 223              	.LVL14:
 226:Core/Src/tim.c **** 
 227:Core/Src/tim.c ****   /* USER CODE BEGIN TIM15_Init 1 */
 228:Core/Src/tim.c **** 
 229:Core/Src/tim.c ****   /* USER CODE END TIM15_Init 1 */
 230:Core/Src/tim.c ****   htim15.Instance = TIM15;
 224              		.loc 1 230 3 is_stmt 1 view .LVU60
ARM GAS  /tmp/ccjOdkOi.s 			page 9


 225              		.loc 1 230 19 is_stmt 0 view .LVU61
 226 0018 1648     		ldr	r0, .L21
 227 001a 174B     		ldr	r3, .L21+4
 228 001c 0360     		str	r3, [r0]
 231:Core/Src/tim.c ****   htim15.Init.Prescaler = 64-1;
 229              		.loc 1 231 3 is_stmt 1 view .LVU62
 230              		.loc 1 231 25 is_stmt 0 view .LVU63
 231 001e 3F23     		movs	r3, #63
 232 0020 4360     		str	r3, [r0, #4]
 232:Core/Src/tim.c ****   htim15.Init.CounterMode = TIM_COUNTERMODE_UP;
 233              		.loc 1 232 3 is_stmt 1 view .LVU64
 234              		.loc 1 232 27 is_stmt 0 view .LVU65
 235 0022 0023     		movs	r3, #0
 236 0024 8360     		str	r3, [r0, #8]
 233:Core/Src/tim.c ****   htim15.Init.Period = 65535;
 237              		.loc 1 233 3 is_stmt 1 view .LVU66
 238              		.loc 1 233 22 is_stmt 0 view .LVU67
 239 0026 154A     		ldr	r2, .L21+8
 240 0028 C260     		str	r2, [r0, #12]
 234:Core/Src/tim.c ****   htim15.Init.ClockDivision = TIM_CLOCKDIVISION_DIV1;
 241              		.loc 1 234 3 is_stmt 1 view .LVU68
 242              		.loc 1 234 29 is_stmt 0 view .LVU69
 243 002a 0361     		str	r3, [r0, #16]
 235:Core/Src/tim.c ****   htim15.Init.RepetitionCounter = 0;
 244              		.loc 1 235 3 is_stmt 1 view .LVU70
 245              		.loc 1 235 33 is_stmt 0 view .LVU71
 246 002c 4361     		str	r3, [r0, #20]
 236:Core/Src/tim.c ****   htim15.Init.AutoReloadPreload = TIM_AUTORELOAD_PRELOAD_DISABLE;
 247              		.loc 1 236 3 is_stmt 1 view .LVU72
 248              		.loc 1 236 33 is_stmt 0 view .LVU73
 249 002e 8361     		str	r3, [r0, #24]
 237:Core/Src/tim.c ****   if (HAL_TIM_Base_Init(&htim15) != HAL_OK)
 250              		.loc 1 237 3 is_stmt 1 view .LVU74
 251              		.loc 1 237 7 is_stmt 0 view .LVU75
 252 0030 FFF7FEFF 		bl	HAL_TIM_Base_Init
 253              	.LVL15:
 254              		.loc 1 237 6 discriminator 1 view .LVU76
 255 0034 0028     		cmp	r0, #0
 256 0036 13D1     		bne	.L18
 257              	.L15:
 238:Core/Src/tim.c ****   {
 239:Core/Src/tim.c ****     Error_Handler();
 240:Core/Src/tim.c ****   }
 241:Core/Src/tim.c ****   sClockSourceConfig.ClockSource = TIM_CLOCKSOURCE_INTERNAL;
 258              		.loc 1 241 3 is_stmt 1 view .LVU77
 259              		.loc 1 241 34 is_stmt 0 view .LVU78
 260 0038 8023     		movs	r3, #128
 261 003a 5B01     		lsls	r3, r3, #5
 262 003c 0493     		str	r3, [sp, #16]
 242:Core/Src/tim.c ****   if (HAL_TIM_ConfigClockSource(&htim15, &sClockSourceConfig) != HAL_OK)
 263              		.loc 1 242 3 is_stmt 1 view .LVU79
 264              		.loc 1 242 7 is_stmt 0 view .LVU80
 265 003e 0D48     		ldr	r0, .L21
 266 0040 04A9     		add	r1, sp, #16
 267 0042 FFF7FEFF 		bl	HAL_TIM_ConfigClockSource
 268              	.LVL16:
 269              		.loc 1 242 6 discriminator 1 view .LVU81
ARM GAS  /tmp/ccjOdkOi.s 			page 10


 270 0046 0028     		cmp	r0, #0
 271 0048 0DD1     		bne	.L19
 272              	.L16:
 243:Core/Src/tim.c ****   {
 244:Core/Src/tim.c ****     Error_Handler();
 245:Core/Src/tim.c ****   }
 246:Core/Src/tim.c ****   sMasterConfig.MasterOutputTrigger = TIM_TRGO_RESET;
 273              		.loc 1 246 3 is_stmt 1 view .LVU82
 274              		.loc 1 246 37 is_stmt 0 view .LVU83
 275 004a 01A9     		add	r1, sp, #4
 276 004c 0023     		movs	r3, #0
 277 004e 0193     		str	r3, [sp, #4]
 247:Core/Src/tim.c ****   sMasterConfig.MasterSlaveMode = TIM_MASTERSLAVEMODE_DISABLE;
 278              		.loc 1 247 3 is_stmt 1 view .LVU84
 279              		.loc 1 247 33 is_stmt 0 view .LVU85
 280 0050 8B60     		str	r3, [r1, #8]
 248:Core/Src/tim.c ****   if (HAL_TIMEx_MasterConfigSynchronization(&htim15, &sMasterConfig) != HAL_OK)
 281              		.loc 1 248 3 is_stmt 1 view .LVU86
 282              		.loc 1 248 7 is_stmt 0 view .LVU87
 283 0052 0848     		ldr	r0, .L21
 284 0054 FFF7FEFF 		bl	HAL_TIMEx_MasterConfigSynchronization
 285              	.LVL17:
 286              		.loc 1 248 6 discriminator 1 view .LVU88
 287 0058 0028     		cmp	r0, #0
 288 005a 07D1     		bne	.L20
 289              	.L14:
 249:Core/Src/tim.c ****   {
 250:Core/Src/tim.c ****     Error_Handler();
 251:Core/Src/tim.c ****   }
 252:Core/Src/tim.c ****   /* USER CODE BEGIN TIM15_Init 2 */
 253:Core/Src/tim.c **** 
 254:Core/Src/tim.c ****   /* USER CODE END TIM15_Init 2 */
 255:Core/Src/tim.c **** 
 256:Core/Src/tim.c **** }
 290              		.loc 1 256 1 view .LVU89
 291 005c 09B0     		add	sp, sp, #36
 292              		@ sp needed
 293 005e 00BD     		pop	{pc}
 294              	.L18:
 239:Core/Src/tim.c ****   }
 295              		.loc 1 239 5 is_stmt 1 view .LVU90
 296 0060 FFF7FEFF 		bl	Error_Handler
 297              	.LVL18:
 298 0064 E8E7     		b	.L15
 299              	.L19:
 244:Core/Src/tim.c ****   }
 300              		.loc 1 244 5 view .LVU91
 301 0066 FFF7FEFF 		bl	Error_Handler
 302              	.LVL19:
 303 006a EEE7     		b	.L16
 304              	.L20:
 250:Core/Src/tim.c ****   }
 305              		.loc 1 250 5 view .LVU92
 306 006c FFF7FEFF 		bl	Error_Handler
 307              	.LVL20:
 308              		.loc 1 256 1 is_stmt 0 view .LVU93
 309 0070 F4E7     		b	.L14
ARM GAS  /tmp/ccjOdkOi.s 			page 11


 310              	.L22:
 311 0072 C046     		.align	2
 312              	.L21:
 313 0074 00000000 		.word	htim15
 314 0078 00400140 		.word	1073823744
 315 007c FFFF0000 		.word	65535
 316              		.cfi_endproc
 317              	.LFE460:
 319              		.section	.text.HAL_TIM_Base_MspInit,"ax",%progbits
 320              		.align	1
 321              		.global	HAL_TIM_Base_MspInit
 322              		.syntax unified
 323              		.code	16
 324              		.thumb_func
 326              	HAL_TIM_Base_MspInit:
 327              	.LVL21:
 328              	.LFB461:
 257:Core/Src/tim.c **** 
 258:Core/Src/tim.c **** void HAL_TIM_Base_MspInit(TIM_HandleTypeDef* tim_baseHandle)
 259:Core/Src/tim.c **** {
 329              		.loc 1 259 1 is_stmt 1 view -0
 330              		.cfi_startproc
 331              		@ args = 0, pretend = 0, frame = 72
 332              		@ frame_needed = 0, uses_anonymous_args = 0
 333              		.loc 1 259 1 is_stmt 0 view .LVU95
 334 0000 10B5     		push	{r4, lr}
 335              		.cfi_def_cfa_offset 8
 336              		.cfi_offset 4, -8
 337              		.cfi_offset 14, -4
 338 0002 92B0     		sub	sp, sp, #72
 339              		.cfi_def_cfa_offset 80
 340 0004 0400     		movs	r4, r0
 260:Core/Src/tim.c **** 
 261:Core/Src/tim.c ****   RCC_PeriphCLKInitTypeDef PeriphClkInit = {0};
 341              		.loc 1 261 3 is_stmt 1 view .LVU96
 342              		.loc 1 261 28 is_stmt 0 view .LVU97
 343 0006 3422     		movs	r2, #52
 344 0008 0021     		movs	r1, #0
 345 000a 05A8     		add	r0, sp, #20
 346              	.LVL22:
 347              		.loc 1 261 28 view .LVU98
 348 000c FFF7FEFF 		bl	memset
 349              	.LVL23:
 262:Core/Src/tim.c ****   if(tim_baseHandle->Instance==TIM1)
 350              		.loc 1 262 3 is_stmt 1 view .LVU99
 351              		.loc 1 262 20 is_stmt 0 view .LVU100
 352 0010 2368     		ldr	r3, [r4]
 353              		.loc 1 262 5 view .LVU101
 354 0012 3B4A     		ldr	r2, .L36
 355 0014 9342     		cmp	r3, r2
 356 0016 0BD0     		beq	.L30
 263:Core/Src/tim.c ****   {
 264:Core/Src/tim.c ****   /* USER CODE BEGIN TIM1_MspInit 0 */
 265:Core/Src/tim.c **** 
 266:Core/Src/tim.c ****   /* USER CODE END TIM1_MspInit 0 */
 267:Core/Src/tim.c **** 
 268:Core/Src/tim.c ****   /** Initializes the peripherals clocks
ARM GAS  /tmp/ccjOdkOi.s 			page 12


 269:Core/Src/tim.c ****   */
 270:Core/Src/tim.c ****     PeriphClkInit.PeriphClockSelection = RCC_PERIPHCLK_TIM1;
 271:Core/Src/tim.c ****     PeriphClkInit.Tim1ClockSelection = RCC_TIM1CLKSOURCE_PCLK1;
 272:Core/Src/tim.c ****     if (HAL_RCCEx_PeriphCLKConfig(&PeriphClkInit) != HAL_OK)
 273:Core/Src/tim.c ****     {
 274:Core/Src/tim.c ****       Error_Handler();
 275:Core/Src/tim.c ****     }
 276:Core/Src/tim.c **** 
 277:Core/Src/tim.c ****     /* TIM1 clock enable */
 278:Core/Src/tim.c ****     __HAL_RCC_TIM1_CLK_ENABLE();
 279:Core/Src/tim.c **** 
 280:Core/Src/tim.c ****     /* TIM1 interrupt Init */
 281:Core/Src/tim.c ****     HAL_NVIC_SetPriority(TIM1_BRK_UP_TRG_COM_IRQn, 3, 0);
 282:Core/Src/tim.c ****     HAL_NVIC_EnableIRQ(TIM1_BRK_UP_TRG_COM_IRQn);
 283:Core/Src/tim.c ****     HAL_NVIC_SetPriority(TIM1_CC_IRQn, 3, 0);
 284:Core/Src/tim.c ****     HAL_NVIC_EnableIRQ(TIM1_CC_IRQn);
 285:Core/Src/tim.c ****   /* USER CODE BEGIN TIM1_MspInit 1 */
 286:Core/Src/tim.c **** 
 287:Core/Src/tim.c ****   /* USER CODE END TIM1_MspInit 1 */
 288:Core/Src/tim.c ****   }
 289:Core/Src/tim.c ****   else if(tim_baseHandle->Instance==TIM2)
 357              		.loc 1 289 8 is_stmt 1 view .LVU102
 358              		.loc 1 289 10 is_stmt 0 view .LVU103
 359 0018 8022     		movs	r2, #128
 360 001a D205     		lsls	r2, r2, #23
 361 001c 9342     		cmp	r3, r2
 362 001e 2DD0     		beq	.L31
 290:Core/Src/tim.c ****   {
 291:Core/Src/tim.c ****   /* USER CODE BEGIN TIM2_MspInit 0 */
 292:Core/Src/tim.c **** 
 293:Core/Src/tim.c ****   /* USER CODE END TIM2_MspInit 0 */
 294:Core/Src/tim.c **** 
 295:Core/Src/tim.c ****     /* TIM2 clock enable */
 296:Core/Src/tim.c ****     __HAL_RCC_TIM2_CLK_ENABLE();
 297:Core/Src/tim.c **** 
 298:Core/Src/tim.c ****     /* TIM2 interrupt Init */
 299:Core/Src/tim.c ****     HAL_NVIC_SetPriority(TIM2_IRQn, 3, 0);
 300:Core/Src/tim.c ****     HAL_NVIC_EnableIRQ(TIM2_IRQn);
 301:Core/Src/tim.c ****   /* USER CODE BEGIN TIM2_MspInit 1 */
 302:Core/Src/tim.c **** 
 303:Core/Src/tim.c ****   /* USER CODE END TIM2_MspInit 1 */
 304:Core/Src/tim.c ****   }
 305:Core/Src/tim.c ****   else if(tim_baseHandle->Instance==TIM3)
 363              		.loc 1 305 8 is_stmt 1 view .LVU104
 364              		.loc 1 305 10 is_stmt 0 view .LVU105
 365 0020 384A     		ldr	r2, .L36+4
 366 0022 9342     		cmp	r3, r2
 367 0024 3CD0     		beq	.L32
 306:Core/Src/tim.c ****   {
 307:Core/Src/tim.c ****   /* USER CODE BEGIN TIM3_MspInit 0 */
 308:Core/Src/tim.c **** 
 309:Core/Src/tim.c ****   /* USER CODE END TIM3_MspInit 0 */
 310:Core/Src/tim.c **** 
 311:Core/Src/tim.c ****     /* TIM3 clock enable */
 312:Core/Src/tim.c ****     __HAL_RCC_TIM3_CLK_ENABLE();
 313:Core/Src/tim.c **** 
 314:Core/Src/tim.c ****     /* TIM3 interrupt Init */
ARM GAS  /tmp/ccjOdkOi.s 			page 13


 315:Core/Src/tim.c ****     HAL_NVIC_SetPriority(TIM3_IRQn, 3, 0);
 316:Core/Src/tim.c ****     HAL_NVIC_EnableIRQ(TIM3_IRQn);
 317:Core/Src/tim.c ****   /* USER CODE BEGIN TIM3_MspInit 1 */
 318:Core/Src/tim.c **** 
 319:Core/Src/tim.c ****   /* USER CODE END TIM3_MspInit 1 */
 320:Core/Src/tim.c ****   }
 321:Core/Src/tim.c ****   else if(tim_baseHandle->Instance==TIM15)
 368              		.loc 1 321 8 is_stmt 1 view .LVU106
 369              		.loc 1 321 10 is_stmt 0 view .LVU107
 370 0026 384A     		ldr	r2, .L36+8
 371 0028 9342     		cmp	r3, r2
 372 002a 4BD0     		beq	.L33
 373              	.L23:
 322:Core/Src/tim.c ****   {
 323:Core/Src/tim.c ****   /* USER CODE BEGIN TIM15_MspInit 0 */
 324:Core/Src/tim.c **** 
 325:Core/Src/tim.c ****   /* USER CODE END TIM15_MspInit 0 */
 326:Core/Src/tim.c **** 
 327:Core/Src/tim.c ****   /** Initializes the peripherals clocks
 328:Core/Src/tim.c ****   */
 329:Core/Src/tim.c ****     PeriphClkInit.PeriphClockSelection = RCC_PERIPHCLK_TIM15;
 330:Core/Src/tim.c ****     PeriphClkInit.Tim15ClockSelection = RCC_TIM15CLKSOURCE_PCLK1;
 331:Core/Src/tim.c ****     if (HAL_RCCEx_PeriphCLKConfig(&PeriphClkInit) != HAL_OK)
 332:Core/Src/tim.c ****     {
 333:Core/Src/tim.c ****       Error_Handler();
 334:Core/Src/tim.c ****     }
 335:Core/Src/tim.c **** 
 336:Core/Src/tim.c ****     /* TIM15 clock enable */
 337:Core/Src/tim.c ****     __HAL_RCC_TIM15_CLK_ENABLE();
 338:Core/Src/tim.c **** 
 339:Core/Src/tim.c ****     /* TIM15 interrupt Init */
 340:Core/Src/tim.c ****     HAL_NVIC_SetPriority(TIM15_IRQn, 3, 0);
 341:Core/Src/tim.c ****     HAL_NVIC_EnableIRQ(TIM15_IRQn);
 342:Core/Src/tim.c ****   /* USER CODE BEGIN TIM15_MspInit 1 */
 343:Core/Src/tim.c **** 
 344:Core/Src/tim.c ****   /* USER CODE END TIM15_MspInit 1 */
 345:Core/Src/tim.c ****   }
 346:Core/Src/tim.c **** }
 374              		.loc 1 346 1 view .LVU108
 375 002c 12B0     		add	sp, sp, #72
 376              		@ sp needed
 377              	.LVL24:
 378              		.loc 1 346 1 view .LVU109
 379 002e 10BD     		pop	{r4, pc}
 380              	.LVL25:
 381              	.L30:
 270:Core/Src/tim.c ****     PeriphClkInit.Tim1ClockSelection = RCC_TIM1CLKSOURCE_PCLK1;
 382              		.loc 1 270 5 is_stmt 1 view .LVU110
 270:Core/Src/tim.c ****     PeriphClkInit.Tim1ClockSelection = RCC_TIM1CLKSOURCE_PCLK1;
 383              		.loc 1 270 40 is_stmt 0 view .LVU111
 384 0030 8023     		movs	r3, #128
 385 0032 9B03     		lsls	r3, r3, #14
 386 0034 0593     		str	r3, [sp, #20]
 271:Core/Src/tim.c ****     if (HAL_RCCEx_PeriphCLKConfig(&PeriphClkInit) != HAL_OK)
 387              		.loc 1 271 5 is_stmt 1 view .LVU112
 272:Core/Src/tim.c ****     {
 388              		.loc 1 272 5 view .LVU113
ARM GAS  /tmp/ccjOdkOi.s 			page 14


 272:Core/Src/tim.c ****     {
 389              		.loc 1 272 9 is_stmt 0 view .LVU114
 390 0036 05A8     		add	r0, sp, #20
 391 0038 FFF7FEFF 		bl	HAL_RCCEx_PeriphCLKConfig
 392              	.LVL26:
 272:Core/Src/tim.c ****     {
 393              		.loc 1 272 8 discriminator 1 view .LVU115
 394 003c 0028     		cmp	r0, #0
 395 003e 1AD1     		bne	.L34
 396              	.L25:
 278:Core/Src/tim.c **** 
 397              		.loc 1 278 5 is_stmt 1 view .LVU116
 398              	.LBB2:
 278:Core/Src/tim.c **** 
 399              		.loc 1 278 5 view .LVU117
 278:Core/Src/tim.c **** 
 400              		.loc 1 278 5 view .LVU118
 401 0040 324B     		ldr	r3, .L36+12
 402 0042 1A6C     		ldr	r2, [r3, #64]
 403 0044 8021     		movs	r1, #128
 404 0046 0901     		lsls	r1, r1, #4
 405 0048 0A43     		orrs	r2, r1
 406 004a 1A64     		str	r2, [r3, #64]
 278:Core/Src/tim.c **** 
 407              		.loc 1 278 5 view .LVU119
 408 004c 1B6C     		ldr	r3, [r3, #64]
 409 004e 0B40     		ands	r3, r1
 410 0050 0193     		str	r3, [sp, #4]
 278:Core/Src/tim.c **** 
 411              		.loc 1 278 5 view .LVU120
 412 0052 019B     		ldr	r3, [sp, #4]
 413              	.LBE2:
 278:Core/Src/tim.c **** 
 414              		.loc 1 278 5 view .LVU121
 281:Core/Src/tim.c ****     HAL_NVIC_EnableIRQ(TIM1_BRK_UP_TRG_COM_IRQn);
 415              		.loc 1 281 5 view .LVU122
 416 0054 0022     		movs	r2, #0
 417 0056 0321     		movs	r1, #3
 418 0058 0D20     		movs	r0, #13
 419 005a FFF7FEFF 		bl	HAL_NVIC_SetPriority
 420              	.LVL27:
 282:Core/Src/tim.c ****     HAL_NVIC_SetPriority(TIM1_CC_IRQn, 3, 0);
 421              		.loc 1 282 5 view .LVU123
 422 005e 0D20     		movs	r0, #13
 423 0060 FFF7FEFF 		bl	HAL_NVIC_EnableIRQ
 424              	.LVL28:
 283:Core/Src/tim.c ****     HAL_NVIC_EnableIRQ(TIM1_CC_IRQn);
 425              		.loc 1 283 5 view .LVU124
 426 0064 0022     		movs	r2, #0
 427 0066 0321     		movs	r1, #3
 428 0068 0E20     		movs	r0, #14
 429 006a FFF7FEFF 		bl	HAL_NVIC_SetPriority
 430              	.LVL29:
 284:Core/Src/tim.c ****   /* USER CODE BEGIN TIM1_MspInit 1 */
 431              		.loc 1 284 5 view .LVU125
 432 006e 0E20     		movs	r0, #14
 433 0070 FFF7FEFF 		bl	HAL_NVIC_EnableIRQ
ARM GAS  /tmp/ccjOdkOi.s 			page 15


 434              	.LVL30:
 435 0074 DAE7     		b	.L23
 436              	.L34:
 274:Core/Src/tim.c ****     }
 437              		.loc 1 274 7 view .LVU126
 438 0076 FFF7FEFF 		bl	Error_Handler
 439              	.LVL31:
 440 007a E1E7     		b	.L25
 441              	.L31:
 296:Core/Src/tim.c **** 
 442              		.loc 1 296 5 view .LVU127
 443              	.LBB3:
 296:Core/Src/tim.c **** 
 444              		.loc 1 296 5 view .LVU128
 296:Core/Src/tim.c **** 
 445              		.loc 1 296 5 view .LVU129
 446 007c 234A     		ldr	r2, .L36+12
 447 007e D16B     		ldr	r1, [r2, #60]
 448 0080 0123     		movs	r3, #1
 449 0082 1943     		orrs	r1, r3
 450 0084 D163     		str	r1, [r2, #60]
 296:Core/Src/tim.c **** 
 451              		.loc 1 296 5 view .LVU130
 452 0086 D26B     		ldr	r2, [r2, #60]
 453 0088 1340     		ands	r3, r2
 454 008a 0293     		str	r3, [sp, #8]
 296:Core/Src/tim.c **** 
 455              		.loc 1 296 5 view .LVU131
 456 008c 029B     		ldr	r3, [sp, #8]
 457              	.LBE3:
 296:Core/Src/tim.c **** 
 458              		.loc 1 296 5 view .LVU132
 299:Core/Src/tim.c ****     HAL_NVIC_EnableIRQ(TIM2_IRQn);
 459              		.loc 1 299 5 view .LVU133
 460 008e 0022     		movs	r2, #0
 461 0090 0321     		movs	r1, #3
 462 0092 0F20     		movs	r0, #15
 463 0094 FFF7FEFF 		bl	HAL_NVIC_SetPriority
 464              	.LVL32:
 300:Core/Src/tim.c ****   /* USER CODE BEGIN TIM2_MspInit 1 */
 465              		.loc 1 300 5 view .LVU134
 466 0098 0F20     		movs	r0, #15
 467 009a FFF7FEFF 		bl	HAL_NVIC_EnableIRQ
 468              	.LVL33:
 469 009e C5E7     		b	.L23
 470              	.L32:
 312:Core/Src/tim.c **** 
 471              		.loc 1 312 5 view .LVU135
 472              	.LBB4:
 312:Core/Src/tim.c **** 
 473              		.loc 1 312 5 view .LVU136
 312:Core/Src/tim.c **** 
 474              		.loc 1 312 5 view .LVU137
 475 00a0 1A4A     		ldr	r2, .L36+12
 476 00a2 D16B     		ldr	r1, [r2, #60]
 477 00a4 0223     		movs	r3, #2
 478 00a6 1943     		orrs	r1, r3
ARM GAS  /tmp/ccjOdkOi.s 			page 16


 479 00a8 D163     		str	r1, [r2, #60]
 312:Core/Src/tim.c **** 
 480              		.loc 1 312 5 view .LVU138
 481 00aa D26B     		ldr	r2, [r2, #60]
 482 00ac 1340     		ands	r3, r2
 483 00ae 0393     		str	r3, [sp, #12]
 312:Core/Src/tim.c **** 
 484              		.loc 1 312 5 view .LVU139
 485 00b0 039B     		ldr	r3, [sp, #12]
 486              	.LBE4:
 312:Core/Src/tim.c **** 
 487              		.loc 1 312 5 view .LVU140
 315:Core/Src/tim.c ****     HAL_NVIC_EnableIRQ(TIM3_IRQn);
 488              		.loc 1 315 5 view .LVU141
 489 00b2 0022     		movs	r2, #0
 490 00b4 0321     		movs	r1, #3
 491 00b6 1020     		movs	r0, #16
 492 00b8 FFF7FEFF 		bl	HAL_NVIC_SetPriority
 493              	.LVL34:
 316:Core/Src/tim.c ****   /* USER CODE BEGIN TIM3_MspInit 1 */
 494              		.loc 1 316 5 view .LVU142
 495 00bc 1020     		movs	r0, #16
 496 00be FFF7FEFF 		bl	HAL_NVIC_EnableIRQ
 497              	.LVL35:
 498 00c2 B3E7     		b	.L23
 499              	.L33:
 329:Core/Src/tim.c ****     PeriphClkInit.Tim15ClockSelection = RCC_TIM15CLKSOURCE_PCLK1;
 500              		.loc 1 329 5 view .LVU143
 329:Core/Src/tim.c ****     PeriphClkInit.Tim15ClockSelection = RCC_TIM15CLKSOURCE_PCLK1;
 501              		.loc 1 329 40 is_stmt 0 view .LVU144
 502 00c4 8023     		movs	r3, #128
 503 00c6 DB03     		lsls	r3, r3, #15
 504 00c8 0593     		str	r3, [sp, #20]
 330:Core/Src/tim.c ****     if (HAL_RCCEx_PeriphCLKConfig(&PeriphClkInit) != HAL_OK)
 505              		.loc 1 330 5 is_stmt 1 view .LVU145
 331:Core/Src/tim.c ****     {
 506              		.loc 1 331 5 view .LVU146
 331:Core/Src/tim.c ****     {
 507              		.loc 1 331 9 is_stmt 0 view .LVU147
 508 00ca 05A8     		add	r0, sp, #20
 509 00cc FFF7FEFF 		bl	HAL_RCCEx_PeriphCLKConfig
 510              	.LVL36:
 331:Core/Src/tim.c ****     {
 511              		.loc 1 331 8 discriminator 1 view .LVU148
 512 00d0 0028     		cmp	r0, #0
 513 00d2 12D1     		bne	.L35
 514              	.L29:
 337:Core/Src/tim.c **** 
 515              		.loc 1 337 5 is_stmt 1 view .LVU149
 516              	.LBB5:
 337:Core/Src/tim.c **** 
 517              		.loc 1 337 5 view .LVU150
 337:Core/Src/tim.c **** 
 518              		.loc 1 337 5 view .LVU151
 519 00d4 0D4B     		ldr	r3, .L36+12
 520 00d6 1A6C     		ldr	r2, [r3, #64]
 521 00d8 8021     		movs	r1, #128
ARM GAS  /tmp/ccjOdkOi.s 			page 17


 522 00da 4902     		lsls	r1, r1, #9
 523 00dc 0A43     		orrs	r2, r1
 524 00de 1A64     		str	r2, [r3, #64]
 337:Core/Src/tim.c **** 
 525              		.loc 1 337 5 view .LVU152
 526 00e0 1B6C     		ldr	r3, [r3, #64]
 527 00e2 0B40     		ands	r3, r1
 528 00e4 0493     		str	r3, [sp, #16]
 337:Core/Src/tim.c **** 
 529              		.loc 1 337 5 view .LVU153
 530 00e6 049B     		ldr	r3, [sp, #16]
 531              	.LBE5:
 337:Core/Src/tim.c **** 
 532              		.loc 1 337 5 view .LVU154
 340:Core/Src/tim.c ****     HAL_NVIC_EnableIRQ(TIM15_IRQn);
 533              		.loc 1 340 5 view .LVU155
 534 00e8 0022     		movs	r2, #0
 535 00ea 0321     		movs	r1, #3
 536 00ec 1420     		movs	r0, #20
 537 00ee FFF7FEFF 		bl	HAL_NVIC_SetPriority
 538              	.LVL37:
 341:Core/Src/tim.c ****   /* USER CODE BEGIN TIM15_MspInit 1 */
 539              		.loc 1 341 5 view .LVU156
 540 00f2 1420     		movs	r0, #20
 541 00f4 FFF7FEFF 		bl	HAL_NVIC_EnableIRQ
 542              	.LVL38:
 543              		.loc 1 346 1 is_stmt 0 view .LVU157
 544 00f8 98E7     		b	.L23
 545              	.L35:
 333:Core/Src/tim.c ****     }
 546              		.loc 1 333 7 is_stmt 1 view .LVU158
 547 00fa FFF7FEFF 		bl	Error_Handler
 548              	.LVL39:
 549 00fe E9E7     		b	.L29
 550              	.L37:
 551              		.align	2
 552              	.L36:
 553 0100 002C0140 		.word	1073818624
 554 0104 00040040 		.word	1073742848
 555 0108 00400140 		.word	1073823744
 556 010c 00100240 		.word	1073876992
 557              		.cfi_endproc
 558              	.LFE461:
 560              		.section	.text.HAL_TIM_MspPostInit,"ax",%progbits
 561              		.align	1
 562              		.global	HAL_TIM_MspPostInit
 563              		.syntax unified
 564              		.code	16
 565              		.thumb_func
 567              	HAL_TIM_MspPostInit:
 568              	.LVL40:
 569              	.LFB462:
 347:Core/Src/tim.c **** void HAL_TIM_MspPostInit(TIM_HandleTypeDef* timHandle)
 348:Core/Src/tim.c **** {
 570              		.loc 1 348 1 view -0
 571              		.cfi_startproc
 572              		@ args = 0, pretend = 0, frame = 32
ARM GAS  /tmp/ccjOdkOi.s 			page 18


 573              		@ frame_needed = 0, uses_anonymous_args = 0
 574              		.loc 1 348 1 is_stmt 0 view .LVU160
 575 0000 10B5     		push	{r4, lr}
 576              		.cfi_def_cfa_offset 8
 577              		.cfi_offset 4, -8
 578              		.cfi_offset 14, -4
 579 0002 88B0     		sub	sp, sp, #32
 580              		.cfi_def_cfa_offset 40
 581 0004 0400     		movs	r4, r0
 349:Core/Src/tim.c **** 
 350:Core/Src/tim.c ****   GPIO_InitTypeDef GPIO_InitStruct = {0};
 582              		.loc 1 350 3 is_stmt 1 view .LVU161
 583              		.loc 1 350 20 is_stmt 0 view .LVU162
 584 0006 1422     		movs	r2, #20
 585 0008 0021     		movs	r1, #0
 586 000a 03A8     		add	r0, sp, #12
 587              	.LVL41:
 588              		.loc 1 350 20 view .LVU163
 589 000c FFF7FEFF 		bl	memset
 590              	.LVL42:
 351:Core/Src/tim.c ****   if(timHandle->Instance==TIM1)
 591              		.loc 1 351 3 is_stmt 1 view .LVU164
 592              		.loc 1 351 15 is_stmt 0 view .LVU165
 593 0010 2368     		ldr	r3, [r4]
 594              		.loc 1 351 5 view .LVU166
 595 0012 184A     		ldr	r2, .L43
 596 0014 9342     		cmp	r3, r2
 597 0016 05D0     		beq	.L41
 352:Core/Src/tim.c ****   {
 353:Core/Src/tim.c ****   /* USER CODE BEGIN TIM1_MspPostInit 0 */
 354:Core/Src/tim.c **** 
 355:Core/Src/tim.c ****   /* USER CODE END TIM1_MspPostInit 0 */
 356:Core/Src/tim.c ****     __HAL_RCC_GPIOA_CLK_ENABLE();
 357:Core/Src/tim.c ****     /**TIM1 GPIO Configuration
 358:Core/Src/tim.c ****     PA8     ------> TIM1_CH1
 359:Core/Src/tim.c ****     */
 360:Core/Src/tim.c ****     GPIO_InitStruct.Pin = GPIO_PIN_8;
 361:Core/Src/tim.c ****     GPIO_InitStruct.Mode = GPIO_MODE_AF_PP;
 362:Core/Src/tim.c ****     GPIO_InitStruct.Pull = GPIO_NOPULL;
 363:Core/Src/tim.c ****     GPIO_InitStruct.Speed = GPIO_SPEED_FREQ_LOW;
 364:Core/Src/tim.c ****     GPIO_InitStruct.Alternate = GPIO_AF2_TIM1;
 365:Core/Src/tim.c ****     HAL_GPIO_Init(GPIOA, &GPIO_InitStruct);
 366:Core/Src/tim.c **** 
 367:Core/Src/tim.c ****   /* USER CODE BEGIN TIM1_MspPostInit 1 */
 368:Core/Src/tim.c **** 
 369:Core/Src/tim.c ****   /* USER CODE END TIM1_MspPostInit 1 */
 370:Core/Src/tim.c ****   }
 371:Core/Src/tim.c ****   else if(timHandle->Instance==TIM2)
 598              		.loc 1 371 8 is_stmt 1 view .LVU167
 599              		.loc 1 371 10 is_stmt 0 view .LVU168
 600 0018 8022     		movs	r2, #128
 601 001a D205     		lsls	r2, r2, #23
 602 001c 9342     		cmp	r3, r2
 603 001e 16D0     		beq	.L42
 604              	.L38:
 372:Core/Src/tim.c ****   {
 373:Core/Src/tim.c ****   /* USER CODE BEGIN TIM2_MspPostInit 0 */
ARM GAS  /tmp/ccjOdkOi.s 			page 19


 374:Core/Src/tim.c **** 
 375:Core/Src/tim.c ****   /* USER CODE END TIM2_MspPostInit 0 */
 376:Core/Src/tim.c **** 
 377:Core/Src/tim.c ****     __HAL_RCC_GPIOB_CLK_ENABLE();
 378:Core/Src/tim.c ****     /**TIM2 GPIO Configuration
 379:Core/Src/tim.c ****     PB3     ------> TIM2_CH2
 380:Core/Src/tim.c ****     */
 381:Core/Src/tim.c ****     GPIO_InitStruct.Pin = GPIO_PIN_3;
 382:Core/Src/tim.c ****     GPIO_InitStruct.Mode = GPIO_MODE_AF_PP;
 383:Core/Src/tim.c ****     GPIO_InitStruct.Pull = GPIO_NOPULL;
 384:Core/Src/tim.c ****     GPIO_InitStruct.Speed = GPIO_SPEED_FREQ_LOW;
 385:Core/Src/tim.c ****     GPIO_InitStruct.Alternate = GPIO_AF2_TIM2;
 386:Core/Src/tim.c ****     HAL_GPIO_Init(GPIOB, &GPIO_InitStruct);
 387:Core/Src/tim.c **** 
 388:Core/Src/tim.c ****   /* USER CODE BEGIN TIM2_MspPostInit 1 */
 389:Core/Src/tim.c **** 
 390:Core/Src/tim.c ****   /* USER CODE END TIM2_MspPostInit 1 */
 391:Core/Src/tim.c ****   }
 392:Core/Src/tim.c **** 
 393:Core/Src/tim.c **** }
 605              		.loc 1 393 1 view .LVU169
 606 0020 08B0     		add	sp, sp, #32
 607              		@ sp needed
 608              	.LVL43:
 609              		.loc 1 393 1 view .LVU170
 610 0022 10BD     		pop	{r4, pc}
 611              	.LVL44:
 612              	.L41:
 356:Core/Src/tim.c ****     /**TIM1 GPIO Configuration
 613              		.loc 1 356 5 is_stmt 1 view .LVU171
 614              	.LBB6:
 356:Core/Src/tim.c ****     /**TIM1 GPIO Configuration
 615              		.loc 1 356 5 view .LVU172
 356:Core/Src/tim.c ****     /**TIM1 GPIO Configuration
 616              		.loc 1 356 5 view .LVU173
 617 0024 144A     		ldr	r2, .L43+4
 618 0026 516B     		ldr	r1, [r2, #52]
 619 0028 0123     		movs	r3, #1
 620 002a 1943     		orrs	r1, r3
 621 002c 5163     		str	r1, [r2, #52]
 356:Core/Src/tim.c ****     /**TIM1 GPIO Configuration
 622              		.loc 1 356 5 view .LVU174
 623 002e 526B     		ldr	r2, [r2, #52]
 624 0030 1340     		ands	r3, r2
 625 0032 0193     		str	r3, [sp, #4]
 356:Core/Src/tim.c ****     /**TIM1 GPIO Configuration
 626              		.loc 1 356 5 view .LVU175
 627 0034 019B     		ldr	r3, [sp, #4]
 628              	.LBE6:
 356:Core/Src/tim.c ****     /**TIM1 GPIO Configuration
 629              		.loc 1 356 5 view .LVU176
 360:Core/Src/tim.c ****     GPIO_InitStruct.Mode = GPIO_MODE_AF_PP;
 630              		.loc 1 360 5 view .LVU177
 360:Core/Src/tim.c ****     GPIO_InitStruct.Mode = GPIO_MODE_AF_PP;
 631              		.loc 1 360 25 is_stmt 0 view .LVU178
 632 0036 03A9     		add	r1, sp, #12
 633 0038 8023     		movs	r3, #128
ARM GAS  /tmp/ccjOdkOi.s 			page 20


 634 003a 5B00     		lsls	r3, r3, #1
 635 003c 0393     		str	r3, [sp, #12]
 361:Core/Src/tim.c ****     GPIO_InitStruct.Pull = GPIO_NOPULL;
 636              		.loc 1 361 5 is_stmt 1 view .LVU179
 361:Core/Src/tim.c ****     GPIO_InitStruct.Pull = GPIO_NOPULL;
 637              		.loc 1 361 26 is_stmt 0 view .LVU180
 638 003e FE3B     		subs	r3, r3, #254
 639 0040 4B60     		str	r3, [r1, #4]
 362:Core/Src/tim.c ****     GPIO_InitStruct.Speed = GPIO_SPEED_FREQ_LOW;
 640              		.loc 1 362 5 is_stmt 1 view .LVU181
 363:Core/Src/tim.c ****     GPIO_InitStruct.Alternate = GPIO_AF2_TIM1;
 641              		.loc 1 363 5 view .LVU182
 364:Core/Src/tim.c ****     HAL_GPIO_Init(GPIOA, &GPIO_InitStruct);
 642              		.loc 1 364 5 view .LVU183
 364:Core/Src/tim.c ****     HAL_GPIO_Init(GPIOA, &GPIO_InitStruct);
 643              		.loc 1 364 31 is_stmt 0 view .LVU184
 644 0042 0B61     		str	r3, [r1, #16]
 365:Core/Src/tim.c **** 
 645              		.loc 1 365 5 is_stmt 1 view .LVU185
 646 0044 A020     		movs	r0, #160
 647 0046 C005     		lsls	r0, r0, #23
 648 0048 FFF7FEFF 		bl	HAL_GPIO_Init
 649              	.LVL45:
 650 004c E8E7     		b	.L38
 651              	.L42:
 377:Core/Src/tim.c ****     /**TIM2 GPIO Configuration
 652              		.loc 1 377 5 view .LVU186
 653              	.LBB7:
 377:Core/Src/tim.c ****     /**TIM2 GPIO Configuration
 654              		.loc 1 377 5 view .LVU187
 377:Core/Src/tim.c ****     /**TIM2 GPIO Configuration
 655              		.loc 1 377 5 view .LVU188
 656 004e 0A4A     		ldr	r2, .L43+4
 657 0050 516B     		ldr	r1, [r2, #52]
 658 0052 0223     		movs	r3, #2
 659 0054 1943     		orrs	r1, r3
 660 0056 5163     		str	r1, [r2, #52]
 377:Core/Src/tim.c ****     /**TIM2 GPIO Configuration
 661              		.loc 1 377 5 view .LVU189
 662 0058 526B     		ldr	r2, [r2, #52]
 663 005a 1A40     		ands	r2, r3
 664 005c 0292     		str	r2, [sp, #8]
 377:Core/Src/tim.c ****     /**TIM2 GPIO Configuration
 665              		.loc 1 377 5 view .LVU190
 666 005e 029A     		ldr	r2, [sp, #8]
 667              	.LBE7:
 377:Core/Src/tim.c ****     /**TIM2 GPIO Configuration
 668              		.loc 1 377 5 view .LVU191
 381:Core/Src/tim.c ****     GPIO_InitStruct.Mode = GPIO_MODE_AF_PP;
 669              		.loc 1 381 5 view .LVU192
 381:Core/Src/tim.c ****     GPIO_InitStruct.Mode = GPIO_MODE_AF_PP;
 670              		.loc 1 381 25 is_stmt 0 view .LVU193
 671 0060 03A9     		add	r1, sp, #12
 672 0062 0822     		movs	r2, #8
 673 0064 0392     		str	r2, [sp, #12]
 382:Core/Src/tim.c ****     GPIO_InitStruct.Pull = GPIO_NOPULL;
 674              		.loc 1 382 5 is_stmt 1 view .LVU194
ARM GAS  /tmp/ccjOdkOi.s 			page 21


 382:Core/Src/tim.c ****     GPIO_InitStruct.Pull = GPIO_NOPULL;
 675              		.loc 1 382 26 is_stmt 0 view .LVU195
 676 0066 4B60     		str	r3, [r1, #4]
 383:Core/Src/tim.c ****     GPIO_InitStruct.Speed = GPIO_SPEED_FREQ_LOW;
 677              		.loc 1 383 5 is_stmt 1 view .LVU196
 384:Core/Src/tim.c ****     GPIO_InitStruct.Alternate = GPIO_AF2_TIM2;
 678              		.loc 1 384 5 view .LVU197
 385:Core/Src/tim.c ****     HAL_GPIO_Init(GPIOB, &GPIO_InitStruct);
 679              		.loc 1 385 5 view .LVU198
 385:Core/Src/tim.c ****     HAL_GPIO_Init(GPIOB, &GPIO_InitStruct);
 680              		.loc 1 385 31 is_stmt 0 view .LVU199
 681 0068 0B61     		str	r3, [r1, #16]
 386:Core/Src/tim.c **** 
 682              		.loc 1 386 5 is_stmt 1 view .LVU200
 683 006a 0448     		ldr	r0, .L43+8
 684 006c FFF7FEFF 		bl	HAL_GPIO_Init
 685              	.LVL46:
 686              		.loc 1 393 1 is_stmt 0 view .LVU201
 687 0070 D6E7     		b	.L38
 688              	.L44:
 689 0072 C046     		.align	2
 690              	.L43:
 691 0074 002C0140 		.word	1073818624
 692 0078 00100240 		.word	1073876992
 693 007c 00040050 		.word	1342178304
 694              		.cfi_endproc
 695              	.LFE462:
 697              		.section	.text.MX_TIM1_Init,"ax",%progbits
 698              		.align	1
 699              		.global	MX_TIM1_Init
 700              		.syntax unified
 701              		.code	16
 702              		.thumb_func
 704              	MX_TIM1_Init:
 705              	.LFB457:
  34:Core/Src/tim.c **** 
 706              		.loc 1 34 1 is_stmt 1 view -0
 707              		.cfi_startproc
 708              		@ args = 0, pretend = 0, frame = 112
 709              		@ frame_needed = 0, uses_anonymous_args = 0
 710 0000 00B5     		push	{lr}
 711              		.cfi_def_cfa_offset 4
 712              		.cfi_offset 14, -4
 713 0002 9DB0     		sub	sp, sp, #116
 714              		.cfi_def_cfa_offset 120
  40:Core/Src/tim.c ****   TIM_MasterConfigTypeDef sMasterConfig = {0};
 715              		.loc 1 40 3 view .LVU203
  40:Core/Src/tim.c ****   TIM_MasterConfigTypeDef sMasterConfig = {0};
 716              		.loc 1 40 26 is_stmt 0 view .LVU204
 717 0004 1022     		movs	r2, #16
 718 0006 0021     		movs	r1, #0
 719 0008 18A8     		add	r0, sp, #96
 720 000a FFF7FEFF 		bl	memset
 721              	.LVL47:
  41:Core/Src/tim.c ****   TIM_OC_InitTypeDef sConfigOC = {0};
 722              		.loc 1 41 3 is_stmt 1 view .LVU205
  41:Core/Src/tim.c ****   TIM_OC_InitTypeDef sConfigOC = {0};
ARM GAS  /tmp/ccjOdkOi.s 			page 22


 723              		.loc 1 41 27 is_stmt 0 view .LVU206
 724 000e 0C22     		movs	r2, #12
 725 0010 0021     		movs	r1, #0
 726 0012 15A8     		add	r0, sp, #84
 727 0014 FFF7FEFF 		bl	memset
 728              	.LVL48:
  42:Core/Src/tim.c ****   TIM_BreakDeadTimeConfigTypeDef sBreakDeadTimeConfig = {0};
 729              		.loc 1 42 3 is_stmt 1 view .LVU207
  42:Core/Src/tim.c ****   TIM_BreakDeadTimeConfigTypeDef sBreakDeadTimeConfig = {0};
 730              		.loc 1 42 22 is_stmt 0 view .LVU208
 731 0018 1C22     		movs	r2, #28
 732 001a 0021     		movs	r1, #0
 733 001c 0EA8     		add	r0, sp, #56
 734 001e FFF7FEFF 		bl	memset
 735              	.LVL49:
  43:Core/Src/tim.c **** 
 736              		.loc 1 43 3 is_stmt 1 view .LVU209
  43:Core/Src/tim.c **** 
 737              		.loc 1 43 34 is_stmt 0 view .LVU210
 738 0022 3422     		movs	r2, #52
 739 0024 0021     		movs	r1, #0
 740 0026 01A8     		add	r0, sp, #4
 741 0028 FFF7FEFF 		bl	memset
 742              	.LVL50:
  48:Core/Src/tim.c ****   htim1.Init.Prescaler = 640-1;
 743              		.loc 1 48 3 is_stmt 1 view .LVU211
  48:Core/Src/tim.c ****   htim1.Init.Prescaler = 640-1;
 744              		.loc 1 48 18 is_stmt 0 view .LVU212
 745 002c 3348     		ldr	r0, .L58
 746 002e 344B     		ldr	r3, .L58+4
 747 0030 0360     		str	r3, [r0]
  49:Core/Src/tim.c ****   htim1.Init.CounterMode = TIM_COUNTERMODE_UP;
 748              		.loc 1 49 3 is_stmt 1 view .LVU213
  49:Core/Src/tim.c ****   htim1.Init.CounterMode = TIM_COUNTERMODE_UP;
 749              		.loc 1 49 24 is_stmt 0 view .LVU214
 750 0032 344B     		ldr	r3, .L58+8
 751 0034 4360     		str	r3, [r0, #4]
  50:Core/Src/tim.c ****   htim1.Init.Period = 1000-1;
 752              		.loc 1 50 3 is_stmt 1 view .LVU215
  50:Core/Src/tim.c ****   htim1.Init.Period = 1000-1;
 753              		.loc 1 50 26 is_stmt 0 view .LVU216
 754 0036 0023     		movs	r3, #0
 755 0038 8360     		str	r3, [r0, #8]
  51:Core/Src/tim.c ****   htim1.Init.ClockDivision = TIM_CLOCKDIVISION_DIV1;
 756              		.loc 1 51 3 is_stmt 1 view .LVU217
  51:Core/Src/tim.c ****   htim1.Init.ClockDivision = TIM_CLOCKDIVISION_DIV1;
 757              		.loc 1 51 21 is_stmt 0 view .LVU218
 758 003a 334A     		ldr	r2, .L58+12
 759 003c C260     		str	r2, [r0, #12]
  52:Core/Src/tim.c ****   htim1.Init.RepetitionCounter = 0;
 760              		.loc 1 52 3 is_stmt 1 view .LVU219
  52:Core/Src/tim.c ****   htim1.Init.RepetitionCounter = 0;
 761              		.loc 1 52 28 is_stmt 0 view .LVU220
 762 003e 0361     		str	r3, [r0, #16]
  53:Core/Src/tim.c ****   htim1.Init.AutoReloadPreload = TIM_AUTORELOAD_PRELOAD_DISABLE;
 763              		.loc 1 53 3 is_stmt 1 view .LVU221
  53:Core/Src/tim.c ****   htim1.Init.AutoReloadPreload = TIM_AUTORELOAD_PRELOAD_DISABLE;
ARM GAS  /tmp/ccjOdkOi.s 			page 23


 764              		.loc 1 53 32 is_stmt 0 view .LVU222
 765 0040 4361     		str	r3, [r0, #20]
  54:Core/Src/tim.c ****   if (HAL_TIM_Base_Init(&htim1) != HAL_OK)
 766              		.loc 1 54 3 is_stmt 1 view .LVU223
  54:Core/Src/tim.c ****   if (HAL_TIM_Base_Init(&htim1) != HAL_OK)
 767              		.loc 1 54 32 is_stmt 0 view .LVU224
 768 0042 8361     		str	r3, [r0, #24]
  55:Core/Src/tim.c ****   {
 769              		.loc 1 55 3 is_stmt 1 view .LVU225
  55:Core/Src/tim.c ****   {
 770              		.loc 1 55 7 is_stmt 0 view .LVU226
 771 0044 FFF7FEFF 		bl	HAL_TIM_Base_Init
 772              	.LVL51:
  55:Core/Src/tim.c ****   {
 773              		.loc 1 55 6 discriminator 1 view .LVU227
 774 0048 0028     		cmp	r0, #0
 775 004a 44D1     		bne	.L52
 776              	.L46:
  59:Core/Src/tim.c ****   if (HAL_TIM_ConfigClockSource(&htim1, &sClockSourceConfig) != HAL_OK)
 777              		.loc 1 59 3 is_stmt 1 view .LVU228
  59:Core/Src/tim.c ****   if (HAL_TIM_ConfigClockSource(&htim1, &sClockSourceConfig) != HAL_OK)
 778              		.loc 1 59 34 is_stmt 0 view .LVU229
 779 004c 8023     		movs	r3, #128
 780 004e 5B01     		lsls	r3, r3, #5
 781 0050 1893     		str	r3, [sp, #96]
  60:Core/Src/tim.c ****   {
 782              		.loc 1 60 3 is_stmt 1 view .LVU230
  60:Core/Src/tim.c ****   {
 783              		.loc 1 60 7 is_stmt 0 view .LVU231
 784 0052 2A48     		ldr	r0, .L58
 785 0054 18A9     		add	r1, sp, #96
 786 0056 FFF7FEFF 		bl	HAL_TIM_ConfigClockSource
 787              	.LVL52:
  60:Core/Src/tim.c ****   {
 788              		.loc 1 60 6 discriminator 1 view .LVU232
 789 005a 0028     		cmp	r0, #0
 790 005c 3ED1     		bne	.L53
 791              	.L47:
  64:Core/Src/tim.c ****   {
 792              		.loc 1 64 3 is_stmt 1 view .LVU233
  64:Core/Src/tim.c ****   {
 793              		.loc 1 64 7 is_stmt 0 view .LVU234
 794 005e 2748     		ldr	r0, .L58
 795 0060 FFF7FEFF 		bl	HAL_TIM_PWM_Init
 796              	.LVL53:
  64:Core/Src/tim.c ****   {
 797              		.loc 1 64 6 discriminator 1 view .LVU235
 798 0064 0028     		cmp	r0, #0
 799 0066 3CD1     		bne	.L54
 800              	.L48:
  68:Core/Src/tim.c ****   sMasterConfig.MasterOutputTrigger2 = TIM_TRGO2_RESET;
 801              		.loc 1 68 3 is_stmt 1 view .LVU236
  68:Core/Src/tim.c ****   sMasterConfig.MasterOutputTrigger2 = TIM_TRGO2_RESET;
 802              		.loc 1 68 37 is_stmt 0 view .LVU237
 803 0068 15A9     		add	r1, sp, #84
 804 006a 0023     		movs	r3, #0
 805 006c 1593     		str	r3, [sp, #84]
ARM GAS  /tmp/ccjOdkOi.s 			page 24


  69:Core/Src/tim.c ****   sMasterConfig.MasterSlaveMode = TIM_MASTERSLAVEMODE_DISABLE;
 806              		.loc 1 69 3 is_stmt 1 view .LVU238
  69:Core/Src/tim.c ****   sMasterConfig.MasterSlaveMode = TIM_MASTERSLAVEMODE_DISABLE;
 807              		.loc 1 69 38 is_stmt 0 view .LVU239
 808 006e 4B60     		str	r3, [r1, #4]
  70:Core/Src/tim.c ****   if (HAL_TIMEx_MasterConfigSynchronization(&htim1, &sMasterConfig) != HAL_OK)
 809              		.loc 1 70 3 is_stmt 1 view .LVU240
  70:Core/Src/tim.c ****   if (HAL_TIMEx_MasterConfigSynchronization(&htim1, &sMasterConfig) != HAL_OK)
 810              		.loc 1 70 33 is_stmt 0 view .LVU241
 811 0070 8B60     		str	r3, [r1, #8]
  71:Core/Src/tim.c ****   {
 812              		.loc 1 71 3 is_stmt 1 view .LVU242
  71:Core/Src/tim.c ****   {
 813              		.loc 1 71 7 is_stmt 0 view .LVU243
 814 0072 2248     		ldr	r0, .L58
 815 0074 FFF7FEFF 		bl	HAL_TIMEx_MasterConfigSynchronization
 816              	.LVL54:
  71:Core/Src/tim.c ****   {
 817              		.loc 1 71 6 discriminator 1 view .LVU244
 818 0078 0028     		cmp	r0, #0
 819 007a 35D1     		bne	.L55
 820              	.L49:
  75:Core/Src/tim.c ****   sConfigOC.Pulse = 0;
 821              		.loc 1 75 3 is_stmt 1 view .LVU245
  75:Core/Src/tim.c ****   sConfigOC.Pulse = 0;
 822              		.loc 1 75 20 is_stmt 0 view .LVU246
 823 007c 0EA9     		add	r1, sp, #56
 824 007e 6023     		movs	r3, #96
 825 0080 0E93     		str	r3, [sp, #56]
  76:Core/Src/tim.c ****   sConfigOC.OCPolarity = TIM_OCPOLARITY_HIGH;
 826              		.loc 1 76 3 is_stmt 1 view .LVU247
  76:Core/Src/tim.c ****   sConfigOC.OCPolarity = TIM_OCPOLARITY_HIGH;
 827              		.loc 1 76 19 is_stmt 0 view .LVU248
 828 0082 0023     		movs	r3, #0
 829 0084 4B60     		str	r3, [r1, #4]
  77:Core/Src/tim.c ****   sConfigOC.OCNPolarity = TIM_OCNPOLARITY_HIGH;
 830              		.loc 1 77 3 is_stmt 1 view .LVU249
  77:Core/Src/tim.c ****   sConfigOC.OCNPolarity = TIM_OCNPOLARITY_HIGH;
 831              		.loc 1 77 24 is_stmt 0 view .LVU250
 832 0086 8B60     		str	r3, [r1, #8]
  78:Core/Src/tim.c ****   sConfigOC.OCFastMode = TIM_OCFAST_DISABLE;
 833              		.loc 1 78 3 is_stmt 1 view .LVU251
  78:Core/Src/tim.c ****   sConfigOC.OCFastMode = TIM_OCFAST_DISABLE;
 834              		.loc 1 78 25 is_stmt 0 view .LVU252
 835 0088 CB60     		str	r3, [r1, #12]
  79:Core/Src/tim.c ****   sConfigOC.OCIdleState = TIM_OCIDLESTATE_RESET;
 836              		.loc 1 79 3 is_stmt 1 view .LVU253
  79:Core/Src/tim.c ****   sConfigOC.OCIdleState = TIM_OCIDLESTATE_RESET;
 837              		.loc 1 79 24 is_stmt 0 view .LVU254
 838 008a 0B61     		str	r3, [r1, #16]
  80:Core/Src/tim.c ****   sConfigOC.OCNIdleState = TIM_OCNIDLESTATE_RESET;
 839              		.loc 1 80 3 is_stmt 1 view .LVU255
  80:Core/Src/tim.c ****   sConfigOC.OCNIdleState = TIM_OCNIDLESTATE_RESET;
 840              		.loc 1 80 25 is_stmt 0 view .LVU256
 841 008c 4B61     		str	r3, [r1, #20]
  81:Core/Src/tim.c ****   if (HAL_TIM_PWM_ConfigChannel(&htim1, &sConfigOC, TIM_CHANNEL_1) != HAL_OK)
 842              		.loc 1 81 3 is_stmt 1 view .LVU257
ARM GAS  /tmp/ccjOdkOi.s 			page 25


  81:Core/Src/tim.c ****   if (HAL_TIM_PWM_ConfigChannel(&htim1, &sConfigOC, TIM_CHANNEL_1) != HAL_OK)
 843              		.loc 1 81 26 is_stmt 0 view .LVU258
 844 008e 8B61     		str	r3, [r1, #24]
  82:Core/Src/tim.c ****   {
 845              		.loc 1 82 3 is_stmt 1 view .LVU259
  82:Core/Src/tim.c ****   {
 846              		.loc 1 82 7 is_stmt 0 view .LVU260
 847 0090 1A48     		ldr	r0, .L58
 848 0092 0022     		movs	r2, #0
 849 0094 FFF7FEFF 		bl	HAL_TIM_PWM_ConfigChannel
 850              	.LVL55:
  82:Core/Src/tim.c ****   {
 851              		.loc 1 82 6 discriminator 1 view .LVU261
 852 0098 0028     		cmp	r0, #0
 853 009a 28D1     		bne	.L56
 854              	.L50:
  86:Core/Src/tim.c ****   sBreakDeadTimeConfig.OffStateIDLEMode = TIM_OSSI_DISABLE;
 855              		.loc 1 86 3 is_stmt 1 view .LVU262
  86:Core/Src/tim.c ****   sBreakDeadTimeConfig.OffStateIDLEMode = TIM_OSSI_DISABLE;
 856              		.loc 1 86 40 is_stmt 0 view .LVU263
 857 009c 01A9     		add	r1, sp, #4
 858 009e 0023     		movs	r3, #0
 859 00a0 0193     		str	r3, [sp, #4]
  87:Core/Src/tim.c ****   sBreakDeadTimeConfig.LockLevel = TIM_LOCKLEVEL_OFF;
 860              		.loc 1 87 3 is_stmt 1 view .LVU264
  87:Core/Src/tim.c ****   sBreakDeadTimeConfig.LockLevel = TIM_LOCKLEVEL_OFF;
 861              		.loc 1 87 41 is_stmt 0 view .LVU265
 862 00a2 4B60     		str	r3, [r1, #4]
  88:Core/Src/tim.c ****   sBreakDeadTimeConfig.DeadTime = 0;
 863              		.loc 1 88 3 is_stmt 1 view .LVU266
  88:Core/Src/tim.c ****   sBreakDeadTimeConfig.DeadTime = 0;
 864              		.loc 1 88 34 is_stmt 0 view .LVU267
 865 00a4 8B60     		str	r3, [r1, #8]
  89:Core/Src/tim.c ****   sBreakDeadTimeConfig.BreakState = TIM_BREAK_DISABLE;
 866              		.loc 1 89 3 is_stmt 1 view .LVU268
  89:Core/Src/tim.c ****   sBreakDeadTimeConfig.BreakState = TIM_BREAK_DISABLE;
 867              		.loc 1 89 33 is_stmt 0 view .LVU269
 868 00a6 CB60     		str	r3, [r1, #12]
  90:Core/Src/tim.c ****   sBreakDeadTimeConfig.BreakPolarity = TIM_BREAKPOLARITY_HIGH;
 869              		.loc 1 90 3 is_stmt 1 view .LVU270
  90:Core/Src/tim.c ****   sBreakDeadTimeConfig.BreakPolarity = TIM_BREAKPOLARITY_HIGH;
 870              		.loc 1 90 35 is_stmt 0 view .LVU271
 871 00a8 0B61     		str	r3, [r1, #16]
  91:Core/Src/tim.c ****   sBreakDeadTimeConfig.BreakFilter = 0;
 872              		.loc 1 91 3 is_stmt 1 view .LVU272
  91:Core/Src/tim.c ****   sBreakDeadTimeConfig.BreakFilter = 0;
 873              		.loc 1 91 38 is_stmt 0 view .LVU273
 874 00aa 8022     		movs	r2, #128
 875 00ac 9201     		lsls	r2, r2, #6
 876 00ae 4A61     		str	r2, [r1, #20]
  92:Core/Src/tim.c ****   sBreakDeadTimeConfig.BreakAFMode = TIM_BREAK_AFMODE_INPUT;
 877              		.loc 1 92 3 is_stmt 1 view .LVU274
  92:Core/Src/tim.c ****   sBreakDeadTimeConfig.BreakAFMode = TIM_BREAK_AFMODE_INPUT;
 878              		.loc 1 92 36 is_stmt 0 view .LVU275
 879 00b0 8B61     		str	r3, [r1, #24]
  93:Core/Src/tim.c ****   sBreakDeadTimeConfig.Break2State = TIM_BREAK2_DISABLE;
 880              		.loc 1 93 3 is_stmt 1 view .LVU276
ARM GAS  /tmp/ccjOdkOi.s 			page 26


  93:Core/Src/tim.c ****   sBreakDeadTimeConfig.Break2State = TIM_BREAK2_DISABLE;
 881              		.loc 1 93 36 is_stmt 0 view .LVU277
 882 00b2 CB61     		str	r3, [r1, #28]
  94:Core/Src/tim.c ****   sBreakDeadTimeConfig.Break2Polarity = TIM_BREAK2POLARITY_HIGH;
 883              		.loc 1 94 3 is_stmt 1 view .LVU278
  94:Core/Src/tim.c ****   sBreakDeadTimeConfig.Break2Polarity = TIM_BREAK2POLARITY_HIGH;
 884              		.loc 1 94 36 is_stmt 0 view .LVU279
 885 00b4 0B62     		str	r3, [r1, #32]
  95:Core/Src/tim.c ****   sBreakDeadTimeConfig.Break2Filter = 0;
 886              		.loc 1 95 3 is_stmt 1 view .LVU280
  95:Core/Src/tim.c ****   sBreakDeadTimeConfig.Break2Filter = 0;
 887              		.loc 1 95 39 is_stmt 0 view .LVU281
 888 00b6 8022     		movs	r2, #128
 889 00b8 9204     		lsls	r2, r2, #18
 890 00ba 4A62     		str	r2, [r1, #36]
  96:Core/Src/tim.c ****   sBreakDeadTimeConfig.Break2AFMode = TIM_BREAK_AFMODE_INPUT;
 891              		.loc 1 96 3 is_stmt 1 view .LVU282
  96:Core/Src/tim.c ****   sBreakDeadTimeConfig.Break2AFMode = TIM_BREAK_AFMODE_INPUT;
 892              		.loc 1 96 37 is_stmt 0 view .LVU283
 893 00bc 8B62     		str	r3, [r1, #40]
  97:Core/Src/tim.c ****   sBreakDeadTimeConfig.AutomaticOutput = TIM_AUTOMATICOUTPUT_DISABLE;
 894              		.loc 1 97 3 is_stmt 1 view .LVU284
  97:Core/Src/tim.c ****   sBreakDeadTimeConfig.AutomaticOutput = TIM_AUTOMATICOUTPUT_DISABLE;
 895              		.loc 1 97 37 is_stmt 0 view .LVU285
 896 00be CB62     		str	r3, [r1, #44]
  98:Core/Src/tim.c ****   if (HAL_TIMEx_ConfigBreakDeadTime(&htim1, &sBreakDeadTimeConfig) != HAL_OK)
 897              		.loc 1 98 3 is_stmt 1 view .LVU286
  98:Core/Src/tim.c ****   if (HAL_TIMEx_ConfigBreakDeadTime(&htim1, &sBreakDeadTimeConfig) != HAL_OK)
 898              		.loc 1 98 40 is_stmt 0 view .LVU287
 899 00c0 0B63     		str	r3, [r1, #48]
  99:Core/Src/tim.c ****   {
 900              		.loc 1 99 3 is_stmt 1 view .LVU288
  99:Core/Src/tim.c ****   {
 901              		.loc 1 99 7 is_stmt 0 view .LVU289
 902 00c2 0E48     		ldr	r0, .L58
 903 00c4 FFF7FEFF 		bl	HAL_TIMEx_ConfigBreakDeadTime
 904              	.LVL56:
  99:Core/Src/tim.c ****   {
 905              		.loc 1 99 6 discriminator 1 view .LVU290
 906 00c8 0028     		cmp	r0, #0
 907 00ca 13D1     		bne	.L57
 908              	.L51:
 106:Core/Src/tim.c **** 
 909              		.loc 1 106 3 is_stmt 1 view .LVU291
 910 00cc 0B48     		ldr	r0, .L58
 911 00ce FFF7FEFF 		bl	HAL_TIM_MspPostInit
 912              	.LVL57:
 108:Core/Src/tim.c **** /* TIM2 init function */
 913              		.loc 1 108 1 is_stmt 0 view .LVU292
 914 00d2 1DB0     		add	sp, sp, #116
 915              		@ sp needed
 916 00d4 00BD     		pop	{pc}
 917              	.L52:
  57:Core/Src/tim.c ****   }
 918              		.loc 1 57 5 is_stmt 1 view .LVU293
 919 00d6 FFF7FEFF 		bl	Error_Handler
 920              	.LVL58:
ARM GAS  /tmp/ccjOdkOi.s 			page 27


 921 00da B7E7     		b	.L46
 922              	.L53:
  62:Core/Src/tim.c ****   }
 923              		.loc 1 62 5 view .LVU294
 924 00dc FFF7FEFF 		bl	Error_Handler
 925              	.LVL59:
 926 00e0 BDE7     		b	.L47
 927              	.L54:
  66:Core/Src/tim.c ****   }
 928              		.loc 1 66 5 view .LVU295
 929 00e2 FFF7FEFF 		bl	Error_Handler
 930              	.LVL60:
 931 00e6 BFE7     		b	.L48
 932              	.L55:
  73:Core/Src/tim.c ****   }
 933              		.loc 1 73 5 view .LVU296
 934 00e8 FFF7FEFF 		bl	Error_Handler
 935              	.LVL61:
 936 00ec C6E7     		b	.L49
 937              	.L56:
  84:Core/Src/tim.c ****   }
 938              		.loc 1 84 5 view .LVU297
 939 00ee FFF7FEFF 		bl	Error_Handler
 940              	.LVL62:
 941 00f2 D3E7     		b	.L50
 942              	.L57:
 101:Core/Src/tim.c ****   }
 943              		.loc 1 101 5 view .LVU298
 944 00f4 FFF7FEFF 		bl	Error_Handler
 945              	.LVL63:
 946 00f8 E8E7     		b	.L51
 947              	.L59:
 948 00fa C046     		.align	2
 949              	.L58:
 950 00fc 00000000 		.word	htim1
 951 0100 002C0140 		.word	1073818624
 952 0104 7F020000 		.word	639
 953 0108 E7030000 		.word	999
 954              		.cfi_endproc
 955              	.LFE457:
 957              		.section	.text.MX_TIM2_Init,"ax",%progbits
 958              		.align	1
 959              		.global	MX_TIM2_Init
 960              		.syntax unified
 961              		.code	16
 962              		.thumb_func
 964              	MX_TIM2_Init:
 965              	.LFB458:
 111:Core/Src/tim.c **** 
 966              		.loc 1 111 1 view -0
 967              		.cfi_startproc
 968              		@ args = 0, pretend = 0, frame = 56
 969              		@ frame_needed = 0, uses_anonymous_args = 0
 970 0000 00B5     		push	{lr}
 971              		.cfi_def_cfa_offset 4
 972              		.cfi_offset 14, -4
 973 0002 8FB0     		sub	sp, sp, #60
ARM GAS  /tmp/ccjOdkOi.s 			page 28


 974              		.cfi_def_cfa_offset 64
 117:Core/Src/tim.c ****   TIM_MasterConfigTypeDef sMasterConfig = {0};
 975              		.loc 1 117 3 view .LVU300
 117:Core/Src/tim.c ****   TIM_MasterConfigTypeDef sMasterConfig = {0};
 976              		.loc 1 117 26 is_stmt 0 view .LVU301
 977 0004 1022     		movs	r2, #16
 978 0006 0021     		movs	r1, #0
 979 0008 0AA8     		add	r0, sp, #40
 980 000a FFF7FEFF 		bl	memset
 981              	.LVL64:
 118:Core/Src/tim.c ****   TIM_OC_InitTypeDef sConfigOC = {0};
 982              		.loc 1 118 3 is_stmt 1 view .LVU302
 118:Core/Src/tim.c ****   TIM_OC_InitTypeDef sConfigOC = {0};
 983              		.loc 1 118 27 is_stmt 0 view .LVU303
 984 000e 0C22     		movs	r2, #12
 985 0010 0021     		movs	r1, #0
 986 0012 07A8     		add	r0, sp, #28
 987 0014 FFF7FEFF 		bl	memset
 988              	.LVL65:
 119:Core/Src/tim.c **** 
 989              		.loc 1 119 3 is_stmt 1 view .LVU304
 119:Core/Src/tim.c **** 
 990              		.loc 1 119 22 is_stmt 0 view .LVU305
 991 0018 1C22     		movs	r2, #28
 992 001a 0021     		movs	r1, #0
 993 001c 6846     		mov	r0, sp
 994 001e FFF7FEFF 		bl	memset
 995              	.LVL66:
 124:Core/Src/tim.c ****   htim2.Init.Prescaler = 640-1;
 996              		.loc 1 124 3 is_stmt 1 view .LVU306
 124:Core/Src/tim.c ****   htim2.Init.Prescaler = 640-1;
 997              		.loc 1 124 18 is_stmt 0 view .LVU307
 998 0022 2448     		ldr	r0, .L71
 999 0024 8023     		movs	r3, #128
 1000 0026 DB05     		lsls	r3, r3, #23
 1001 0028 0360     		str	r3, [r0]
 125:Core/Src/tim.c ****   htim2.Init.CounterMode = TIM_COUNTERMODE_UP;
 1002              		.loc 1 125 3 is_stmt 1 view .LVU308
 125:Core/Src/tim.c ****   htim2.Init.CounterMode = TIM_COUNTERMODE_UP;
 1003              		.loc 1 125 24 is_stmt 0 view .LVU309
 1004 002a 234B     		ldr	r3, .L71+4
 1005 002c 4360     		str	r3, [r0, #4]
 126:Core/Src/tim.c ****   htim2.Init.Period = 1000-1;
 1006              		.loc 1 126 3 is_stmt 1 view .LVU310
 126:Core/Src/tim.c ****   htim2.Init.Period = 1000-1;
 1007              		.loc 1 126 26 is_stmt 0 view .LVU311
 1008 002e 0023     		movs	r3, #0
 1009 0030 8360     		str	r3, [r0, #8]
 127:Core/Src/tim.c ****   htim2.Init.ClockDivision = TIM_CLOCKDIVISION_DIV1;
 1010              		.loc 1 127 3 is_stmt 1 view .LVU312
 127:Core/Src/tim.c ****   htim2.Init.ClockDivision = TIM_CLOCKDIVISION_DIV1;
 1011              		.loc 1 127 21 is_stmt 0 view .LVU313
 1012 0032 224A     		ldr	r2, .L71+8
 1013 0034 C260     		str	r2, [r0, #12]
 128:Core/Src/tim.c ****   htim2.Init.AutoReloadPreload = TIM_AUTORELOAD_PRELOAD_DISABLE;
 1014              		.loc 1 128 3 is_stmt 1 view .LVU314
 128:Core/Src/tim.c ****   htim2.Init.AutoReloadPreload = TIM_AUTORELOAD_PRELOAD_DISABLE;
ARM GAS  /tmp/ccjOdkOi.s 			page 29


 1015              		.loc 1 128 28 is_stmt 0 view .LVU315
 1016 0036 0361     		str	r3, [r0, #16]
 129:Core/Src/tim.c ****   if (HAL_TIM_Base_Init(&htim2) != HAL_OK)
 1017              		.loc 1 129 3 is_stmt 1 view .LVU316
 129:Core/Src/tim.c ****   if (HAL_TIM_Base_Init(&htim2) != HAL_OK)
 1018              		.loc 1 129 32 is_stmt 0 view .LVU317
 1019 0038 8361     		str	r3, [r0, #24]
 130:Core/Src/tim.c ****   {
 1020              		.loc 1 130 3 is_stmt 1 view .LVU318
 130:Core/Src/tim.c ****   {
 1021              		.loc 1 130 7 is_stmt 0 view .LVU319
 1022 003a FFF7FEFF 		bl	HAL_TIM_Base_Init
 1023              	.LVL67:
 130:Core/Src/tim.c ****   {
 1024              		.loc 1 130 6 discriminator 1 view .LVU320
 1025 003e 0028     		cmp	r0, #0
 1026 0040 28D1     		bne	.L66
 1027              	.L61:
 134:Core/Src/tim.c ****   if (HAL_TIM_ConfigClockSource(&htim2, &sClockSourceConfig) != HAL_OK)
 1028              		.loc 1 134 3 is_stmt 1 view .LVU321
 134:Core/Src/tim.c ****   if (HAL_TIM_ConfigClockSource(&htim2, &sClockSourceConfig) != HAL_OK)
 1029              		.loc 1 134 34 is_stmt 0 view .LVU322
 1030 0042 8023     		movs	r3, #128
 1031 0044 5B01     		lsls	r3, r3, #5
 1032 0046 0A93     		str	r3, [sp, #40]
 135:Core/Src/tim.c ****   {
 1033              		.loc 1 135 3 is_stmt 1 view .LVU323
 135:Core/Src/tim.c ****   {
 1034              		.loc 1 135 7 is_stmt 0 view .LVU324
 1035 0048 1A48     		ldr	r0, .L71
 1036 004a 0AA9     		add	r1, sp, #40
 1037 004c FFF7FEFF 		bl	HAL_TIM_ConfigClockSource
 1038              	.LVL68:
 135:Core/Src/tim.c ****   {
 1039              		.loc 1 135 6 discriminator 1 view .LVU325
 1040 0050 0028     		cmp	r0, #0
 1041 0052 22D1     		bne	.L67
 1042              	.L62:
 139:Core/Src/tim.c ****   {
 1043              		.loc 1 139 3 is_stmt 1 view .LVU326
 139:Core/Src/tim.c ****   {
 1044              		.loc 1 139 7 is_stmt 0 view .LVU327
 1045 0054 1748     		ldr	r0, .L71
 1046 0056 FFF7FEFF 		bl	HAL_TIM_PWM_Init
 1047              	.LVL69:
 139:Core/Src/tim.c ****   {
 1048              		.loc 1 139 6 discriminator 1 view .LVU328
 1049 005a 0028     		cmp	r0, #0
 1050 005c 20D1     		bne	.L68
 1051              	.L63:
 143:Core/Src/tim.c ****   sMasterConfig.MasterSlaveMode = TIM_MASTERSLAVEMODE_DISABLE;
 1052              		.loc 1 143 3 is_stmt 1 view .LVU329
 143:Core/Src/tim.c ****   sMasterConfig.MasterSlaveMode = TIM_MASTERSLAVEMODE_DISABLE;
 1053              		.loc 1 143 37 is_stmt 0 view .LVU330
 1054 005e 07A9     		add	r1, sp, #28
 1055 0060 0023     		movs	r3, #0
 1056 0062 0793     		str	r3, [sp, #28]
ARM GAS  /tmp/ccjOdkOi.s 			page 30


 144:Core/Src/tim.c ****   if (HAL_TIMEx_MasterConfigSynchronization(&htim2, &sMasterConfig) != HAL_OK)
 1057              		.loc 1 144 3 is_stmt 1 view .LVU331
 144:Core/Src/tim.c ****   if (HAL_TIMEx_MasterConfigSynchronization(&htim2, &sMasterConfig) != HAL_OK)
 1058              		.loc 1 144 33 is_stmt 0 view .LVU332
 1059 0064 8B60     		str	r3, [r1, #8]
 145:Core/Src/tim.c ****   {
 1060              		.loc 1 145 3 is_stmt 1 view .LVU333
 145:Core/Src/tim.c ****   {
 1061              		.loc 1 145 7 is_stmt 0 view .LVU334
 1062 0066 1348     		ldr	r0, .L71
 1063 0068 FFF7FEFF 		bl	HAL_TIMEx_MasterConfigSynchronization
 1064              	.LVL70:
 145:Core/Src/tim.c ****   {
 1065              		.loc 1 145 6 discriminator 1 view .LVU335
 1066 006c 0028     		cmp	r0, #0
 1067 006e 1AD1     		bne	.L69
 1068              	.L64:
 149:Core/Src/tim.c ****   sConfigOC.Pulse = 0;
 1069              		.loc 1 149 3 is_stmt 1 view .LVU336
 149:Core/Src/tim.c ****   sConfigOC.Pulse = 0;
 1070              		.loc 1 149 20 is_stmt 0 view .LVU337
 1071 0070 6946     		mov	r1, sp
 1072 0072 6023     		movs	r3, #96
 1073 0074 0093     		str	r3, [sp]
 150:Core/Src/tim.c ****   sConfigOC.OCPolarity = TIM_OCPOLARITY_HIGH;
 1074              		.loc 1 150 3 is_stmt 1 view .LVU338
 150:Core/Src/tim.c ****   sConfigOC.OCPolarity = TIM_OCPOLARITY_HIGH;
 1075              		.loc 1 150 19 is_stmt 0 view .LVU339
 1076 0076 0023     		movs	r3, #0
 1077 0078 0193     		str	r3, [sp, #4]
 151:Core/Src/tim.c ****   sConfigOC.OCFastMode = TIM_OCFAST_DISABLE;
 1078              		.loc 1 151 3 is_stmt 1 view .LVU340
 151:Core/Src/tim.c ****   sConfigOC.OCFastMode = TIM_OCFAST_DISABLE;
 1079              		.loc 1 151 24 is_stmt 0 view .LVU341
 1080 007a 0293     		str	r3, [sp, #8]
 152:Core/Src/tim.c ****   if (HAL_TIM_PWM_ConfigChannel(&htim2, &sConfigOC, TIM_CHANNEL_2) != HAL_OK)
 1081              		.loc 1 152 3 is_stmt 1 view .LVU342
 152:Core/Src/tim.c ****   if (HAL_TIM_PWM_ConfigChannel(&htim2, &sConfigOC, TIM_CHANNEL_2) != HAL_OK)
 1082              		.loc 1 152 24 is_stmt 0 view .LVU343
 1083 007c 0493     		str	r3, [sp, #16]
 153:Core/Src/tim.c ****   {
 1084              		.loc 1 153 3 is_stmt 1 view .LVU344
 153:Core/Src/tim.c ****   {
 1085              		.loc 1 153 7 is_stmt 0 view .LVU345
 1086 007e 0D48     		ldr	r0, .L71
 1087 0080 0422     		movs	r2, #4
 1088 0082 FFF7FEFF 		bl	HAL_TIM_PWM_ConfigChannel
 1089              	.LVL71:
 153:Core/Src/tim.c ****   {
 1090              		.loc 1 153 6 discriminator 1 view .LVU346
 1091 0086 0028     		cmp	r0, #0
 1092 0088 10D1     		bne	.L70
 1093              	.L65:
 160:Core/Src/tim.c **** 
 1094              		.loc 1 160 3 is_stmt 1 view .LVU347
 1095 008a 0A48     		ldr	r0, .L71
 1096 008c FFF7FEFF 		bl	HAL_TIM_MspPostInit
ARM GAS  /tmp/ccjOdkOi.s 			page 31


 1097              	.LVL72:
 162:Core/Src/tim.c **** /* TIM3 init function */
 1098              		.loc 1 162 1 is_stmt 0 view .LVU348
 1099 0090 0FB0     		add	sp, sp, #60
 1100              		@ sp needed
 1101 0092 00BD     		pop	{pc}
 1102              	.L66:
 132:Core/Src/tim.c ****   }
 1103              		.loc 1 132 5 is_stmt 1 view .LVU349
 1104 0094 FFF7FEFF 		bl	Error_Handler
 1105              	.LVL73:
 1106 0098 D3E7     		b	.L61
 1107              	.L67:
 137:Core/Src/tim.c ****   }
 1108              		.loc 1 137 5 view .LVU350
 1109 009a FFF7FEFF 		bl	Error_Handler
 1110              	.LVL74:
 1111 009e D9E7     		b	.L62
 1112              	.L68:
 141:Core/Src/tim.c ****   }
 1113              		.loc 1 141 5 view .LVU351
 1114 00a0 FFF7FEFF 		bl	Error_Handler
 1115              	.LVL75:
 1116 00a4 DBE7     		b	.L63
 1117              	.L69:
 147:Core/Src/tim.c ****   }
 1118              		.loc 1 147 5 view .LVU352
 1119 00a6 FFF7FEFF 		bl	Error_Handler
 1120              	.LVL76:
 1121 00aa E1E7     		b	.L64
 1122              	.L70:
 155:Core/Src/tim.c ****   }
 1123              		.loc 1 155 5 view .LVU353
 1124 00ac FFF7FEFF 		bl	Error_Handler
 1125              	.LVL77:
 1126 00b0 EBE7     		b	.L65
 1127              	.L72:
 1128 00b2 C046     		.align	2
 1129              	.L71:
 1130 00b4 00000000 		.word	htim2
 1131 00b8 7F020000 		.word	639
 1132 00bc E7030000 		.word	999
 1133              		.cfi_endproc
 1134              	.LFE458:
 1136              		.section	.text.HAL_TIM_Base_MspDeInit,"ax",%progbits
 1137              		.align	1
 1138              		.global	HAL_TIM_Base_MspDeInit
 1139              		.syntax unified
 1140              		.code	16
 1141              		.thumb_func
 1143              	HAL_TIM_Base_MspDeInit:
 1144              	.LVL78:
 1145              	.LFB463:
 394:Core/Src/tim.c **** 
 395:Core/Src/tim.c **** void HAL_TIM_Base_MspDeInit(TIM_HandleTypeDef* tim_baseHandle)
 396:Core/Src/tim.c **** {
 1146              		.loc 1 396 1 view -0
ARM GAS  /tmp/ccjOdkOi.s 			page 32


 1147              		.cfi_startproc
 1148              		@ args = 0, pretend = 0, frame = 0
 1149              		@ frame_needed = 0, uses_anonymous_args = 0
 1150              		.loc 1 396 1 is_stmt 0 view .LVU355
 1151 0000 10B5     		push	{r4, lr}
 1152              		.cfi_def_cfa_offset 8
 1153              		.cfi_offset 4, -8
 1154              		.cfi_offset 14, -4
 397:Core/Src/tim.c **** 
 398:Core/Src/tim.c ****   if(tim_baseHandle->Instance==TIM1)
 1155              		.loc 1 398 3 is_stmt 1 view .LVU356
 1156              		.loc 1 398 20 is_stmt 0 view .LVU357
 1157 0002 0368     		ldr	r3, [r0]
 1158              		.loc 1 398 5 view .LVU358
 1159 0004 1A4A     		ldr	r2, .L82
 1160 0006 9342     		cmp	r3, r2
 1161 0008 0AD0     		beq	.L78
 399:Core/Src/tim.c ****   {
 400:Core/Src/tim.c ****   /* USER CODE BEGIN TIM1_MspDeInit 0 */
 401:Core/Src/tim.c **** 
 402:Core/Src/tim.c ****   /* USER CODE END TIM1_MspDeInit 0 */
 403:Core/Src/tim.c ****     /* Peripheral clock disable */
 404:Core/Src/tim.c ****     __HAL_RCC_TIM1_CLK_DISABLE();
 405:Core/Src/tim.c **** 
 406:Core/Src/tim.c ****     /* TIM1 interrupt Deinit */
 407:Core/Src/tim.c ****     HAL_NVIC_DisableIRQ(TIM1_BRK_UP_TRG_COM_IRQn);
 408:Core/Src/tim.c ****     HAL_NVIC_DisableIRQ(TIM1_CC_IRQn);
 409:Core/Src/tim.c ****   /* USER CODE BEGIN TIM1_MspDeInit 1 */
 410:Core/Src/tim.c **** 
 411:Core/Src/tim.c ****   /* USER CODE END TIM1_MspDeInit 1 */
 412:Core/Src/tim.c ****   }
 413:Core/Src/tim.c ****   else if(tim_baseHandle->Instance==TIM2)
 1162              		.loc 1 413 8 is_stmt 1 view .LVU359
 1163              		.loc 1 413 10 is_stmt 0 view .LVU360
 1164 000a 8022     		movs	r2, #128
 1165 000c D205     		lsls	r2, r2, #23
 1166 000e 9342     		cmp	r3, r2
 1167 0010 12D0     		beq	.L79
 414:Core/Src/tim.c ****   {
 415:Core/Src/tim.c ****   /* USER CODE BEGIN TIM2_MspDeInit 0 */
 416:Core/Src/tim.c **** 
 417:Core/Src/tim.c ****   /* USER CODE END TIM2_MspDeInit 0 */
 418:Core/Src/tim.c ****     /* Peripheral clock disable */
 419:Core/Src/tim.c ****     __HAL_RCC_TIM2_CLK_DISABLE();
 420:Core/Src/tim.c **** 
 421:Core/Src/tim.c ****     /* TIM2 interrupt Deinit */
 422:Core/Src/tim.c ****     HAL_NVIC_DisableIRQ(TIM2_IRQn);
 423:Core/Src/tim.c ****   /* USER CODE BEGIN TIM2_MspDeInit 1 */
 424:Core/Src/tim.c **** 
 425:Core/Src/tim.c ****   /* USER CODE END TIM2_MspDeInit 1 */
 426:Core/Src/tim.c ****   }
 427:Core/Src/tim.c ****   else if(tim_baseHandle->Instance==TIM3)
 1168              		.loc 1 427 8 is_stmt 1 view .LVU361
 1169              		.loc 1 427 10 is_stmt 0 view .LVU362
 1170 0012 184A     		ldr	r2, .L82+4
 1171 0014 9342     		cmp	r3, r2
 1172 0016 18D0     		beq	.L80
ARM GAS  /tmp/ccjOdkOi.s 			page 33


 428:Core/Src/tim.c ****   {
 429:Core/Src/tim.c ****   /* USER CODE BEGIN TIM3_MspDeInit 0 */
 430:Core/Src/tim.c **** 
 431:Core/Src/tim.c ****   /* USER CODE END TIM3_MspDeInit 0 */
 432:Core/Src/tim.c ****     /* Peripheral clock disable */
 433:Core/Src/tim.c ****     __HAL_RCC_TIM3_CLK_DISABLE();
 434:Core/Src/tim.c **** 
 435:Core/Src/tim.c ****     /* TIM3 interrupt Deinit */
 436:Core/Src/tim.c ****     HAL_NVIC_DisableIRQ(TIM3_IRQn);
 437:Core/Src/tim.c ****   /* USER CODE BEGIN TIM3_MspDeInit 1 */
 438:Core/Src/tim.c **** 
 439:Core/Src/tim.c ****   /* USER CODE END TIM3_MspDeInit 1 */
 440:Core/Src/tim.c ****   }
 441:Core/Src/tim.c ****   else if(tim_baseHandle->Instance==TIM15)
 1173              		.loc 1 441 8 is_stmt 1 view .LVU363
 1174              		.loc 1 441 10 is_stmt 0 view .LVU364
 1175 0018 174A     		ldr	r2, .L82+8
 1176 001a 9342     		cmp	r3, r2
 1177 001c 1ED0     		beq	.L81
 1178              	.LVL79:
 1179              	.L73:
 442:Core/Src/tim.c ****   {
 443:Core/Src/tim.c ****   /* USER CODE BEGIN TIM15_MspDeInit 0 */
 444:Core/Src/tim.c **** 
 445:Core/Src/tim.c ****   /* USER CODE END TIM15_MspDeInit 0 */
 446:Core/Src/tim.c ****     /* Peripheral clock disable */
 447:Core/Src/tim.c ****     __HAL_RCC_TIM15_CLK_DISABLE();
 448:Core/Src/tim.c **** 
 449:Core/Src/tim.c ****     /* TIM15 interrupt Deinit */
 450:Core/Src/tim.c ****     HAL_NVIC_DisableIRQ(TIM15_IRQn);
 451:Core/Src/tim.c ****   /* USER CODE BEGIN TIM15_MspDeInit 1 */
 452:Core/Src/tim.c **** 
 453:Core/Src/tim.c ****   /* USER CODE END TIM15_MspDeInit 1 */
 454:Core/Src/tim.c ****   }
 455:Core/Src/tim.c **** }
 1180              		.loc 1 455 1 view .LVU365
 1181              		@ sp needed
 1182 001e 10BD     		pop	{r4, pc}
 1183              	.LVL80:
 1184              	.L78:
 404:Core/Src/tim.c **** 
 1185              		.loc 1 404 5 is_stmt 1 view .LVU366
 1186 0020 164A     		ldr	r2, .L82+12
 1187 0022 136C     		ldr	r3, [r2, #64]
 1188 0024 1649     		ldr	r1, .L82+16
 1189 0026 0B40     		ands	r3, r1
 1190 0028 1364     		str	r3, [r2, #64]
 407:Core/Src/tim.c ****     HAL_NVIC_DisableIRQ(TIM1_CC_IRQn);
 1191              		.loc 1 407 5 view .LVU367
 1192 002a 0D20     		movs	r0, #13
 1193              	.LVL81:
 407:Core/Src/tim.c ****     HAL_NVIC_DisableIRQ(TIM1_CC_IRQn);
 1194              		.loc 1 407 5 is_stmt 0 view .LVU368
 1195 002c FFF7FEFF 		bl	HAL_NVIC_DisableIRQ
 1196              	.LVL82:
 408:Core/Src/tim.c ****   /* USER CODE BEGIN TIM1_MspDeInit 1 */
 1197              		.loc 1 408 5 is_stmt 1 view .LVU369
ARM GAS  /tmp/ccjOdkOi.s 			page 34


 1198 0030 0E20     		movs	r0, #14
 1199 0032 FFF7FEFF 		bl	HAL_NVIC_DisableIRQ
 1200              	.LVL83:
 1201 0036 F2E7     		b	.L73
 1202              	.LVL84:
 1203              	.L79:
 419:Core/Src/tim.c **** 
 1204              		.loc 1 419 5 view .LVU370
 1205 0038 104A     		ldr	r2, .L82+12
 1206 003a D36B     		ldr	r3, [r2, #60]
 1207 003c 0121     		movs	r1, #1
 1208 003e 8B43     		bics	r3, r1
 1209 0040 D363     		str	r3, [r2, #60]
 422:Core/Src/tim.c ****   /* USER CODE BEGIN TIM2_MspDeInit 1 */
 1210              		.loc 1 422 5 view .LVU371
 1211 0042 0F20     		movs	r0, #15
 1212              	.LVL85:
 422:Core/Src/tim.c ****   /* USER CODE BEGIN TIM2_MspDeInit 1 */
 1213              		.loc 1 422 5 is_stmt 0 view .LVU372
 1214 0044 FFF7FEFF 		bl	HAL_NVIC_DisableIRQ
 1215              	.LVL86:
 1216 0048 E9E7     		b	.L73
 1217              	.LVL87:
 1218              	.L80:
 433:Core/Src/tim.c **** 
 1219              		.loc 1 433 5 is_stmt 1 view .LVU373
 1220 004a 0C4A     		ldr	r2, .L82+12
 1221 004c D36B     		ldr	r3, [r2, #60]
 1222 004e 0221     		movs	r1, #2
 1223 0050 8B43     		bics	r3, r1
 1224 0052 D363     		str	r3, [r2, #60]
 436:Core/Src/tim.c ****   /* USER CODE BEGIN TIM3_MspDeInit 1 */
 1225              		.loc 1 436 5 view .LVU374
 1226 0054 1020     		movs	r0, #16
 1227              	.LVL88:
 436:Core/Src/tim.c ****   /* USER CODE BEGIN TIM3_MspDeInit 1 */
 1228              		.loc 1 436 5 is_stmt 0 view .LVU375
 1229 0056 FFF7FEFF 		bl	HAL_NVIC_DisableIRQ
 1230              	.LVL89:
 1231 005a E0E7     		b	.L73
 1232              	.LVL90:
 1233              	.L81:
 447:Core/Src/tim.c **** 
 1234              		.loc 1 447 5 is_stmt 1 view .LVU376
 1235 005c 074A     		ldr	r2, .L82+12
 1236 005e 136C     		ldr	r3, [r2, #64]
 1237 0060 0849     		ldr	r1, .L82+20
 1238 0062 0B40     		ands	r3, r1
 1239 0064 1364     		str	r3, [r2, #64]
 450:Core/Src/tim.c ****   /* USER CODE BEGIN TIM15_MspDeInit 1 */
 1240              		.loc 1 450 5 view .LVU377
 1241 0066 1420     		movs	r0, #20
 1242              	.LVL91:
 450:Core/Src/tim.c ****   /* USER CODE BEGIN TIM15_MspDeInit 1 */
 1243              		.loc 1 450 5 is_stmt 0 view .LVU378
 1244 0068 FFF7FEFF 		bl	HAL_NVIC_DisableIRQ
 1245              	.LVL92:
ARM GAS  /tmp/ccjOdkOi.s 			page 35


 1246              		.loc 1 455 1 view .LVU379
 1247 006c D7E7     		b	.L73
 1248              	.L83:
 1249 006e C046     		.align	2
 1250              	.L82:
 1251 0070 002C0140 		.word	1073818624
 1252 0074 00040040 		.word	1073742848
 1253 0078 00400140 		.word	1073823744
 1254 007c 00100240 		.word	1073876992
 1255 0080 FFF7FFFF 		.word	-2049
 1256 0084 FFFFFEFF 		.word	-65537
 1257              		.cfi_endproc
 1258              	.LFE463:
 1260              		.global	htim15
 1261              		.section	.bss.htim15,"aw",%nobits
 1262              		.align	2
 1265              	htim15:
 1266 0000 00000000 		.space	188
 1266      00000000 
 1266      00000000 
 1266      00000000 
 1266      00000000 
 1267              		.global	htim3
 1268              		.section	.bss.htim3,"aw",%nobits
 1269              		.align	2
 1272              	htim3:
 1273 0000 00000000 		.space	188
 1273      00000000 
 1273      00000000 
 1273      00000000 
 1273      00000000 
 1274              		.global	htim2
 1275              		.section	.bss.htim2,"aw",%nobits
 1276              		.align	2
 1279              	htim2:
 1280 0000 00000000 		.space	188
 1280      00000000 
 1280      00000000 
 1280      00000000 
 1280      00000000 
 1281              		.global	htim1
 1282              		.section	.bss.htim1,"aw",%nobits
 1283              		.align	2
 1286              	htim1:
 1287 0000 00000000 		.space	188
 1287      00000000 
 1287      00000000 
 1287      00000000 
 1287      00000000 
 1288              		.text
 1289              	.Letext0:
 1290              		.file 2 "Drivers/CMSIS/Device/ST/STM32G0xx/Include/stm32g071xx.h"
 1291              		.file 3 "/opt/arm-gnu-toolchain-14.2/arm-none-eabi/include/machine/_default_types.h"
 1292              		.file 4 "/opt/arm-gnu-toolchain-14.2/arm-none-eabi/include/sys/_stdint.h"
 1293              		.file 5 "Drivers/STM32G0xx_HAL_Driver/Inc/stm32g0xx_hal_def.h"
 1294              		.file 6 "Drivers/STM32G0xx_HAL_Driver/Inc/stm32g0xx_hal_rcc_ex.h"
 1295              		.file 7 "Drivers/STM32G0xx_HAL_Driver/Inc/stm32g0xx_hal_gpio.h"
ARM GAS  /tmp/ccjOdkOi.s 			page 36


 1296              		.file 8 "Drivers/STM32G0xx_HAL_Driver/Inc/stm32g0xx_hal_dma.h"
 1297              		.file 9 "Drivers/STM32G0xx_HAL_Driver/Inc/stm32g0xx_hal_tim.h"
 1298              		.file 10 "Core/Inc/tim.h"
 1299              		.file 11 "Drivers/STM32G0xx_HAL_Driver/Inc/stm32g0xx_hal_cortex.h"
 1300              		.file 12 "Drivers/STM32G0xx_HAL_Driver/Inc/stm32g0xx_hal_tim_ex.h"
 1301              		.file 13 "Drivers/STM32G0xx_HAL_Driver/Inc/stm32g0xx_ll_dma.h"
 1302              		.file 14 "Core/Inc/main.h"
 1303              		.file 15 "<built-in>"
ARM GAS  /tmp/ccjOdkOi.s 			page 37

