ARM GAS  /tmp/ccYeCTy1.s 			page 1


   1              		.cpu cortex-m0plus
   2              		.arch armv6s-m
   3              		.fpu softvfp
   4              		.eabi_attribute 20, 1
   5              		.eabi_attribute 21, 1
   6              		.eabi_attribute 23, 3
   7              		.eabi_attribute 24, 1
   8              		.eabi_attribute 25, 1
   9              		.eabi_attribute 26, 1
  10              		.eabi_attribute 30, 1
  11              		.eabi_attribute 34, 0
  12              		.eabi_attribute 18, 4
  13              		.file	"timers.c"
  14              		.text
  15              	.Ltext0:
  16              		.cfi_sections	.debug_frame
  17              		.file 1 "Middlewares/Third_Party/FreeRTOS/Source/timers.c"
  18              		.section	.text.prvGetNextExpireTime,"ax",%progbits
  19              		.align	1
  20              		.syntax unified
  21              		.code	16
  22              		.thumb_func
  24              	prvGetNextExpireTime:
  25              	.LVL0:
  26              	.LFB14:
   1:Middlewares/Third_Party/FreeRTOS/Source/timers.c **** /*
   2:Middlewares/Third_Party/FreeRTOS/Source/timers.c ****  * FreeRTOS Kernel V10.3.1
   3:Middlewares/Third_Party/FreeRTOS/Source/timers.c ****  * Copyright (C) 2020 Amazon.com, Inc. or its affiliates.  All Rights Reserved.
   4:Middlewares/Third_Party/FreeRTOS/Source/timers.c ****  *
   5:Middlewares/Third_Party/FreeRTOS/Source/timers.c ****  * Permission is hereby granted, free of charge, to any person obtaining a copy of
   6:Middlewares/Third_Party/FreeRTOS/Source/timers.c ****  * this software and associated documentation files (the "Software"), to deal in
   7:Middlewares/Third_Party/FreeRTOS/Source/timers.c ****  * the Software without restriction, including without limitation the rights to
   8:Middlewares/Third_Party/FreeRTOS/Source/timers.c ****  * use, copy, modify, merge, publish, distribute, sublicense, and/or sell copies of
   9:Middlewares/Third_Party/FreeRTOS/Source/timers.c ****  * the Software, and to permit persons to whom the Software is furnished to do so,
  10:Middlewares/Third_Party/FreeRTOS/Source/timers.c ****  * subject to the following conditions:
  11:Middlewares/Third_Party/FreeRTOS/Source/timers.c ****  *
  12:Middlewares/Third_Party/FreeRTOS/Source/timers.c ****  * The above copyright notice and this permission notice shall be included in all
  13:Middlewares/Third_Party/FreeRTOS/Source/timers.c ****  * copies or substantial portions of the Software.
  14:Middlewares/Third_Party/FreeRTOS/Source/timers.c ****  *
  15:Middlewares/Third_Party/FreeRTOS/Source/timers.c ****  * THE SOFTWARE IS PROVIDED "AS IS", WITHOUT WARRANTY OF ANY KIND, EXPRESS OR
  16:Middlewares/Third_Party/FreeRTOS/Source/timers.c ****  * IMPLIED, INCLUDING BUT NOT LIMITED TO THE WARRANTIES OF MERCHANTABILITY, FITNESS
  17:Middlewares/Third_Party/FreeRTOS/Source/timers.c ****  * FOR A PARTICULAR PURPOSE AND NONINFRINGEMENT. IN NO EVENT SHALL THE AUTHORS OR
  18:Middlewares/Third_Party/FreeRTOS/Source/timers.c ****  * COPYRIGHT HOLDERS BE LIABLE FOR ANY CLAIM, DAMAGES OR OTHER LIABILITY, WHETHER
  19:Middlewares/Third_Party/FreeRTOS/Source/timers.c ****  * IN AN ACTION OF CONTRACT, TORT OR OTHERWISE, ARISING FROM, OUT OF OR IN
  20:Middlewares/Third_Party/FreeRTOS/Source/timers.c ****  * CONNECTION WITH THE SOFTWARE OR THE USE OR OTHER DEALINGS IN THE SOFTWARE.
  21:Middlewares/Third_Party/FreeRTOS/Source/timers.c ****  *
  22:Middlewares/Third_Party/FreeRTOS/Source/timers.c ****  * http://www.FreeRTOS.org
  23:Middlewares/Third_Party/FreeRTOS/Source/timers.c ****  * http://aws.amazon.com/freertos
  24:Middlewares/Third_Party/FreeRTOS/Source/timers.c ****  *
  25:Middlewares/Third_Party/FreeRTOS/Source/timers.c ****  * 1 tab == 4 spaces!
  26:Middlewares/Third_Party/FreeRTOS/Source/timers.c ****  */
  27:Middlewares/Third_Party/FreeRTOS/Source/timers.c **** 
  28:Middlewares/Third_Party/FreeRTOS/Source/timers.c **** /* Standard includes. */
  29:Middlewares/Third_Party/FreeRTOS/Source/timers.c **** #include <stdlib.h>
  30:Middlewares/Third_Party/FreeRTOS/Source/timers.c **** 
  31:Middlewares/Third_Party/FreeRTOS/Source/timers.c **** /* Defining MPU_WRAPPERS_INCLUDED_FROM_API_FILE prevents task.h from redefining
  32:Middlewares/Third_Party/FreeRTOS/Source/timers.c **** all the API functions to use the MPU wrappers.  That should only be done when
ARM GAS  /tmp/ccYeCTy1.s 			page 2


  33:Middlewares/Third_Party/FreeRTOS/Source/timers.c **** task.h is included from an application file. */
  34:Middlewares/Third_Party/FreeRTOS/Source/timers.c **** #define MPU_WRAPPERS_INCLUDED_FROM_API_FILE
  35:Middlewares/Third_Party/FreeRTOS/Source/timers.c **** 
  36:Middlewares/Third_Party/FreeRTOS/Source/timers.c **** #include "FreeRTOS.h"
  37:Middlewares/Third_Party/FreeRTOS/Source/timers.c **** #include "task.h"
  38:Middlewares/Third_Party/FreeRTOS/Source/timers.c **** #include "queue.h"
  39:Middlewares/Third_Party/FreeRTOS/Source/timers.c **** #include "timers.h"
  40:Middlewares/Third_Party/FreeRTOS/Source/timers.c **** 
  41:Middlewares/Third_Party/FreeRTOS/Source/timers.c **** #if ( INCLUDE_xTimerPendFunctionCall == 1 ) && ( configUSE_TIMERS == 0 )
  42:Middlewares/Third_Party/FreeRTOS/Source/timers.c **** 	#error configUSE_TIMERS must be set to 1 to make the xTimerPendFunctionCall() function available.
  43:Middlewares/Third_Party/FreeRTOS/Source/timers.c **** #endif
  44:Middlewares/Third_Party/FreeRTOS/Source/timers.c **** 
  45:Middlewares/Third_Party/FreeRTOS/Source/timers.c **** /* Lint e9021, e961 and e750 are suppressed as a MISRA exception justified
  46:Middlewares/Third_Party/FreeRTOS/Source/timers.c **** because the MPU ports require MPU_WRAPPERS_INCLUDED_FROM_API_FILE to be defined
  47:Middlewares/Third_Party/FreeRTOS/Source/timers.c **** for the header files above, but not in this file, in order to generate the
  48:Middlewares/Third_Party/FreeRTOS/Source/timers.c **** correct privileged Vs unprivileged linkage and placement. */
  49:Middlewares/Third_Party/FreeRTOS/Source/timers.c **** #undef MPU_WRAPPERS_INCLUDED_FROM_API_FILE /*lint !e9021 !e961 !e750. */
  50:Middlewares/Third_Party/FreeRTOS/Source/timers.c **** 
  51:Middlewares/Third_Party/FreeRTOS/Source/timers.c **** 
  52:Middlewares/Third_Party/FreeRTOS/Source/timers.c **** /* This entire source file will be skipped if the application is not configured
  53:Middlewares/Third_Party/FreeRTOS/Source/timers.c **** to include software timer functionality.  This #if is closed at the very bottom
  54:Middlewares/Third_Party/FreeRTOS/Source/timers.c **** of this file.  If you want to include software timer functionality then ensure
  55:Middlewares/Third_Party/FreeRTOS/Source/timers.c **** configUSE_TIMERS is set to 1 in FreeRTOSConfig.h. */
  56:Middlewares/Third_Party/FreeRTOS/Source/timers.c **** #if ( configUSE_TIMERS == 1 )
  57:Middlewares/Third_Party/FreeRTOS/Source/timers.c **** 
  58:Middlewares/Third_Party/FreeRTOS/Source/timers.c **** /* Misc definitions. */
  59:Middlewares/Third_Party/FreeRTOS/Source/timers.c **** #define tmrNO_DELAY		( TickType_t ) 0U
  60:Middlewares/Third_Party/FreeRTOS/Source/timers.c **** 
  61:Middlewares/Third_Party/FreeRTOS/Source/timers.c **** /* The name assigned to the timer service task.  This can be overridden by
  62:Middlewares/Third_Party/FreeRTOS/Source/timers.c **** defining trmTIMER_SERVICE_TASK_NAME in FreeRTOSConfig.h. */
  63:Middlewares/Third_Party/FreeRTOS/Source/timers.c **** #ifndef configTIMER_SERVICE_TASK_NAME
  64:Middlewares/Third_Party/FreeRTOS/Source/timers.c **** 	#define configTIMER_SERVICE_TASK_NAME "Tmr Svc"
  65:Middlewares/Third_Party/FreeRTOS/Source/timers.c **** #endif
  66:Middlewares/Third_Party/FreeRTOS/Source/timers.c **** 
  67:Middlewares/Third_Party/FreeRTOS/Source/timers.c **** /* Bit definitions used in the ucStatus member of a timer structure. */
  68:Middlewares/Third_Party/FreeRTOS/Source/timers.c **** #define tmrSTATUS_IS_ACTIVE					( ( uint8_t ) 0x01 )
  69:Middlewares/Third_Party/FreeRTOS/Source/timers.c **** #define tmrSTATUS_IS_STATICALLY_ALLOCATED	( ( uint8_t ) 0x02 )
  70:Middlewares/Third_Party/FreeRTOS/Source/timers.c **** #define tmrSTATUS_IS_AUTORELOAD				( ( uint8_t ) 0x04 )
  71:Middlewares/Third_Party/FreeRTOS/Source/timers.c **** 
  72:Middlewares/Third_Party/FreeRTOS/Source/timers.c **** /* The definition of the timers themselves. */
  73:Middlewares/Third_Party/FreeRTOS/Source/timers.c **** typedef struct tmrTimerControl /* The old naming convention is used to prevent breaking kernel awar
  74:Middlewares/Third_Party/FreeRTOS/Source/timers.c **** {
  75:Middlewares/Third_Party/FreeRTOS/Source/timers.c **** 	const char				*pcTimerName;		/*<< Text name.  This is not used by the kernel, it is included simpl
  76:Middlewares/Third_Party/FreeRTOS/Source/timers.c **** 	ListItem_t				xTimerListItem;		/*<< Standard linked list item as used by all kernel features for e
  77:Middlewares/Third_Party/FreeRTOS/Source/timers.c **** 	TickType_t				xTimerPeriodInTicks;/*<< How quickly and often the timer expires. */
  78:Middlewares/Third_Party/FreeRTOS/Source/timers.c **** 	void 					*pvTimerID;			/*<< An ID to identify the timer.  This allows the timer to be identified 
  79:Middlewares/Third_Party/FreeRTOS/Source/timers.c **** 	TimerCallbackFunction_t	pxCallbackFunction;	/*<< The function that will be called when the timer e
  80:Middlewares/Third_Party/FreeRTOS/Source/timers.c **** 	#if( configUSE_TRACE_FACILITY == 1 )
  81:Middlewares/Third_Party/FreeRTOS/Source/timers.c **** 		UBaseType_t			uxTimerNumber;		/*<< An ID assigned by trace tools such as FreeRTOS+Trace */
  82:Middlewares/Third_Party/FreeRTOS/Source/timers.c **** 	#endif
  83:Middlewares/Third_Party/FreeRTOS/Source/timers.c **** 	uint8_t 				ucStatus;			/*<< Holds bits to say if the timer was statically allocated or not, and i
  84:Middlewares/Third_Party/FreeRTOS/Source/timers.c **** } xTIMER;
  85:Middlewares/Third_Party/FreeRTOS/Source/timers.c **** 
  86:Middlewares/Third_Party/FreeRTOS/Source/timers.c **** /* The old xTIMER name is maintained above then typedefed to the new Timer_t
  87:Middlewares/Third_Party/FreeRTOS/Source/timers.c **** name below to enable the use of older kernel aware debuggers. */
  88:Middlewares/Third_Party/FreeRTOS/Source/timers.c **** typedef xTIMER Timer_t;
  89:Middlewares/Third_Party/FreeRTOS/Source/timers.c **** 
ARM GAS  /tmp/ccYeCTy1.s 			page 3


  90:Middlewares/Third_Party/FreeRTOS/Source/timers.c **** /* The definition of messages that can be sent and received on the timer queue.
  91:Middlewares/Third_Party/FreeRTOS/Source/timers.c **** Two types of message can be queued - messages that manipulate a software timer,
  92:Middlewares/Third_Party/FreeRTOS/Source/timers.c **** and messages that request the execution of a non-timer related callback.  The
  93:Middlewares/Third_Party/FreeRTOS/Source/timers.c **** two message types are defined in two separate structures, xTimerParametersType
  94:Middlewares/Third_Party/FreeRTOS/Source/timers.c **** and xCallbackParametersType respectively. */
  95:Middlewares/Third_Party/FreeRTOS/Source/timers.c **** typedef struct tmrTimerParameters
  96:Middlewares/Third_Party/FreeRTOS/Source/timers.c **** {
  97:Middlewares/Third_Party/FreeRTOS/Source/timers.c **** 	TickType_t			xMessageValue;		/*<< An optional value used by a subset of commands, for example, whe
  98:Middlewares/Third_Party/FreeRTOS/Source/timers.c **** 	Timer_t *			pxTimer;			/*<< The timer to which the command will be applied. */
  99:Middlewares/Third_Party/FreeRTOS/Source/timers.c **** } TimerParameter_t;
 100:Middlewares/Third_Party/FreeRTOS/Source/timers.c **** 
 101:Middlewares/Third_Party/FreeRTOS/Source/timers.c **** 
 102:Middlewares/Third_Party/FreeRTOS/Source/timers.c **** typedef struct tmrCallbackParameters
 103:Middlewares/Third_Party/FreeRTOS/Source/timers.c **** {
 104:Middlewares/Third_Party/FreeRTOS/Source/timers.c **** 	PendedFunction_t	pxCallbackFunction;	/* << The callback function to execute. */
 105:Middlewares/Third_Party/FreeRTOS/Source/timers.c **** 	void *pvParameter1;						/* << The value that will be used as the callback functions first paramet
 106:Middlewares/Third_Party/FreeRTOS/Source/timers.c **** 	uint32_t ulParameter2;					/* << The value that will be used as the callback functions second para
 107:Middlewares/Third_Party/FreeRTOS/Source/timers.c **** } CallbackParameters_t;
 108:Middlewares/Third_Party/FreeRTOS/Source/timers.c **** 
 109:Middlewares/Third_Party/FreeRTOS/Source/timers.c **** /* The structure that contains the two message types, along with an identifier
 110:Middlewares/Third_Party/FreeRTOS/Source/timers.c **** that is used to determine which message type is valid. */
 111:Middlewares/Third_Party/FreeRTOS/Source/timers.c **** typedef struct tmrTimerQueueMessage
 112:Middlewares/Third_Party/FreeRTOS/Source/timers.c **** {
 113:Middlewares/Third_Party/FreeRTOS/Source/timers.c **** 	BaseType_t			xMessageID;			/*<< The command being sent to the timer service task. */
 114:Middlewares/Third_Party/FreeRTOS/Source/timers.c **** 	union
 115:Middlewares/Third_Party/FreeRTOS/Source/timers.c **** 	{
 116:Middlewares/Third_Party/FreeRTOS/Source/timers.c **** 		TimerParameter_t xTimerParameters;
 117:Middlewares/Third_Party/FreeRTOS/Source/timers.c **** 
 118:Middlewares/Third_Party/FreeRTOS/Source/timers.c **** 		/* Don't include xCallbackParameters if it is not going to be used as
 119:Middlewares/Third_Party/FreeRTOS/Source/timers.c **** 		it makes the structure (and therefore the timer queue) larger. */
 120:Middlewares/Third_Party/FreeRTOS/Source/timers.c **** 		#if ( INCLUDE_xTimerPendFunctionCall == 1 )
 121:Middlewares/Third_Party/FreeRTOS/Source/timers.c **** 			CallbackParameters_t xCallbackParameters;
 122:Middlewares/Third_Party/FreeRTOS/Source/timers.c **** 		#endif /* INCLUDE_xTimerPendFunctionCall */
 123:Middlewares/Third_Party/FreeRTOS/Source/timers.c **** 	} u;
 124:Middlewares/Third_Party/FreeRTOS/Source/timers.c **** } DaemonTaskMessage_t;
 125:Middlewares/Third_Party/FreeRTOS/Source/timers.c **** 
 126:Middlewares/Third_Party/FreeRTOS/Source/timers.c **** /*lint -save -e956 A manual analysis and inspection has been used to determine
 127:Middlewares/Third_Party/FreeRTOS/Source/timers.c **** which static variables must be declared volatile. */
 128:Middlewares/Third_Party/FreeRTOS/Source/timers.c **** 
 129:Middlewares/Third_Party/FreeRTOS/Source/timers.c **** /* The list in which active timers are stored.  Timers are referenced in expire
 130:Middlewares/Third_Party/FreeRTOS/Source/timers.c **** time order, with the nearest expiry time at the front of the list.  Only the
 131:Middlewares/Third_Party/FreeRTOS/Source/timers.c **** timer service task is allowed to access these lists.
 132:Middlewares/Third_Party/FreeRTOS/Source/timers.c **** xActiveTimerList1 and xActiveTimerList2 could be at function scope but that
 133:Middlewares/Third_Party/FreeRTOS/Source/timers.c **** breaks some kernel aware debuggers, and debuggers that reply on removing the
 134:Middlewares/Third_Party/FreeRTOS/Source/timers.c **** static qualifier. */
 135:Middlewares/Third_Party/FreeRTOS/Source/timers.c **** PRIVILEGED_DATA static List_t xActiveTimerList1;
 136:Middlewares/Third_Party/FreeRTOS/Source/timers.c **** PRIVILEGED_DATA static List_t xActiveTimerList2;
 137:Middlewares/Third_Party/FreeRTOS/Source/timers.c **** PRIVILEGED_DATA static List_t *pxCurrentTimerList;
 138:Middlewares/Third_Party/FreeRTOS/Source/timers.c **** PRIVILEGED_DATA static List_t *pxOverflowTimerList;
 139:Middlewares/Third_Party/FreeRTOS/Source/timers.c **** 
 140:Middlewares/Third_Party/FreeRTOS/Source/timers.c **** /* A queue that is used to send commands to the timer service task. */
 141:Middlewares/Third_Party/FreeRTOS/Source/timers.c **** PRIVILEGED_DATA static QueueHandle_t xTimerQueue = NULL;
 142:Middlewares/Third_Party/FreeRTOS/Source/timers.c **** PRIVILEGED_DATA static TaskHandle_t xTimerTaskHandle = NULL;
 143:Middlewares/Third_Party/FreeRTOS/Source/timers.c **** 
 144:Middlewares/Third_Party/FreeRTOS/Source/timers.c **** /*lint -restore */
 145:Middlewares/Third_Party/FreeRTOS/Source/timers.c **** 
 146:Middlewares/Third_Party/FreeRTOS/Source/timers.c **** /*-----------------------------------------------------------*/
ARM GAS  /tmp/ccYeCTy1.s 			page 4


 147:Middlewares/Third_Party/FreeRTOS/Source/timers.c **** 
 148:Middlewares/Third_Party/FreeRTOS/Source/timers.c **** #if( configSUPPORT_STATIC_ALLOCATION == 1 )
 149:Middlewares/Third_Party/FreeRTOS/Source/timers.c **** 
 150:Middlewares/Third_Party/FreeRTOS/Source/timers.c **** 	/* If static allocation is supported then the application must provide the
 151:Middlewares/Third_Party/FreeRTOS/Source/timers.c **** 	following callback function - which enables the application to optionally
 152:Middlewares/Third_Party/FreeRTOS/Source/timers.c **** 	provide the memory that will be used by the timer task as the task's stack
 153:Middlewares/Third_Party/FreeRTOS/Source/timers.c **** 	and TCB. */
 154:Middlewares/Third_Party/FreeRTOS/Source/timers.c **** 	extern void vApplicationGetTimerTaskMemory( StaticTask_t **ppxTimerTaskTCBBuffer, StackType_t **pp
 155:Middlewares/Third_Party/FreeRTOS/Source/timers.c **** 
 156:Middlewares/Third_Party/FreeRTOS/Source/timers.c **** #endif
 157:Middlewares/Third_Party/FreeRTOS/Source/timers.c **** 
 158:Middlewares/Third_Party/FreeRTOS/Source/timers.c **** /*
 159:Middlewares/Third_Party/FreeRTOS/Source/timers.c ****  * Initialise the infrastructure used by the timer service task if it has not
 160:Middlewares/Third_Party/FreeRTOS/Source/timers.c ****  * been initialised already.
 161:Middlewares/Third_Party/FreeRTOS/Source/timers.c ****  */
 162:Middlewares/Third_Party/FreeRTOS/Source/timers.c **** static void prvCheckForValidListAndQueue( void ) PRIVILEGED_FUNCTION;
 163:Middlewares/Third_Party/FreeRTOS/Source/timers.c **** 
 164:Middlewares/Third_Party/FreeRTOS/Source/timers.c **** /*
 165:Middlewares/Third_Party/FreeRTOS/Source/timers.c ****  * The timer service task (daemon).  Timer functionality is controlled by this
 166:Middlewares/Third_Party/FreeRTOS/Source/timers.c ****  * task.  Other tasks communicate with the timer service task using the
 167:Middlewares/Third_Party/FreeRTOS/Source/timers.c ****  * xTimerQueue queue.
 168:Middlewares/Third_Party/FreeRTOS/Source/timers.c ****  */
 169:Middlewares/Third_Party/FreeRTOS/Source/timers.c **** static portTASK_FUNCTION_PROTO( prvTimerTask, pvParameters ) PRIVILEGED_FUNCTION;
 170:Middlewares/Third_Party/FreeRTOS/Source/timers.c **** 
 171:Middlewares/Third_Party/FreeRTOS/Source/timers.c **** /*
 172:Middlewares/Third_Party/FreeRTOS/Source/timers.c ****  * Called by the timer service task to interpret and process a command it
 173:Middlewares/Third_Party/FreeRTOS/Source/timers.c ****  * received on the timer queue.
 174:Middlewares/Third_Party/FreeRTOS/Source/timers.c ****  */
 175:Middlewares/Third_Party/FreeRTOS/Source/timers.c **** static void prvProcessReceivedCommands( void ) PRIVILEGED_FUNCTION;
 176:Middlewares/Third_Party/FreeRTOS/Source/timers.c **** 
 177:Middlewares/Third_Party/FreeRTOS/Source/timers.c **** /*
 178:Middlewares/Third_Party/FreeRTOS/Source/timers.c ****  * Insert the timer into either xActiveTimerList1, or xActiveTimerList2,
 179:Middlewares/Third_Party/FreeRTOS/Source/timers.c ****  * depending on if the expire time causes a timer counter overflow.
 180:Middlewares/Third_Party/FreeRTOS/Source/timers.c ****  */
 181:Middlewares/Third_Party/FreeRTOS/Source/timers.c **** static BaseType_t prvInsertTimerInActiveList( Timer_t * const pxTimer, const TickType_t xNextExpiry
 182:Middlewares/Third_Party/FreeRTOS/Source/timers.c **** 
 183:Middlewares/Third_Party/FreeRTOS/Source/timers.c **** /*
 184:Middlewares/Third_Party/FreeRTOS/Source/timers.c ****  * An active timer has reached its expire time.  Reload the timer if it is an
 185:Middlewares/Third_Party/FreeRTOS/Source/timers.c ****  * auto-reload timer, then call its callback.
 186:Middlewares/Third_Party/FreeRTOS/Source/timers.c ****  */
 187:Middlewares/Third_Party/FreeRTOS/Source/timers.c **** static void prvProcessExpiredTimer( const TickType_t xNextExpireTime, const TickType_t xTimeNow ) P
 188:Middlewares/Third_Party/FreeRTOS/Source/timers.c **** 
 189:Middlewares/Third_Party/FreeRTOS/Source/timers.c **** /*
 190:Middlewares/Third_Party/FreeRTOS/Source/timers.c ****  * The tick count has overflowed.  Switch the timer lists after ensuring the
 191:Middlewares/Third_Party/FreeRTOS/Source/timers.c ****  * current timer list does not still reference some timers.
 192:Middlewares/Third_Party/FreeRTOS/Source/timers.c ****  */
 193:Middlewares/Third_Party/FreeRTOS/Source/timers.c **** static void prvSwitchTimerLists( void ) PRIVILEGED_FUNCTION;
 194:Middlewares/Third_Party/FreeRTOS/Source/timers.c **** 
 195:Middlewares/Third_Party/FreeRTOS/Source/timers.c **** /*
 196:Middlewares/Third_Party/FreeRTOS/Source/timers.c ****  * Obtain the current tick count, setting *pxTimerListsWereSwitched to pdTRUE
 197:Middlewares/Third_Party/FreeRTOS/Source/timers.c ****  * if a tick count overflow occurred since prvSampleTimeNow() was last called.
 198:Middlewares/Third_Party/FreeRTOS/Source/timers.c ****  */
 199:Middlewares/Third_Party/FreeRTOS/Source/timers.c **** static TickType_t prvSampleTimeNow( BaseType_t * const pxTimerListsWereSwitched ) PRIVILEGED_FUNCTI
 200:Middlewares/Third_Party/FreeRTOS/Source/timers.c **** 
 201:Middlewares/Third_Party/FreeRTOS/Source/timers.c **** /*
 202:Middlewares/Third_Party/FreeRTOS/Source/timers.c ****  * If the timer list contains any active timers then return the expire time of
 203:Middlewares/Third_Party/FreeRTOS/Source/timers.c ****  * the timer that will expire first and set *pxListWasEmpty to false.  If the
ARM GAS  /tmp/ccYeCTy1.s 			page 5


 204:Middlewares/Third_Party/FreeRTOS/Source/timers.c ****  * timer list does not contain any timers then return 0 and set *pxListWasEmpty
 205:Middlewares/Third_Party/FreeRTOS/Source/timers.c ****  * to pdTRUE.
 206:Middlewares/Third_Party/FreeRTOS/Source/timers.c ****  */
 207:Middlewares/Third_Party/FreeRTOS/Source/timers.c **** static TickType_t prvGetNextExpireTime( BaseType_t * const pxListWasEmpty ) PRIVILEGED_FUNCTION;
 208:Middlewares/Third_Party/FreeRTOS/Source/timers.c **** 
 209:Middlewares/Third_Party/FreeRTOS/Source/timers.c **** /*
 210:Middlewares/Third_Party/FreeRTOS/Source/timers.c ****  * If a timer has expired, process it.  Otherwise, block the timer service task
 211:Middlewares/Third_Party/FreeRTOS/Source/timers.c ****  * until either a timer does expire or a command is received.
 212:Middlewares/Third_Party/FreeRTOS/Source/timers.c ****  */
 213:Middlewares/Third_Party/FreeRTOS/Source/timers.c **** static void prvProcessTimerOrBlockTask( const TickType_t xNextExpireTime, BaseType_t xListWasEmpty 
 214:Middlewares/Third_Party/FreeRTOS/Source/timers.c **** 
 215:Middlewares/Third_Party/FreeRTOS/Source/timers.c **** /*
 216:Middlewares/Third_Party/FreeRTOS/Source/timers.c ****  * Called after a Timer_t structure has been allocated either statically or
 217:Middlewares/Third_Party/FreeRTOS/Source/timers.c ****  * dynamically to fill in the structure's members.
 218:Middlewares/Third_Party/FreeRTOS/Source/timers.c ****  */
 219:Middlewares/Third_Party/FreeRTOS/Source/timers.c **** static void prvInitialiseNewTimer(	const char * const pcTimerName,			/*lint !e971 Unqualified char 
 220:Middlewares/Third_Party/FreeRTOS/Source/timers.c **** 									const TickType_t xTimerPeriodInTicks,
 221:Middlewares/Third_Party/FreeRTOS/Source/timers.c **** 									const UBaseType_t uxAutoReload,
 222:Middlewares/Third_Party/FreeRTOS/Source/timers.c **** 									void * const pvTimerID,
 223:Middlewares/Third_Party/FreeRTOS/Source/timers.c **** 									TimerCallbackFunction_t pxCallbackFunction,
 224:Middlewares/Third_Party/FreeRTOS/Source/timers.c **** 									Timer_t *pxNewTimer ) PRIVILEGED_FUNCTION;
 225:Middlewares/Third_Party/FreeRTOS/Source/timers.c **** /*-----------------------------------------------------------*/
 226:Middlewares/Third_Party/FreeRTOS/Source/timers.c **** 
 227:Middlewares/Third_Party/FreeRTOS/Source/timers.c **** BaseType_t xTimerCreateTimerTask( void )
 228:Middlewares/Third_Party/FreeRTOS/Source/timers.c **** {
 229:Middlewares/Third_Party/FreeRTOS/Source/timers.c **** BaseType_t xReturn = pdFAIL;
 230:Middlewares/Third_Party/FreeRTOS/Source/timers.c **** 
 231:Middlewares/Third_Party/FreeRTOS/Source/timers.c **** 	/* This function is called when the scheduler is started if
 232:Middlewares/Third_Party/FreeRTOS/Source/timers.c **** 	configUSE_TIMERS is set to 1.  Check that the infrastructure used by the
 233:Middlewares/Third_Party/FreeRTOS/Source/timers.c **** 	timer service task has been created/initialised.  If timers have already
 234:Middlewares/Third_Party/FreeRTOS/Source/timers.c **** 	been created then the initialisation will already have been performed. */
 235:Middlewares/Third_Party/FreeRTOS/Source/timers.c **** 	prvCheckForValidListAndQueue();
 236:Middlewares/Third_Party/FreeRTOS/Source/timers.c **** 
 237:Middlewares/Third_Party/FreeRTOS/Source/timers.c **** 	if( xTimerQueue != NULL )
 238:Middlewares/Third_Party/FreeRTOS/Source/timers.c **** 	{
 239:Middlewares/Third_Party/FreeRTOS/Source/timers.c **** 		#if( configSUPPORT_STATIC_ALLOCATION == 1 )
 240:Middlewares/Third_Party/FreeRTOS/Source/timers.c **** 		{
 241:Middlewares/Third_Party/FreeRTOS/Source/timers.c **** 			StaticTask_t *pxTimerTaskTCBBuffer = NULL;
 242:Middlewares/Third_Party/FreeRTOS/Source/timers.c **** 			StackType_t *pxTimerTaskStackBuffer = NULL;
 243:Middlewares/Third_Party/FreeRTOS/Source/timers.c **** 			uint32_t ulTimerTaskStackSize;
 244:Middlewares/Third_Party/FreeRTOS/Source/timers.c **** 
 245:Middlewares/Third_Party/FreeRTOS/Source/timers.c **** 			vApplicationGetTimerTaskMemory( &pxTimerTaskTCBBuffer, &pxTimerTaskStackBuffer, &ulTimerTaskStac
 246:Middlewares/Third_Party/FreeRTOS/Source/timers.c **** 			xTimerTaskHandle = xTaskCreateStatic(	prvTimerTask,
 247:Middlewares/Third_Party/FreeRTOS/Source/timers.c **** 													configTIMER_SERVICE_TASK_NAME,
 248:Middlewares/Third_Party/FreeRTOS/Source/timers.c **** 													ulTimerTaskStackSize,
 249:Middlewares/Third_Party/FreeRTOS/Source/timers.c **** 													NULL,
 250:Middlewares/Third_Party/FreeRTOS/Source/timers.c **** 													( ( UBaseType_t ) configTIMER_TASK_PRIORITY ) | portPRIVILEGE_BIT,
 251:Middlewares/Third_Party/FreeRTOS/Source/timers.c **** 													pxTimerTaskStackBuffer,
 252:Middlewares/Third_Party/FreeRTOS/Source/timers.c **** 													pxTimerTaskTCBBuffer );
 253:Middlewares/Third_Party/FreeRTOS/Source/timers.c **** 
 254:Middlewares/Third_Party/FreeRTOS/Source/timers.c **** 			if( xTimerTaskHandle != NULL )
 255:Middlewares/Third_Party/FreeRTOS/Source/timers.c **** 			{
 256:Middlewares/Third_Party/FreeRTOS/Source/timers.c **** 				xReturn = pdPASS;
 257:Middlewares/Third_Party/FreeRTOS/Source/timers.c **** 			}
 258:Middlewares/Third_Party/FreeRTOS/Source/timers.c **** 		}
 259:Middlewares/Third_Party/FreeRTOS/Source/timers.c **** 		#else
 260:Middlewares/Third_Party/FreeRTOS/Source/timers.c **** 		{
ARM GAS  /tmp/ccYeCTy1.s 			page 6


 261:Middlewares/Third_Party/FreeRTOS/Source/timers.c **** 			xReturn = xTaskCreate(	prvTimerTask,
 262:Middlewares/Third_Party/FreeRTOS/Source/timers.c **** 									configTIMER_SERVICE_TASK_NAME,
 263:Middlewares/Third_Party/FreeRTOS/Source/timers.c **** 									configTIMER_TASK_STACK_DEPTH,
 264:Middlewares/Third_Party/FreeRTOS/Source/timers.c **** 									NULL,
 265:Middlewares/Third_Party/FreeRTOS/Source/timers.c **** 									( ( UBaseType_t ) configTIMER_TASK_PRIORITY ) | portPRIVILEGE_BIT,
 266:Middlewares/Third_Party/FreeRTOS/Source/timers.c **** 									&xTimerTaskHandle );
 267:Middlewares/Third_Party/FreeRTOS/Source/timers.c **** 		}
 268:Middlewares/Third_Party/FreeRTOS/Source/timers.c **** 		#endif /* configSUPPORT_STATIC_ALLOCATION */
 269:Middlewares/Third_Party/FreeRTOS/Source/timers.c **** 	}
 270:Middlewares/Third_Party/FreeRTOS/Source/timers.c **** 	else
 271:Middlewares/Third_Party/FreeRTOS/Source/timers.c **** 	{
 272:Middlewares/Third_Party/FreeRTOS/Source/timers.c **** 		mtCOVERAGE_TEST_MARKER();
 273:Middlewares/Third_Party/FreeRTOS/Source/timers.c **** 	}
 274:Middlewares/Third_Party/FreeRTOS/Source/timers.c **** 
 275:Middlewares/Third_Party/FreeRTOS/Source/timers.c **** 	configASSERT( xReturn );
 276:Middlewares/Third_Party/FreeRTOS/Source/timers.c **** 	return xReturn;
 277:Middlewares/Third_Party/FreeRTOS/Source/timers.c **** }
 278:Middlewares/Third_Party/FreeRTOS/Source/timers.c **** /*-----------------------------------------------------------*/
 279:Middlewares/Third_Party/FreeRTOS/Source/timers.c **** 
 280:Middlewares/Third_Party/FreeRTOS/Source/timers.c **** #if( configSUPPORT_DYNAMIC_ALLOCATION == 1 )
 281:Middlewares/Third_Party/FreeRTOS/Source/timers.c **** 
 282:Middlewares/Third_Party/FreeRTOS/Source/timers.c **** 	TimerHandle_t xTimerCreate(	const char * const pcTimerName,			/*lint !e971 Unqualified char types 
 283:Middlewares/Third_Party/FreeRTOS/Source/timers.c **** 								const TickType_t xTimerPeriodInTicks,
 284:Middlewares/Third_Party/FreeRTOS/Source/timers.c **** 								const UBaseType_t uxAutoReload,
 285:Middlewares/Third_Party/FreeRTOS/Source/timers.c **** 								void * const pvTimerID,
 286:Middlewares/Third_Party/FreeRTOS/Source/timers.c **** 								TimerCallbackFunction_t pxCallbackFunction )
 287:Middlewares/Third_Party/FreeRTOS/Source/timers.c **** 	{
 288:Middlewares/Third_Party/FreeRTOS/Source/timers.c **** 	Timer_t *pxNewTimer;
 289:Middlewares/Third_Party/FreeRTOS/Source/timers.c **** 
 290:Middlewares/Third_Party/FreeRTOS/Source/timers.c **** 		pxNewTimer = ( Timer_t * ) pvPortMalloc( sizeof( Timer_t ) ); /*lint !e9087 !e9079 All values ret
 291:Middlewares/Third_Party/FreeRTOS/Source/timers.c **** 
 292:Middlewares/Third_Party/FreeRTOS/Source/timers.c **** 		if( pxNewTimer != NULL )
 293:Middlewares/Third_Party/FreeRTOS/Source/timers.c **** 		{
 294:Middlewares/Third_Party/FreeRTOS/Source/timers.c **** 			/* Status is thus far zero as the timer is not created statically
 295:Middlewares/Third_Party/FreeRTOS/Source/timers.c **** 			and has not been started.  The auto-reload bit may get set in
 296:Middlewares/Third_Party/FreeRTOS/Source/timers.c **** 			prvInitialiseNewTimer. */
 297:Middlewares/Third_Party/FreeRTOS/Source/timers.c **** 			pxNewTimer->ucStatus = 0x00;
 298:Middlewares/Third_Party/FreeRTOS/Source/timers.c **** 			prvInitialiseNewTimer( pcTimerName, xTimerPeriodInTicks, uxAutoReload, pvTimerID, pxCallbackFunc
 299:Middlewares/Third_Party/FreeRTOS/Source/timers.c **** 		}
 300:Middlewares/Third_Party/FreeRTOS/Source/timers.c **** 
 301:Middlewares/Third_Party/FreeRTOS/Source/timers.c **** 		return pxNewTimer;
 302:Middlewares/Third_Party/FreeRTOS/Source/timers.c **** 	}
 303:Middlewares/Third_Party/FreeRTOS/Source/timers.c **** 
 304:Middlewares/Third_Party/FreeRTOS/Source/timers.c **** #endif /* configSUPPORT_DYNAMIC_ALLOCATION */
 305:Middlewares/Third_Party/FreeRTOS/Source/timers.c **** /*-----------------------------------------------------------*/
 306:Middlewares/Third_Party/FreeRTOS/Source/timers.c **** 
 307:Middlewares/Third_Party/FreeRTOS/Source/timers.c **** #if( configSUPPORT_STATIC_ALLOCATION == 1 )
 308:Middlewares/Third_Party/FreeRTOS/Source/timers.c **** 
 309:Middlewares/Third_Party/FreeRTOS/Source/timers.c **** 	TimerHandle_t xTimerCreateStatic(	const char * const pcTimerName,		/*lint !e971 Unqualified char t
 310:Middlewares/Third_Party/FreeRTOS/Source/timers.c **** 										const TickType_t xTimerPeriodInTicks,
 311:Middlewares/Third_Party/FreeRTOS/Source/timers.c **** 										const UBaseType_t uxAutoReload,
 312:Middlewares/Third_Party/FreeRTOS/Source/timers.c **** 										void * const pvTimerID,
 313:Middlewares/Third_Party/FreeRTOS/Source/timers.c **** 										TimerCallbackFunction_t pxCallbackFunction,
 314:Middlewares/Third_Party/FreeRTOS/Source/timers.c **** 										StaticTimer_t *pxTimerBuffer )
 315:Middlewares/Third_Party/FreeRTOS/Source/timers.c **** 	{
 316:Middlewares/Third_Party/FreeRTOS/Source/timers.c **** 	Timer_t *pxNewTimer;
 317:Middlewares/Third_Party/FreeRTOS/Source/timers.c **** 
ARM GAS  /tmp/ccYeCTy1.s 			page 7


 318:Middlewares/Third_Party/FreeRTOS/Source/timers.c **** 		#if( configASSERT_DEFINED == 1 )
 319:Middlewares/Third_Party/FreeRTOS/Source/timers.c **** 		{
 320:Middlewares/Third_Party/FreeRTOS/Source/timers.c **** 			/* Sanity check that the size of the structure used to declare a
 321:Middlewares/Third_Party/FreeRTOS/Source/timers.c **** 			variable of type StaticTimer_t equals the size of the real timer
 322:Middlewares/Third_Party/FreeRTOS/Source/timers.c **** 			structure. */
 323:Middlewares/Third_Party/FreeRTOS/Source/timers.c **** 			volatile size_t xSize = sizeof( StaticTimer_t );
 324:Middlewares/Third_Party/FreeRTOS/Source/timers.c **** 			configASSERT( xSize == sizeof( Timer_t ) );
 325:Middlewares/Third_Party/FreeRTOS/Source/timers.c **** 			( void ) xSize; /* Keeps lint quiet when configASSERT() is not defined. */
 326:Middlewares/Third_Party/FreeRTOS/Source/timers.c **** 		}
 327:Middlewares/Third_Party/FreeRTOS/Source/timers.c **** 		#endif /* configASSERT_DEFINED */
 328:Middlewares/Third_Party/FreeRTOS/Source/timers.c **** 
 329:Middlewares/Third_Party/FreeRTOS/Source/timers.c **** 		/* A pointer to a StaticTimer_t structure MUST be provided, use it. */
 330:Middlewares/Third_Party/FreeRTOS/Source/timers.c **** 		configASSERT( pxTimerBuffer );
 331:Middlewares/Third_Party/FreeRTOS/Source/timers.c **** 		pxNewTimer = ( Timer_t * ) pxTimerBuffer; /*lint !e740 !e9087 StaticTimer_t is a pointer to a Tim
 332:Middlewares/Third_Party/FreeRTOS/Source/timers.c **** 
 333:Middlewares/Third_Party/FreeRTOS/Source/timers.c **** 		if( pxNewTimer != NULL )
 334:Middlewares/Third_Party/FreeRTOS/Source/timers.c **** 		{
 335:Middlewares/Third_Party/FreeRTOS/Source/timers.c **** 			/* Timers can be created statically or dynamically so note this
 336:Middlewares/Third_Party/FreeRTOS/Source/timers.c **** 			timer was created statically in case it is later deleted.  The
 337:Middlewares/Third_Party/FreeRTOS/Source/timers.c **** 			auto-reload bit may get set in prvInitialiseNewTimer(). */
 338:Middlewares/Third_Party/FreeRTOS/Source/timers.c **** 			pxNewTimer->ucStatus = tmrSTATUS_IS_STATICALLY_ALLOCATED;
 339:Middlewares/Third_Party/FreeRTOS/Source/timers.c **** 
 340:Middlewares/Third_Party/FreeRTOS/Source/timers.c **** 			prvInitialiseNewTimer( pcTimerName, xTimerPeriodInTicks, uxAutoReload, pvTimerID, pxCallbackFunc
 341:Middlewares/Third_Party/FreeRTOS/Source/timers.c **** 		}
 342:Middlewares/Third_Party/FreeRTOS/Source/timers.c **** 
 343:Middlewares/Third_Party/FreeRTOS/Source/timers.c **** 		return pxNewTimer;
 344:Middlewares/Third_Party/FreeRTOS/Source/timers.c **** 	}
 345:Middlewares/Third_Party/FreeRTOS/Source/timers.c **** 
 346:Middlewares/Third_Party/FreeRTOS/Source/timers.c **** #endif /* configSUPPORT_STATIC_ALLOCATION */
 347:Middlewares/Third_Party/FreeRTOS/Source/timers.c **** /*-----------------------------------------------------------*/
 348:Middlewares/Third_Party/FreeRTOS/Source/timers.c **** 
 349:Middlewares/Third_Party/FreeRTOS/Source/timers.c **** static void prvInitialiseNewTimer(	const char * const pcTimerName,			/*lint !e971 Unqualified char 
 350:Middlewares/Third_Party/FreeRTOS/Source/timers.c **** 									const TickType_t xTimerPeriodInTicks,
 351:Middlewares/Third_Party/FreeRTOS/Source/timers.c **** 									const UBaseType_t uxAutoReload,
 352:Middlewares/Third_Party/FreeRTOS/Source/timers.c **** 									void * const pvTimerID,
 353:Middlewares/Third_Party/FreeRTOS/Source/timers.c **** 									TimerCallbackFunction_t pxCallbackFunction,
 354:Middlewares/Third_Party/FreeRTOS/Source/timers.c **** 									Timer_t *pxNewTimer )
 355:Middlewares/Third_Party/FreeRTOS/Source/timers.c **** {
 356:Middlewares/Third_Party/FreeRTOS/Source/timers.c **** 	/* 0 is not a valid value for xTimerPeriodInTicks. */
 357:Middlewares/Third_Party/FreeRTOS/Source/timers.c **** 	configASSERT( ( xTimerPeriodInTicks > 0 ) );
 358:Middlewares/Third_Party/FreeRTOS/Source/timers.c **** 
 359:Middlewares/Third_Party/FreeRTOS/Source/timers.c **** 	if( pxNewTimer != NULL )
 360:Middlewares/Third_Party/FreeRTOS/Source/timers.c **** 	{
 361:Middlewares/Third_Party/FreeRTOS/Source/timers.c **** 		/* Ensure the infrastructure used by the timer service task has been
 362:Middlewares/Third_Party/FreeRTOS/Source/timers.c **** 		created/initialised. */
 363:Middlewares/Third_Party/FreeRTOS/Source/timers.c **** 		prvCheckForValidListAndQueue();
 364:Middlewares/Third_Party/FreeRTOS/Source/timers.c **** 
 365:Middlewares/Third_Party/FreeRTOS/Source/timers.c **** 		/* Initialise the timer structure members using the function
 366:Middlewares/Third_Party/FreeRTOS/Source/timers.c **** 		parameters. */
 367:Middlewares/Third_Party/FreeRTOS/Source/timers.c **** 		pxNewTimer->pcTimerName = pcTimerName;
 368:Middlewares/Third_Party/FreeRTOS/Source/timers.c **** 		pxNewTimer->xTimerPeriodInTicks = xTimerPeriodInTicks;
 369:Middlewares/Third_Party/FreeRTOS/Source/timers.c **** 		pxNewTimer->pvTimerID = pvTimerID;
 370:Middlewares/Third_Party/FreeRTOS/Source/timers.c **** 		pxNewTimer->pxCallbackFunction = pxCallbackFunction;
 371:Middlewares/Third_Party/FreeRTOS/Source/timers.c **** 		vListInitialiseItem( &( pxNewTimer->xTimerListItem ) );
 372:Middlewares/Third_Party/FreeRTOS/Source/timers.c **** 		if( uxAutoReload != pdFALSE )
 373:Middlewares/Third_Party/FreeRTOS/Source/timers.c **** 		{
 374:Middlewares/Third_Party/FreeRTOS/Source/timers.c **** 			pxNewTimer->ucStatus |= tmrSTATUS_IS_AUTORELOAD;
ARM GAS  /tmp/ccYeCTy1.s 			page 8


 375:Middlewares/Third_Party/FreeRTOS/Source/timers.c **** 		}
 376:Middlewares/Third_Party/FreeRTOS/Source/timers.c **** 		traceTIMER_CREATE( pxNewTimer );
 377:Middlewares/Third_Party/FreeRTOS/Source/timers.c **** 	}
 378:Middlewares/Third_Party/FreeRTOS/Source/timers.c **** }
 379:Middlewares/Third_Party/FreeRTOS/Source/timers.c **** /*-----------------------------------------------------------*/
 380:Middlewares/Third_Party/FreeRTOS/Source/timers.c **** 
 381:Middlewares/Third_Party/FreeRTOS/Source/timers.c **** BaseType_t xTimerGenericCommand( TimerHandle_t xTimer, const BaseType_t xCommandID, const TickType_
 382:Middlewares/Third_Party/FreeRTOS/Source/timers.c **** {
 383:Middlewares/Third_Party/FreeRTOS/Source/timers.c **** BaseType_t xReturn = pdFAIL;
 384:Middlewares/Third_Party/FreeRTOS/Source/timers.c **** DaemonTaskMessage_t xMessage;
 385:Middlewares/Third_Party/FreeRTOS/Source/timers.c **** 
 386:Middlewares/Third_Party/FreeRTOS/Source/timers.c **** 	configASSERT( xTimer );
 387:Middlewares/Third_Party/FreeRTOS/Source/timers.c **** 
 388:Middlewares/Third_Party/FreeRTOS/Source/timers.c **** 	/* Send a message to the timer service task to perform a particular action
 389:Middlewares/Third_Party/FreeRTOS/Source/timers.c **** 	on a particular timer definition. */
 390:Middlewares/Third_Party/FreeRTOS/Source/timers.c **** 	if( xTimerQueue != NULL )
 391:Middlewares/Third_Party/FreeRTOS/Source/timers.c **** 	{
 392:Middlewares/Third_Party/FreeRTOS/Source/timers.c **** 		/* Send a command to the timer service task to start the xTimer timer. */
 393:Middlewares/Third_Party/FreeRTOS/Source/timers.c **** 		xMessage.xMessageID = xCommandID;
 394:Middlewares/Third_Party/FreeRTOS/Source/timers.c **** 		xMessage.u.xTimerParameters.xMessageValue = xOptionalValue;
 395:Middlewares/Third_Party/FreeRTOS/Source/timers.c **** 		xMessage.u.xTimerParameters.pxTimer = xTimer;
 396:Middlewares/Third_Party/FreeRTOS/Source/timers.c **** 
 397:Middlewares/Third_Party/FreeRTOS/Source/timers.c **** 		if( xCommandID < tmrFIRST_FROM_ISR_COMMAND )
 398:Middlewares/Third_Party/FreeRTOS/Source/timers.c **** 		{
 399:Middlewares/Third_Party/FreeRTOS/Source/timers.c **** 			if( xTaskGetSchedulerState() == taskSCHEDULER_RUNNING )
 400:Middlewares/Third_Party/FreeRTOS/Source/timers.c **** 			{
 401:Middlewares/Third_Party/FreeRTOS/Source/timers.c **** 				xReturn = xQueueSendToBack( xTimerQueue, &xMessage, xTicksToWait );
 402:Middlewares/Third_Party/FreeRTOS/Source/timers.c **** 			}
 403:Middlewares/Third_Party/FreeRTOS/Source/timers.c **** 			else
 404:Middlewares/Third_Party/FreeRTOS/Source/timers.c **** 			{
 405:Middlewares/Third_Party/FreeRTOS/Source/timers.c **** 				xReturn = xQueueSendToBack( xTimerQueue, &xMessage, tmrNO_DELAY );
 406:Middlewares/Third_Party/FreeRTOS/Source/timers.c **** 			}
 407:Middlewares/Third_Party/FreeRTOS/Source/timers.c **** 		}
 408:Middlewares/Third_Party/FreeRTOS/Source/timers.c **** 		else
 409:Middlewares/Third_Party/FreeRTOS/Source/timers.c **** 		{
 410:Middlewares/Third_Party/FreeRTOS/Source/timers.c **** 			xReturn = xQueueSendToBackFromISR( xTimerQueue, &xMessage, pxHigherPriorityTaskWoken );
 411:Middlewares/Third_Party/FreeRTOS/Source/timers.c **** 		}
 412:Middlewares/Third_Party/FreeRTOS/Source/timers.c **** 
 413:Middlewares/Third_Party/FreeRTOS/Source/timers.c **** 		traceTIMER_COMMAND_SEND( xTimer, xCommandID, xOptionalValue, xReturn );
 414:Middlewares/Third_Party/FreeRTOS/Source/timers.c **** 	}
 415:Middlewares/Third_Party/FreeRTOS/Source/timers.c **** 	else
 416:Middlewares/Third_Party/FreeRTOS/Source/timers.c **** 	{
 417:Middlewares/Third_Party/FreeRTOS/Source/timers.c **** 		mtCOVERAGE_TEST_MARKER();
 418:Middlewares/Third_Party/FreeRTOS/Source/timers.c **** 	}
 419:Middlewares/Third_Party/FreeRTOS/Source/timers.c **** 
 420:Middlewares/Third_Party/FreeRTOS/Source/timers.c **** 	return xReturn;
 421:Middlewares/Third_Party/FreeRTOS/Source/timers.c **** }
 422:Middlewares/Third_Party/FreeRTOS/Source/timers.c **** /*-----------------------------------------------------------*/
 423:Middlewares/Third_Party/FreeRTOS/Source/timers.c **** 
 424:Middlewares/Third_Party/FreeRTOS/Source/timers.c **** TaskHandle_t xTimerGetTimerDaemonTaskHandle( void )
 425:Middlewares/Third_Party/FreeRTOS/Source/timers.c **** {
 426:Middlewares/Third_Party/FreeRTOS/Source/timers.c **** 	/* If xTimerGetTimerDaemonTaskHandle() is called before the scheduler has been
 427:Middlewares/Third_Party/FreeRTOS/Source/timers.c **** 	started, then xTimerTaskHandle will be NULL. */
 428:Middlewares/Third_Party/FreeRTOS/Source/timers.c **** 	configASSERT( ( xTimerTaskHandle != NULL ) );
 429:Middlewares/Third_Party/FreeRTOS/Source/timers.c **** 	return xTimerTaskHandle;
 430:Middlewares/Third_Party/FreeRTOS/Source/timers.c **** }
 431:Middlewares/Third_Party/FreeRTOS/Source/timers.c **** /*-----------------------------------------------------------*/
ARM GAS  /tmp/ccYeCTy1.s 			page 9


 432:Middlewares/Third_Party/FreeRTOS/Source/timers.c **** 
 433:Middlewares/Third_Party/FreeRTOS/Source/timers.c **** TickType_t xTimerGetPeriod( TimerHandle_t xTimer )
 434:Middlewares/Third_Party/FreeRTOS/Source/timers.c **** {
 435:Middlewares/Third_Party/FreeRTOS/Source/timers.c **** Timer_t *pxTimer = xTimer;
 436:Middlewares/Third_Party/FreeRTOS/Source/timers.c **** 
 437:Middlewares/Third_Party/FreeRTOS/Source/timers.c **** 	configASSERT( xTimer );
 438:Middlewares/Third_Party/FreeRTOS/Source/timers.c **** 	return pxTimer->xTimerPeriodInTicks;
 439:Middlewares/Third_Party/FreeRTOS/Source/timers.c **** }
 440:Middlewares/Third_Party/FreeRTOS/Source/timers.c **** /*-----------------------------------------------------------*/
 441:Middlewares/Third_Party/FreeRTOS/Source/timers.c **** 
 442:Middlewares/Third_Party/FreeRTOS/Source/timers.c **** void vTimerSetReloadMode( TimerHandle_t xTimer, const UBaseType_t uxAutoReload )
 443:Middlewares/Third_Party/FreeRTOS/Source/timers.c **** {
 444:Middlewares/Third_Party/FreeRTOS/Source/timers.c **** Timer_t * pxTimer =  xTimer;
 445:Middlewares/Third_Party/FreeRTOS/Source/timers.c **** 
 446:Middlewares/Third_Party/FreeRTOS/Source/timers.c **** 	configASSERT( xTimer );
 447:Middlewares/Third_Party/FreeRTOS/Source/timers.c **** 	taskENTER_CRITICAL();
 448:Middlewares/Third_Party/FreeRTOS/Source/timers.c **** 	{
 449:Middlewares/Third_Party/FreeRTOS/Source/timers.c **** 		if( uxAutoReload != pdFALSE )
 450:Middlewares/Third_Party/FreeRTOS/Source/timers.c **** 		{
 451:Middlewares/Third_Party/FreeRTOS/Source/timers.c **** 			pxTimer->ucStatus |= tmrSTATUS_IS_AUTORELOAD;
 452:Middlewares/Third_Party/FreeRTOS/Source/timers.c **** 		}
 453:Middlewares/Third_Party/FreeRTOS/Source/timers.c **** 		else
 454:Middlewares/Third_Party/FreeRTOS/Source/timers.c **** 		{
 455:Middlewares/Third_Party/FreeRTOS/Source/timers.c **** 			pxTimer->ucStatus &= ~tmrSTATUS_IS_AUTORELOAD;
 456:Middlewares/Third_Party/FreeRTOS/Source/timers.c **** 		}
 457:Middlewares/Third_Party/FreeRTOS/Source/timers.c **** 	}
 458:Middlewares/Third_Party/FreeRTOS/Source/timers.c **** 	taskEXIT_CRITICAL();
 459:Middlewares/Third_Party/FreeRTOS/Source/timers.c **** }
 460:Middlewares/Third_Party/FreeRTOS/Source/timers.c **** /*-----------------------------------------------------------*/
 461:Middlewares/Third_Party/FreeRTOS/Source/timers.c **** 
 462:Middlewares/Third_Party/FreeRTOS/Source/timers.c **** UBaseType_t uxTimerGetReloadMode( TimerHandle_t xTimer )
 463:Middlewares/Third_Party/FreeRTOS/Source/timers.c **** {
 464:Middlewares/Third_Party/FreeRTOS/Source/timers.c **** Timer_t * pxTimer =  xTimer;
 465:Middlewares/Third_Party/FreeRTOS/Source/timers.c **** UBaseType_t uxReturn;
 466:Middlewares/Third_Party/FreeRTOS/Source/timers.c **** 
 467:Middlewares/Third_Party/FreeRTOS/Source/timers.c **** 	configASSERT( xTimer );
 468:Middlewares/Third_Party/FreeRTOS/Source/timers.c **** 	taskENTER_CRITICAL();
 469:Middlewares/Third_Party/FreeRTOS/Source/timers.c **** 	{
 470:Middlewares/Third_Party/FreeRTOS/Source/timers.c **** 		if( ( pxTimer->ucStatus & tmrSTATUS_IS_AUTORELOAD ) == 0 )
 471:Middlewares/Third_Party/FreeRTOS/Source/timers.c **** 		{
 472:Middlewares/Third_Party/FreeRTOS/Source/timers.c **** 			/* Not an auto-reload timer. */
 473:Middlewares/Third_Party/FreeRTOS/Source/timers.c **** 			uxReturn = ( UBaseType_t ) pdFALSE;
 474:Middlewares/Third_Party/FreeRTOS/Source/timers.c **** 		}
 475:Middlewares/Third_Party/FreeRTOS/Source/timers.c **** 		else
 476:Middlewares/Third_Party/FreeRTOS/Source/timers.c **** 		{
 477:Middlewares/Third_Party/FreeRTOS/Source/timers.c **** 			/* Is an auto-reload timer. */
 478:Middlewares/Third_Party/FreeRTOS/Source/timers.c **** 			uxReturn = ( UBaseType_t ) pdTRUE;
 479:Middlewares/Third_Party/FreeRTOS/Source/timers.c **** 		}
 480:Middlewares/Third_Party/FreeRTOS/Source/timers.c **** 	}
 481:Middlewares/Third_Party/FreeRTOS/Source/timers.c **** 	taskEXIT_CRITICAL();
 482:Middlewares/Third_Party/FreeRTOS/Source/timers.c **** 
 483:Middlewares/Third_Party/FreeRTOS/Source/timers.c **** 	return uxReturn;
 484:Middlewares/Third_Party/FreeRTOS/Source/timers.c **** }
 485:Middlewares/Third_Party/FreeRTOS/Source/timers.c **** /*-----------------------------------------------------------*/
 486:Middlewares/Third_Party/FreeRTOS/Source/timers.c **** 
 487:Middlewares/Third_Party/FreeRTOS/Source/timers.c **** TickType_t xTimerGetExpiryTime( TimerHandle_t xTimer )
 488:Middlewares/Third_Party/FreeRTOS/Source/timers.c **** {
ARM GAS  /tmp/ccYeCTy1.s 			page 10


 489:Middlewares/Third_Party/FreeRTOS/Source/timers.c **** Timer_t * pxTimer =  xTimer;
 490:Middlewares/Third_Party/FreeRTOS/Source/timers.c **** TickType_t xReturn;
 491:Middlewares/Third_Party/FreeRTOS/Source/timers.c **** 
 492:Middlewares/Third_Party/FreeRTOS/Source/timers.c **** 	configASSERT( xTimer );
 493:Middlewares/Third_Party/FreeRTOS/Source/timers.c **** 	xReturn = listGET_LIST_ITEM_VALUE( &( pxTimer->xTimerListItem ) );
 494:Middlewares/Third_Party/FreeRTOS/Source/timers.c **** 	return xReturn;
 495:Middlewares/Third_Party/FreeRTOS/Source/timers.c **** }
 496:Middlewares/Third_Party/FreeRTOS/Source/timers.c **** /*-----------------------------------------------------------*/
 497:Middlewares/Third_Party/FreeRTOS/Source/timers.c **** 
 498:Middlewares/Third_Party/FreeRTOS/Source/timers.c **** const char * pcTimerGetName( TimerHandle_t xTimer ) /*lint !e971 Unqualified char types are allowed
 499:Middlewares/Third_Party/FreeRTOS/Source/timers.c **** {
 500:Middlewares/Third_Party/FreeRTOS/Source/timers.c **** Timer_t *pxTimer = xTimer;
 501:Middlewares/Third_Party/FreeRTOS/Source/timers.c **** 
 502:Middlewares/Third_Party/FreeRTOS/Source/timers.c **** 	configASSERT( xTimer );
 503:Middlewares/Third_Party/FreeRTOS/Source/timers.c **** 	return pxTimer->pcTimerName;
 504:Middlewares/Third_Party/FreeRTOS/Source/timers.c **** }
 505:Middlewares/Third_Party/FreeRTOS/Source/timers.c **** /*-----------------------------------------------------------*/
 506:Middlewares/Third_Party/FreeRTOS/Source/timers.c **** 
 507:Middlewares/Third_Party/FreeRTOS/Source/timers.c **** static void prvProcessExpiredTimer( const TickType_t xNextExpireTime, const TickType_t xTimeNow )
 508:Middlewares/Third_Party/FreeRTOS/Source/timers.c **** {
 509:Middlewares/Third_Party/FreeRTOS/Source/timers.c **** BaseType_t xResult;
 510:Middlewares/Third_Party/FreeRTOS/Source/timers.c **** Timer_t * const pxTimer = ( Timer_t * ) listGET_OWNER_OF_HEAD_ENTRY( pxCurrentTimerList ); /*lint !
 511:Middlewares/Third_Party/FreeRTOS/Source/timers.c **** 
 512:Middlewares/Third_Party/FreeRTOS/Source/timers.c **** 	/* Remove the timer from the list of active timers.  A check has already
 513:Middlewares/Third_Party/FreeRTOS/Source/timers.c **** 	been performed to ensure the list is not empty. */
 514:Middlewares/Third_Party/FreeRTOS/Source/timers.c **** 	( void ) uxListRemove( &( pxTimer->xTimerListItem ) );
 515:Middlewares/Third_Party/FreeRTOS/Source/timers.c **** 	traceTIMER_EXPIRED( pxTimer );
 516:Middlewares/Third_Party/FreeRTOS/Source/timers.c **** 
 517:Middlewares/Third_Party/FreeRTOS/Source/timers.c **** 	/* If the timer is an auto-reload timer then calculate the next
 518:Middlewares/Third_Party/FreeRTOS/Source/timers.c **** 	expiry time and re-insert the timer in the list of active timers. */
 519:Middlewares/Third_Party/FreeRTOS/Source/timers.c **** 	if( ( pxTimer->ucStatus & tmrSTATUS_IS_AUTORELOAD ) != 0 )
 520:Middlewares/Third_Party/FreeRTOS/Source/timers.c **** 	{
 521:Middlewares/Third_Party/FreeRTOS/Source/timers.c **** 		/* The timer is inserted into a list using a time relative to anything
 522:Middlewares/Third_Party/FreeRTOS/Source/timers.c **** 		other than the current time.  It will therefore be inserted into the
 523:Middlewares/Third_Party/FreeRTOS/Source/timers.c **** 		correct list relative to the time this task thinks it is now. */
 524:Middlewares/Third_Party/FreeRTOS/Source/timers.c **** 		if( prvInsertTimerInActiveList( pxTimer, ( xNextExpireTime + pxTimer->xTimerPeriodInTicks ), xTim
 525:Middlewares/Third_Party/FreeRTOS/Source/timers.c **** 		{
 526:Middlewares/Third_Party/FreeRTOS/Source/timers.c **** 			/* The timer expired before it was added to the active timer
 527:Middlewares/Third_Party/FreeRTOS/Source/timers.c **** 			list.  Reload it now.  */
 528:Middlewares/Third_Party/FreeRTOS/Source/timers.c **** 			xResult = xTimerGenericCommand( pxTimer, tmrCOMMAND_START_DONT_TRACE, xNextExpireTime, NULL, tmr
 529:Middlewares/Third_Party/FreeRTOS/Source/timers.c **** 			configASSERT( xResult );
 530:Middlewares/Third_Party/FreeRTOS/Source/timers.c **** 			( void ) xResult;
 531:Middlewares/Third_Party/FreeRTOS/Source/timers.c **** 		}
 532:Middlewares/Third_Party/FreeRTOS/Source/timers.c **** 		else
 533:Middlewares/Third_Party/FreeRTOS/Source/timers.c **** 		{
 534:Middlewares/Third_Party/FreeRTOS/Source/timers.c **** 			mtCOVERAGE_TEST_MARKER();
 535:Middlewares/Third_Party/FreeRTOS/Source/timers.c **** 		}
 536:Middlewares/Third_Party/FreeRTOS/Source/timers.c **** 	}
 537:Middlewares/Third_Party/FreeRTOS/Source/timers.c **** 	else
 538:Middlewares/Third_Party/FreeRTOS/Source/timers.c **** 	{
 539:Middlewares/Third_Party/FreeRTOS/Source/timers.c **** 		pxTimer->ucStatus &= ~tmrSTATUS_IS_ACTIVE;
 540:Middlewares/Third_Party/FreeRTOS/Source/timers.c **** 		mtCOVERAGE_TEST_MARKER();
 541:Middlewares/Third_Party/FreeRTOS/Source/timers.c **** 	}
 542:Middlewares/Third_Party/FreeRTOS/Source/timers.c **** 
 543:Middlewares/Third_Party/FreeRTOS/Source/timers.c **** 	/* Call the timer callback. */
 544:Middlewares/Third_Party/FreeRTOS/Source/timers.c **** 	pxTimer->pxCallbackFunction( ( TimerHandle_t ) pxTimer );
 545:Middlewares/Third_Party/FreeRTOS/Source/timers.c **** }
ARM GAS  /tmp/ccYeCTy1.s 			page 11


 546:Middlewares/Third_Party/FreeRTOS/Source/timers.c **** /*-----------------------------------------------------------*/
 547:Middlewares/Third_Party/FreeRTOS/Source/timers.c **** 
 548:Middlewares/Third_Party/FreeRTOS/Source/timers.c **** static portTASK_FUNCTION( prvTimerTask, pvParameters )
 549:Middlewares/Third_Party/FreeRTOS/Source/timers.c **** {
 550:Middlewares/Third_Party/FreeRTOS/Source/timers.c **** TickType_t xNextExpireTime;
 551:Middlewares/Third_Party/FreeRTOS/Source/timers.c **** BaseType_t xListWasEmpty;
 552:Middlewares/Third_Party/FreeRTOS/Source/timers.c **** 
 553:Middlewares/Third_Party/FreeRTOS/Source/timers.c **** 	/* Just to avoid compiler warnings. */
 554:Middlewares/Third_Party/FreeRTOS/Source/timers.c **** 	( void ) pvParameters;
 555:Middlewares/Third_Party/FreeRTOS/Source/timers.c **** 
 556:Middlewares/Third_Party/FreeRTOS/Source/timers.c **** 	#if( configUSE_DAEMON_TASK_STARTUP_HOOK == 1 )
 557:Middlewares/Third_Party/FreeRTOS/Source/timers.c **** 	{
 558:Middlewares/Third_Party/FreeRTOS/Source/timers.c **** 		extern void vApplicationDaemonTaskStartupHook( void );
 559:Middlewares/Third_Party/FreeRTOS/Source/timers.c **** 
 560:Middlewares/Third_Party/FreeRTOS/Source/timers.c **** 		/* Allow the application writer to execute some code in the context of
 561:Middlewares/Third_Party/FreeRTOS/Source/timers.c **** 		this task at the point the task starts executing.  This is useful if the
 562:Middlewares/Third_Party/FreeRTOS/Source/timers.c **** 		application includes initialisation code that would benefit from
 563:Middlewares/Third_Party/FreeRTOS/Source/timers.c **** 		executing after the scheduler has been started. */
 564:Middlewares/Third_Party/FreeRTOS/Source/timers.c **** 		vApplicationDaemonTaskStartupHook();
 565:Middlewares/Third_Party/FreeRTOS/Source/timers.c **** 	}
 566:Middlewares/Third_Party/FreeRTOS/Source/timers.c **** 	#endif /* configUSE_DAEMON_TASK_STARTUP_HOOK */
 567:Middlewares/Third_Party/FreeRTOS/Source/timers.c **** 
 568:Middlewares/Third_Party/FreeRTOS/Source/timers.c **** 	for( ;; )
 569:Middlewares/Third_Party/FreeRTOS/Source/timers.c **** 	{
 570:Middlewares/Third_Party/FreeRTOS/Source/timers.c **** 		/* Query the timers list to see if it contains any timers, and if so,
 571:Middlewares/Third_Party/FreeRTOS/Source/timers.c **** 		obtain the time at which the next timer will expire. */
 572:Middlewares/Third_Party/FreeRTOS/Source/timers.c **** 		xNextExpireTime = prvGetNextExpireTime( &xListWasEmpty );
 573:Middlewares/Third_Party/FreeRTOS/Source/timers.c **** 
 574:Middlewares/Third_Party/FreeRTOS/Source/timers.c **** 		/* If a timer has expired, process it.  Otherwise, block this task
 575:Middlewares/Third_Party/FreeRTOS/Source/timers.c **** 		until either a timer does expire, or a command is received. */
 576:Middlewares/Third_Party/FreeRTOS/Source/timers.c **** 		prvProcessTimerOrBlockTask( xNextExpireTime, xListWasEmpty );
 577:Middlewares/Third_Party/FreeRTOS/Source/timers.c **** 
 578:Middlewares/Third_Party/FreeRTOS/Source/timers.c **** 		/* Empty the command queue. */
 579:Middlewares/Third_Party/FreeRTOS/Source/timers.c **** 		prvProcessReceivedCommands();
 580:Middlewares/Third_Party/FreeRTOS/Source/timers.c **** 	}
 581:Middlewares/Third_Party/FreeRTOS/Source/timers.c **** }
 582:Middlewares/Third_Party/FreeRTOS/Source/timers.c **** /*-----------------------------------------------------------*/
 583:Middlewares/Third_Party/FreeRTOS/Source/timers.c **** 
 584:Middlewares/Third_Party/FreeRTOS/Source/timers.c **** static void prvProcessTimerOrBlockTask( const TickType_t xNextExpireTime, BaseType_t xListWasEmpty 
 585:Middlewares/Third_Party/FreeRTOS/Source/timers.c **** {
 586:Middlewares/Third_Party/FreeRTOS/Source/timers.c **** TickType_t xTimeNow;
 587:Middlewares/Third_Party/FreeRTOS/Source/timers.c **** BaseType_t xTimerListsWereSwitched;
 588:Middlewares/Third_Party/FreeRTOS/Source/timers.c **** 
 589:Middlewares/Third_Party/FreeRTOS/Source/timers.c **** 	vTaskSuspendAll();
 590:Middlewares/Third_Party/FreeRTOS/Source/timers.c **** 	{
 591:Middlewares/Third_Party/FreeRTOS/Source/timers.c **** 		/* Obtain the time now to make an assessment as to whether the timer
 592:Middlewares/Third_Party/FreeRTOS/Source/timers.c **** 		has expired or not.  If obtaining the time causes the lists to switch
 593:Middlewares/Third_Party/FreeRTOS/Source/timers.c **** 		then don't process this timer as any timers that remained in the list
 594:Middlewares/Third_Party/FreeRTOS/Source/timers.c **** 		when the lists were switched will have been processed within the
 595:Middlewares/Third_Party/FreeRTOS/Source/timers.c **** 		prvSampleTimeNow() function. */
 596:Middlewares/Third_Party/FreeRTOS/Source/timers.c **** 		xTimeNow = prvSampleTimeNow( &xTimerListsWereSwitched );
 597:Middlewares/Third_Party/FreeRTOS/Source/timers.c **** 		if( xTimerListsWereSwitched == pdFALSE )
 598:Middlewares/Third_Party/FreeRTOS/Source/timers.c **** 		{
 599:Middlewares/Third_Party/FreeRTOS/Source/timers.c **** 			/* The tick count has not overflowed, has the timer expired? */
 600:Middlewares/Third_Party/FreeRTOS/Source/timers.c **** 			if( ( xListWasEmpty == pdFALSE ) && ( xNextExpireTime <= xTimeNow ) )
 601:Middlewares/Third_Party/FreeRTOS/Source/timers.c **** 			{
 602:Middlewares/Third_Party/FreeRTOS/Source/timers.c **** 				( void ) xTaskResumeAll();
ARM GAS  /tmp/ccYeCTy1.s 			page 12


 603:Middlewares/Third_Party/FreeRTOS/Source/timers.c **** 				prvProcessExpiredTimer( xNextExpireTime, xTimeNow );
 604:Middlewares/Third_Party/FreeRTOS/Source/timers.c **** 			}
 605:Middlewares/Third_Party/FreeRTOS/Source/timers.c **** 			else
 606:Middlewares/Third_Party/FreeRTOS/Source/timers.c **** 			{
 607:Middlewares/Third_Party/FreeRTOS/Source/timers.c **** 				/* The tick count has not overflowed, and the next expire
 608:Middlewares/Third_Party/FreeRTOS/Source/timers.c **** 				time has not been reached yet.  This task should therefore
 609:Middlewares/Third_Party/FreeRTOS/Source/timers.c **** 				block to wait for the next expire time or a command to be
 610:Middlewares/Third_Party/FreeRTOS/Source/timers.c **** 				received - whichever comes first.  The following line cannot
 611:Middlewares/Third_Party/FreeRTOS/Source/timers.c **** 				be reached unless xNextExpireTime > xTimeNow, except in the
 612:Middlewares/Third_Party/FreeRTOS/Source/timers.c **** 				case when the current timer list is empty. */
 613:Middlewares/Third_Party/FreeRTOS/Source/timers.c **** 				if( xListWasEmpty != pdFALSE )
 614:Middlewares/Third_Party/FreeRTOS/Source/timers.c **** 				{
 615:Middlewares/Third_Party/FreeRTOS/Source/timers.c **** 					/* The current timer list is empty - is the overflow list
 616:Middlewares/Third_Party/FreeRTOS/Source/timers.c **** 					also empty? */
 617:Middlewares/Third_Party/FreeRTOS/Source/timers.c **** 					xListWasEmpty = listLIST_IS_EMPTY( pxOverflowTimerList );
 618:Middlewares/Third_Party/FreeRTOS/Source/timers.c **** 				}
 619:Middlewares/Third_Party/FreeRTOS/Source/timers.c **** 
 620:Middlewares/Third_Party/FreeRTOS/Source/timers.c **** 				vQueueWaitForMessageRestricted( xTimerQueue, ( xNextExpireTime - xTimeNow ), xListWasEmpty );
 621:Middlewares/Third_Party/FreeRTOS/Source/timers.c **** 
 622:Middlewares/Third_Party/FreeRTOS/Source/timers.c **** 				if( xTaskResumeAll() == pdFALSE )
 623:Middlewares/Third_Party/FreeRTOS/Source/timers.c **** 				{
 624:Middlewares/Third_Party/FreeRTOS/Source/timers.c **** 					/* Yield to wait for either a command to arrive, or the
 625:Middlewares/Third_Party/FreeRTOS/Source/timers.c **** 					block time to expire.  If a command arrived between the
 626:Middlewares/Third_Party/FreeRTOS/Source/timers.c **** 					critical section being exited and this yield then the yield
 627:Middlewares/Third_Party/FreeRTOS/Source/timers.c **** 					will not cause the task to block. */
 628:Middlewares/Third_Party/FreeRTOS/Source/timers.c **** 					portYIELD_WITHIN_API();
 629:Middlewares/Third_Party/FreeRTOS/Source/timers.c **** 				}
 630:Middlewares/Third_Party/FreeRTOS/Source/timers.c **** 				else
 631:Middlewares/Third_Party/FreeRTOS/Source/timers.c **** 				{
 632:Middlewares/Third_Party/FreeRTOS/Source/timers.c **** 					mtCOVERAGE_TEST_MARKER();
 633:Middlewares/Third_Party/FreeRTOS/Source/timers.c **** 				}
 634:Middlewares/Third_Party/FreeRTOS/Source/timers.c **** 			}
 635:Middlewares/Third_Party/FreeRTOS/Source/timers.c **** 		}
 636:Middlewares/Third_Party/FreeRTOS/Source/timers.c **** 		else
 637:Middlewares/Third_Party/FreeRTOS/Source/timers.c **** 		{
 638:Middlewares/Third_Party/FreeRTOS/Source/timers.c **** 			( void ) xTaskResumeAll();
 639:Middlewares/Third_Party/FreeRTOS/Source/timers.c **** 		}
 640:Middlewares/Third_Party/FreeRTOS/Source/timers.c **** 	}
 641:Middlewares/Third_Party/FreeRTOS/Source/timers.c **** }
 642:Middlewares/Third_Party/FreeRTOS/Source/timers.c **** /*-----------------------------------------------------------*/
 643:Middlewares/Third_Party/FreeRTOS/Source/timers.c **** 
 644:Middlewares/Third_Party/FreeRTOS/Source/timers.c **** static TickType_t prvGetNextExpireTime( BaseType_t * const pxListWasEmpty )
 645:Middlewares/Third_Party/FreeRTOS/Source/timers.c **** {
  27              		.loc 1 645 1 view -0
  28              		.cfi_startproc
  29              		@ args = 0, pretend = 0, frame = 0
  30              		@ frame_needed = 0, uses_anonymous_args = 0
  31              		@ link register save eliminated.
 646:Middlewares/Third_Party/FreeRTOS/Source/timers.c **** TickType_t xNextExpireTime;
  32              		.loc 1 646 1 view .LVU1
 647:Middlewares/Third_Party/FreeRTOS/Source/timers.c **** 
 648:Middlewares/Third_Party/FreeRTOS/Source/timers.c **** 	/* Timers are listed in expiry time order, with the head of the list
 649:Middlewares/Third_Party/FreeRTOS/Source/timers.c **** 	referencing the task that will expire first.  Obtain the time at which
 650:Middlewares/Third_Party/FreeRTOS/Source/timers.c **** 	the timer with the nearest expiry time will expire.  If there are no
 651:Middlewares/Third_Party/FreeRTOS/Source/timers.c **** 	active timers then just set the next expire time to 0.  That will cause
 652:Middlewares/Third_Party/FreeRTOS/Source/timers.c **** 	this task to unblock when the tick count overflows, at which point the
 653:Middlewares/Third_Party/FreeRTOS/Source/timers.c **** 	timer lists will be switched and the next expiry time can be
ARM GAS  /tmp/ccYeCTy1.s 			page 13


 654:Middlewares/Third_Party/FreeRTOS/Source/timers.c **** 	re-assessed.  */
 655:Middlewares/Third_Party/FreeRTOS/Source/timers.c **** 	*pxListWasEmpty = listLIST_IS_EMPTY( pxCurrentTimerList );
  33              		.loc 1 655 2 view .LVU2
  34              		.loc 1 655 20 is_stmt 0 view .LVU3
  35 0000 074B     		ldr	r3, .L6
  36 0002 1A68     		ldr	r2, [r3]
  37 0004 1368     		ldr	r3, [r2]
  38 0006 002B     		cmp	r3, #0
  39 0008 06D1     		bne	.L4
  40              		.loc 1 655 20 discriminator 1 view .LVU4
  41 000a 0133     		adds	r3, r3, #1
  42              	.L2:
  43              		.loc 1 655 18 discriminator 4 view .LVU5
  44 000c 0360     		str	r3, [r0]
 656:Middlewares/Third_Party/FreeRTOS/Source/timers.c **** 	if( *pxListWasEmpty == pdFALSE )
  45              		.loc 1 656 2 is_stmt 1 view .LVU6
  46              		.loc 1 656 4 is_stmt 0 view .LVU7
  47 000e 002B     		cmp	r3, #0
  48 0010 04D1     		bne	.L5
 657:Middlewares/Third_Party/FreeRTOS/Source/timers.c **** 	{
 658:Middlewares/Third_Party/FreeRTOS/Source/timers.c **** 		xNextExpireTime = listGET_ITEM_VALUE_OF_HEAD_ENTRY( pxCurrentTimerList );
  49              		.loc 1 658 3 is_stmt 1 view .LVU8
  50              		.loc 1 658 21 is_stmt 0 view .LVU9
  51 0012 D368     		ldr	r3, [r2, #12]
  52              		.loc 1 658 19 view .LVU10
  53 0014 1868     		ldr	r0, [r3]
  54              	.LVL1:
  55              	.L1:
 659:Middlewares/Third_Party/FreeRTOS/Source/timers.c **** 	}
 660:Middlewares/Third_Party/FreeRTOS/Source/timers.c **** 	else
 661:Middlewares/Third_Party/FreeRTOS/Source/timers.c **** 	{
 662:Middlewares/Third_Party/FreeRTOS/Source/timers.c **** 		/* Ensure the task unblocks when the tick count rolls over. */
 663:Middlewares/Third_Party/FreeRTOS/Source/timers.c **** 		xNextExpireTime = ( TickType_t ) 0U;
 664:Middlewares/Third_Party/FreeRTOS/Source/timers.c **** 	}
 665:Middlewares/Third_Party/FreeRTOS/Source/timers.c **** 
 666:Middlewares/Third_Party/FreeRTOS/Source/timers.c **** 	return xNextExpireTime;
 667:Middlewares/Third_Party/FreeRTOS/Source/timers.c **** }
  56              		.loc 1 667 1 view .LVU11
  57              		@ sp needed
  58 0016 7047     		bx	lr
  59              	.LVL2:
  60              	.L4:
 655:Middlewares/Third_Party/FreeRTOS/Source/timers.c **** 	if( *pxListWasEmpty == pdFALSE )
  61              		.loc 1 655 20 discriminator 2 view .LVU12
  62 0018 0023     		movs	r3, #0
  63 001a F7E7     		b	.L2
  64              	.L5:
 663:Middlewares/Third_Party/FreeRTOS/Source/timers.c **** 	}
  65              		.loc 1 663 19 view .LVU13
  66 001c 0020     		movs	r0, #0
  67              	.LVL3:
 666:Middlewares/Third_Party/FreeRTOS/Source/timers.c **** }
  68              		.loc 1 666 2 is_stmt 1 view .LVU14
 666:Middlewares/Third_Party/FreeRTOS/Source/timers.c **** }
  69              		.loc 1 666 9 is_stmt 0 view .LVU15
  70 001e FAE7     		b	.L1
  71              	.L7:
ARM GAS  /tmp/ccYeCTy1.s 			page 14


  72              		.align	2
  73              	.L6:
  74 0020 00000000 		.word	pxCurrentTimerList
  75              		.cfi_endproc
  76              	.LFE14:
  78              		.section	.text.prvInsertTimerInActiveList,"ax",%progbits
  79              		.align	1
  80              		.syntax unified
  81              		.code	16
  82              		.thumb_func
  84              	prvInsertTimerInActiveList:
  85              	.LVL4:
  86              	.LFB16:
 668:Middlewares/Third_Party/FreeRTOS/Source/timers.c **** /*-----------------------------------------------------------*/
 669:Middlewares/Third_Party/FreeRTOS/Source/timers.c **** 
 670:Middlewares/Third_Party/FreeRTOS/Source/timers.c **** static TickType_t prvSampleTimeNow( BaseType_t * const pxTimerListsWereSwitched )
 671:Middlewares/Third_Party/FreeRTOS/Source/timers.c **** {
 672:Middlewares/Third_Party/FreeRTOS/Source/timers.c **** TickType_t xTimeNow;
 673:Middlewares/Third_Party/FreeRTOS/Source/timers.c **** PRIVILEGED_DATA static TickType_t xLastTime = ( TickType_t ) 0U; /*lint !e956 Variable is only acce
 674:Middlewares/Third_Party/FreeRTOS/Source/timers.c **** 
 675:Middlewares/Third_Party/FreeRTOS/Source/timers.c **** 	xTimeNow = xTaskGetTickCount();
 676:Middlewares/Third_Party/FreeRTOS/Source/timers.c **** 
 677:Middlewares/Third_Party/FreeRTOS/Source/timers.c **** 	if( xTimeNow < xLastTime )
 678:Middlewares/Third_Party/FreeRTOS/Source/timers.c **** 	{
 679:Middlewares/Third_Party/FreeRTOS/Source/timers.c **** 		prvSwitchTimerLists();
 680:Middlewares/Third_Party/FreeRTOS/Source/timers.c **** 		*pxTimerListsWereSwitched = pdTRUE;
 681:Middlewares/Third_Party/FreeRTOS/Source/timers.c **** 	}
 682:Middlewares/Third_Party/FreeRTOS/Source/timers.c **** 	else
 683:Middlewares/Third_Party/FreeRTOS/Source/timers.c **** 	{
 684:Middlewares/Third_Party/FreeRTOS/Source/timers.c **** 		*pxTimerListsWereSwitched = pdFALSE;
 685:Middlewares/Third_Party/FreeRTOS/Source/timers.c **** 	}
 686:Middlewares/Third_Party/FreeRTOS/Source/timers.c **** 
 687:Middlewares/Third_Party/FreeRTOS/Source/timers.c **** 	xLastTime = xTimeNow;
 688:Middlewares/Third_Party/FreeRTOS/Source/timers.c **** 
 689:Middlewares/Third_Party/FreeRTOS/Source/timers.c **** 	return xTimeNow;
 690:Middlewares/Third_Party/FreeRTOS/Source/timers.c **** }
 691:Middlewares/Third_Party/FreeRTOS/Source/timers.c **** /*-----------------------------------------------------------*/
 692:Middlewares/Third_Party/FreeRTOS/Source/timers.c **** 
 693:Middlewares/Third_Party/FreeRTOS/Source/timers.c **** static BaseType_t prvInsertTimerInActiveList( Timer_t * const pxTimer, const TickType_t xNextExpiry
 694:Middlewares/Third_Party/FreeRTOS/Source/timers.c **** {
  87              		.loc 1 694 1 is_stmt 1 view -0
  88              		.cfi_startproc
  89              		@ args = 0, pretend = 0, frame = 0
  90              		@ frame_needed = 0, uses_anonymous_args = 0
  91              		.loc 1 694 1 is_stmt 0 view .LVU17
  92 0000 10B5     		push	{r4, lr}
  93              		.cfi_def_cfa_offset 8
  94              		.cfi_offset 4, -8
  95              		.cfi_offset 14, -4
 695:Middlewares/Third_Party/FreeRTOS/Source/timers.c **** BaseType_t xProcessTimerNow = pdFALSE;
  96              		.loc 1 695 1 is_stmt 1 view .LVU18
  97              	.LVL5:
 696:Middlewares/Third_Party/FreeRTOS/Source/timers.c **** 
 697:Middlewares/Third_Party/FreeRTOS/Source/timers.c **** 	listSET_LIST_ITEM_VALUE( &( pxTimer->xTimerListItem ), xNextExpiryTime );
  98              		.loc 1 697 2 view .LVU19
  99 0002 4160     		str	r1, [r0, #4]
 698:Middlewares/Third_Party/FreeRTOS/Source/timers.c **** 	listSET_LIST_ITEM_OWNER( &( pxTimer->xTimerListItem ), pxTimer );
ARM GAS  /tmp/ccYeCTy1.s 			page 15


 100              		.loc 1 698 2 view .LVU20
 101 0004 0061     		str	r0, [r0, #16]
 699:Middlewares/Third_Party/FreeRTOS/Source/timers.c **** 
 700:Middlewares/Third_Party/FreeRTOS/Source/timers.c **** 	if( xNextExpiryTime <= xTimeNow )
 102              		.loc 1 700 2 view .LVU21
 103              		.loc 1 700 4 is_stmt 0 view .LVU22
 104 0006 9142     		cmp	r1, r2
 105 0008 0CD8     		bhi	.L9
 701:Middlewares/Third_Party/FreeRTOS/Source/timers.c **** 	{
 702:Middlewares/Third_Party/FreeRTOS/Source/timers.c **** 		/* Has the expiry time elapsed between the command to start/reset a
 703:Middlewares/Third_Party/FreeRTOS/Source/timers.c **** 		timer was issued, and the time the command was processed? */
 704:Middlewares/Third_Party/FreeRTOS/Source/timers.c **** 		if( ( ( TickType_t ) ( xTimeNow - xCommandTime ) ) >= pxTimer->xTimerPeriodInTicks ) /*lint !e961
 106              		.loc 1 704 3 is_stmt 1 view .LVU23
 107              		.loc 1 704 35 is_stmt 0 view .LVU24
 108 000a D21A     		subs	r2, r2, r3
 109              	.LVL6:
 110              		.loc 1 704 64 view .LVU25
 111 000c 8369     		ldr	r3, [r0, #24]
 112              	.LVL7:
 113              		.loc 1 704 5 view .LVU26
 114 000e 9A42     		cmp	r2, r3
 115 0010 01D3     		bcc	.L14
 705:Middlewares/Third_Party/FreeRTOS/Source/timers.c **** 		{
 706:Middlewares/Third_Party/FreeRTOS/Source/timers.c **** 			/* The time between a command being issued and the command being
 707:Middlewares/Third_Party/FreeRTOS/Source/timers.c **** 			processed actually exceeds the timers period.  */
 708:Middlewares/Third_Party/FreeRTOS/Source/timers.c **** 			xProcessTimerNow = pdTRUE;
 116              		.loc 1 708 21 view .LVU27
 117 0012 0120     		movs	r0, #1
 118              	.LVL8:
 119              	.L8:
 709:Middlewares/Third_Party/FreeRTOS/Source/timers.c **** 		}
 710:Middlewares/Third_Party/FreeRTOS/Source/timers.c **** 		else
 711:Middlewares/Third_Party/FreeRTOS/Source/timers.c **** 		{
 712:Middlewares/Third_Party/FreeRTOS/Source/timers.c **** 			vListInsert( pxOverflowTimerList, &( pxTimer->xTimerListItem ) );
 713:Middlewares/Third_Party/FreeRTOS/Source/timers.c **** 		}
 714:Middlewares/Third_Party/FreeRTOS/Source/timers.c **** 	}
 715:Middlewares/Third_Party/FreeRTOS/Source/timers.c **** 	else
 716:Middlewares/Third_Party/FreeRTOS/Source/timers.c **** 	{
 717:Middlewares/Third_Party/FreeRTOS/Source/timers.c **** 		if( ( xTimeNow < xCommandTime ) && ( xNextExpiryTime >= xCommandTime ) )
 718:Middlewares/Third_Party/FreeRTOS/Source/timers.c **** 		{
 719:Middlewares/Third_Party/FreeRTOS/Source/timers.c **** 			/* If, since the command was issued, the tick count has overflowed
 720:Middlewares/Third_Party/FreeRTOS/Source/timers.c **** 			but the expiry time has not, then the timer must have already passed
 721:Middlewares/Third_Party/FreeRTOS/Source/timers.c **** 			its expiry time and should be processed immediately. */
 722:Middlewares/Third_Party/FreeRTOS/Source/timers.c **** 			xProcessTimerNow = pdTRUE;
 723:Middlewares/Third_Party/FreeRTOS/Source/timers.c **** 		}
 724:Middlewares/Third_Party/FreeRTOS/Source/timers.c **** 		else
 725:Middlewares/Third_Party/FreeRTOS/Source/timers.c **** 		{
 726:Middlewares/Third_Party/FreeRTOS/Source/timers.c **** 			vListInsert( pxCurrentTimerList, &( pxTimer->xTimerListItem ) );
 727:Middlewares/Third_Party/FreeRTOS/Source/timers.c **** 		}
 728:Middlewares/Third_Party/FreeRTOS/Source/timers.c **** 	}
 729:Middlewares/Third_Party/FreeRTOS/Source/timers.c **** 
 730:Middlewares/Third_Party/FreeRTOS/Source/timers.c **** 	return xProcessTimerNow;
 731:Middlewares/Third_Party/FreeRTOS/Source/timers.c **** }
 120              		.loc 1 731 1 view .LVU28
 121              		@ sp needed
 122 0014 10BD     		pop	{r4, pc}
 123              	.LVL9:
ARM GAS  /tmp/ccYeCTy1.s 			page 16


 124              	.L14:
 712:Middlewares/Third_Party/FreeRTOS/Source/timers.c **** 		}
 125              		.loc 1 712 4 is_stmt 1 view .LVU29
 126 0016 011D     		adds	r1, r0, #4
 127              	.LVL10:
 712:Middlewares/Third_Party/FreeRTOS/Source/timers.c **** 		}
 128              		.loc 1 712 4 is_stmt 0 view .LVU30
 129 0018 094B     		ldr	r3, .L15
 130 001a 1868     		ldr	r0, [r3]
 131              	.LVL11:
 712:Middlewares/Third_Party/FreeRTOS/Source/timers.c **** 		}
 132              		.loc 1 712 4 view .LVU31
 133 001c FFF7FEFF 		bl	vListInsert
 134              	.LVL12:
 695:Middlewares/Third_Party/FreeRTOS/Source/timers.c **** 
 135              		.loc 1 695 12 view .LVU32
 136 0020 0020     		movs	r0, #0
 137 0022 F7E7     		b	.L8
 138              	.LVL13:
 139              	.L9:
 717:Middlewares/Third_Party/FreeRTOS/Source/timers.c **** 		{
 140              		.loc 1 717 3 is_stmt 1 view .LVU33
 717:Middlewares/Third_Party/FreeRTOS/Source/timers.c **** 		{
 141              		.loc 1 717 5 is_stmt 0 view .LVU34
 142 0024 9A42     		cmp	r2, r3
 143 0026 01D2     		bcs	.L11
 717:Middlewares/Third_Party/FreeRTOS/Source/timers.c **** 		{
 144              		.loc 1 717 35 discriminator 1 view .LVU35
 145 0028 9942     		cmp	r1, r3
 146 002a 06D2     		bcs	.L13
 147              	.L11:
 726:Middlewares/Third_Party/FreeRTOS/Source/timers.c **** 		}
 148              		.loc 1 726 4 is_stmt 1 view .LVU36
 149 002c 011D     		adds	r1, r0, #4
 150              	.LVL14:
 726:Middlewares/Third_Party/FreeRTOS/Source/timers.c **** 		}
 151              		.loc 1 726 4 is_stmt 0 view .LVU37
 152 002e 054B     		ldr	r3, .L15+4
 153              	.LVL15:
 726:Middlewares/Third_Party/FreeRTOS/Source/timers.c **** 		}
 154              		.loc 1 726 4 view .LVU38
 155 0030 1868     		ldr	r0, [r3]
 156              	.LVL16:
 726:Middlewares/Third_Party/FreeRTOS/Source/timers.c **** 		}
 157              		.loc 1 726 4 view .LVU39
 158 0032 FFF7FEFF 		bl	vListInsert
 159              	.LVL17:
 695:Middlewares/Third_Party/FreeRTOS/Source/timers.c **** 
 160              		.loc 1 695 12 view .LVU40
 161 0036 0020     		movs	r0, #0
 162 0038 ECE7     		b	.L8
 163              	.LVL18:
 164              	.L13:
 722:Middlewares/Third_Party/FreeRTOS/Source/timers.c **** 		}
 165              		.loc 1 722 21 view .LVU41
 166 003a 0120     		movs	r0, #1
 167              	.LVL19:
ARM GAS  /tmp/ccYeCTy1.s 			page 17


 730:Middlewares/Third_Party/FreeRTOS/Source/timers.c **** }
 168              		.loc 1 730 2 is_stmt 1 view .LVU42
 730:Middlewares/Third_Party/FreeRTOS/Source/timers.c **** }
 169              		.loc 1 730 9 is_stmt 0 view .LVU43
 170 003c EAE7     		b	.L8
 171              	.L16:
 172 003e C046     		.align	2
 173              	.L15:
 174 0040 00000000 		.word	pxOverflowTimerList
 175 0044 00000000 		.word	pxCurrentTimerList
 176              		.cfi_endproc
 177              	.LFE16:
 179              		.section	.rodata.prvCheckForValidListAndQueue.str1.4,"aMS",%progbits,1
 180              		.align	2
 181              	.LC10:
 182 0000 546D7251 		.ascii	"TmrQ\000"
 182      00
 183              		.section	.text.prvCheckForValidListAndQueue,"ax",%progbits
 184              		.align	1
 185              		.syntax unified
 186              		.code	16
 187              		.thumb_func
 189              	prvCheckForValidListAndQueue:
 190              	.LFB19:
 732:Middlewares/Third_Party/FreeRTOS/Source/timers.c **** /*-----------------------------------------------------------*/
 733:Middlewares/Third_Party/FreeRTOS/Source/timers.c **** 
 734:Middlewares/Third_Party/FreeRTOS/Source/timers.c **** static void	prvProcessReceivedCommands( void )
 735:Middlewares/Third_Party/FreeRTOS/Source/timers.c **** {
 736:Middlewares/Third_Party/FreeRTOS/Source/timers.c **** DaemonTaskMessage_t xMessage;
 737:Middlewares/Third_Party/FreeRTOS/Source/timers.c **** Timer_t *pxTimer;
 738:Middlewares/Third_Party/FreeRTOS/Source/timers.c **** BaseType_t xTimerListsWereSwitched, xResult;
 739:Middlewares/Third_Party/FreeRTOS/Source/timers.c **** TickType_t xTimeNow;
 740:Middlewares/Third_Party/FreeRTOS/Source/timers.c **** 
 741:Middlewares/Third_Party/FreeRTOS/Source/timers.c **** 	while( xQueueReceive( xTimerQueue, &xMessage, tmrNO_DELAY ) != pdFAIL ) /*lint !e603 xMessage does
 742:Middlewares/Third_Party/FreeRTOS/Source/timers.c **** 	{
 743:Middlewares/Third_Party/FreeRTOS/Source/timers.c **** 		#if ( INCLUDE_xTimerPendFunctionCall == 1 )
 744:Middlewares/Third_Party/FreeRTOS/Source/timers.c **** 		{
 745:Middlewares/Third_Party/FreeRTOS/Source/timers.c **** 			/* Negative commands are pended function calls rather than timer
 746:Middlewares/Third_Party/FreeRTOS/Source/timers.c **** 			commands. */
 747:Middlewares/Third_Party/FreeRTOS/Source/timers.c **** 			if( xMessage.xMessageID < ( BaseType_t ) 0 )
 748:Middlewares/Third_Party/FreeRTOS/Source/timers.c **** 			{
 749:Middlewares/Third_Party/FreeRTOS/Source/timers.c **** 				const CallbackParameters_t * const pxCallback = &( xMessage.u.xCallbackParameters );
 750:Middlewares/Third_Party/FreeRTOS/Source/timers.c **** 
 751:Middlewares/Third_Party/FreeRTOS/Source/timers.c **** 				/* The timer uses the xCallbackParameters member to request a
 752:Middlewares/Third_Party/FreeRTOS/Source/timers.c **** 				callback be executed.  Check the callback is not NULL. */
 753:Middlewares/Third_Party/FreeRTOS/Source/timers.c **** 				configASSERT( pxCallback );
 754:Middlewares/Third_Party/FreeRTOS/Source/timers.c **** 
 755:Middlewares/Third_Party/FreeRTOS/Source/timers.c **** 				/* Call the function. */
 756:Middlewares/Third_Party/FreeRTOS/Source/timers.c **** 				pxCallback->pxCallbackFunction( pxCallback->pvParameter1, pxCallback->ulParameter2 );
 757:Middlewares/Third_Party/FreeRTOS/Source/timers.c **** 			}
 758:Middlewares/Third_Party/FreeRTOS/Source/timers.c **** 			else
 759:Middlewares/Third_Party/FreeRTOS/Source/timers.c **** 			{
 760:Middlewares/Third_Party/FreeRTOS/Source/timers.c **** 				mtCOVERAGE_TEST_MARKER();
 761:Middlewares/Third_Party/FreeRTOS/Source/timers.c **** 			}
 762:Middlewares/Third_Party/FreeRTOS/Source/timers.c **** 		}
 763:Middlewares/Third_Party/FreeRTOS/Source/timers.c **** 		#endif /* INCLUDE_xTimerPendFunctionCall */
 764:Middlewares/Third_Party/FreeRTOS/Source/timers.c **** 
ARM GAS  /tmp/ccYeCTy1.s 			page 18


 765:Middlewares/Third_Party/FreeRTOS/Source/timers.c **** 		/* Commands that are positive are timer commands rather than pended
 766:Middlewares/Third_Party/FreeRTOS/Source/timers.c **** 		function calls. */
 767:Middlewares/Third_Party/FreeRTOS/Source/timers.c **** 		if( xMessage.xMessageID >= ( BaseType_t ) 0 )
 768:Middlewares/Third_Party/FreeRTOS/Source/timers.c **** 		{
 769:Middlewares/Third_Party/FreeRTOS/Source/timers.c **** 			/* The messages uses the xTimerParameters member to work on a
 770:Middlewares/Third_Party/FreeRTOS/Source/timers.c **** 			software timer. */
 771:Middlewares/Third_Party/FreeRTOS/Source/timers.c **** 			pxTimer = xMessage.u.xTimerParameters.pxTimer;
 772:Middlewares/Third_Party/FreeRTOS/Source/timers.c **** 
 773:Middlewares/Third_Party/FreeRTOS/Source/timers.c **** 			if( listIS_CONTAINED_WITHIN( NULL, &( pxTimer->xTimerListItem ) ) == pdFALSE ) /*lint !e961. The
 774:Middlewares/Third_Party/FreeRTOS/Source/timers.c **** 			{
 775:Middlewares/Third_Party/FreeRTOS/Source/timers.c **** 				/* The timer is in a list, remove it. */
 776:Middlewares/Third_Party/FreeRTOS/Source/timers.c **** 				( void ) uxListRemove( &( pxTimer->xTimerListItem ) );
 777:Middlewares/Third_Party/FreeRTOS/Source/timers.c **** 			}
 778:Middlewares/Third_Party/FreeRTOS/Source/timers.c **** 			else
 779:Middlewares/Third_Party/FreeRTOS/Source/timers.c **** 			{
 780:Middlewares/Third_Party/FreeRTOS/Source/timers.c **** 				mtCOVERAGE_TEST_MARKER();
 781:Middlewares/Third_Party/FreeRTOS/Source/timers.c **** 			}
 782:Middlewares/Third_Party/FreeRTOS/Source/timers.c **** 
 783:Middlewares/Third_Party/FreeRTOS/Source/timers.c **** 			traceTIMER_COMMAND_RECEIVED( pxTimer, xMessage.xMessageID, xMessage.u.xTimerParameters.xMessageV
 784:Middlewares/Third_Party/FreeRTOS/Source/timers.c **** 
 785:Middlewares/Third_Party/FreeRTOS/Source/timers.c **** 			/* In this case the xTimerListsWereSwitched parameter is not used, but
 786:Middlewares/Third_Party/FreeRTOS/Source/timers.c **** 			it must be present in the function call.  prvSampleTimeNow() must be
 787:Middlewares/Third_Party/FreeRTOS/Source/timers.c **** 			called after the message is received from xTimerQueue so there is no
 788:Middlewares/Third_Party/FreeRTOS/Source/timers.c **** 			possibility of a higher priority task adding a message to the message
 789:Middlewares/Third_Party/FreeRTOS/Source/timers.c **** 			queue with a time that is ahead of the timer daemon task (because it
 790:Middlewares/Third_Party/FreeRTOS/Source/timers.c **** 			pre-empted the timer daemon task after the xTimeNow value was set). */
 791:Middlewares/Third_Party/FreeRTOS/Source/timers.c **** 			xTimeNow = prvSampleTimeNow( &xTimerListsWereSwitched );
 792:Middlewares/Third_Party/FreeRTOS/Source/timers.c **** 
 793:Middlewares/Third_Party/FreeRTOS/Source/timers.c **** 			switch( xMessage.xMessageID )
 794:Middlewares/Third_Party/FreeRTOS/Source/timers.c **** 			{
 795:Middlewares/Third_Party/FreeRTOS/Source/timers.c **** 				case tmrCOMMAND_START :
 796:Middlewares/Third_Party/FreeRTOS/Source/timers.c **** 				case tmrCOMMAND_START_FROM_ISR :
 797:Middlewares/Third_Party/FreeRTOS/Source/timers.c **** 				case tmrCOMMAND_RESET :
 798:Middlewares/Third_Party/FreeRTOS/Source/timers.c **** 				case tmrCOMMAND_RESET_FROM_ISR :
 799:Middlewares/Third_Party/FreeRTOS/Source/timers.c **** 				case tmrCOMMAND_START_DONT_TRACE :
 800:Middlewares/Third_Party/FreeRTOS/Source/timers.c **** 					/* Start or restart a timer. */
 801:Middlewares/Third_Party/FreeRTOS/Source/timers.c **** 					pxTimer->ucStatus |= tmrSTATUS_IS_ACTIVE;
 802:Middlewares/Third_Party/FreeRTOS/Source/timers.c **** 					if( prvInsertTimerInActiveList( pxTimer,  xMessage.u.xTimerParameters.xMessageValue + pxTimer-
 803:Middlewares/Third_Party/FreeRTOS/Source/timers.c **** 					{
 804:Middlewares/Third_Party/FreeRTOS/Source/timers.c **** 						/* The timer expired before it was added to the active
 805:Middlewares/Third_Party/FreeRTOS/Source/timers.c **** 						timer list.  Process it now. */
 806:Middlewares/Third_Party/FreeRTOS/Source/timers.c **** 						pxTimer->pxCallbackFunction( ( TimerHandle_t ) pxTimer );
 807:Middlewares/Third_Party/FreeRTOS/Source/timers.c **** 						traceTIMER_EXPIRED( pxTimer );
 808:Middlewares/Third_Party/FreeRTOS/Source/timers.c **** 
 809:Middlewares/Third_Party/FreeRTOS/Source/timers.c **** 						if( ( pxTimer->ucStatus & tmrSTATUS_IS_AUTORELOAD ) != 0 )
 810:Middlewares/Third_Party/FreeRTOS/Source/timers.c **** 						{
 811:Middlewares/Third_Party/FreeRTOS/Source/timers.c **** 							xResult = xTimerGenericCommand( pxTimer, tmrCOMMAND_START_DONT_TRACE, xMessage.u.xTimerParam
 812:Middlewares/Third_Party/FreeRTOS/Source/timers.c **** 							configASSERT( xResult );
 813:Middlewares/Third_Party/FreeRTOS/Source/timers.c **** 							( void ) xResult;
 814:Middlewares/Third_Party/FreeRTOS/Source/timers.c **** 						}
 815:Middlewares/Third_Party/FreeRTOS/Source/timers.c **** 						else
 816:Middlewares/Third_Party/FreeRTOS/Source/timers.c **** 						{
 817:Middlewares/Third_Party/FreeRTOS/Source/timers.c **** 							mtCOVERAGE_TEST_MARKER();
 818:Middlewares/Third_Party/FreeRTOS/Source/timers.c **** 						}
 819:Middlewares/Third_Party/FreeRTOS/Source/timers.c **** 					}
 820:Middlewares/Third_Party/FreeRTOS/Source/timers.c **** 					else
 821:Middlewares/Third_Party/FreeRTOS/Source/timers.c **** 					{
ARM GAS  /tmp/ccYeCTy1.s 			page 19


 822:Middlewares/Third_Party/FreeRTOS/Source/timers.c **** 						mtCOVERAGE_TEST_MARKER();
 823:Middlewares/Third_Party/FreeRTOS/Source/timers.c **** 					}
 824:Middlewares/Third_Party/FreeRTOS/Source/timers.c **** 					break;
 825:Middlewares/Third_Party/FreeRTOS/Source/timers.c **** 
 826:Middlewares/Third_Party/FreeRTOS/Source/timers.c **** 				case tmrCOMMAND_STOP :
 827:Middlewares/Third_Party/FreeRTOS/Source/timers.c **** 				case tmrCOMMAND_STOP_FROM_ISR :
 828:Middlewares/Third_Party/FreeRTOS/Source/timers.c **** 					/* The timer has already been removed from the active list. */
 829:Middlewares/Third_Party/FreeRTOS/Source/timers.c **** 					pxTimer->ucStatus &= ~tmrSTATUS_IS_ACTIVE;
 830:Middlewares/Third_Party/FreeRTOS/Source/timers.c **** 					break;
 831:Middlewares/Third_Party/FreeRTOS/Source/timers.c **** 
 832:Middlewares/Third_Party/FreeRTOS/Source/timers.c **** 				case tmrCOMMAND_CHANGE_PERIOD :
 833:Middlewares/Third_Party/FreeRTOS/Source/timers.c **** 				case tmrCOMMAND_CHANGE_PERIOD_FROM_ISR :
 834:Middlewares/Third_Party/FreeRTOS/Source/timers.c **** 					pxTimer->ucStatus |= tmrSTATUS_IS_ACTIVE;
 835:Middlewares/Third_Party/FreeRTOS/Source/timers.c **** 					pxTimer->xTimerPeriodInTicks = xMessage.u.xTimerParameters.xMessageValue;
 836:Middlewares/Third_Party/FreeRTOS/Source/timers.c **** 					configASSERT( ( pxTimer->xTimerPeriodInTicks > 0 ) );
 837:Middlewares/Third_Party/FreeRTOS/Source/timers.c **** 
 838:Middlewares/Third_Party/FreeRTOS/Source/timers.c **** 					/* The new period does not really have a reference, and can
 839:Middlewares/Third_Party/FreeRTOS/Source/timers.c **** 					be longer or shorter than the old one.  The command time is
 840:Middlewares/Third_Party/FreeRTOS/Source/timers.c **** 					therefore set to the current time, and as the period cannot
 841:Middlewares/Third_Party/FreeRTOS/Source/timers.c **** 					be zero the next expiry time can only be in the future,
 842:Middlewares/Third_Party/FreeRTOS/Source/timers.c **** 					meaning (unlike for the xTimerStart() case above) there is
 843:Middlewares/Third_Party/FreeRTOS/Source/timers.c **** 					no fail case that needs to be handled here. */
 844:Middlewares/Third_Party/FreeRTOS/Source/timers.c **** 					( void ) prvInsertTimerInActiveList( pxTimer, ( xTimeNow + pxTimer->xTimerPeriodInTicks ), xTi
 845:Middlewares/Third_Party/FreeRTOS/Source/timers.c **** 					break;
 846:Middlewares/Third_Party/FreeRTOS/Source/timers.c **** 
 847:Middlewares/Third_Party/FreeRTOS/Source/timers.c **** 				case tmrCOMMAND_DELETE :
 848:Middlewares/Third_Party/FreeRTOS/Source/timers.c **** 					#if ( configSUPPORT_DYNAMIC_ALLOCATION == 1 )
 849:Middlewares/Third_Party/FreeRTOS/Source/timers.c **** 					{
 850:Middlewares/Third_Party/FreeRTOS/Source/timers.c **** 						/* The timer has already been removed from the active list,
 851:Middlewares/Third_Party/FreeRTOS/Source/timers.c **** 						just free up the memory if the memory was dynamically
 852:Middlewares/Third_Party/FreeRTOS/Source/timers.c **** 						allocated. */
 853:Middlewares/Third_Party/FreeRTOS/Source/timers.c **** 						if( ( pxTimer->ucStatus & tmrSTATUS_IS_STATICALLY_ALLOCATED ) == ( uint8_t ) 0 )
 854:Middlewares/Third_Party/FreeRTOS/Source/timers.c **** 						{
 855:Middlewares/Third_Party/FreeRTOS/Source/timers.c **** 							vPortFree( pxTimer );
 856:Middlewares/Third_Party/FreeRTOS/Source/timers.c **** 						}
 857:Middlewares/Third_Party/FreeRTOS/Source/timers.c **** 						else
 858:Middlewares/Third_Party/FreeRTOS/Source/timers.c **** 						{
 859:Middlewares/Third_Party/FreeRTOS/Source/timers.c **** 							pxTimer->ucStatus &= ~tmrSTATUS_IS_ACTIVE;
 860:Middlewares/Third_Party/FreeRTOS/Source/timers.c **** 						}
 861:Middlewares/Third_Party/FreeRTOS/Source/timers.c **** 					}
 862:Middlewares/Third_Party/FreeRTOS/Source/timers.c **** 					#else
 863:Middlewares/Third_Party/FreeRTOS/Source/timers.c **** 					{
 864:Middlewares/Third_Party/FreeRTOS/Source/timers.c **** 						/* If dynamic allocation is not enabled, the memory
 865:Middlewares/Third_Party/FreeRTOS/Source/timers.c **** 						could not have been dynamically allocated. So there is
 866:Middlewares/Third_Party/FreeRTOS/Source/timers.c **** 						no need to free the memory - just mark the timer as
 867:Middlewares/Third_Party/FreeRTOS/Source/timers.c **** 						"not active". */
 868:Middlewares/Third_Party/FreeRTOS/Source/timers.c **** 						pxTimer->ucStatus &= ~tmrSTATUS_IS_ACTIVE;
 869:Middlewares/Third_Party/FreeRTOS/Source/timers.c **** 					}
 870:Middlewares/Third_Party/FreeRTOS/Source/timers.c **** 					#endif /* configSUPPORT_DYNAMIC_ALLOCATION */
 871:Middlewares/Third_Party/FreeRTOS/Source/timers.c **** 					break;
 872:Middlewares/Third_Party/FreeRTOS/Source/timers.c **** 
 873:Middlewares/Third_Party/FreeRTOS/Source/timers.c **** 				default	:
 874:Middlewares/Third_Party/FreeRTOS/Source/timers.c **** 					/* Don't expect to get here. */
 875:Middlewares/Third_Party/FreeRTOS/Source/timers.c **** 					break;
 876:Middlewares/Third_Party/FreeRTOS/Source/timers.c **** 			}
 877:Middlewares/Third_Party/FreeRTOS/Source/timers.c **** 		}
 878:Middlewares/Third_Party/FreeRTOS/Source/timers.c **** 	}
ARM GAS  /tmp/ccYeCTy1.s 			page 20


 879:Middlewares/Third_Party/FreeRTOS/Source/timers.c **** }
 880:Middlewares/Third_Party/FreeRTOS/Source/timers.c **** /*-----------------------------------------------------------*/
 881:Middlewares/Third_Party/FreeRTOS/Source/timers.c **** 
 882:Middlewares/Third_Party/FreeRTOS/Source/timers.c **** static void prvSwitchTimerLists( void )
 883:Middlewares/Third_Party/FreeRTOS/Source/timers.c **** {
 884:Middlewares/Third_Party/FreeRTOS/Source/timers.c **** TickType_t xNextExpireTime, xReloadTime;
 885:Middlewares/Third_Party/FreeRTOS/Source/timers.c **** List_t *pxTemp;
 886:Middlewares/Third_Party/FreeRTOS/Source/timers.c **** Timer_t *pxTimer;
 887:Middlewares/Third_Party/FreeRTOS/Source/timers.c **** BaseType_t xResult;
 888:Middlewares/Third_Party/FreeRTOS/Source/timers.c **** 
 889:Middlewares/Third_Party/FreeRTOS/Source/timers.c **** 	/* The tick count has overflowed.  The timer lists must be switched.
 890:Middlewares/Third_Party/FreeRTOS/Source/timers.c **** 	If there are any timers still referenced from the current timer list
 891:Middlewares/Third_Party/FreeRTOS/Source/timers.c **** 	then they must have expired and should be processed before the lists
 892:Middlewares/Third_Party/FreeRTOS/Source/timers.c **** 	are switched. */
 893:Middlewares/Third_Party/FreeRTOS/Source/timers.c **** 	while( listLIST_IS_EMPTY( pxCurrentTimerList ) == pdFALSE )
 894:Middlewares/Third_Party/FreeRTOS/Source/timers.c **** 	{
 895:Middlewares/Third_Party/FreeRTOS/Source/timers.c **** 		xNextExpireTime = listGET_ITEM_VALUE_OF_HEAD_ENTRY( pxCurrentTimerList );
 896:Middlewares/Third_Party/FreeRTOS/Source/timers.c **** 
 897:Middlewares/Third_Party/FreeRTOS/Source/timers.c **** 		/* Remove the timer from the list. */
 898:Middlewares/Third_Party/FreeRTOS/Source/timers.c **** 		pxTimer = ( Timer_t * ) listGET_OWNER_OF_HEAD_ENTRY( pxCurrentTimerList ); /*lint !e9087 !e9079 v
 899:Middlewares/Third_Party/FreeRTOS/Source/timers.c **** 		( void ) uxListRemove( &( pxTimer->xTimerListItem ) );
 900:Middlewares/Third_Party/FreeRTOS/Source/timers.c **** 		traceTIMER_EXPIRED( pxTimer );
 901:Middlewares/Third_Party/FreeRTOS/Source/timers.c **** 
 902:Middlewares/Third_Party/FreeRTOS/Source/timers.c **** 		/* Execute its callback, then send a command to restart the timer if
 903:Middlewares/Third_Party/FreeRTOS/Source/timers.c **** 		it is an auto-reload timer.  It cannot be restarted here as the lists
 904:Middlewares/Third_Party/FreeRTOS/Source/timers.c **** 		have not yet been switched. */
 905:Middlewares/Third_Party/FreeRTOS/Source/timers.c **** 		pxTimer->pxCallbackFunction( ( TimerHandle_t ) pxTimer );
 906:Middlewares/Third_Party/FreeRTOS/Source/timers.c **** 
 907:Middlewares/Third_Party/FreeRTOS/Source/timers.c **** 		if( ( pxTimer->ucStatus & tmrSTATUS_IS_AUTORELOAD ) != 0 )
 908:Middlewares/Third_Party/FreeRTOS/Source/timers.c **** 		{
 909:Middlewares/Third_Party/FreeRTOS/Source/timers.c **** 			/* Calculate the reload value, and if the reload value results in
 910:Middlewares/Third_Party/FreeRTOS/Source/timers.c **** 			the timer going into the same timer list then it has already expired
 911:Middlewares/Third_Party/FreeRTOS/Source/timers.c **** 			and the timer should be re-inserted into the current list so it is
 912:Middlewares/Third_Party/FreeRTOS/Source/timers.c **** 			processed again within this loop.  Otherwise a command should be sent
 913:Middlewares/Third_Party/FreeRTOS/Source/timers.c **** 			to restart the timer to ensure it is only inserted into a list after
 914:Middlewares/Third_Party/FreeRTOS/Source/timers.c **** 			the lists have been swapped. */
 915:Middlewares/Third_Party/FreeRTOS/Source/timers.c **** 			xReloadTime = ( xNextExpireTime + pxTimer->xTimerPeriodInTicks );
 916:Middlewares/Third_Party/FreeRTOS/Source/timers.c **** 			if( xReloadTime > xNextExpireTime )
 917:Middlewares/Third_Party/FreeRTOS/Source/timers.c **** 			{
 918:Middlewares/Third_Party/FreeRTOS/Source/timers.c **** 				listSET_LIST_ITEM_VALUE( &( pxTimer->xTimerListItem ), xReloadTime );
 919:Middlewares/Third_Party/FreeRTOS/Source/timers.c **** 				listSET_LIST_ITEM_OWNER( &( pxTimer->xTimerListItem ), pxTimer );
 920:Middlewares/Third_Party/FreeRTOS/Source/timers.c **** 				vListInsert( pxCurrentTimerList, &( pxTimer->xTimerListItem ) );
 921:Middlewares/Third_Party/FreeRTOS/Source/timers.c **** 			}
 922:Middlewares/Third_Party/FreeRTOS/Source/timers.c **** 			else
 923:Middlewares/Third_Party/FreeRTOS/Source/timers.c **** 			{
 924:Middlewares/Third_Party/FreeRTOS/Source/timers.c **** 				xResult = xTimerGenericCommand( pxTimer, tmrCOMMAND_START_DONT_TRACE, xNextExpireTime, NULL, tm
 925:Middlewares/Third_Party/FreeRTOS/Source/timers.c **** 				configASSERT( xResult );
 926:Middlewares/Third_Party/FreeRTOS/Source/timers.c **** 				( void ) xResult;
 927:Middlewares/Third_Party/FreeRTOS/Source/timers.c **** 			}
 928:Middlewares/Third_Party/FreeRTOS/Source/timers.c **** 		}
 929:Middlewares/Third_Party/FreeRTOS/Source/timers.c **** 		else
 930:Middlewares/Third_Party/FreeRTOS/Source/timers.c **** 		{
 931:Middlewares/Third_Party/FreeRTOS/Source/timers.c **** 			mtCOVERAGE_TEST_MARKER();
 932:Middlewares/Third_Party/FreeRTOS/Source/timers.c **** 		}
 933:Middlewares/Third_Party/FreeRTOS/Source/timers.c **** 	}
 934:Middlewares/Third_Party/FreeRTOS/Source/timers.c **** 
 935:Middlewares/Third_Party/FreeRTOS/Source/timers.c **** 	pxTemp = pxCurrentTimerList;
ARM GAS  /tmp/ccYeCTy1.s 			page 21


 936:Middlewares/Third_Party/FreeRTOS/Source/timers.c **** 	pxCurrentTimerList = pxOverflowTimerList;
 937:Middlewares/Third_Party/FreeRTOS/Source/timers.c **** 	pxOverflowTimerList = pxTemp;
 938:Middlewares/Third_Party/FreeRTOS/Source/timers.c **** }
 939:Middlewares/Third_Party/FreeRTOS/Source/timers.c **** /*-----------------------------------------------------------*/
 940:Middlewares/Third_Party/FreeRTOS/Source/timers.c **** 
 941:Middlewares/Third_Party/FreeRTOS/Source/timers.c **** static void prvCheckForValidListAndQueue( void )
 942:Middlewares/Third_Party/FreeRTOS/Source/timers.c **** {
 191              		.loc 1 942 1 is_stmt 1 view -0
 192              		.cfi_startproc
 193              		@ args = 0, pretend = 0, frame = 0
 194              		@ frame_needed = 0, uses_anonymous_args = 0
 195 0000 30B5     		push	{r4, r5, lr}
 196              		.cfi_def_cfa_offset 12
 197              		.cfi_offset 4, -12
 198              		.cfi_offset 5, -8
 199              		.cfi_offset 14, -4
 200 0002 83B0     		sub	sp, sp, #12
 201              		.cfi_def_cfa_offset 24
 943:Middlewares/Third_Party/FreeRTOS/Source/timers.c **** 	/* Check that the list from which active timers are referenced, and the
 944:Middlewares/Third_Party/FreeRTOS/Source/timers.c **** 	queue used to communicate with the timer service, have been
 945:Middlewares/Third_Party/FreeRTOS/Source/timers.c **** 	initialised. */
 946:Middlewares/Third_Party/FreeRTOS/Source/timers.c **** 	taskENTER_CRITICAL();
 202              		.loc 1 946 2 view .LVU45
 203 0004 FFF7FEFF 		bl	vPortEnterCritical
 204              	.LVL20:
 947:Middlewares/Third_Party/FreeRTOS/Source/timers.c **** 	{
 948:Middlewares/Third_Party/FreeRTOS/Source/timers.c **** 		if( xTimerQueue == NULL )
 205              		.loc 1 948 3 view .LVU46
 206              		.loc 1 948 19 is_stmt 0 view .LVU47
 207 0008 114B     		ldr	r3, .L20
 208 000a 1B68     		ldr	r3, [r3]
 209              		.loc 1 948 5 view .LVU48
 210 000c 002B     		cmp	r3, #0
 211 000e 03D0     		beq	.L19
 212              	.L18:
 949:Middlewares/Third_Party/FreeRTOS/Source/timers.c **** 		{
 950:Middlewares/Third_Party/FreeRTOS/Source/timers.c **** 			vListInitialise( &xActiveTimerList1 );
 951:Middlewares/Third_Party/FreeRTOS/Source/timers.c **** 			vListInitialise( &xActiveTimerList2 );
 952:Middlewares/Third_Party/FreeRTOS/Source/timers.c **** 			pxCurrentTimerList = &xActiveTimerList1;
 953:Middlewares/Third_Party/FreeRTOS/Source/timers.c **** 			pxOverflowTimerList = &xActiveTimerList2;
 954:Middlewares/Third_Party/FreeRTOS/Source/timers.c **** 
 955:Middlewares/Third_Party/FreeRTOS/Source/timers.c **** 			#if( configSUPPORT_STATIC_ALLOCATION == 1 )
 956:Middlewares/Third_Party/FreeRTOS/Source/timers.c **** 			{
 957:Middlewares/Third_Party/FreeRTOS/Source/timers.c **** 				/* The timer queue is allocated statically in case
 958:Middlewares/Third_Party/FreeRTOS/Source/timers.c **** 				configSUPPORT_DYNAMIC_ALLOCATION is 0. */
 959:Middlewares/Third_Party/FreeRTOS/Source/timers.c **** 				static StaticQueue_t xStaticTimerQueue; /*lint !e956 Ok to declare in this manner to prevent ad
 960:Middlewares/Third_Party/FreeRTOS/Source/timers.c **** 				static uint8_t ucStaticTimerQueueStorage[ ( size_t ) configTIMER_QUEUE_LENGTH * sizeof( DaemonT
 961:Middlewares/Third_Party/FreeRTOS/Source/timers.c **** 
 962:Middlewares/Third_Party/FreeRTOS/Source/timers.c **** 				xTimerQueue = xQueueCreateStatic( ( UBaseType_t ) configTIMER_QUEUE_LENGTH, ( UBaseType_t ) siz
 963:Middlewares/Third_Party/FreeRTOS/Source/timers.c **** 			}
 964:Middlewares/Third_Party/FreeRTOS/Source/timers.c **** 			#else
 965:Middlewares/Third_Party/FreeRTOS/Source/timers.c **** 			{
 966:Middlewares/Third_Party/FreeRTOS/Source/timers.c **** 				xTimerQueue = xQueueCreate( ( UBaseType_t ) configTIMER_QUEUE_LENGTH, sizeof( DaemonTaskMessage
 967:Middlewares/Third_Party/FreeRTOS/Source/timers.c **** 			}
 968:Middlewares/Third_Party/FreeRTOS/Source/timers.c **** 			#endif
 969:Middlewares/Third_Party/FreeRTOS/Source/timers.c **** 
 970:Middlewares/Third_Party/FreeRTOS/Source/timers.c **** 			#if ( configQUEUE_REGISTRY_SIZE > 0 )
ARM GAS  /tmp/ccYeCTy1.s 			page 22


 971:Middlewares/Third_Party/FreeRTOS/Source/timers.c **** 			{
 972:Middlewares/Third_Party/FreeRTOS/Source/timers.c **** 				if( xTimerQueue != NULL )
 973:Middlewares/Third_Party/FreeRTOS/Source/timers.c **** 				{
 974:Middlewares/Third_Party/FreeRTOS/Source/timers.c **** 					vQueueAddToRegistry( xTimerQueue, "TmrQ" );
 975:Middlewares/Third_Party/FreeRTOS/Source/timers.c **** 				}
 976:Middlewares/Third_Party/FreeRTOS/Source/timers.c **** 				else
 977:Middlewares/Third_Party/FreeRTOS/Source/timers.c **** 				{
 978:Middlewares/Third_Party/FreeRTOS/Source/timers.c **** 					mtCOVERAGE_TEST_MARKER();
 979:Middlewares/Third_Party/FreeRTOS/Source/timers.c **** 				}
 980:Middlewares/Third_Party/FreeRTOS/Source/timers.c **** 			}
 981:Middlewares/Third_Party/FreeRTOS/Source/timers.c **** 			#endif /* configQUEUE_REGISTRY_SIZE */
 982:Middlewares/Third_Party/FreeRTOS/Source/timers.c **** 		}
 983:Middlewares/Third_Party/FreeRTOS/Source/timers.c **** 		else
 984:Middlewares/Third_Party/FreeRTOS/Source/timers.c **** 		{
 985:Middlewares/Third_Party/FreeRTOS/Source/timers.c **** 			mtCOVERAGE_TEST_MARKER();
 213              		.loc 1 985 28 is_stmt 1 view .LVU49
 986:Middlewares/Third_Party/FreeRTOS/Source/timers.c **** 		}
 987:Middlewares/Third_Party/FreeRTOS/Source/timers.c **** 	}
 988:Middlewares/Third_Party/FreeRTOS/Source/timers.c **** 	taskEXIT_CRITICAL();
 214              		.loc 1 988 2 view .LVU50
 215 0010 FFF7FEFF 		bl	vPortExitCritical
 216              	.LVL21:
 989:Middlewares/Third_Party/FreeRTOS/Source/timers.c **** }
 217              		.loc 1 989 1 is_stmt 0 view .LVU51
 218 0014 03B0     		add	sp, sp, #12
 219              		@ sp needed
 220 0016 30BD     		pop	{r4, r5, pc}
 221              	.L19:
 950:Middlewares/Third_Party/FreeRTOS/Source/timers.c **** 			vListInitialise( &xActiveTimerList2 );
 222              		.loc 1 950 4 is_stmt 1 view .LVU52
 223 0018 0E4D     		ldr	r5, .L20+4
 224 001a 2800     		movs	r0, r5
 225 001c FFF7FEFF 		bl	vListInitialise
 226              	.LVL22:
 951:Middlewares/Third_Party/FreeRTOS/Source/timers.c **** 			pxCurrentTimerList = &xActiveTimerList1;
 227              		.loc 1 951 4 view .LVU53
 228 0020 0D4C     		ldr	r4, .L20+8
 229 0022 2000     		movs	r0, r4
 230 0024 FFF7FEFF 		bl	vListInitialise
 231              	.LVL23:
 952:Middlewares/Third_Party/FreeRTOS/Source/timers.c **** 			pxOverflowTimerList = &xActiveTimerList2;
 232              		.loc 1 952 4 view .LVU54
 952:Middlewares/Third_Party/FreeRTOS/Source/timers.c **** 			pxOverflowTimerList = &xActiveTimerList2;
 233              		.loc 1 952 23 is_stmt 0 view .LVU55
 234 0028 0C4B     		ldr	r3, .L20+12
 235 002a 1D60     		str	r5, [r3]
 953:Middlewares/Third_Party/FreeRTOS/Source/timers.c **** 
 236              		.loc 1 953 4 is_stmt 1 view .LVU56
 953:Middlewares/Third_Party/FreeRTOS/Source/timers.c **** 
 237              		.loc 1 953 24 is_stmt 0 view .LVU57
 238 002c 0C4B     		ldr	r3, .L20+16
 239 002e 1C60     		str	r4, [r3]
 240              	.LBB2:
 959:Middlewares/Third_Party/FreeRTOS/Source/timers.c **** 				static uint8_t ucStaticTimerQueueStorage[ ( size_t ) configTIMER_QUEUE_LENGTH * sizeof( DaemonT
 241              		.loc 1 959 5 is_stmt 1 view .LVU58
 960:Middlewares/Third_Party/FreeRTOS/Source/timers.c **** 
 242              		.loc 1 960 5 view .LVU59
ARM GAS  /tmp/ccYeCTy1.s 			page 23


 962:Middlewares/Third_Party/FreeRTOS/Source/timers.c **** 			}
 243              		.loc 1 962 5 view .LVU60
 962:Middlewares/Third_Party/FreeRTOS/Source/timers.c **** 			}
 244              		.loc 1 962 19 is_stmt 0 view .LVU61
 245 0030 0C4B     		ldr	r3, .L20+20
 246 0032 0D4A     		ldr	r2, .L20+24
 247 0034 0021     		movs	r1, #0
 248 0036 0091     		str	r1, [sp]
 249 0038 1031     		adds	r1, r1, #16
 250 003a 0A20     		movs	r0, #10
 251 003c FFF7FEFF 		bl	xQueueGenericCreateStatic
 252              	.LVL24:
 962:Middlewares/Third_Party/FreeRTOS/Source/timers.c **** 			}
 253              		.loc 1 962 17 discriminator 1 view .LVU62
 254 0040 034B     		ldr	r3, .L20
 255 0042 1860     		str	r0, [r3]
 256              	.LBE2:
 972:Middlewares/Third_Party/FreeRTOS/Source/timers.c **** 				{
 257              		.loc 1 972 5 is_stmt 1 view .LVU63
 972:Middlewares/Third_Party/FreeRTOS/Source/timers.c **** 				{
 258              		.loc 1 972 7 is_stmt 0 view .LVU64
 259 0044 0028     		cmp	r0, #0
 260 0046 E3D0     		beq	.L18
 974:Middlewares/Third_Party/FreeRTOS/Source/timers.c **** 				}
 261              		.loc 1 974 6 is_stmt 1 view .LVU65
 262 0048 0849     		ldr	r1, .L20+28
 263 004a FFF7FEFF 		bl	vQueueAddToRegistry
 264              	.LVL25:
 265 004e DFE7     		b	.L18
 266              	.L21:
 267              		.align	2
 268              	.L20:
 269 0050 00000000 		.word	xTimerQueue
 270 0054 00000000 		.word	xActiveTimerList1
 271 0058 00000000 		.word	xActiveTimerList2
 272 005c 00000000 		.word	pxCurrentTimerList
 273 0060 00000000 		.word	pxOverflowTimerList
 274 0064 00000000 		.word	xStaticTimerQueue.0
 275 0068 00000000 		.word	ucStaticTimerQueueStorage.1
 276 006c 00000000 		.word	.LC10
 277              		.cfi_endproc
 278              	.LFE19:
 280              		.section	.text.prvInitialiseNewTimer,"ax",%progbits
 281              		.align	1
 282              		.syntax unified
 283              		.code	16
 284              		.thumb_func
 286              	prvInitialiseNewTimer:
 287              	.LVL26:
 288              	.LFB3:
 355:Middlewares/Third_Party/FreeRTOS/Source/timers.c **** 	/* 0 is not a valid value for xTimerPeriodInTicks. */
 289              		.loc 1 355 1 view -0
 290              		.cfi_startproc
 291              		@ args = 8, pretend = 0, frame = 8
 292              		@ frame_needed = 0, uses_anonymous_args = 0
 355:Middlewares/Third_Party/FreeRTOS/Source/timers.c **** 	/* 0 is not a valid value for xTimerPeriodInTicks. */
 293              		.loc 1 355 1 is_stmt 0 view .LVU67
ARM GAS  /tmp/ccYeCTy1.s 			page 24


 294 0000 F0B5     		push	{r4, r5, r6, r7, lr}
 295              		.cfi_def_cfa_offset 20
 296              		.cfi_offset 4, -20
 297              		.cfi_offset 5, -16
 298              		.cfi_offset 6, -12
 299              		.cfi_offset 7, -8
 300              		.cfi_offset 14, -4
 301 0002 83B0     		sub	sp, sp, #12
 302              		.cfi_def_cfa_offset 32
 303 0004 0600     		movs	r6, r0
 304 0006 0C00     		movs	r4, r1
 305 0008 0192     		str	r2, [sp, #4]
 306 000a 1D00     		movs	r5, r3
 307 000c 099F     		ldr	r7, [sp, #36]
 357:Middlewares/Third_Party/FreeRTOS/Source/timers.c **** 
 308              		.loc 1 357 2 is_stmt 1 view .LVU68
 309 000e 0029     		cmp	r1, #0
 310 0010 01D1     		bne	.L23
 357:Middlewares/Third_Party/FreeRTOS/Source/timers.c **** 
 311              		.loc 1 357 2 discriminator 1 view .LVU69
 312              		.syntax divided
 313              	@ 357 "Middlewares/Third_Party/FreeRTOS/Source/timers.c" 1
 314 0012 72B6     		 cpsid i 
 315              	@ 0 "" 2
 316              		.thumb
 317              		.syntax unified
 318              	.L24:
 357:Middlewares/Third_Party/FreeRTOS/Source/timers.c **** 
 319              		.loc 1 357 2 discriminator 3 view .LVU70
 357:Middlewares/Third_Party/FreeRTOS/Source/timers.c **** 
 320              		.loc 1 357 2 discriminator 3 view .LVU71
 321 0014 FEE7     		b	.L24
 322              	.L23:
 357:Middlewares/Third_Party/FreeRTOS/Source/timers.c **** 
 323              		.loc 1 357 45 discriminator 2 view .LVU72
 359:Middlewares/Third_Party/FreeRTOS/Source/timers.c **** 	{
 324              		.loc 1 359 2 view .LVU73
 359:Middlewares/Third_Party/FreeRTOS/Source/timers.c **** 	{
 325              		.loc 1 359 4 is_stmt 0 view .LVU74
 326 0016 002F     		cmp	r7, #0
 327 0018 11D0     		beq	.L22
 363:Middlewares/Third_Party/FreeRTOS/Source/timers.c **** 
 328              		.loc 1 363 3 is_stmt 1 view .LVU75
 329 001a FFF7FEFF 		bl	prvCheckForValidListAndQueue
 330              	.LVL27:
 367:Middlewares/Third_Party/FreeRTOS/Source/timers.c **** 		pxNewTimer->xTimerPeriodInTicks = xTimerPeriodInTicks;
 331              		.loc 1 367 3 view .LVU76
 367:Middlewares/Third_Party/FreeRTOS/Source/timers.c **** 		pxNewTimer->xTimerPeriodInTicks = xTimerPeriodInTicks;
 332              		.loc 1 367 27 is_stmt 0 view .LVU77
 333 001e 3E60     		str	r6, [r7]
 368:Middlewares/Third_Party/FreeRTOS/Source/timers.c **** 		pxNewTimer->pvTimerID = pvTimerID;
 334              		.loc 1 368 3 is_stmt 1 view .LVU78
 368:Middlewares/Third_Party/FreeRTOS/Source/timers.c **** 		pxNewTimer->pvTimerID = pvTimerID;
 335              		.loc 1 368 35 is_stmt 0 view .LVU79
 336 0020 BC61     		str	r4, [r7, #24]
 369:Middlewares/Third_Party/FreeRTOS/Source/timers.c **** 		pxNewTimer->pxCallbackFunction = pxCallbackFunction;
 337              		.loc 1 369 3 is_stmt 1 view .LVU80
ARM GAS  /tmp/ccYeCTy1.s 			page 25


 369:Middlewares/Third_Party/FreeRTOS/Source/timers.c **** 		pxNewTimer->pxCallbackFunction = pxCallbackFunction;
 338              		.loc 1 369 25 is_stmt 0 view .LVU81
 339 0022 FD61     		str	r5, [r7, #28]
 370:Middlewares/Third_Party/FreeRTOS/Source/timers.c **** 		vListInitialiseItem( &( pxNewTimer->xTimerListItem ) );
 340              		.loc 1 370 3 is_stmt 1 view .LVU82
 370:Middlewares/Third_Party/FreeRTOS/Source/timers.c **** 		vListInitialiseItem( &( pxNewTimer->xTimerListItem ) );
 341              		.loc 1 370 34 is_stmt 0 view .LVU83
 342 0024 089B     		ldr	r3, [sp, #32]
 343 0026 3B62     		str	r3, [r7, #32]
 371:Middlewares/Third_Party/FreeRTOS/Source/timers.c **** 		if( uxAutoReload != pdFALSE )
 344              		.loc 1 371 3 is_stmt 1 view .LVU84
 345 0028 381D     		adds	r0, r7, #4
 346 002a FFF7FEFF 		bl	vListInitialiseItem
 347              	.LVL28:
 372:Middlewares/Third_Party/FreeRTOS/Source/timers.c **** 		{
 348              		.loc 1 372 3 view .LVU85
 372:Middlewares/Third_Party/FreeRTOS/Source/timers.c **** 		{
 349              		.loc 1 372 5 is_stmt 0 view .LVU86
 350 002e 019B     		ldr	r3, [sp, #4]
 351 0030 002B     		cmp	r3, #0
 352 0032 04D0     		beq	.L22
 374:Middlewares/Third_Party/FreeRTOS/Source/timers.c **** 		}
 353              		.loc 1 374 4 is_stmt 1 view .LVU87
 374:Middlewares/Third_Party/FreeRTOS/Source/timers.c **** 		}
 354              		.loc 1 374 14 is_stmt 0 view .LVU88
 355 0034 2822     		movs	r2, #40
 356 0036 BB5C     		ldrb	r3, [r7, r2]
 374:Middlewares/Third_Party/FreeRTOS/Source/timers.c **** 		}
 357              		.loc 1 374 25 view .LVU89
 358 0038 0421     		movs	r1, #4
 359 003a 0B43     		orrs	r3, r1
 360 003c BB54     		strb	r3, [r7, r2]
 376:Middlewares/Third_Party/FreeRTOS/Source/timers.c **** 	}
 361              		.loc 1 376 34 is_stmt 1 view .LVU90
 362              	.L22:
 378:Middlewares/Third_Party/FreeRTOS/Source/timers.c **** /*-----------------------------------------------------------*/
 363              		.loc 1 378 1 is_stmt 0 view .LVU91
 364 003e 03B0     		add	sp, sp, #12
 365              		@ sp needed
 366              	.LVL29:
 367              	.LVL30:
 368              	.LVL31:
 378:Middlewares/Third_Party/FreeRTOS/Source/timers.c **** /*-----------------------------------------------------------*/
 369              		.loc 1 378 1 view .LVU92
 370 0040 F0BD     		pop	{r4, r5, r6, r7, pc}
 371              		.cfi_endproc
 372              	.LFE3:
 374              		.section	.rodata.xTimerCreateTimerTask.str1.4,"aMS",%progbits,1
 375              		.align	2
 376              	.LC13:
 377 0000 546D7220 		.ascii	"Tmr Svc\000"
 377      53766300 
 378              		.section	.text.xTimerCreateTimerTask,"ax",%progbits
 379              		.align	1
 380              		.global	xTimerCreateTimerTask
 381              		.syntax unified
 382              		.code	16
ARM GAS  /tmp/ccYeCTy1.s 			page 26


 383              		.thumb_func
 385              	xTimerCreateTimerTask:
 386              	.LFB0:
 228:Middlewares/Third_Party/FreeRTOS/Source/timers.c **** BaseType_t xReturn = pdFAIL;
 387              		.loc 1 228 1 is_stmt 1 view -0
 388              		.cfi_startproc
 389              		@ args = 0, pretend = 0, frame = 16
 390              		@ frame_needed = 0, uses_anonymous_args = 0
 391 0000 00B5     		push	{lr}
 392              		.cfi_def_cfa_offset 4
 393              		.cfi_offset 14, -4
 394 0002 89B0     		sub	sp, sp, #36
 395              		.cfi_def_cfa_offset 40
 229:Middlewares/Third_Party/FreeRTOS/Source/timers.c **** 
 396              		.loc 1 229 1 view .LVU94
 397              	.LVL32:
 235:Middlewares/Third_Party/FreeRTOS/Source/timers.c **** 
 398              		.loc 1 235 2 view .LVU95
 399 0004 FFF7FEFF 		bl	prvCheckForValidListAndQueue
 400              	.LVL33:
 237:Middlewares/Third_Party/FreeRTOS/Source/timers.c **** 	{
 401              		.loc 1 237 2 view .LVU96
 237:Middlewares/Third_Party/FreeRTOS/Source/timers.c **** 	{
 402              		.loc 1 237 18 is_stmt 0 view .LVU97
 403 0008 104B     		ldr	r3, .L31
 404 000a 1B68     		ldr	r3, [r3]
 237:Middlewares/Third_Party/FreeRTOS/Source/timers.c **** 	{
 405              		.loc 1 237 4 view .LVU98
 406 000c 002B     		cmp	r3, #0
 407 000e 1AD0     		beq	.L27
 408              	.LBB3:
 241:Middlewares/Third_Party/FreeRTOS/Source/timers.c **** 			StackType_t *pxTimerTaskStackBuffer = NULL;
 409              		.loc 1 241 4 is_stmt 1 view .LVU99
 241:Middlewares/Third_Party/FreeRTOS/Source/timers.c **** 			StackType_t *pxTimerTaskStackBuffer = NULL;
 410              		.loc 1 241 18 is_stmt 0 view .LVU100
 411 0010 0023     		movs	r3, #0
 412 0012 0593     		str	r3, [sp, #20]
 242:Middlewares/Third_Party/FreeRTOS/Source/timers.c **** 			uint32_t ulTimerTaskStackSize;
 413              		.loc 1 242 4 is_stmt 1 view .LVU101
 242:Middlewares/Third_Party/FreeRTOS/Source/timers.c **** 			uint32_t ulTimerTaskStackSize;
 414              		.loc 1 242 17 is_stmt 0 view .LVU102
 415 0014 0693     		str	r3, [sp, #24]
 243:Middlewares/Third_Party/FreeRTOS/Source/timers.c **** 
 416              		.loc 1 243 4 is_stmt 1 view .LVU103
 245:Middlewares/Third_Party/FreeRTOS/Source/timers.c **** 			xTimerTaskHandle = xTaskCreateStatic(	prvTimerTask,
 417              		.loc 1 245 4 view .LVU104
 418 0016 07AA     		add	r2, sp, #28
 419 0018 06A9     		add	r1, sp, #24
 420 001a 05A8     		add	r0, sp, #20
 421 001c FFF7FEFF 		bl	vApplicationGetTimerTaskMemory
 422              	.LVL34:
 246:Middlewares/Third_Party/FreeRTOS/Source/timers.c **** 													configTIMER_SERVICE_TASK_NAME,
 423              		.loc 1 246 4 view .LVU105
 246:Middlewares/Third_Party/FreeRTOS/Source/timers.c **** 													configTIMER_SERVICE_TASK_NAME,
 424              		.loc 1 246 23 is_stmt 0 view .LVU106
 425 0020 079A     		ldr	r2, [sp, #28]
 426 0022 0B49     		ldr	r1, .L31+4
ARM GAS  /tmp/ccYeCTy1.s 			page 27


 427 0024 0B48     		ldr	r0, .L31+8
 428 0026 059B     		ldr	r3, [sp, #20]
 429 0028 0293     		str	r3, [sp, #8]
 430 002a 069B     		ldr	r3, [sp, #24]
 431 002c 0193     		str	r3, [sp, #4]
 432 002e 0223     		movs	r3, #2
 433 0030 0093     		str	r3, [sp]
 434 0032 0023     		movs	r3, #0
 435 0034 FFF7FEFF 		bl	xTaskCreateStatic
 436              	.LVL35:
 246:Middlewares/Third_Party/FreeRTOS/Source/timers.c **** 													configTIMER_SERVICE_TASK_NAME,
 437              		.loc 1 246 21 discriminator 1 view .LVU107
 438 0038 074B     		ldr	r3, .L31+12
 439 003a 1860     		str	r0, [r3]
 254:Middlewares/Third_Party/FreeRTOS/Source/timers.c **** 			{
 440              		.loc 1 254 4 is_stmt 1 view .LVU108
 254:Middlewares/Third_Party/FreeRTOS/Source/timers.c **** 			{
 441              		.loc 1 254 6 is_stmt 0 view .LVU109
 442 003c 0028     		cmp	r0, #0
 443 003e 02D0     		beq	.L27
 444              	.LBE3:
 277:Middlewares/Third_Party/FreeRTOS/Source/timers.c **** /*-----------------------------------------------------------*/
 445              		.loc 1 277 1 view .LVU110
 446 0040 0120     		movs	r0, #1
 447 0042 09B0     		add	sp, sp, #36
 448              		@ sp needed
 449 0044 00BD     		pop	{pc}
 450              	.L27:
 451              	.LVL36:
 275:Middlewares/Third_Party/FreeRTOS/Source/timers.c **** 	return xReturn;
 452              		.loc 1 275 2 is_stmt 1 discriminator 1 view .LVU111
 453              		.syntax divided
 454              	@ 275 "Middlewares/Third_Party/FreeRTOS/Source/timers.c" 1
 455 0046 72B6     		 cpsid i 
 456              	@ 0 "" 2
 457              		.thumb
 458              		.syntax unified
 459              	.L29:
 275:Middlewares/Third_Party/FreeRTOS/Source/timers.c **** 	return xReturn;
 460              		.loc 1 275 2 discriminator 3 view .LVU112
 275:Middlewares/Third_Party/FreeRTOS/Source/timers.c **** 	return xReturn;
 461              		.loc 1 275 2 discriminator 3 view .LVU113
 462 0048 FEE7     		b	.L29
 463              	.L32:
 464 004a C046     		.align	2
 465              	.L31:
 466 004c 00000000 		.word	xTimerQueue
 467 0050 00000000 		.word	.LC13
 468 0054 00000000 		.word	prvTimerTask
 469 0058 00000000 		.word	xTimerTaskHandle
 470              		.cfi_endproc
 471              	.LFE0:
 473              		.section	.text.xTimerCreate,"ax",%progbits
 474              		.align	1
 475              		.global	xTimerCreate
 476              		.syntax unified
 477              		.code	16
ARM GAS  /tmp/ccYeCTy1.s 			page 28


 478              		.thumb_func
 480              	xTimerCreate:
 481              	.LVL37:
 482              	.LFB1:
 287:Middlewares/Third_Party/FreeRTOS/Source/timers.c **** 	Timer_t *pxNewTimer;
 483              		.loc 1 287 2 view -0
 484              		.cfi_startproc
 485              		@ args = 4, pretend = 0, frame = 8
 486              		@ frame_needed = 0, uses_anonymous_args = 0
 287:Middlewares/Third_Party/FreeRTOS/Source/timers.c **** 	Timer_t *pxNewTimer;
 487              		.loc 1 287 2 is_stmt 0 view .LVU115
 488 0000 F0B5     		push	{r4, r5, r6, r7, lr}
 489              		.cfi_def_cfa_offset 20
 490              		.cfi_offset 4, -20
 491              		.cfi_offset 5, -16
 492              		.cfi_offset 6, -12
 493              		.cfi_offset 7, -8
 494              		.cfi_offset 14, -4
 495 0002 85B0     		sub	sp, sp, #20
 496              		.cfi_def_cfa_offset 40
 497 0004 0390     		str	r0, [sp, #12]
 498 0006 0D00     		movs	r5, r1
 499 0008 1600     		movs	r6, r2
 500 000a 1F00     		movs	r7, r3
 288:Middlewares/Third_Party/FreeRTOS/Source/timers.c **** 
 501              		.loc 1 288 2 is_stmt 1 view .LVU116
 290:Middlewares/Third_Party/FreeRTOS/Source/timers.c **** 
 502              		.loc 1 290 3 view .LVU117
 290:Middlewares/Third_Party/FreeRTOS/Source/timers.c **** 
 503              		.loc 1 290 30 is_stmt 0 view .LVU118
 504 000c 2C20     		movs	r0, #44
 505              	.LVL38:
 290:Middlewares/Third_Party/FreeRTOS/Source/timers.c **** 
 506              		.loc 1 290 30 view .LVU119
 507 000e FFF7FEFF 		bl	pvPortMalloc
 508              	.LVL39:
 290:Middlewares/Third_Party/FreeRTOS/Source/timers.c **** 
 509              		.loc 1 290 30 view .LVU120
 510 0012 041E     		subs	r4, r0, #0
 511              	.LVL40:
 292:Middlewares/Third_Party/FreeRTOS/Source/timers.c **** 		{
 512              		.loc 1 292 3 is_stmt 1 view .LVU121
 292:Middlewares/Third_Party/FreeRTOS/Source/timers.c **** 		{
 513              		.loc 1 292 5 is_stmt 0 view .LVU122
 514 0014 0BD0     		beq	.L33
 297:Middlewares/Third_Party/FreeRTOS/Source/timers.c **** 			prvInitialiseNewTimer( pcTimerName, xTimerPeriodInTicks, uxAutoReload, pvTimerID, pxCallbackFunc
 515              		.loc 1 297 4 is_stmt 1 view .LVU123
 297:Middlewares/Third_Party/FreeRTOS/Source/timers.c **** 			prvInitialiseNewTimer( pcTimerName, xTimerPeriodInTicks, uxAutoReload, pvTimerID, pxCallbackFunc
 516              		.loc 1 297 25 is_stmt 0 view .LVU124
 517 0016 2823     		movs	r3, #40
 518 0018 0022     		movs	r2, #0
 519 001a C254     		strb	r2, [r0, r3]
 298:Middlewares/Third_Party/FreeRTOS/Source/timers.c **** 		}
 520              		.loc 1 298 4 is_stmt 1 view .LVU125
 521 001c 0190     		str	r0, [sp, #4]
 522 001e 0A9B     		ldr	r3, [sp, #40]
 523 0020 0093     		str	r3, [sp]
ARM GAS  /tmp/ccYeCTy1.s 			page 29


 524 0022 3B00     		movs	r3, r7
 525 0024 3200     		movs	r2, r6
 526 0026 2900     		movs	r1, r5
 527 0028 0398     		ldr	r0, [sp, #12]
 528              	.LVL41:
 298:Middlewares/Third_Party/FreeRTOS/Source/timers.c **** 		}
 529              		.loc 1 298 4 is_stmt 0 view .LVU126
 530 002a FFF7FEFF 		bl	prvInitialiseNewTimer
 531              	.LVL42:
 301:Middlewares/Third_Party/FreeRTOS/Source/timers.c **** 	}
 532              		.loc 1 301 3 is_stmt 1 view .LVU127
 533              	.L33:
 302:Middlewares/Third_Party/FreeRTOS/Source/timers.c **** 
 534              		.loc 1 302 2 is_stmt 0 view .LVU128
 535 002e 2000     		movs	r0, r4
 536 0030 05B0     		add	sp, sp, #20
 537              		@ sp needed
 538              	.LVL43:
 539              	.LVL44:
 540              	.LVL45:
 541              	.LVL46:
 302:Middlewares/Third_Party/FreeRTOS/Source/timers.c **** 
 542              		.loc 1 302 2 view .LVU129
 543 0032 F0BD     		pop	{r4, r5, r6, r7, pc}
 544              		.cfi_endproc
 545              	.LFE1:
 547              		.section	.text.xTimerCreateStatic,"ax",%progbits
 548              		.align	1
 549              		.global	xTimerCreateStatic
 550              		.syntax unified
 551              		.code	16
 552              		.thumb_func
 554              	xTimerCreateStatic:
 555              	.LVL47:
 556              	.LFB2:
 315:Middlewares/Third_Party/FreeRTOS/Source/timers.c **** 	Timer_t *pxNewTimer;
 557              		.loc 1 315 2 is_stmt 1 view -0
 558              		.cfi_startproc
 559              		@ args = 8, pretend = 0, frame = 8
 560              		@ frame_needed = 0, uses_anonymous_args = 0
 315:Middlewares/Third_Party/FreeRTOS/Source/timers.c **** 	Timer_t *pxNewTimer;
 561              		.loc 1 315 2 is_stmt 0 view .LVU131
 562 0000 70B5     		push	{r4, r5, r6, lr}
 563              		.cfi_def_cfa_offset 16
 564              		.cfi_offset 4, -16
 565              		.cfi_offset 5, -12
 566              		.cfi_offset 6, -8
 567              		.cfi_offset 14, -4
 568 0002 84B0     		sub	sp, sp, #16
 569              		.cfi_def_cfa_offset 32
 316:Middlewares/Third_Party/FreeRTOS/Source/timers.c **** 
 570              		.loc 1 316 2 is_stmt 1 view .LVU132
 571              	.LBB4:
 323:Middlewares/Third_Party/FreeRTOS/Source/timers.c **** 			configASSERT( xSize == sizeof( Timer_t ) );
 572              		.loc 1 323 4 view .LVU133
 323:Middlewares/Third_Party/FreeRTOS/Source/timers.c **** 			configASSERT( xSize == sizeof( Timer_t ) );
 573              		.loc 1 323 20 is_stmt 0 view .LVU134
ARM GAS  /tmp/ccYeCTy1.s 			page 30


 574 0004 2C24     		movs	r4, #44
 575 0006 0394     		str	r4, [sp, #12]
 324:Middlewares/Third_Party/FreeRTOS/Source/timers.c **** 			( void ) xSize; /* Keeps lint quiet when configASSERT() is not defined. */
 576              		.loc 1 324 4 is_stmt 1 view .LVU135
 577 0008 039C     		ldr	r4, [sp, #12]
 578 000a 2C2C     		cmp	r4, #44
 579 000c 01D0     		beq	.L36
 324:Middlewares/Third_Party/FreeRTOS/Source/timers.c **** 			( void ) xSize; /* Keeps lint quiet when configASSERT() is not defined. */
 580              		.loc 1 324 4 discriminator 1 view .LVU136
 581              		.syntax divided
 582              	@ 324 "Middlewares/Third_Party/FreeRTOS/Source/timers.c" 1
 583 000e 72B6     		 cpsid i 
 584              	@ 0 "" 2
 585              		.thumb
 586              		.syntax unified
 587              	.L37:
 324:Middlewares/Third_Party/FreeRTOS/Source/timers.c **** 			( void ) xSize; /* Keeps lint quiet when configASSERT() is not defined. */
 588              		.loc 1 324 4 discriminator 3 view .LVU137
 324:Middlewares/Third_Party/FreeRTOS/Source/timers.c **** 			( void ) xSize; /* Keeps lint quiet when configASSERT() is not defined. */
 589              		.loc 1 324 4 discriminator 3 view .LVU138
 590 0010 FEE7     		b	.L37
 591              	.L36:
 324:Middlewares/Third_Party/FreeRTOS/Source/timers.c **** 			( void ) xSize; /* Keeps lint quiet when configASSERT() is not defined. */
 592              		.loc 1 324 46 discriminator 2 view .LVU139
 325:Middlewares/Third_Party/FreeRTOS/Source/timers.c **** 		}
 593              		.loc 1 325 4 view .LVU140
 594 0012 039C     		ldr	r4, [sp, #12]
 595              	.LBE4:
 330:Middlewares/Third_Party/FreeRTOS/Source/timers.c **** 		pxNewTimer = ( Timer_t * ) pxTimerBuffer; /*lint !e740 !e9087 StaticTimer_t is a pointer to a Tim
 596              		.loc 1 330 3 view .LVU141
 597 0014 099C     		ldr	r4, [sp, #36]
 598 0016 002C     		cmp	r4, #0
 599 0018 0BD0     		beq	.L40
 330:Middlewares/Third_Party/FreeRTOS/Source/timers.c **** 		pxNewTimer = ( Timer_t * ) pxTimerBuffer; /*lint !e740 !e9087 StaticTimer_t is a pointer to a Tim
 600              		.loc 1 330 32 discriminator 2 view .LVU142
 331:Middlewares/Third_Party/FreeRTOS/Source/timers.c **** 
 601              		.loc 1 331 3 view .LVU143
 602              	.LVL48:
 333:Middlewares/Third_Party/FreeRTOS/Source/timers.c **** 		{
 603              		.loc 1 333 3 view .LVU144
 338:Middlewares/Third_Party/FreeRTOS/Source/timers.c **** 
 604              		.loc 1 338 4 view .LVU145
 338:Middlewares/Third_Party/FreeRTOS/Source/timers.c **** 
 605              		.loc 1 338 25 is_stmt 0 view .LVU146
 606 001a 2824     		movs	r4, #40
 607              	.LVL49:
 338:Middlewares/Third_Party/FreeRTOS/Source/timers.c **** 
 608              		.loc 1 338 25 view .LVU147
 609 001c 0225     		movs	r5, #2
 610 001e 099E     		ldr	r6, [sp, #36]
 611 0020 3555     		strb	r5, [r6, r4]
 340:Middlewares/Third_Party/FreeRTOS/Source/timers.c **** 		}
 612              		.loc 1 340 4 is_stmt 1 view .LVU148
 613 0022 0196     		str	r6, [sp, #4]
 614 0024 089C     		ldr	r4, [sp, #32]
 615 0026 0094     		str	r4, [sp]
 616 0028 FFF7FEFF 		bl	prvInitialiseNewTimer
ARM GAS  /tmp/ccYeCTy1.s 			page 31


 617              	.LVL50:
 343:Middlewares/Third_Party/FreeRTOS/Source/timers.c **** 	}
 618              		.loc 1 343 3 view .LVU149
 344:Middlewares/Third_Party/FreeRTOS/Source/timers.c **** 
 619              		.loc 1 344 2 is_stmt 0 view .LVU150
 620 002c 0998     		ldr	r0, [sp, #36]
 621 002e 04B0     		add	sp, sp, #16
 622              		@ sp needed
 623 0030 70BD     		pop	{r4, r5, r6, pc}
 624              	.LVL51:
 625              	.L40:
 330:Middlewares/Third_Party/FreeRTOS/Source/timers.c **** 		pxNewTimer = ( Timer_t * ) pxTimerBuffer; /*lint !e740 !e9087 StaticTimer_t is a pointer to a Tim
 626              		.loc 1 330 3 is_stmt 1 discriminator 1 view .LVU151
 627              		.syntax divided
 628              	@ 330 "Middlewares/Third_Party/FreeRTOS/Source/timers.c" 1
 629 0032 72B6     		 cpsid i 
 630              	@ 0 "" 2
 631              		.thumb
 632              		.syntax unified
 633              	.L39:
 330:Middlewares/Third_Party/FreeRTOS/Source/timers.c **** 		pxNewTimer = ( Timer_t * ) pxTimerBuffer; /*lint !e740 !e9087 StaticTimer_t is a pointer to a Tim
 634              		.loc 1 330 3 discriminator 3 view .LVU152
 330:Middlewares/Third_Party/FreeRTOS/Source/timers.c **** 		pxNewTimer = ( Timer_t * ) pxTimerBuffer; /*lint !e740 !e9087 StaticTimer_t is a pointer to a Tim
 635              		.loc 1 330 3 discriminator 3 view .LVU153
 636 0034 FEE7     		b	.L39
 637              		.cfi_endproc
 638              	.LFE2:
 640              		.section	.text.xTimerGenericCommand,"ax",%progbits
 641              		.align	1
 642              		.global	xTimerGenericCommand
 643              		.syntax unified
 644              		.code	16
 645              		.thumb_func
 647              	xTimerGenericCommand:
 648              	.LVL52:
 649              	.LFB4:
 382:Middlewares/Third_Party/FreeRTOS/Source/timers.c **** BaseType_t xReturn = pdFAIL;
 650              		.loc 1 382 1 view -0
 651              		.cfi_startproc
 652              		@ args = 4, pretend = 0, frame = 16
 653              		@ frame_needed = 0, uses_anonymous_args = 0
 382:Middlewares/Third_Party/FreeRTOS/Source/timers.c **** BaseType_t xReturn = pdFAIL;
 654              		.loc 1 382 1 is_stmt 0 view .LVU155
 655 0000 30B5     		push	{r4, r5, lr}
 656              		.cfi_def_cfa_offset 12
 657              		.cfi_offset 4, -12
 658              		.cfi_offset 5, -8
 659              		.cfi_offset 14, -4
 660 0002 85B0     		sub	sp, sp, #20
 661              		.cfi_def_cfa_offset 32
 662 0004 1400     		movs	r4, r2
 663 0006 1A00     		movs	r2, r3
 664              	.LVL53:
 383:Middlewares/Third_Party/FreeRTOS/Source/timers.c **** DaemonTaskMessage_t xMessage;
 665              		.loc 1 383 1 is_stmt 1 view .LVU156
 384:Middlewares/Third_Party/FreeRTOS/Source/timers.c **** 
 666              		.loc 1 384 1 view .LVU157
ARM GAS  /tmp/ccYeCTy1.s 			page 32


 386:Middlewares/Third_Party/FreeRTOS/Source/timers.c **** 
 667              		.loc 1 386 2 view .LVU158
 668 0008 0028     		cmp	r0, #0
 669 000a 14D0     		beq	.L48
 386:Middlewares/Third_Party/FreeRTOS/Source/timers.c **** 
 670              		.loc 1 386 24 discriminator 2 view .LVU159
 390:Middlewares/Third_Party/FreeRTOS/Source/timers.c **** 	{
 671              		.loc 1 390 2 view .LVU160
 390:Middlewares/Third_Party/FreeRTOS/Source/timers.c **** 	{
 672              		.loc 1 390 18 is_stmt 0 view .LVU161
 673 000c 134B     		ldr	r3, .L50
 674              	.LVL54:
 390:Middlewares/Third_Party/FreeRTOS/Source/timers.c **** 	{
 675              		.loc 1 390 18 view .LVU162
 676 000e 1D68     		ldr	r5, [r3]
 390:Middlewares/Third_Party/FreeRTOS/Source/timers.c **** 	{
 677              		.loc 1 390 4 view .LVU163
 678 0010 002D     		cmp	r5, #0
 679 0012 21D0     		beq	.L47
 393:Middlewares/Third_Party/FreeRTOS/Source/timers.c **** 		xMessage.u.xTimerParameters.xMessageValue = xOptionalValue;
 680              		.loc 1 393 3 is_stmt 1 view .LVU164
 393:Middlewares/Third_Party/FreeRTOS/Source/timers.c **** 		xMessage.u.xTimerParameters.xMessageValue = xOptionalValue;
 681              		.loc 1 393 23 is_stmt 0 view .LVU165
 682 0014 0091     		str	r1, [sp]
 394:Middlewares/Third_Party/FreeRTOS/Source/timers.c **** 		xMessage.u.xTimerParameters.pxTimer = xTimer;
 683              		.loc 1 394 3 is_stmt 1 view .LVU166
 394:Middlewares/Third_Party/FreeRTOS/Source/timers.c **** 		xMessage.u.xTimerParameters.pxTimer = xTimer;
 684              		.loc 1 394 45 is_stmt 0 view .LVU167
 685 0016 0194     		str	r4, [sp, #4]
 395:Middlewares/Third_Party/FreeRTOS/Source/timers.c **** 
 686              		.loc 1 395 3 is_stmt 1 view .LVU168
 395:Middlewares/Third_Party/FreeRTOS/Source/timers.c **** 
 687              		.loc 1 395 39 is_stmt 0 view .LVU169
 688 0018 0290     		str	r0, [sp, #8]
 397:Middlewares/Third_Party/FreeRTOS/Source/timers.c **** 		{
 689              		.loc 1 397 3 is_stmt 1 view .LVU170
 397:Middlewares/Third_Party/FreeRTOS/Source/timers.c **** 		{
 690              		.loc 1 397 5 is_stmt 0 view .LVU171
 691 001a 0529     		cmp	r1, #5
 692 001c 15DC     		bgt	.L45
 399:Middlewares/Third_Party/FreeRTOS/Source/timers.c **** 			{
 693              		.loc 1 399 4 is_stmt 1 view .LVU172
 399:Middlewares/Third_Party/FreeRTOS/Source/timers.c **** 			{
 694              		.loc 1 399 8 is_stmt 0 view .LVU173
 695 001e FFF7FEFF 		bl	xTaskGetSchedulerState
 696              	.LVL55:
 399:Middlewares/Third_Party/FreeRTOS/Source/timers.c **** 			{
 697              		.loc 1 399 6 discriminator 1 view .LVU174
 698 0022 0228     		cmp	r0, #2
 699 0024 09D0     		beq	.L49
 405:Middlewares/Third_Party/FreeRTOS/Source/timers.c **** 			}
 700              		.loc 1 405 5 is_stmt 1 view .LVU175
 405:Middlewares/Third_Party/FreeRTOS/Source/timers.c **** 			}
 701              		.loc 1 405 15 is_stmt 0 view .LVU176
 702 0026 0D4B     		ldr	r3, .L50
 703 0028 1868     		ldr	r0, [r3]
 704 002a 0023     		movs	r3, #0
ARM GAS  /tmp/ccYeCTy1.s 			page 33


 705 002c 0022     		movs	r2, #0
 706 002e 6946     		mov	r1, sp
 707 0030 FFF7FEFF 		bl	xQueueGenericSend
 708              	.LVL56:
 405:Middlewares/Third_Party/FreeRTOS/Source/timers.c **** 			}
 709              		.loc 1 405 15 view .LVU177
 710 0034 0EE0     		b	.L41
 711              	.LVL57:
 712              	.L48:
 386:Middlewares/Third_Party/FreeRTOS/Source/timers.c **** 
 713              		.loc 1 386 2 is_stmt 1 discriminator 1 view .LVU178
 714              		.syntax divided
 715              	@ 386 "Middlewares/Third_Party/FreeRTOS/Source/timers.c" 1
 716 0036 72B6     		 cpsid i 
 717              	@ 0 "" 2
 718              		.thumb
 719              		.syntax unified
 720              	.L43:
 386:Middlewares/Third_Party/FreeRTOS/Source/timers.c **** 
 721              		.loc 1 386 2 discriminator 3 view .LVU179
 386:Middlewares/Third_Party/FreeRTOS/Source/timers.c **** 
 722              		.loc 1 386 2 discriminator 3 view .LVU180
 723 0038 FEE7     		b	.L43
 724              	.LVL58:
 725              	.L49:
 401:Middlewares/Third_Party/FreeRTOS/Source/timers.c **** 			}
 726              		.loc 1 401 5 view .LVU181
 401:Middlewares/Third_Party/FreeRTOS/Source/timers.c **** 			}
 727              		.loc 1 401 15 is_stmt 0 view .LVU182
 728 003a 084B     		ldr	r3, .L50
 729 003c 1868     		ldr	r0, [r3]
 730 003e 0023     		movs	r3, #0
 731 0040 089A     		ldr	r2, [sp, #32]
 732 0042 6946     		mov	r1, sp
 733 0044 FFF7FEFF 		bl	xQueueGenericSend
 734              	.LVL59:
 401:Middlewares/Third_Party/FreeRTOS/Source/timers.c **** 			}
 735              		.loc 1 401 15 view .LVU183
 736 0048 04E0     		b	.L41
 737              	.LVL60:
 738              	.L45:
 410:Middlewares/Third_Party/FreeRTOS/Source/timers.c **** 		}
 739              		.loc 1 410 4 is_stmt 1 view .LVU184
 410:Middlewares/Third_Party/FreeRTOS/Source/timers.c **** 		}
 740              		.loc 1 410 14 is_stmt 0 view .LVU185
 741 004a 0023     		movs	r3, #0
 742 004c 6946     		mov	r1, sp
 743              	.LVL61:
 410:Middlewares/Third_Party/FreeRTOS/Source/timers.c **** 		}
 744              		.loc 1 410 14 view .LVU186
 745 004e 2800     		movs	r0, r5
 746              	.LVL62:
 410:Middlewares/Third_Party/FreeRTOS/Source/timers.c **** 		}
 747              		.loc 1 410 14 view .LVU187
 748 0050 FFF7FEFF 		bl	xQueueGenericSendFromISR
 749              	.LVL63:
 750              	.L41:
ARM GAS  /tmp/ccYeCTy1.s 			page 34


 421:Middlewares/Third_Party/FreeRTOS/Source/timers.c **** /*-----------------------------------------------------------*/
 751              		.loc 1 421 1 view .LVU188
 752 0054 05B0     		add	sp, sp, #20
 753              		@ sp needed
 754              	.LVL64:
 421:Middlewares/Third_Party/FreeRTOS/Source/timers.c **** /*-----------------------------------------------------------*/
 755              		.loc 1 421 1 view .LVU189
 756 0056 30BD     		pop	{r4, r5, pc}
 757              	.LVL65:
 758              	.L47:
 383:Middlewares/Third_Party/FreeRTOS/Source/timers.c **** DaemonTaskMessage_t xMessage;
 759              		.loc 1 383 12 view .LVU190
 760 0058 0020     		movs	r0, #0
 761              	.LVL66:
 417:Middlewares/Third_Party/FreeRTOS/Source/timers.c **** 	}
 762              		.loc 1 417 27 is_stmt 1 view .LVU191
 420:Middlewares/Third_Party/FreeRTOS/Source/timers.c **** }
 763              		.loc 1 420 2 view .LVU192
 420:Middlewares/Third_Party/FreeRTOS/Source/timers.c **** }
 764              		.loc 1 420 9 is_stmt 0 view .LVU193
 765 005a FBE7     		b	.L41
 766              	.L51:
 767              		.align	2
 768              	.L50:
 769 005c 00000000 		.word	xTimerQueue
 770              		.cfi_endproc
 771              	.LFE4:
 773              		.section	.text.prvSwitchTimerLists,"ax",%progbits
 774              		.align	1
 775              		.syntax unified
 776              		.code	16
 777              		.thumb_func
 779              	prvSwitchTimerLists:
 780              	.LFB18:
 883:Middlewares/Third_Party/FreeRTOS/Source/timers.c **** TickType_t xNextExpireTime, xReloadTime;
 781              		.loc 1 883 1 is_stmt 1 view -0
 782              		.cfi_startproc
 783              		@ args = 0, pretend = 0, frame = 0
 784              		@ frame_needed = 0, uses_anonymous_args = 0
 785 0000 70B5     		push	{r4, r5, r6, lr}
 786              		.cfi_def_cfa_offset 16
 787              		.cfi_offset 4, -16
 788              		.cfi_offset 5, -12
 789              		.cfi_offset 6, -8
 790              		.cfi_offset 14, -4
 791 0002 82B0     		sub	sp, sp, #8
 792              		.cfi_def_cfa_offset 24
 884:Middlewares/Third_Party/FreeRTOS/Source/timers.c **** List_t *pxTemp;
 793              		.loc 1 884 1 view .LVU195
 885:Middlewares/Third_Party/FreeRTOS/Source/timers.c **** Timer_t *pxTimer;
 794              		.loc 1 885 1 view .LVU196
 886:Middlewares/Third_Party/FreeRTOS/Source/timers.c **** BaseType_t xResult;
 795              		.loc 1 886 1 view .LVU197
 887:Middlewares/Third_Party/FreeRTOS/Source/timers.c **** 
 796              		.loc 1 887 1 view .LVU198
 893:Middlewares/Third_Party/FreeRTOS/Source/timers.c **** 	{
 797              		.loc 1 893 2 view .LVU199
ARM GAS  /tmp/ccYeCTy1.s 			page 35


 798              	.L54:
 931:Middlewares/Third_Party/FreeRTOS/Source/timers.c **** 		}
 799              		.loc 1 931 28 view .LVU200
 893:Middlewares/Third_Party/FreeRTOS/Source/timers.c **** 	{
 800              		.loc 1 893 49 view .LVU201
 893:Middlewares/Third_Party/FreeRTOS/Source/timers.c **** 	{
 801              		.loc 1 893 9 is_stmt 0 view .LVU202
 802 0004 184B     		ldr	r3, .L61
 803 0006 1B68     		ldr	r3, [r3]
 804 0008 1A68     		ldr	r2, [r3]
 893:Middlewares/Third_Party/FreeRTOS/Source/timers.c **** 	{
 805              		.loc 1 893 49 view .LVU203
 806 000a 002A     		cmp	r2, #0
 807 000c 24D0     		beq	.L60
 895:Middlewares/Third_Party/FreeRTOS/Source/timers.c **** 
 808              		.loc 1 895 3 is_stmt 1 view .LVU204
 895:Middlewares/Third_Party/FreeRTOS/Source/timers.c **** 
 809              		.loc 1 895 21 is_stmt 0 view .LVU205
 810 000e DB68     		ldr	r3, [r3, #12]
 895:Middlewares/Third_Party/FreeRTOS/Source/timers.c **** 
 811              		.loc 1 895 19 view .LVU206
 812 0010 1E68     		ldr	r6, [r3]
 813              	.LVL67:
 898:Middlewares/Third_Party/FreeRTOS/Source/timers.c **** 		( void ) uxListRemove( &( pxTimer->xTimerListItem ) );
 814              		.loc 1 898 3 is_stmt 1 view .LVU207
 898:Middlewares/Third_Party/FreeRTOS/Source/timers.c **** 		( void ) uxListRemove( &( pxTimer->xTimerListItem ) );
 815              		.loc 1 898 11 is_stmt 0 view .LVU208
 816 0012 DC68     		ldr	r4, [r3, #12]
 817              	.LVL68:
 899:Middlewares/Third_Party/FreeRTOS/Source/timers.c **** 		traceTIMER_EXPIRED( pxTimer );
 818              		.loc 1 899 3 is_stmt 1 view .LVU209
 899:Middlewares/Third_Party/FreeRTOS/Source/timers.c **** 		traceTIMER_EXPIRED( pxTimer );
 819              		.loc 1 899 12 is_stmt 0 view .LVU210
 820 0014 251D     		adds	r5, r4, #4
 821 0016 2800     		movs	r0, r5
 822 0018 FFF7FEFF 		bl	uxListRemove
 823              	.LVL69:
 900:Middlewares/Third_Party/FreeRTOS/Source/timers.c **** 
 824              		.loc 1 900 32 is_stmt 1 view .LVU211
 905:Middlewares/Third_Party/FreeRTOS/Source/timers.c **** 
 825              		.loc 1 905 3 view .LVU212
 905:Middlewares/Third_Party/FreeRTOS/Source/timers.c **** 
 826              		.loc 1 905 10 is_stmt 0 view .LVU213
 827 001c 236A     		ldr	r3, [r4, #32]
 905:Middlewares/Third_Party/FreeRTOS/Source/timers.c **** 
 828              		.loc 1 905 3 view .LVU214
 829 001e 2000     		movs	r0, r4
 830 0020 9847     		blx	r3
 831              	.LVL70:
 907:Middlewares/Third_Party/FreeRTOS/Source/timers.c **** 		{
 832              		.loc 1 907 3 is_stmt 1 view .LVU215
 907:Middlewares/Third_Party/FreeRTOS/Source/timers.c **** 		{
 833              		.loc 1 907 16 is_stmt 0 view .LVU216
 834 0022 2823     		movs	r3, #40
 835 0024 E35C     		ldrb	r3, [r4, r3]
 907:Middlewares/Third_Party/FreeRTOS/Source/timers.c **** 		{
 836              		.loc 1 907 5 view .LVU217
ARM GAS  /tmp/ccYeCTy1.s 			page 36


 837 0026 5B07     		lsls	r3, r3, #29
 838 0028 ECD5     		bpl	.L54
 915:Middlewares/Third_Party/FreeRTOS/Source/timers.c **** 			if( xReloadTime > xNextExpireTime )
 839              		.loc 1 915 4 is_stmt 1 view .LVU218
 915:Middlewares/Third_Party/FreeRTOS/Source/timers.c **** 			if( xReloadTime > xNextExpireTime )
 840              		.loc 1 915 45 is_stmt 0 view .LVU219
 841 002a A369     		ldr	r3, [r4, #24]
 915:Middlewares/Third_Party/FreeRTOS/Source/timers.c **** 			if( xReloadTime > xNextExpireTime )
 842              		.loc 1 915 16 view .LVU220
 843 002c 9B19     		adds	r3, r3, r6
 844              	.LVL71:
 916:Middlewares/Third_Party/FreeRTOS/Source/timers.c **** 			{
 845              		.loc 1 916 4 is_stmt 1 view .LVU221
 916:Middlewares/Third_Party/FreeRTOS/Source/timers.c **** 			{
 846              		.loc 1 916 6 is_stmt 0 view .LVU222
 847 002e 9E42     		cmp	r6, r3
 848 0030 07D2     		bcs	.L55
 918:Middlewares/Third_Party/FreeRTOS/Source/timers.c **** 				listSET_LIST_ITEM_OWNER( &( pxTimer->xTimerListItem ), pxTimer );
 849              		.loc 1 918 5 is_stmt 1 view .LVU223
 850 0032 6360     		str	r3, [r4, #4]
 919:Middlewares/Third_Party/FreeRTOS/Source/timers.c **** 				vListInsert( pxCurrentTimerList, &( pxTimer->xTimerListItem ) );
 851              		.loc 1 919 5 view .LVU224
 852 0034 2461     		str	r4, [r4, #16]
 920:Middlewares/Third_Party/FreeRTOS/Source/timers.c **** 			}
 853              		.loc 1 920 5 view .LVU225
 854 0036 0C4B     		ldr	r3, .L61
 855              	.LVL72:
 920:Middlewares/Third_Party/FreeRTOS/Source/timers.c **** 			}
 856              		.loc 1 920 5 is_stmt 0 view .LVU226
 857 0038 1868     		ldr	r0, [r3]
 858 003a 2900     		movs	r1, r5
 859 003c FFF7FEFF 		bl	vListInsert
 860              	.LVL73:
 920:Middlewares/Third_Party/FreeRTOS/Source/timers.c **** 			}
 861              		.loc 1 920 5 view .LVU227
 862 0040 E0E7     		b	.L54
 863              	.LVL74:
 864              	.L55:
 924:Middlewares/Third_Party/FreeRTOS/Source/timers.c **** 				configASSERT( xResult );
 865              		.loc 1 924 5 is_stmt 1 view .LVU228
 924:Middlewares/Third_Party/FreeRTOS/Source/timers.c **** 				configASSERT( xResult );
 866              		.loc 1 924 15 is_stmt 0 view .LVU229
 867 0042 0023     		movs	r3, #0
 868              	.LVL75:
 924:Middlewares/Third_Party/FreeRTOS/Source/timers.c **** 				configASSERT( xResult );
 869              		.loc 1 924 15 view .LVU230
 870 0044 0093     		str	r3, [sp]
 871              	.LVL76:
 924:Middlewares/Third_Party/FreeRTOS/Source/timers.c **** 				configASSERT( xResult );
 872              		.loc 1 924 15 view .LVU231
 873 0046 3200     		movs	r2, r6
 874 0048 0021     		movs	r1, #0
 875 004a 2000     		movs	r0, r4
 876 004c FFF7FEFF 		bl	xTimerGenericCommand
 877              	.LVL77:
 925:Middlewares/Third_Party/FreeRTOS/Source/timers.c **** 				( void ) xResult;
 878              		.loc 1 925 5 is_stmt 1 view .LVU232
ARM GAS  /tmp/ccYeCTy1.s 			page 37


 879 0050 0028     		cmp	r0, #0
 880 0052 D7D1     		bne	.L54
 925:Middlewares/Third_Party/FreeRTOS/Source/timers.c **** 				( void ) xResult;
 881              		.loc 1 925 5 discriminator 1 view .LVU233
 882              		.syntax divided
 883              	@ 925 "Middlewares/Third_Party/FreeRTOS/Source/timers.c" 1
 884 0054 72B6     		 cpsid i 
 885              	@ 0 "" 2
 886              		.thumb
 887              		.syntax unified
 888              	.L57:
 925:Middlewares/Third_Party/FreeRTOS/Source/timers.c **** 				( void ) xResult;
 889              		.loc 1 925 5 discriminator 3 view .LVU234
 925:Middlewares/Third_Party/FreeRTOS/Source/timers.c **** 				( void ) xResult;
 890              		.loc 1 925 5 discriminator 3 view .LVU235
 891 0056 FEE7     		b	.L57
 892              	.LVL78:
 893              	.L60:
 935:Middlewares/Third_Party/FreeRTOS/Source/timers.c **** 	pxCurrentTimerList = pxOverflowTimerList;
 894              		.loc 1 935 2 view .LVU236
 936:Middlewares/Third_Party/FreeRTOS/Source/timers.c **** 	pxOverflowTimerList = pxTemp;
 895              		.loc 1 936 2 view .LVU237
 936:Middlewares/Third_Party/FreeRTOS/Source/timers.c **** 	pxOverflowTimerList = pxTemp;
 896              		.loc 1 936 21 is_stmt 0 view .LVU238
 897 0058 034A     		ldr	r2, .L61
 898 005a 0449     		ldr	r1, .L61+4
 899 005c 0868     		ldr	r0, [r1]
 900 005e 1060     		str	r0, [r2]
 937:Middlewares/Third_Party/FreeRTOS/Source/timers.c **** }
 901              		.loc 1 937 2 is_stmt 1 view .LVU239
 937:Middlewares/Third_Party/FreeRTOS/Source/timers.c **** }
 902              		.loc 1 937 22 is_stmt 0 view .LVU240
 903 0060 0B60     		str	r3, [r1]
 938:Middlewares/Third_Party/FreeRTOS/Source/timers.c **** /*-----------------------------------------------------------*/
 904              		.loc 1 938 1 view .LVU241
 905 0062 02B0     		add	sp, sp, #8
 906              		@ sp needed
 907 0064 70BD     		pop	{r4, r5, r6, pc}
 908              	.L62:
 909 0066 C046     		.align	2
 910              	.L61:
 911 0068 00000000 		.word	pxCurrentTimerList
 912 006c 00000000 		.word	pxOverflowTimerList
 913              		.cfi_endproc
 914              	.LFE18:
 916              		.section	.text.prvSampleTimeNow,"ax",%progbits
 917              		.align	1
 918              		.syntax unified
 919              		.code	16
 920              		.thumb_func
 922              	prvSampleTimeNow:
 923              	.LVL79:
 924              	.LFB15:
 671:Middlewares/Third_Party/FreeRTOS/Source/timers.c **** TickType_t xTimeNow;
 925              		.loc 1 671 1 is_stmt 1 view -0
 926              		.cfi_startproc
 927              		@ args = 0, pretend = 0, frame = 0
ARM GAS  /tmp/ccYeCTy1.s 			page 38


 928              		@ frame_needed = 0, uses_anonymous_args = 0
 671:Middlewares/Third_Party/FreeRTOS/Source/timers.c **** TickType_t xTimeNow;
 929              		.loc 1 671 1 is_stmt 0 view .LVU243
 930 0000 70B5     		push	{r4, r5, r6, lr}
 931              		.cfi_def_cfa_offset 16
 932              		.cfi_offset 4, -16
 933              		.cfi_offset 5, -12
 934              		.cfi_offset 6, -8
 935              		.cfi_offset 14, -4
 936 0002 0500     		movs	r5, r0
 672:Middlewares/Third_Party/FreeRTOS/Source/timers.c **** PRIVILEGED_DATA static TickType_t xLastTime = ( TickType_t ) 0U; /*lint !e956 Variable is only acce
 937              		.loc 1 672 1 is_stmt 1 view .LVU244
 673:Middlewares/Third_Party/FreeRTOS/Source/timers.c **** 
 938              		.loc 1 673 17 view .LVU245
 675:Middlewares/Third_Party/FreeRTOS/Source/timers.c **** 
 939              		.loc 1 675 2 view .LVU246
 675:Middlewares/Third_Party/FreeRTOS/Source/timers.c **** 
 940              		.loc 1 675 13 is_stmt 0 view .LVU247
 941 0004 FFF7FEFF 		bl	xTaskGetTickCount
 942              	.LVL80:
 675:Middlewares/Third_Party/FreeRTOS/Source/timers.c **** 
 943              		.loc 1 675 13 view .LVU248
 944 0008 0400     		movs	r4, r0
 945              	.LVL81:
 677:Middlewares/Third_Party/FreeRTOS/Source/timers.c **** 	{
 946              		.loc 1 677 2 is_stmt 1 view .LVU249
 677:Middlewares/Third_Party/FreeRTOS/Source/timers.c **** 	{
 947              		.loc 1 677 15 is_stmt 0 view .LVU250
 948 000a 074B     		ldr	r3, .L67
 949 000c 1B68     		ldr	r3, [r3]
 677:Middlewares/Third_Party/FreeRTOS/Source/timers.c **** 	{
 950              		.loc 1 677 4 view .LVU251
 951 000e 8342     		cmp	r3, r0
 952 0010 05D8     		bhi	.L66
 684:Middlewares/Third_Party/FreeRTOS/Source/timers.c **** 	}
 953              		.loc 1 684 3 is_stmt 1 view .LVU252
 684:Middlewares/Third_Party/FreeRTOS/Source/timers.c **** 	}
 954              		.loc 1 684 29 is_stmt 0 view .LVU253
 955 0012 0023     		movs	r3, #0
 956 0014 2B60     		str	r3, [r5]
 957              	.LVL82:
 958              	.L65:
 687:Middlewares/Third_Party/FreeRTOS/Source/timers.c **** 
 959              		.loc 1 687 2 is_stmt 1 view .LVU254
 687:Middlewares/Third_Party/FreeRTOS/Source/timers.c **** 
 960              		.loc 1 687 12 is_stmt 0 view .LVU255
 961 0016 044B     		ldr	r3, .L67
 962 0018 1C60     		str	r4, [r3]
 689:Middlewares/Third_Party/FreeRTOS/Source/timers.c **** }
 963              		.loc 1 689 2 is_stmt 1 view .LVU256
 690:Middlewares/Third_Party/FreeRTOS/Source/timers.c **** /*-----------------------------------------------------------*/
 964              		.loc 1 690 1 is_stmt 0 view .LVU257
 965 001a 2000     		movs	r0, r4
 966              		@ sp needed
 967              	.LVL83:
 968              	.LVL84:
 690:Middlewares/Third_Party/FreeRTOS/Source/timers.c **** /*-----------------------------------------------------------*/
ARM GAS  /tmp/ccYeCTy1.s 			page 39


 969              		.loc 1 690 1 view .LVU258
 970 001c 70BD     		pop	{r4, r5, r6, pc}
 971              	.LVL85:
 972              	.L66:
 679:Middlewares/Third_Party/FreeRTOS/Source/timers.c **** 		*pxTimerListsWereSwitched = pdTRUE;
 973              		.loc 1 679 3 is_stmt 1 view .LVU259
 974 001e FFF7FEFF 		bl	prvSwitchTimerLists
 975              	.LVL86:
 680:Middlewares/Third_Party/FreeRTOS/Source/timers.c **** 	}
 976              		.loc 1 680 3 view .LVU260
 680:Middlewares/Third_Party/FreeRTOS/Source/timers.c **** 	}
 977              		.loc 1 680 29 is_stmt 0 view .LVU261
 978 0022 0123     		movs	r3, #1
 979 0024 2B60     		str	r3, [r5]
 980 0026 F6E7     		b	.L65
 981              	.L68:
 982              		.align	2
 983              	.L67:
 984 0028 00000000 		.word	xLastTime.2
 985              		.cfi_endproc
 986              	.LFE15:
 988              		.section	.text.prvProcessExpiredTimer,"ax",%progbits
 989              		.align	1
 990              		.syntax unified
 991              		.code	16
 992              		.thumb_func
 994              	prvProcessExpiredTimer:
 995              	.LVL87:
 996              	.LFB11:
 508:Middlewares/Third_Party/FreeRTOS/Source/timers.c **** BaseType_t xResult;
 997              		.loc 1 508 1 is_stmt 1 view -0
 998              		.cfi_startproc
 999              		@ args = 0, pretend = 0, frame = 0
 1000              		@ frame_needed = 0, uses_anonymous_args = 0
 508:Middlewares/Third_Party/FreeRTOS/Source/timers.c **** BaseType_t xResult;
 1001              		.loc 1 508 1 is_stmt 0 view .LVU263
 1002 0000 70B5     		push	{r4, r5, r6, lr}
 1003              		.cfi_def_cfa_offset 16
 1004              		.cfi_offset 4, -16
 1005              		.cfi_offset 5, -12
 1006              		.cfi_offset 6, -8
 1007              		.cfi_offset 14, -4
 1008 0002 82B0     		sub	sp, sp, #8
 1009              		.cfi_def_cfa_offset 24
 1010 0004 0500     		movs	r5, r0
 1011 0006 0E00     		movs	r6, r1
 509:Middlewares/Third_Party/FreeRTOS/Source/timers.c **** Timer_t * const pxTimer = ( Timer_t * ) listGET_OWNER_OF_HEAD_ENTRY( pxCurrentTimerList ); /*lint !
 1012              		.loc 1 509 1 is_stmt 1 view .LVU264
 510:Middlewares/Third_Party/FreeRTOS/Source/timers.c **** 
 1013              		.loc 1 510 1 view .LVU265
 510:Middlewares/Third_Party/FreeRTOS/Source/timers.c **** 
 1014              		.loc 1 510 41 is_stmt 0 view .LVU266
 1015 0008 134B     		ldr	r3, .L74
 1016 000a 1B68     		ldr	r3, [r3]
 1017 000c DB68     		ldr	r3, [r3, #12]
 510:Middlewares/Third_Party/FreeRTOS/Source/timers.c **** 
 1018              		.loc 1 510 17 view .LVU267
ARM GAS  /tmp/ccYeCTy1.s 			page 40


 1019 000e DC68     		ldr	r4, [r3, #12]
 1020              	.LVL88:
 514:Middlewares/Third_Party/FreeRTOS/Source/timers.c **** 	traceTIMER_EXPIRED( pxTimer );
 1021              		.loc 1 514 2 is_stmt 1 view .LVU268
 514:Middlewares/Third_Party/FreeRTOS/Source/timers.c **** 	traceTIMER_EXPIRED( pxTimer );
 1022              		.loc 1 514 11 is_stmt 0 view .LVU269
 1023 0010 201D     		adds	r0, r4, #4
 1024              	.LVL89:
 514:Middlewares/Third_Party/FreeRTOS/Source/timers.c **** 	traceTIMER_EXPIRED( pxTimer );
 1025              		.loc 1 514 11 view .LVU270
 1026 0012 FFF7FEFF 		bl	uxListRemove
 1027              	.LVL90:
 515:Middlewares/Third_Party/FreeRTOS/Source/timers.c **** 
 1028              		.loc 1 515 31 is_stmt 1 view .LVU271
 519:Middlewares/Third_Party/FreeRTOS/Source/timers.c **** 	{
 1029              		.loc 1 519 2 view .LVU272
 519:Middlewares/Third_Party/FreeRTOS/Source/timers.c **** 	{
 1030              		.loc 1 519 15 is_stmt 0 view .LVU273
 1031 0016 2823     		movs	r3, #40
 1032 0018 E35C     		ldrb	r3, [r4, r3]
 519:Middlewares/Third_Party/FreeRTOS/Source/timers.c **** 	{
 1033              		.loc 1 519 4 view .LVU274
 1034 001a 5A07     		lsls	r2, r3, #29
 1035 001c 08D4     		bmi	.L73
 539:Middlewares/Third_Party/FreeRTOS/Source/timers.c **** 		mtCOVERAGE_TEST_MARKER();
 1036              		.loc 1 539 3 is_stmt 1 view .LVU275
 539:Middlewares/Third_Party/FreeRTOS/Source/timers.c **** 		mtCOVERAGE_TEST_MARKER();
 1037              		.loc 1 539 21 is_stmt 0 view .LVU276
 1038 001e 0122     		movs	r2, #1
 1039 0020 9343     		bics	r3, r2
 1040 0022 2732     		adds	r2, r2, #39
 1041 0024 A354     		strb	r3, [r4, r2]
 1042              	.L71:
 540:Middlewares/Third_Party/FreeRTOS/Source/timers.c **** 	}
 1043              		.loc 1 540 27 is_stmt 1 view .LVU277
 544:Middlewares/Third_Party/FreeRTOS/Source/timers.c **** }
 1044              		.loc 1 544 2 view .LVU278
 544:Middlewares/Third_Party/FreeRTOS/Source/timers.c **** }
 1045              		.loc 1 544 9 is_stmt 0 view .LVU279
 1046 0026 236A     		ldr	r3, [r4, #32]
 544:Middlewares/Third_Party/FreeRTOS/Source/timers.c **** }
 1047              		.loc 1 544 2 view .LVU280
 1048 0028 2000     		movs	r0, r4
 1049 002a 9847     		blx	r3
 1050              	.LVL91:
 545:Middlewares/Third_Party/FreeRTOS/Source/timers.c **** /*-----------------------------------------------------------*/
 1051              		.loc 1 545 1 view .LVU281
 1052 002c 02B0     		add	sp, sp, #8
 1053              		@ sp needed
 1054              	.LVL92:
 1055              	.LVL93:
 1056              	.LVL94:
 545:Middlewares/Third_Party/FreeRTOS/Source/timers.c **** /*-----------------------------------------------------------*/
 1057              		.loc 1 545 1 view .LVU282
 1058 002e 70BD     		pop	{r4, r5, r6, pc}
 1059              	.LVL95:
 1060              	.L73:
ARM GAS  /tmp/ccYeCTy1.s 			page 41


 524:Middlewares/Third_Party/FreeRTOS/Source/timers.c **** 		{
 1061              		.loc 1 524 3 is_stmt 1 view .LVU283
 524:Middlewares/Third_Party/FreeRTOS/Source/timers.c **** 		{
 1062              		.loc 1 524 71 is_stmt 0 view .LVU284
 1063 0030 A169     		ldr	r1, [r4, #24]
 524:Middlewares/Third_Party/FreeRTOS/Source/timers.c **** 		{
 1064              		.loc 1 524 7 view .LVU285
 1065 0032 4919     		adds	r1, r1, r5
 1066 0034 2B00     		movs	r3, r5
 1067 0036 3200     		movs	r2, r6
 1068 0038 2000     		movs	r0, r4
 1069 003a FFF7FEFF 		bl	prvInsertTimerInActiveList
 1070              	.LVL96:
 524:Middlewares/Third_Party/FreeRTOS/Source/timers.c **** 		{
 1071              		.loc 1 524 5 discriminator 1 view .LVU286
 1072 003e 0028     		cmp	r0, #0
 1073 0040 F1D0     		beq	.L71
 528:Middlewares/Third_Party/FreeRTOS/Source/timers.c **** 			configASSERT( xResult );
 1074              		.loc 1 528 4 is_stmt 1 view .LVU287
 528:Middlewares/Third_Party/FreeRTOS/Source/timers.c **** 			configASSERT( xResult );
 1075              		.loc 1 528 14 is_stmt 0 view .LVU288
 1076 0042 0023     		movs	r3, #0
 1077 0044 0093     		str	r3, [sp]
 1078 0046 2A00     		movs	r2, r5
 1079 0048 0021     		movs	r1, #0
 1080 004a 2000     		movs	r0, r4
 1081 004c FFF7FEFF 		bl	xTimerGenericCommand
 1082              	.LVL97:
 529:Middlewares/Third_Party/FreeRTOS/Source/timers.c **** 			( void ) xResult;
 1083              		.loc 1 529 4 is_stmt 1 view .LVU289
 1084 0050 0028     		cmp	r0, #0
 1085 0052 E8D1     		bne	.L71
 529:Middlewares/Third_Party/FreeRTOS/Source/timers.c **** 			( void ) xResult;
 1086              		.loc 1 529 4 discriminator 1 view .LVU290
 1087              		.syntax divided
 1088              	@ 529 "Middlewares/Third_Party/FreeRTOS/Source/timers.c" 1
 1089 0054 72B6     		 cpsid i 
 1090              	@ 0 "" 2
 1091              		.thumb
 1092              		.syntax unified
 1093              	.L72:
 529:Middlewares/Third_Party/FreeRTOS/Source/timers.c **** 			( void ) xResult;
 1094              		.loc 1 529 4 discriminator 3 view .LVU291
 529:Middlewares/Third_Party/FreeRTOS/Source/timers.c **** 			( void ) xResult;
 1095              		.loc 1 529 4 discriminator 3 view .LVU292
 1096 0056 FEE7     		b	.L72
 1097              	.L75:
 1098              		.align	2
 1099              	.L74:
 1100 0058 00000000 		.word	pxCurrentTimerList
 1101              		.cfi_endproc
 1102              	.LFE11:
 1104              		.section	.text.prvProcessTimerOrBlockTask,"ax",%progbits
 1105              		.align	1
 1106              		.syntax unified
 1107              		.code	16
 1108              		.thumb_func
ARM GAS  /tmp/ccYeCTy1.s 			page 42


 1110              	prvProcessTimerOrBlockTask:
 1111              	.LVL98:
 1112              	.LFB13:
 585:Middlewares/Third_Party/FreeRTOS/Source/timers.c **** TickType_t xTimeNow;
 1113              		.loc 1 585 1 view -0
 1114              		.cfi_startproc
 1115              		@ args = 0, pretend = 0, frame = 8
 1116              		@ frame_needed = 0, uses_anonymous_args = 0
 585:Middlewares/Third_Party/FreeRTOS/Source/timers.c **** TickType_t xTimeNow;
 1117              		.loc 1 585 1 is_stmt 0 view .LVU294
 1118 0000 70B5     		push	{r4, r5, r6, lr}
 1119              		.cfi_def_cfa_offset 16
 1120              		.cfi_offset 4, -16
 1121              		.cfi_offset 5, -12
 1122              		.cfi_offset 6, -8
 1123              		.cfi_offset 14, -4
 1124 0002 82B0     		sub	sp, sp, #8
 1125              		.cfi_def_cfa_offset 24
 1126 0004 0400     		movs	r4, r0
 1127 0006 0D00     		movs	r5, r1
 586:Middlewares/Third_Party/FreeRTOS/Source/timers.c **** BaseType_t xTimerListsWereSwitched;
 1128              		.loc 1 586 1 is_stmt 1 view .LVU295
 587:Middlewares/Third_Party/FreeRTOS/Source/timers.c **** 
 1129              		.loc 1 587 1 view .LVU296
 589:Middlewares/Third_Party/FreeRTOS/Source/timers.c **** 	{
 1130              		.loc 1 589 2 view .LVU297
 1131 0008 FFF7FEFF 		bl	vTaskSuspendAll
 1132              	.LVL99:
 596:Middlewares/Third_Party/FreeRTOS/Source/timers.c **** 		if( xTimerListsWereSwitched == pdFALSE )
 1133              		.loc 1 596 3 view .LVU298
 596:Middlewares/Third_Party/FreeRTOS/Source/timers.c **** 		if( xTimerListsWereSwitched == pdFALSE )
 1134              		.loc 1 596 14 is_stmt 0 view .LVU299
 1135 000c 01A8     		add	r0, sp, #4
 1136 000e FFF7FEFF 		bl	prvSampleTimeNow
 1137              	.LVL100:
 1138 0012 0600     		movs	r6, r0
 1139              	.LVL101:
 597:Middlewares/Third_Party/FreeRTOS/Source/timers.c **** 		{
 1140              		.loc 1 597 3 is_stmt 1 view .LVU300
 597:Middlewares/Third_Party/FreeRTOS/Source/timers.c **** 		{
 1141              		.loc 1 597 31 is_stmt 0 view .LVU301
 1142 0014 019B     		ldr	r3, [sp, #4]
 597:Middlewares/Third_Party/FreeRTOS/Source/timers.c **** 		{
 1143              		.loc 1 597 5 view .LVU302
 1144 0016 002B     		cmp	r3, #0
 1145 0018 22D1     		bne	.L77
 600:Middlewares/Third_Party/FreeRTOS/Source/timers.c **** 			{
 1146              		.loc 1 600 4 is_stmt 1 view .LVU303
 600:Middlewares/Third_Party/FreeRTOS/Source/timers.c **** 			{
 1147              		.loc 1 600 6 is_stmt 0 view .LVU304
 1148 001a 002D     		cmp	r5, #0
 1149 001c 14D1     		bne	.L78
 600:Middlewares/Third_Party/FreeRTOS/Source/timers.c **** 			{
 1150              		.loc 1 600 37 discriminator 1 view .LVU305
 1151 001e A042     		cmp	r0, r4
 1152 0020 0BD2     		bcs	.L82
 1153              	.LVL102:
ARM GAS  /tmp/ccYeCTy1.s 			page 43


 1154              	.L79:
 620:Middlewares/Third_Party/FreeRTOS/Source/timers.c **** 
 1155              		.loc 1 620 5 is_stmt 1 view .LVU306
 1156 0022 A11B     		subs	r1, r4, r6
 1157 0024 104B     		ldr	r3, .L84
 1158 0026 1868     		ldr	r0, [r3]
 1159              	.LVL103:
 620:Middlewares/Third_Party/FreeRTOS/Source/timers.c **** 
 1160              		.loc 1 620 5 is_stmt 0 view .LVU307
 1161 0028 2A00     		movs	r2, r5
 1162 002a FFF7FEFF 		bl	vQueueWaitForMessageRestricted
 1163              	.LVL104:
 622:Middlewares/Third_Party/FreeRTOS/Source/timers.c **** 				{
 1164              		.loc 1 622 5 is_stmt 1 view .LVU308
 622:Middlewares/Third_Party/FreeRTOS/Source/timers.c **** 				{
 1165              		.loc 1 622 9 is_stmt 0 view .LVU309
 1166 002e FFF7FEFF 		bl	xTaskResumeAll
 1167              	.LVL105:
 622:Middlewares/Third_Party/FreeRTOS/Source/timers.c **** 				{
 1168              		.loc 1 622 7 discriminator 1 view .LVU310
 1169 0032 0028     		cmp	r0, #0
 1170 0034 11D0     		beq	.L83
 1171              	.L76:
 641:Middlewares/Third_Party/FreeRTOS/Source/timers.c **** /*-----------------------------------------------------------*/
 1172              		.loc 1 641 1 view .LVU311
 1173 0036 02B0     		add	sp, sp, #8
 1174              		@ sp needed
 1175              	.LVL106:
 1176              	.LVL107:
 1177              	.LVL108:
 641:Middlewares/Third_Party/FreeRTOS/Source/timers.c **** /*-----------------------------------------------------------*/
 1178              		.loc 1 641 1 view .LVU312
 1179 0038 70BD     		pop	{r4, r5, r6, pc}
 1180              	.LVL109:
 1181              	.L82:
 602:Middlewares/Third_Party/FreeRTOS/Source/timers.c **** 				prvProcessExpiredTimer( xNextExpireTime, xTimeNow );
 1182              		.loc 1 602 5 is_stmt 1 view .LVU313
 602:Middlewares/Third_Party/FreeRTOS/Source/timers.c **** 				prvProcessExpiredTimer( xNextExpireTime, xTimeNow );
 1183              		.loc 1 602 14 is_stmt 0 view .LVU314
 1184 003a FFF7FEFF 		bl	xTaskResumeAll
 1185              	.LVL110:
 603:Middlewares/Third_Party/FreeRTOS/Source/timers.c **** 			}
 1186              		.loc 1 603 5 is_stmt 1 view .LVU315
 1187 003e 3100     		movs	r1, r6
 1188 0040 2000     		movs	r0, r4
 1189 0042 FFF7FEFF 		bl	prvProcessExpiredTimer
 1190              	.LVL111:
 1191 0046 F6E7     		b	.L76
 1192              	.LVL112:
 1193              	.L78:
 617:Middlewares/Third_Party/FreeRTOS/Source/timers.c **** 				}
 1194              		.loc 1 617 6 view .LVU316
 617:Middlewares/Third_Party/FreeRTOS/Source/timers.c **** 				}
 1195              		.loc 1 617 22 is_stmt 0 view .LVU317
 1196 0048 084A     		ldr	r2, .L84+4
 1197 004a 1268     		ldr	r2, [r2]
 1198 004c 1268     		ldr	r2, [r2]
ARM GAS  /tmp/ccYeCTy1.s 			page 44


 1199 004e 002A     		cmp	r2, #0
 1200 0050 01D1     		bne	.L81
 617:Middlewares/Third_Party/FreeRTOS/Source/timers.c **** 				}
 1201              		.loc 1 617 22 discriminator 1 view .LVU318
 1202 0052 0125     		movs	r5, #1
 1203              	.LVL113:
 617:Middlewares/Third_Party/FreeRTOS/Source/timers.c **** 				}
 1204              		.loc 1 617 22 discriminator 1 view .LVU319
 1205 0054 E5E7     		b	.L79
 1206              	.LVL114:
 1207              	.L81:
 617:Middlewares/Third_Party/FreeRTOS/Source/timers.c **** 				}
 1208              		.loc 1 617 22 discriminator 2 view .LVU320
 1209 0056 1D00     		movs	r5, r3
 1210              	.LVL115:
 617:Middlewares/Third_Party/FreeRTOS/Source/timers.c **** 				}
 1211              		.loc 1 617 22 discriminator 2 view .LVU321
 1212 0058 E3E7     		b	.L79
 1213              	.LVL116:
 1214              	.L83:
 628:Middlewares/Third_Party/FreeRTOS/Source/timers.c **** 				}
 1215              		.loc 1 628 6 is_stmt 1 view .LVU322
 1216 005a FFF7FEFF 		bl	vPortYield
 1217              	.LVL117:
 1218 005e EAE7     		b	.L76
 1219              	.LVL118:
 1220              	.L77:
 638:Middlewares/Third_Party/FreeRTOS/Source/timers.c **** 		}
 1221              		.loc 1 638 4 view .LVU323
 638:Middlewares/Third_Party/FreeRTOS/Source/timers.c **** 		}
 1222              		.loc 1 638 13 is_stmt 0 view .LVU324
 1223 0060 FFF7FEFF 		bl	xTaskResumeAll
 1224              	.LVL119:
 641:Middlewares/Third_Party/FreeRTOS/Source/timers.c **** /*-----------------------------------------------------------*/
 1225              		.loc 1 641 1 view .LVU325
 1226 0064 E7E7     		b	.L76
 1227              	.L85:
 1228 0066 C046     		.align	2
 1229              	.L84:
 1230 0068 00000000 		.word	xTimerQueue
 1231 006c 00000000 		.word	pxOverflowTimerList
 1232              		.cfi_endproc
 1233              	.LFE13:
 1235              		.section	.text.prvProcessReceivedCommands,"ax",%progbits
 1236              		.align	1
 1237              		.syntax unified
 1238              		.code	16
 1239              		.thumb_func
 1241              	prvProcessReceivedCommands:
 1242              	.LFB17:
 735:Middlewares/Third_Party/FreeRTOS/Source/timers.c **** DaemonTaskMessage_t xMessage;
 1243              		.loc 1 735 1 is_stmt 1 view -0
 1244              		.cfi_startproc
 1245              		@ args = 0, pretend = 0, frame = 24
 1246              		@ frame_needed = 0, uses_anonymous_args = 0
 1247 0000 10B5     		push	{r4, lr}
 1248              		.cfi_def_cfa_offset 8
ARM GAS  /tmp/ccYeCTy1.s 			page 45


 1249              		.cfi_offset 4, -8
 1250              		.cfi_offset 14, -4
 1251 0002 88B0     		sub	sp, sp, #32
 1252              		.cfi_def_cfa_offset 40
 736:Middlewares/Third_Party/FreeRTOS/Source/timers.c **** Timer_t *pxTimer;
 1253              		.loc 1 736 1 view .LVU327
 737:Middlewares/Third_Party/FreeRTOS/Source/timers.c **** BaseType_t xTimerListsWereSwitched, xResult;
 1254              		.loc 1 737 1 view .LVU328
 738:Middlewares/Third_Party/FreeRTOS/Source/timers.c **** TickType_t xTimeNow;
 1255              		.loc 1 738 1 view .LVU329
 739:Middlewares/Third_Party/FreeRTOS/Source/timers.c **** 
 1256              		.loc 1 739 1 view .LVU330
 741:Middlewares/Third_Party/FreeRTOS/Source/timers.c **** 	{
 1257              		.loc 1 741 2 view .LVU331
 741:Middlewares/Third_Party/FreeRTOS/Source/timers.c **** 	{
 1258              		.loc 1 741 7 is_stmt 0 view .LVU332
 1259 0004 02E0     		b	.L89
 1260              	.L88:
 760:Middlewares/Third_Party/FreeRTOS/Source/timers.c **** 			}
 1261              		.loc 1 760 29 is_stmt 1 view .LVU333
 767:Middlewares/Third_Party/FreeRTOS/Source/timers.c **** 		{
 1262              		.loc 1 767 3 view .LVU334
 767:Middlewares/Third_Party/FreeRTOS/Source/timers.c **** 		{
 1263              		.loc 1 767 15 is_stmt 0 view .LVU335
 1264 0006 049B     		ldr	r3, [sp, #16]
 767:Middlewares/Third_Party/FreeRTOS/Source/timers.c **** 		{
 1265              		.loc 1 767 5 view .LVU336
 1266 0008 002B     		cmp	r3, #0
 1267 000a 0FDA     		bge	.L104
 1268              	.L89:
 741:Middlewares/Third_Party/FreeRTOS/Source/timers.c **** 	{
 1269              		.loc 1 741 62 is_stmt 1 view .LVU337
 741:Middlewares/Third_Party/FreeRTOS/Source/timers.c **** 	{
 1270              		.loc 1 741 9 is_stmt 0 view .LVU338
 1271 000c 344B     		ldr	r3, .L108
 1272 000e 1868     		ldr	r0, [r3]
 1273 0010 0022     		movs	r2, #0
 1274 0012 04A9     		add	r1, sp, #16
 1275 0014 FFF7FEFF 		bl	xQueueReceive
 1276              	.LVL120:
 741:Middlewares/Third_Party/FreeRTOS/Source/timers.c **** 	{
 1277              		.loc 1 741 62 discriminator 1 view .LVU339
 1278 0018 0028     		cmp	r0, #0
 1279 001a 5ED0     		beq	.L105
 747:Middlewares/Third_Party/FreeRTOS/Source/timers.c **** 			{
 1280              		.loc 1 747 4 is_stmt 1 view .LVU340
 747:Middlewares/Third_Party/FreeRTOS/Source/timers.c **** 			{
 1281              		.loc 1 747 16 is_stmt 0 view .LVU341
 1282 001c 049B     		ldr	r3, [sp, #16]
 747:Middlewares/Third_Party/FreeRTOS/Source/timers.c **** 			{
 1283              		.loc 1 747 6 view .LVU342
 1284 001e 002B     		cmp	r3, #0
 1285 0020 F1DA     		bge	.L88
 1286              	.LBB5:
 749:Middlewares/Third_Party/FreeRTOS/Source/timers.c **** 
 1287              		.loc 1 749 5 is_stmt 1 view .LVU343
 1288              	.LVL121:
ARM GAS  /tmp/ccYeCTy1.s 			page 46


 753:Middlewares/Third_Party/FreeRTOS/Source/timers.c **** 
 1289              		.loc 1 753 5 view .LVU344
 753:Middlewares/Third_Party/FreeRTOS/Source/timers.c **** 
 1290              		.loc 1 753 31 discriminator 2 view .LVU345
 756:Middlewares/Third_Party/FreeRTOS/Source/timers.c **** 			}
 1291              		.loc 1 756 5 view .LVU346
 756:Middlewares/Third_Party/FreeRTOS/Source/timers.c **** 			}
 1292              		.loc 1 756 15 is_stmt 0 view .LVU347
 1293 0022 059A     		ldr	r2, [sp, #20]
 756:Middlewares/Third_Party/FreeRTOS/Source/timers.c **** 			}
 1294              		.loc 1 756 47 view .LVU348
 1295 0024 0698     		ldr	r0, [sp, #24]
 756:Middlewares/Third_Party/FreeRTOS/Source/timers.c **** 			}
 1296              		.loc 1 756 73 view .LVU349
 1297 0026 0799     		ldr	r1, [sp, #28]
 756:Middlewares/Third_Party/FreeRTOS/Source/timers.c **** 			}
 1298              		.loc 1 756 5 view .LVU350
 1299 0028 9047     		blx	r2
 1300              	.LVL122:
 1301              	.LBE5:
 1302 002a ECE7     		b	.L88
 1303              	.LVL123:
 1304              	.L104:
 771:Middlewares/Third_Party/FreeRTOS/Source/timers.c **** 
 1305              		.loc 1 771 4 is_stmt 1 view .LVU351
 771:Middlewares/Third_Party/FreeRTOS/Source/timers.c **** 
 1306              		.loc 1 771 12 is_stmt 0 view .LVU352
 1307 002c 069C     		ldr	r4, [sp, #24]
 1308              	.LVL124:
 773:Middlewares/Third_Party/FreeRTOS/Source/timers.c **** 			{
 1309              		.loc 1 773 4 is_stmt 1 view .LVU353
 773:Middlewares/Third_Party/FreeRTOS/Source/timers.c **** 			{
 1310              		.loc 1 773 8 is_stmt 0 view .LVU354
 1311 002e 6369     		ldr	r3, [r4, #20]
 773:Middlewares/Third_Party/FreeRTOS/Source/timers.c **** 			{
 1312              		.loc 1 773 6 view .LVU355
 1313 0030 002B     		cmp	r3, #0
 1314 0032 02D0     		beq	.L90
 776:Middlewares/Third_Party/FreeRTOS/Source/timers.c **** 			}
 1315              		.loc 1 776 5 is_stmt 1 view .LVU356
 776:Middlewares/Third_Party/FreeRTOS/Source/timers.c **** 			}
 1316              		.loc 1 776 14 is_stmt 0 view .LVU357
 1317 0034 201D     		adds	r0, r4, #4
 1318 0036 FFF7FEFF 		bl	uxListRemove
 1319              	.LVL125:
 1320              	.L90:
 780:Middlewares/Third_Party/FreeRTOS/Source/timers.c **** 			}
 1321              		.loc 1 780 29 is_stmt 1 view .LVU358
 783:Middlewares/Third_Party/FreeRTOS/Source/timers.c **** 
 1322              		.loc 1 783 106 view .LVU359
 791:Middlewares/Third_Party/FreeRTOS/Source/timers.c **** 
 1323              		.loc 1 791 4 view .LVU360
 791:Middlewares/Third_Party/FreeRTOS/Source/timers.c **** 
 1324              		.loc 1 791 15 is_stmt 0 view .LVU361
 1325 003a 03A8     		add	r0, sp, #12
 1326 003c FFF7FEFF 		bl	prvSampleTimeNow
 1327              	.LVL126:
ARM GAS  /tmp/ccYeCTy1.s 			page 47


 1328 0040 0200     		movs	r2, r0
 1329              	.LVL127:
 793:Middlewares/Third_Party/FreeRTOS/Source/timers.c **** 			{
 1330              		.loc 1 793 4 is_stmt 1 view .LVU362
 793:Middlewares/Third_Party/FreeRTOS/Source/timers.c **** 			{
 1331              		.loc 1 793 20 is_stmt 0 view .LVU363
 1332 0042 0499     		ldr	r1, [sp, #16]
 793:Middlewares/Third_Party/FreeRTOS/Source/timers.c **** 			{
 1333              		.loc 1 793 4 view .LVU364
 1334 0044 0929     		cmp	r1, #9
 1335 0046 E1D8     		bhi	.L89
 1336 0048 8900     		lsls	r1, r1, #2
 1337 004a 264B     		ldr	r3, .L108+4
 1338 004c 5B58     		ldr	r3, [r3, r1]
 1339 004e 9F46     		mov	pc, r3
 1340              		.section	.rodata.prvProcessReceivedCommands,"a",%progbits
 1341              		.align	2
 1342              	.L93:
 1343 0000 50000000 		.word	.L95
 1344 0004 50000000 		.word	.L95
 1345 0008 50000000 		.word	.L95
 1346 000c 92000000 		.word	.L94
 1347 0010 9E000000 		.word	.L92
 1348 0014 C0000000 		.word	.L96
 1349 0018 50000000 		.word	.L95
 1350 001c 50000000 		.word	.L95
 1351 0020 92000000 		.word	.L94
 1352 0024 9E000000 		.word	.L92
 1353              		.section	.text.prvProcessReceivedCommands
 1354              	.L95:
 801:Middlewares/Third_Party/FreeRTOS/Source/timers.c **** 					if( prvInsertTimerInActiveList( pxTimer,  xMessage.u.xTimerParameters.xMessageValue + pxTimer-
 1355              		.loc 1 801 6 is_stmt 1 view .LVU365
 801:Middlewares/Third_Party/FreeRTOS/Source/timers.c **** 					if( prvInsertTimerInActiveList( pxTimer,  xMessage.u.xTimerParameters.xMessageValue + pxTimer-
 1356              		.loc 1 801 13 is_stmt 0 view .LVU366
 1357 0050 2821     		movs	r1, #40
 1358 0052 635C     		ldrb	r3, [r4, r1]
 801:Middlewares/Third_Party/FreeRTOS/Source/timers.c **** 					if( prvInsertTimerInActiveList( pxTimer,  xMessage.u.xTimerParameters.xMessageValue + pxTimer-
 1359              		.loc 1 801 24 view .LVU367
 1360 0054 0120     		movs	r0, #1
 1361              	.LVL128:
 801:Middlewares/Third_Party/FreeRTOS/Source/timers.c **** 					if( prvInsertTimerInActiveList( pxTimer,  xMessage.u.xTimerParameters.xMessageValue + pxTimer-
 1362              		.loc 1 801 24 view .LVU368
 1363 0056 0343     		orrs	r3, r0
 1364 0058 6354     		strb	r3, [r4, r1]
 802:Middlewares/Third_Party/FreeRTOS/Source/timers.c **** 					{
 1365              		.loc 1 802 6 is_stmt 1 view .LVU369
 802:Middlewares/Third_Party/FreeRTOS/Source/timers.c **** 					{
 1366              		.loc 1 802 75 is_stmt 0 view .LVU370
 1367 005a 059B     		ldr	r3, [sp, #20]
 802:Middlewares/Third_Party/FreeRTOS/Source/timers.c **** 					{
 1368              		.loc 1 802 99 view .LVU371
 1369 005c A169     		ldr	r1, [r4, #24]
 802:Middlewares/Third_Party/FreeRTOS/Source/timers.c **** 					{
 1370              		.loc 1 802 10 view .LVU372
 1371 005e 5918     		adds	r1, r3, r1
 1372 0060 2000     		movs	r0, r4
 1373 0062 FFF7FEFF 		bl	prvInsertTimerInActiveList
ARM GAS  /tmp/ccYeCTy1.s 			page 48


 1374              	.LVL129:
 802:Middlewares/Third_Party/FreeRTOS/Source/timers.c **** 					{
 1375              		.loc 1 802 8 discriminator 1 view .LVU373
 1376 0066 0028     		cmp	r0, #0
 1377 0068 D0D0     		beq	.L89
 806:Middlewares/Third_Party/FreeRTOS/Source/timers.c **** 						traceTIMER_EXPIRED( pxTimer );
 1378              		.loc 1 806 7 is_stmt 1 view .LVU374
 806:Middlewares/Third_Party/FreeRTOS/Source/timers.c **** 						traceTIMER_EXPIRED( pxTimer );
 1379              		.loc 1 806 14 is_stmt 0 view .LVU375
 1380 006a 236A     		ldr	r3, [r4, #32]
 806:Middlewares/Third_Party/FreeRTOS/Source/timers.c **** 						traceTIMER_EXPIRED( pxTimer );
 1381              		.loc 1 806 7 view .LVU376
 1382 006c 2000     		movs	r0, r4
 1383 006e 9847     		blx	r3
 1384              	.LVL130:
 807:Middlewares/Third_Party/FreeRTOS/Source/timers.c **** 
 1385              		.loc 1 807 36 is_stmt 1 view .LVU377
 809:Middlewares/Third_Party/FreeRTOS/Source/timers.c **** 						{
 1386              		.loc 1 809 7 view .LVU378
 809:Middlewares/Third_Party/FreeRTOS/Source/timers.c **** 						{
 1387              		.loc 1 809 20 is_stmt 0 view .LVU379
 1388 0070 2823     		movs	r3, #40
 1389 0072 E35C     		ldrb	r3, [r4, r3]
 809:Middlewares/Third_Party/FreeRTOS/Source/timers.c **** 						{
 1390              		.loc 1 809 9 view .LVU380
 1391 0074 5B07     		lsls	r3, r3, #29
 1392 0076 C9D5     		bpl	.L89
 811:Middlewares/Third_Party/FreeRTOS/Source/timers.c **** 							configASSERT( xResult );
 1393              		.loc 1 811 8 is_stmt 1 view .LVU381
 811:Middlewares/Third_Party/FreeRTOS/Source/timers.c **** 							configASSERT( xResult );
 1394              		.loc 1 811 105 is_stmt 0 view .LVU382
 1395 0078 059A     		ldr	r2, [sp, #20]
 811:Middlewares/Third_Party/FreeRTOS/Source/timers.c **** 							configASSERT( xResult );
 1396              		.loc 1 811 129 view .LVU383
 1397 007a A369     		ldr	r3, [r4, #24]
 811:Middlewares/Third_Party/FreeRTOS/Source/timers.c **** 							configASSERT( xResult );
 1398              		.loc 1 811 18 view .LVU384
 1399 007c D218     		adds	r2, r2, r3
 1400 007e 0023     		movs	r3, #0
 1401 0080 0093     		str	r3, [sp]
 1402 0082 0021     		movs	r1, #0
 1403 0084 2000     		movs	r0, r4
 1404 0086 FFF7FEFF 		bl	xTimerGenericCommand
 1405              	.LVL131:
 812:Middlewares/Third_Party/FreeRTOS/Source/timers.c **** 							( void ) xResult;
 1406              		.loc 1 812 8 is_stmt 1 view .LVU385
 1407 008a 0028     		cmp	r0, #0
 1408 008c BED1     		bne	.L89
 812:Middlewares/Third_Party/FreeRTOS/Source/timers.c **** 							( void ) xResult;
 1409              		.loc 1 812 8 discriminator 1 view .LVU386
 1410              		.syntax divided
 1411              	@ 812 "Middlewares/Third_Party/FreeRTOS/Source/timers.c" 1
 1412 008e 72B6     		 cpsid i 
 1413              	@ 0 "" 2
 1414              		.thumb
 1415              		.syntax unified
 1416              	.L98:
ARM GAS  /tmp/ccYeCTy1.s 			page 49


 812:Middlewares/Third_Party/FreeRTOS/Source/timers.c **** 							( void ) xResult;
 1417              		.loc 1 812 8 discriminator 3 view .LVU387
 812:Middlewares/Third_Party/FreeRTOS/Source/timers.c **** 							( void ) xResult;
 1418              		.loc 1 812 8 discriminator 3 view .LVU388
 1419 0090 FEE7     		b	.L98
 1420              	.LVL132:
 1421              	.L94:
 829:Middlewares/Third_Party/FreeRTOS/Source/timers.c **** 					break;
 1422              		.loc 1 829 6 view .LVU389
 829:Middlewares/Third_Party/FreeRTOS/Source/timers.c **** 					break;
 1423              		.loc 1 829 13 is_stmt 0 view .LVU390
 1424 0092 2822     		movs	r2, #40
 1425 0094 A35C     		ldrb	r3, [r4, r2]
 829:Middlewares/Third_Party/FreeRTOS/Source/timers.c **** 					break;
 1426              		.loc 1 829 24 view .LVU391
 1427 0096 0121     		movs	r1, #1
 1428 0098 8B43     		bics	r3, r1
 1429 009a A354     		strb	r3, [r4, r2]
 830:Middlewares/Third_Party/FreeRTOS/Source/timers.c **** 
 1430              		.loc 1 830 6 is_stmt 1 view .LVU392
 1431 009c B6E7     		b	.L89
 1432              	.L92:
 834:Middlewares/Third_Party/FreeRTOS/Source/timers.c **** 					pxTimer->xTimerPeriodInTicks = xMessage.u.xTimerParameters.xMessageValue;
 1433              		.loc 1 834 6 view .LVU393
 834:Middlewares/Third_Party/FreeRTOS/Source/timers.c **** 					pxTimer->xTimerPeriodInTicks = xMessage.u.xTimerParameters.xMessageValue;
 1434              		.loc 1 834 13 is_stmt 0 view .LVU394
 1435 009e 2821     		movs	r1, #40
 1436 00a0 635C     		ldrb	r3, [r4, r1]
 834:Middlewares/Third_Party/FreeRTOS/Source/timers.c **** 					pxTimer->xTimerPeriodInTicks = xMessage.u.xTimerParameters.xMessageValue;
 1437              		.loc 1 834 24 view .LVU395
 1438 00a2 0120     		movs	r0, #1
 1439              	.LVL133:
 834:Middlewares/Third_Party/FreeRTOS/Source/timers.c **** 					pxTimer->xTimerPeriodInTicks = xMessage.u.xTimerParameters.xMessageValue;
 1440              		.loc 1 834 24 view .LVU396
 1441 00a4 0343     		orrs	r3, r0
 1442 00a6 6354     		strb	r3, [r4, r1]
 835:Middlewares/Third_Party/FreeRTOS/Source/timers.c **** 					configASSERT( ( pxTimer->xTimerPeriodInTicks > 0 ) );
 1443              		.loc 1 835 6 is_stmt 1 view .LVU397
 835:Middlewares/Third_Party/FreeRTOS/Source/timers.c **** 					configASSERT( ( pxTimer->xTimerPeriodInTicks > 0 ) );
 1444              		.loc 1 835 64 is_stmt 0 view .LVU398
 1445 00a8 0599     		ldr	r1, [sp, #20]
 835:Middlewares/Third_Party/FreeRTOS/Source/timers.c **** 					configASSERT( ( pxTimer->xTimerPeriodInTicks > 0 ) );
 1446              		.loc 1 835 35 view .LVU399
 1447 00aa A161     		str	r1, [r4, #24]
 836:Middlewares/Third_Party/FreeRTOS/Source/timers.c **** 
 1448              		.loc 1 836 6 is_stmt 1 view .LVU400
 1449 00ac 0029     		cmp	r1, #0
 1450 00ae 05D0     		beq	.L106
 836:Middlewares/Third_Party/FreeRTOS/Source/timers.c **** 
 1451              		.loc 1 836 58 discriminator 2 view .LVU401
 844:Middlewares/Third_Party/FreeRTOS/Source/timers.c **** 					break;
 1452              		.loc 1 844 6 view .LVU402
 844:Middlewares/Third_Party/FreeRTOS/Source/timers.c **** 					break;
 1453              		.loc 1 844 15 is_stmt 0 view .LVU403
 1454 00b0 8918     		adds	r1, r1, r2
 1455 00b2 1300     		movs	r3, r2
 1456 00b4 2000     		movs	r0, r4
ARM GAS  /tmp/ccYeCTy1.s 			page 50


 1457 00b6 FFF7FEFF 		bl	prvInsertTimerInActiveList
 1458              	.LVL134:
 845:Middlewares/Third_Party/FreeRTOS/Source/timers.c **** 
 1459              		.loc 1 845 6 is_stmt 1 view .LVU404
 1460 00ba A7E7     		b	.L89
 1461              	.LVL135:
 1462              	.L106:
 836:Middlewares/Third_Party/FreeRTOS/Source/timers.c **** 
 1463              		.loc 1 836 6 discriminator 1 view .LVU405
 1464              		.syntax divided
 1465              	@ 836 "Middlewares/Third_Party/FreeRTOS/Source/timers.c" 1
 1466 00bc 72B6     		 cpsid i 
 1467              	@ 0 "" 2
 1468              		.thumb
 1469              		.syntax unified
 1470              	.L100:
 836:Middlewares/Third_Party/FreeRTOS/Source/timers.c **** 
 1471              		.loc 1 836 6 discriminator 3 view .LVU406
 836:Middlewares/Third_Party/FreeRTOS/Source/timers.c **** 
 1472              		.loc 1 836 6 discriminator 3 view .LVU407
 1473 00be FEE7     		b	.L100
 1474              	.LVL136:
 1475              	.L96:
 853:Middlewares/Third_Party/FreeRTOS/Source/timers.c **** 						{
 1476              		.loc 1 853 7 view .LVU408
 853:Middlewares/Third_Party/FreeRTOS/Source/timers.c **** 						{
 1477              		.loc 1 853 20 is_stmt 0 view .LVU409
 1478 00c0 2823     		movs	r3, #40
 1479 00c2 E35C     		ldrb	r3, [r4, r3]
 853:Middlewares/Third_Party/FreeRTOS/Source/timers.c **** 						{
 1480              		.loc 1 853 9 view .LVU410
 1481 00c4 9A07     		lsls	r2, r3, #30
 1482 00c6 04D5     		bpl	.L107
 859:Middlewares/Third_Party/FreeRTOS/Source/timers.c **** 						}
 1483              		.loc 1 859 8 is_stmt 1 view .LVU411
 859:Middlewares/Third_Party/FreeRTOS/Source/timers.c **** 						}
 1484              		.loc 1 859 26 is_stmt 0 view .LVU412
 1485 00c8 0122     		movs	r2, #1
 1486 00ca 9343     		bics	r3, r2
 1487 00cc 2732     		adds	r2, r2, #39
 1488 00ce A354     		strb	r3, [r4, r2]
 1489 00d0 9CE7     		b	.L89
 1490              	.L107:
 855:Middlewares/Third_Party/FreeRTOS/Source/timers.c **** 						}
 1491              		.loc 1 855 8 is_stmt 1 view .LVU413
 1492 00d2 2000     		movs	r0, r4
 1493              	.LVL137:
 855:Middlewares/Third_Party/FreeRTOS/Source/timers.c **** 						}
 1494              		.loc 1 855 8 is_stmt 0 view .LVU414
 1495 00d4 FFF7FEFF 		bl	vPortFree
 1496              	.LVL138:
 1497 00d8 98E7     		b	.L89
 1498              	.LVL139:
 1499              	.L105:
 879:Middlewares/Third_Party/FreeRTOS/Source/timers.c **** /*-----------------------------------------------------------*/
 1500              		.loc 1 879 1 view .LVU415
 1501 00da 08B0     		add	sp, sp, #32
ARM GAS  /tmp/ccYeCTy1.s 			page 51


 1502              		@ sp needed
 1503 00dc 10BD     		pop	{r4, pc}
 1504              	.L109:
 1505 00de C046     		.align	2
 1506              	.L108:
 1507 00e0 00000000 		.word	xTimerQueue
 1508 00e4 00000000 		.word	.L93
 1509              		.cfi_endproc
 1510              	.LFE17:
 1512              		.section	.text.prvTimerTask,"ax",%progbits
 1513              		.align	1
 1514              		.syntax unified
 1515              		.code	16
 1516              		.thumb_func
 1518              	prvTimerTask:
 1519              	.LFB12:
 549:Middlewares/Third_Party/FreeRTOS/Source/timers.c **** TickType_t xNextExpireTime;
 1520              		.loc 1 549 1 is_stmt 1 view -0
 1521              		.cfi_startproc
 1522              		@ args = 0, pretend = 0, frame = 8
 1523              		@ frame_needed = 0, uses_anonymous_args = 0
 1524              	.LVL140:
 549:Middlewares/Third_Party/FreeRTOS/Source/timers.c **** TickType_t xNextExpireTime;
 1525              		.loc 1 549 1 is_stmt 0 view .LVU417
 1526 0000 00B5     		push	{lr}
 1527              		.cfi_def_cfa_offset 4
 1528              		.cfi_offset 14, -4
 1529 0002 83B0     		sub	sp, sp, #12
 1530              		.cfi_def_cfa_offset 16
 1531              	.LVL141:
 1532              	.L111:
 550:Middlewares/Third_Party/FreeRTOS/Source/timers.c **** BaseType_t xListWasEmpty;
 1533              		.loc 1 550 1 is_stmt 1 view .LVU418
 551:Middlewares/Third_Party/FreeRTOS/Source/timers.c **** 
 1534              		.loc 1 551 1 view .LVU419
 554:Middlewares/Third_Party/FreeRTOS/Source/timers.c **** 
 1535              		.loc 1 554 2 view .LVU420
 568:Middlewares/Third_Party/FreeRTOS/Source/timers.c **** 	{
 1536              		.loc 1 568 2 view .LVU421
 572:Middlewares/Third_Party/FreeRTOS/Source/timers.c **** 
 1537              		.loc 1 572 3 view .LVU422
 572:Middlewares/Third_Party/FreeRTOS/Source/timers.c **** 
 1538              		.loc 1 572 21 is_stmt 0 view .LVU423
 1539 0004 01A8     		add	r0, sp, #4
 1540 0006 FFF7FEFF 		bl	prvGetNextExpireTime
 1541              	.LVL142:
 576:Middlewares/Third_Party/FreeRTOS/Source/timers.c **** 
 1542              		.loc 1 576 3 is_stmt 1 view .LVU424
 1543 000a 0199     		ldr	r1, [sp, #4]
 1544 000c FFF7FEFF 		bl	prvProcessTimerOrBlockTask
 1545              	.LVL143:
 579:Middlewares/Third_Party/FreeRTOS/Source/timers.c **** 	}
 1546              		.loc 1 579 3 discriminator 1 view .LVU425
 1547 0010 FFF7FEFF 		bl	prvProcessReceivedCommands
 1548              	.LVL144:
 568:Middlewares/Third_Party/FreeRTOS/Source/timers.c **** 	{
 1549              		.loc 1 568 2 view .LVU426
ARM GAS  /tmp/ccYeCTy1.s 			page 52


 1550 0014 F6E7     		b	.L111
 1551              		.cfi_endproc
 1552              	.LFE12:
 1554              		.section	.text.xTimerGetTimerDaemonTaskHandle,"ax",%progbits
 1555              		.align	1
 1556              		.global	xTimerGetTimerDaemonTaskHandle
 1557              		.syntax unified
 1558              		.code	16
 1559              		.thumb_func
 1561              	xTimerGetTimerDaemonTaskHandle:
 1562              	.LFB5:
 425:Middlewares/Third_Party/FreeRTOS/Source/timers.c **** 	/* If xTimerGetTimerDaemonTaskHandle() is called before the scheduler has been
 1563              		.loc 1 425 1 view -0
 1564              		.cfi_startproc
 1565              		@ args = 0, pretend = 0, frame = 0
 1566              		@ frame_needed = 0, uses_anonymous_args = 0
 1567              		@ link register save eliminated.
 428:Middlewares/Third_Party/FreeRTOS/Source/timers.c **** 	return xTimerTaskHandle;
 1568              		.loc 1 428 2 view .LVU428
 1569 0000 034B     		ldr	r3, .L116
 1570 0002 1868     		ldr	r0, [r3]
 1571 0004 0028     		cmp	r0, #0
 1572 0006 00D0     		beq	.L115
 430:Middlewares/Third_Party/FreeRTOS/Source/timers.c **** /*-----------------------------------------------------------*/
 1573              		.loc 1 430 1 is_stmt 0 view .LVU429
 1574              		@ sp needed
 1575 0008 7047     		bx	lr
 1576              	.L115:
 428:Middlewares/Third_Party/FreeRTOS/Source/timers.c **** 	return xTimerTaskHandle;
 1577              		.loc 1 428 2 is_stmt 1 discriminator 1 view .LVU430
 1578              		.syntax divided
 1579              	@ 428 "Middlewares/Third_Party/FreeRTOS/Source/timers.c" 1
 1580 000a 72B6     		 cpsid i 
 1581              	@ 0 "" 2
 1582              		.thumb
 1583              		.syntax unified
 1584              	.L114:
 428:Middlewares/Third_Party/FreeRTOS/Source/timers.c **** 	return xTimerTaskHandle;
 1585              		.loc 1 428 2 discriminator 3 view .LVU431
 428:Middlewares/Third_Party/FreeRTOS/Source/timers.c **** 	return xTimerTaskHandle;
 1586              		.loc 1 428 2 discriminator 3 view .LVU432
 1587 000c FEE7     		b	.L114
 1588              	.L117:
 1589 000e C046     		.align	2
 1590              	.L116:
 1591 0010 00000000 		.word	xTimerTaskHandle
 1592              		.cfi_endproc
 1593              	.LFE5:
 1595              		.section	.text.xTimerGetPeriod,"ax",%progbits
 1596              		.align	1
 1597              		.global	xTimerGetPeriod
 1598              		.syntax unified
 1599              		.code	16
 1600              		.thumb_func
 1602              	xTimerGetPeriod:
 1603              	.LVL145:
 1604              	.LFB6:
ARM GAS  /tmp/ccYeCTy1.s 			page 53


 434:Middlewares/Third_Party/FreeRTOS/Source/timers.c **** Timer_t *pxTimer = xTimer;
 1605              		.loc 1 434 1 view -0
 1606              		.cfi_startproc
 1607              		@ args = 0, pretend = 0, frame = 0
 1608              		@ frame_needed = 0, uses_anonymous_args = 0
 1609              		@ link register save eliminated.
 435:Middlewares/Third_Party/FreeRTOS/Source/timers.c **** 
 1610              		.loc 1 435 1 view .LVU434
 437:Middlewares/Third_Party/FreeRTOS/Source/timers.c **** 	return pxTimer->xTimerPeriodInTicks;
 1611              		.loc 1 437 2 view .LVU435
 1612 0000 0028     		cmp	r0, #0
 1613 0002 01D0     		beq	.L121
 437:Middlewares/Third_Party/FreeRTOS/Source/timers.c **** 	return pxTimer->xTimerPeriodInTicks;
 1614              		.loc 1 437 24 discriminator 2 view .LVU436
 438:Middlewares/Third_Party/FreeRTOS/Source/timers.c **** }
 1615              		.loc 1 438 2 view .LVU437
 438:Middlewares/Third_Party/FreeRTOS/Source/timers.c **** }
 1616              		.loc 1 438 16 is_stmt 0 discriminator 1 view .LVU438
 1617 0004 8069     		ldr	r0, [r0, #24]
 1618              	.LVL146:
 439:Middlewares/Third_Party/FreeRTOS/Source/timers.c **** /*-----------------------------------------------------------*/
 1619              		.loc 1 439 1 view .LVU439
 1620              		@ sp needed
 1621 0006 7047     		bx	lr
 1622              	.LVL147:
 1623              	.L121:
 437:Middlewares/Third_Party/FreeRTOS/Source/timers.c **** 	return pxTimer->xTimerPeriodInTicks;
 1624              		.loc 1 437 2 is_stmt 1 discriminator 1 view .LVU440
 1625              		.syntax divided
 1626              	@ 437 "Middlewares/Third_Party/FreeRTOS/Source/timers.c" 1
 1627 0008 72B6     		 cpsid i 
 1628              	@ 0 "" 2
 1629              		.thumb
 1630              		.syntax unified
 1631              	.L120:
 437:Middlewares/Third_Party/FreeRTOS/Source/timers.c **** 	return pxTimer->xTimerPeriodInTicks;
 1632              		.loc 1 437 2 discriminator 3 view .LVU441
 437:Middlewares/Third_Party/FreeRTOS/Source/timers.c **** 	return pxTimer->xTimerPeriodInTicks;
 1633              		.loc 1 437 2 discriminator 3 view .LVU442
 1634 000a FEE7     		b	.L120
 1635              		.cfi_endproc
 1636              	.LFE6:
 1638              		.section	.text.vTimerSetReloadMode,"ax",%progbits
 1639              		.align	1
 1640              		.global	vTimerSetReloadMode
 1641              		.syntax unified
 1642              		.code	16
 1643              		.thumb_func
 1645              	vTimerSetReloadMode:
 1646              	.LVL148:
 1647              	.LFB7:
 443:Middlewares/Third_Party/FreeRTOS/Source/timers.c **** Timer_t * pxTimer =  xTimer;
 1648              		.loc 1 443 1 view -0
 1649              		.cfi_startproc
 1650              		@ args = 0, pretend = 0, frame = 0
 1651              		@ frame_needed = 0, uses_anonymous_args = 0
 443:Middlewares/Third_Party/FreeRTOS/Source/timers.c **** Timer_t * pxTimer =  xTimer;
ARM GAS  /tmp/ccYeCTy1.s 			page 54


 1652              		.loc 1 443 1 is_stmt 0 view .LVU444
 1653 0000 70B5     		push	{r4, r5, r6, lr}
 1654              		.cfi_def_cfa_offset 16
 1655              		.cfi_offset 4, -16
 1656              		.cfi_offset 5, -12
 1657              		.cfi_offset 6, -8
 1658              		.cfi_offset 14, -4
 1659 0002 0400     		movs	r4, r0
 1660 0004 0D00     		movs	r5, r1
 444:Middlewares/Third_Party/FreeRTOS/Source/timers.c **** 
 1661              		.loc 1 444 1 is_stmt 1 view .LVU445
 1662              	.LVL149:
 446:Middlewares/Third_Party/FreeRTOS/Source/timers.c **** 	taskENTER_CRITICAL();
 1663              		.loc 1 446 2 view .LVU446
 1664 0006 0028     		cmp	r0, #0
 1665 0008 0BD0     		beq	.L127
 446:Middlewares/Third_Party/FreeRTOS/Source/timers.c **** 	taskENTER_CRITICAL();
 1666              		.loc 1 446 24 discriminator 2 view .LVU447
 447:Middlewares/Third_Party/FreeRTOS/Source/timers.c **** 	{
 1667              		.loc 1 447 2 view .LVU448
 1668 000a FFF7FEFF 		bl	vPortEnterCritical
 1669              	.LVL150:
 449:Middlewares/Third_Party/FreeRTOS/Source/timers.c **** 		{
 1670              		.loc 1 449 3 view .LVU449
 449:Middlewares/Third_Party/FreeRTOS/Source/timers.c **** 		{
 1671              		.loc 1 449 5 is_stmt 0 view .LVU450
 1672 000e 002D     		cmp	r5, #0
 1673 0010 09D0     		beq	.L125
 451:Middlewares/Third_Party/FreeRTOS/Source/timers.c **** 		}
 1674              		.loc 1 451 4 is_stmt 1 view .LVU451
 451:Middlewares/Third_Party/FreeRTOS/Source/timers.c **** 		}
 1675              		.loc 1 451 11 is_stmt 0 view .LVU452
 1676 0012 2822     		movs	r2, #40
 1677 0014 A35C     		ldrb	r3, [r4, r2]
 451:Middlewares/Third_Party/FreeRTOS/Source/timers.c **** 		}
 1678              		.loc 1 451 22 view .LVU453
 1679 0016 0421     		movs	r1, #4
 1680 0018 0B43     		orrs	r3, r1
 1681 001a A354     		strb	r3, [r4, r2]
 1682              	.L126:
 458:Middlewares/Third_Party/FreeRTOS/Source/timers.c **** }
 1683              		.loc 1 458 2 is_stmt 1 view .LVU454
 1684 001c FFF7FEFF 		bl	vPortExitCritical
 1685              	.LVL151:
 459:Middlewares/Third_Party/FreeRTOS/Source/timers.c **** /*-----------------------------------------------------------*/
 1686              		.loc 1 459 1 is_stmt 0 view .LVU455
 1687              		@ sp needed
 1688              	.LVL152:
 1689              	.LVL153:
 459:Middlewares/Third_Party/FreeRTOS/Source/timers.c **** /*-----------------------------------------------------------*/
 1690              		.loc 1 459 1 view .LVU456
 1691 0020 70BD     		pop	{r4, r5, r6, pc}
 1692              	.LVL154:
 1693              	.L127:
 446:Middlewares/Third_Party/FreeRTOS/Source/timers.c **** 	taskENTER_CRITICAL();
 1694              		.loc 1 446 2 is_stmt 1 discriminator 1 view .LVU457
 1695              		.syntax divided
ARM GAS  /tmp/ccYeCTy1.s 			page 55


 1696              	@ 446 "Middlewares/Third_Party/FreeRTOS/Source/timers.c" 1
 1697 0022 72B6     		 cpsid i 
 1698              	@ 0 "" 2
 1699              		.thumb
 1700              		.syntax unified
 1701              	.L124:
 446:Middlewares/Third_Party/FreeRTOS/Source/timers.c **** 	taskENTER_CRITICAL();
 1702              		.loc 1 446 2 discriminator 3 view .LVU458
 446:Middlewares/Third_Party/FreeRTOS/Source/timers.c **** 	taskENTER_CRITICAL();
 1703              		.loc 1 446 2 discriminator 3 view .LVU459
 1704 0024 FEE7     		b	.L124
 1705              	.LVL155:
 1706              	.L125:
 455:Middlewares/Third_Party/FreeRTOS/Source/timers.c **** 		}
 1707              		.loc 1 455 4 view .LVU460
 455:Middlewares/Third_Party/FreeRTOS/Source/timers.c **** 		}
 1708              		.loc 1 455 11 is_stmt 0 view .LVU461
 1709 0026 2822     		movs	r2, #40
 1710 0028 A35C     		ldrb	r3, [r4, r2]
 455:Middlewares/Third_Party/FreeRTOS/Source/timers.c **** 		}
 1711              		.loc 1 455 22 view .LVU462
 1712 002a 0421     		movs	r1, #4
 1713 002c 8B43     		bics	r3, r1
 1714 002e A354     		strb	r3, [r4, r2]
 1715 0030 F4E7     		b	.L126
 1716              		.cfi_endproc
 1717              	.LFE7:
 1719              		.section	.text.uxTimerGetReloadMode,"ax",%progbits
 1720              		.align	1
 1721              		.global	uxTimerGetReloadMode
 1722              		.syntax unified
 1723              		.code	16
 1724              		.thumb_func
 1726              	uxTimerGetReloadMode:
 1727              	.LVL156:
 1728              	.LFB8:
 463:Middlewares/Third_Party/FreeRTOS/Source/timers.c **** Timer_t * pxTimer =  xTimer;
 1729              		.loc 1 463 1 is_stmt 1 view -0
 1730              		.cfi_startproc
 1731              		@ args = 0, pretend = 0, frame = 0
 1732              		@ frame_needed = 0, uses_anonymous_args = 0
 463:Middlewares/Third_Party/FreeRTOS/Source/timers.c **** Timer_t * pxTimer =  xTimer;
 1733              		.loc 1 463 1 is_stmt 0 view .LVU464
 1734 0000 10B5     		push	{r4, lr}
 1735              		.cfi_def_cfa_offset 8
 1736              		.cfi_offset 4, -8
 1737              		.cfi_offset 14, -4
 1738 0002 041E     		subs	r4, r0, #0
 464:Middlewares/Third_Party/FreeRTOS/Source/timers.c **** UBaseType_t uxReturn;
 1739              		.loc 1 464 1 is_stmt 1 view .LVU465
 1740              	.LVL157:
 465:Middlewares/Third_Party/FreeRTOS/Source/timers.c **** 
 1741              		.loc 1 465 1 view .LVU466
 467:Middlewares/Third_Party/FreeRTOS/Source/timers.c **** 	taskENTER_CRITICAL();
 1742              		.loc 1 467 2 view .LVU467
 1743 0004 0AD0     		beq	.L133
 467:Middlewares/Third_Party/FreeRTOS/Source/timers.c **** 	taskENTER_CRITICAL();
ARM GAS  /tmp/ccYeCTy1.s 			page 56


 1744              		.loc 1 467 24 discriminator 2 view .LVU468
 468:Middlewares/Third_Party/FreeRTOS/Source/timers.c **** 	{
 1745              		.loc 1 468 2 view .LVU469
 1746 0006 FFF7FEFF 		bl	vPortEnterCritical
 1747              	.LVL158:
 470:Middlewares/Third_Party/FreeRTOS/Source/timers.c **** 		{
 1748              		.loc 1 470 3 view .LVU470
 470:Middlewares/Third_Party/FreeRTOS/Source/timers.c **** 		{
 1749              		.loc 1 470 16 is_stmt 0 view .LVU471
 1750 000a 2823     		movs	r3, #40
 1751 000c E35C     		ldrb	r3, [r4, r3]
 470:Middlewares/Third_Party/FreeRTOS/Source/timers.c **** 		{
 1752              		.loc 1 470 5 view .LVU472
 1753 000e 5B07     		lsls	r3, r3, #29
 1754 0010 06D4     		bmi	.L132
 473:Middlewares/Third_Party/FreeRTOS/Source/timers.c **** 		}
 1755              		.loc 1 473 13 view .LVU473
 1756 0012 0024     		movs	r4, #0
 1757              	.LVL159:
 1758              	.L131:
 481:Middlewares/Third_Party/FreeRTOS/Source/timers.c **** 
 1759              		.loc 1 481 2 is_stmt 1 view .LVU474
 1760 0014 FFF7FEFF 		bl	vPortExitCritical
 1761              	.LVL160:
 483:Middlewares/Third_Party/FreeRTOS/Source/timers.c **** }
 1762              		.loc 1 483 2 view .LVU475
 484:Middlewares/Third_Party/FreeRTOS/Source/timers.c **** /*-----------------------------------------------------------*/
 1763              		.loc 1 484 1 is_stmt 0 view .LVU476
 1764 0018 2000     		movs	r0, r4
 1765              		@ sp needed
 1766              	.LVL161:
 484:Middlewares/Third_Party/FreeRTOS/Source/timers.c **** /*-----------------------------------------------------------*/
 1767              		.loc 1 484 1 view .LVU477
 1768 001a 10BD     		pop	{r4, pc}
 1769              	.LVL162:
 1770              	.L133:
 467:Middlewares/Third_Party/FreeRTOS/Source/timers.c **** 	taskENTER_CRITICAL();
 1771              		.loc 1 467 2 is_stmt 1 discriminator 1 view .LVU478
 1772              		.syntax divided
 1773              	@ 467 "Middlewares/Third_Party/FreeRTOS/Source/timers.c" 1
 1774 001c 72B6     		 cpsid i 
 1775              	@ 0 "" 2
 1776              		.thumb
 1777              		.syntax unified
 1778              	.L130:
 467:Middlewares/Third_Party/FreeRTOS/Source/timers.c **** 	taskENTER_CRITICAL();
 1779              		.loc 1 467 2 discriminator 3 view .LVU479
 467:Middlewares/Third_Party/FreeRTOS/Source/timers.c **** 	taskENTER_CRITICAL();
 1780              		.loc 1 467 2 discriminator 3 view .LVU480
 1781 001e FEE7     		b	.L130
 1782              	.LVL163:
 1783              	.L132:
 478:Middlewares/Third_Party/FreeRTOS/Source/timers.c **** 		}
 1784              		.loc 1 478 13 is_stmt 0 view .LVU481
 1785 0020 0124     		movs	r4, #1
 1786              	.LVL164:
 478:Middlewares/Third_Party/FreeRTOS/Source/timers.c **** 		}
ARM GAS  /tmp/ccYeCTy1.s 			page 57


 1787              		.loc 1 478 13 view .LVU482
 1788 0022 F7E7     		b	.L131
 1789              		.cfi_endproc
 1790              	.LFE8:
 1792              		.section	.text.xTimerGetExpiryTime,"ax",%progbits
 1793              		.align	1
 1794              		.global	xTimerGetExpiryTime
 1795              		.syntax unified
 1796              		.code	16
 1797              		.thumb_func
 1799              	xTimerGetExpiryTime:
 1800              	.LVL165:
 1801              	.LFB9:
 488:Middlewares/Third_Party/FreeRTOS/Source/timers.c **** Timer_t * pxTimer =  xTimer;
 1802              		.loc 1 488 1 is_stmt 1 view -0
 1803              		.cfi_startproc
 1804              		@ args = 0, pretend = 0, frame = 0
 1805              		@ frame_needed = 0, uses_anonymous_args = 0
 1806              		@ link register save eliminated.
 489:Middlewares/Third_Party/FreeRTOS/Source/timers.c **** TickType_t xReturn;
 1807              		.loc 1 489 1 view .LVU484
 490:Middlewares/Third_Party/FreeRTOS/Source/timers.c **** 
 1808              		.loc 1 490 1 view .LVU485
 492:Middlewares/Third_Party/FreeRTOS/Source/timers.c **** 	xReturn = listGET_LIST_ITEM_VALUE( &( pxTimer->xTimerListItem ) );
 1809              		.loc 1 492 2 view .LVU486
 1810 0000 0028     		cmp	r0, #0
 1811 0002 01D0     		beq	.L137
 492:Middlewares/Third_Party/FreeRTOS/Source/timers.c **** 	xReturn = listGET_LIST_ITEM_VALUE( &( pxTimer->xTimerListItem ) );
 1812              		.loc 1 492 24 discriminator 2 view .LVU487
 493:Middlewares/Third_Party/FreeRTOS/Source/timers.c **** 	return xReturn;
 1813              		.loc 1 493 2 view .LVU488
 493:Middlewares/Third_Party/FreeRTOS/Source/timers.c **** 	return xReturn;
 1814              		.loc 1 493 10 is_stmt 0 view .LVU489
 1815 0004 4068     		ldr	r0, [r0, #4]
 1816              	.LVL166:
 494:Middlewares/Third_Party/FreeRTOS/Source/timers.c **** }
 1817              		.loc 1 494 2 is_stmt 1 view .LVU490
 495:Middlewares/Third_Party/FreeRTOS/Source/timers.c **** /*-----------------------------------------------------------*/
 1818              		.loc 1 495 1 is_stmt 0 view .LVU491
 1819              		@ sp needed
 1820 0006 7047     		bx	lr
 1821              	.LVL167:
 1822              	.L137:
 492:Middlewares/Third_Party/FreeRTOS/Source/timers.c **** 	xReturn = listGET_LIST_ITEM_VALUE( &( pxTimer->xTimerListItem ) );
 1823              		.loc 1 492 2 is_stmt 1 discriminator 1 view .LVU492
 1824              		.syntax divided
 1825              	@ 492 "Middlewares/Third_Party/FreeRTOS/Source/timers.c" 1
 1826 0008 72B6     		 cpsid i 
 1827              	@ 0 "" 2
 1828              		.thumb
 1829              		.syntax unified
 1830              	.L136:
 492:Middlewares/Third_Party/FreeRTOS/Source/timers.c **** 	xReturn = listGET_LIST_ITEM_VALUE( &( pxTimer->xTimerListItem ) );
 1831              		.loc 1 492 2 discriminator 3 view .LVU493
 492:Middlewares/Third_Party/FreeRTOS/Source/timers.c **** 	xReturn = listGET_LIST_ITEM_VALUE( &( pxTimer->xTimerListItem ) );
 1832              		.loc 1 492 2 discriminator 3 view .LVU494
 1833 000a FEE7     		b	.L136
ARM GAS  /tmp/ccYeCTy1.s 			page 58


 1834              		.cfi_endproc
 1835              	.LFE9:
 1837              		.section	.text.pcTimerGetName,"ax",%progbits
 1838              		.align	1
 1839              		.global	pcTimerGetName
 1840              		.syntax unified
 1841              		.code	16
 1842              		.thumb_func
 1844              	pcTimerGetName:
 1845              	.LVL168:
 1846              	.LFB10:
 499:Middlewares/Third_Party/FreeRTOS/Source/timers.c **** Timer_t *pxTimer = xTimer;
 1847              		.loc 1 499 1 view -0
 1848              		.cfi_startproc
 1849              		@ args = 0, pretend = 0, frame = 0
 1850              		@ frame_needed = 0, uses_anonymous_args = 0
 1851              		@ link register save eliminated.
 500:Middlewares/Third_Party/FreeRTOS/Source/timers.c **** 
 1852              		.loc 1 500 1 view .LVU496
 502:Middlewares/Third_Party/FreeRTOS/Source/timers.c **** 	return pxTimer->pcTimerName;
 1853              		.loc 1 502 2 view .LVU497
 1854 0000 0028     		cmp	r0, #0
 1855 0002 01D0     		beq	.L141
 502:Middlewares/Third_Party/FreeRTOS/Source/timers.c **** 	return pxTimer->pcTimerName;
 1856              		.loc 1 502 24 discriminator 2 view .LVU498
 503:Middlewares/Third_Party/FreeRTOS/Source/timers.c **** }
 1857              		.loc 1 503 2 view .LVU499
 503:Middlewares/Third_Party/FreeRTOS/Source/timers.c **** }
 1858              		.loc 1 503 16 is_stmt 0 discriminator 1 view .LVU500
 1859 0004 0068     		ldr	r0, [r0]
 1860              	.LVL169:
 504:Middlewares/Third_Party/FreeRTOS/Source/timers.c **** /*-----------------------------------------------------------*/
 1861              		.loc 1 504 1 view .LVU501
 1862              		@ sp needed
 1863 0006 7047     		bx	lr
 1864              	.LVL170:
 1865              	.L141:
 502:Middlewares/Third_Party/FreeRTOS/Source/timers.c **** 	return pxTimer->pcTimerName;
 1866              		.loc 1 502 2 is_stmt 1 discriminator 1 view .LVU502
 1867              		.syntax divided
 1868              	@ 502 "Middlewares/Third_Party/FreeRTOS/Source/timers.c" 1
 1869 0008 72B6     		 cpsid i 
 1870              	@ 0 "" 2
 1871              		.thumb
 1872              		.syntax unified
 1873              	.L140:
 502:Middlewares/Third_Party/FreeRTOS/Source/timers.c **** 	return pxTimer->pcTimerName;
 1874              		.loc 1 502 2 discriminator 3 view .LVU503
 502:Middlewares/Third_Party/FreeRTOS/Source/timers.c **** 	return pxTimer->pcTimerName;
 1875              		.loc 1 502 2 discriminator 3 view .LVU504
 1876 000a FEE7     		b	.L140
 1877              		.cfi_endproc
 1878              	.LFE10:
 1880              		.section	.text.xTimerIsTimerActive,"ax",%progbits
 1881              		.align	1
 1882              		.global	xTimerIsTimerActive
 1883              		.syntax unified
ARM GAS  /tmp/ccYeCTy1.s 			page 59


 1884              		.code	16
 1885              		.thumb_func
 1887              	xTimerIsTimerActive:
 1888              	.LVL171:
 1889              	.LFB20:
 990:Middlewares/Third_Party/FreeRTOS/Source/timers.c **** /*-----------------------------------------------------------*/
 991:Middlewares/Third_Party/FreeRTOS/Source/timers.c **** 
 992:Middlewares/Third_Party/FreeRTOS/Source/timers.c **** BaseType_t xTimerIsTimerActive( TimerHandle_t xTimer )
 993:Middlewares/Third_Party/FreeRTOS/Source/timers.c **** {
 1890              		.loc 1 993 1 view -0
 1891              		.cfi_startproc
 1892              		@ args = 0, pretend = 0, frame = 0
 1893              		@ frame_needed = 0, uses_anonymous_args = 0
 1894              		.loc 1 993 1 is_stmt 0 view .LVU506
 1895 0000 10B5     		push	{r4, lr}
 1896              		.cfi_def_cfa_offset 8
 1897              		.cfi_offset 4, -8
 1898              		.cfi_offset 14, -4
 1899 0002 041E     		subs	r4, r0, #0
 994:Middlewares/Third_Party/FreeRTOS/Source/timers.c **** BaseType_t xReturn;
 1900              		.loc 1 994 1 is_stmt 1 view .LVU507
 995:Middlewares/Third_Party/FreeRTOS/Source/timers.c **** Timer_t *pxTimer = xTimer;
 1901              		.loc 1 995 1 view .LVU508
 1902              	.LVL172:
 996:Middlewares/Third_Party/FreeRTOS/Source/timers.c **** 
 997:Middlewares/Third_Party/FreeRTOS/Source/timers.c **** 	configASSERT( xTimer );
 1903              		.loc 1 997 2 view .LVU509
 1904 0004 0AD0     		beq	.L147
 1905              		.loc 1 997 24 discriminator 2 view .LVU510
 998:Middlewares/Third_Party/FreeRTOS/Source/timers.c **** 
 999:Middlewares/Third_Party/FreeRTOS/Source/timers.c **** 	/* Is the timer in the list of active timers? */
1000:Middlewares/Third_Party/FreeRTOS/Source/timers.c **** 	taskENTER_CRITICAL();
 1906              		.loc 1 1000 2 view .LVU511
 1907 0006 FFF7FEFF 		bl	vPortEnterCritical
 1908              	.LVL173:
1001:Middlewares/Third_Party/FreeRTOS/Source/timers.c **** 	{
1002:Middlewares/Third_Party/FreeRTOS/Source/timers.c **** 		if( ( pxTimer->ucStatus & tmrSTATUS_IS_ACTIVE ) == 0 )
 1909              		.loc 1 1002 3 view .LVU512
 1910              		.loc 1 1002 16 is_stmt 0 view .LVU513
 1911 000a 2823     		movs	r3, #40
 1912 000c E35C     		ldrb	r3, [r4, r3]
 1913              		.loc 1 1002 5 view .LVU514
 1914 000e DB07     		lsls	r3, r3, #31
 1915 0010 06D4     		bmi	.L146
1003:Middlewares/Third_Party/FreeRTOS/Source/timers.c **** 		{
1004:Middlewares/Third_Party/FreeRTOS/Source/timers.c **** 			xReturn = pdFALSE;
 1916              		.loc 1 1004 12 view .LVU515
 1917 0012 0024     		movs	r4, #0
 1918              	.LVL174:
 1919              	.L145:
1005:Middlewares/Third_Party/FreeRTOS/Source/timers.c **** 		}
1006:Middlewares/Third_Party/FreeRTOS/Source/timers.c **** 		else
1007:Middlewares/Third_Party/FreeRTOS/Source/timers.c **** 		{
1008:Middlewares/Third_Party/FreeRTOS/Source/timers.c **** 			xReturn = pdTRUE;
1009:Middlewares/Third_Party/FreeRTOS/Source/timers.c **** 		}
1010:Middlewares/Third_Party/FreeRTOS/Source/timers.c **** 	}
1011:Middlewares/Third_Party/FreeRTOS/Source/timers.c **** 	taskEXIT_CRITICAL();
ARM GAS  /tmp/ccYeCTy1.s 			page 60


 1920              		.loc 1 1011 2 is_stmt 1 view .LVU516
 1921 0014 FFF7FEFF 		bl	vPortExitCritical
 1922              	.LVL175:
1012:Middlewares/Third_Party/FreeRTOS/Source/timers.c **** 
1013:Middlewares/Third_Party/FreeRTOS/Source/timers.c **** 	return xReturn;
 1923              		.loc 1 1013 2 view .LVU517
1014:Middlewares/Third_Party/FreeRTOS/Source/timers.c **** } /*lint !e818 Can't be pointer to const due to the typedef. */
 1924              		.loc 1 1014 1 is_stmt 0 view .LVU518
 1925 0018 2000     		movs	r0, r4
 1926              		@ sp needed
 1927              	.LVL176:
 1928              		.loc 1 1014 1 view .LVU519
 1929 001a 10BD     		pop	{r4, pc}
 1930              	.LVL177:
 1931              	.L147:
 997:Middlewares/Third_Party/FreeRTOS/Source/timers.c **** 
 1932              		.loc 1 997 2 is_stmt 1 discriminator 1 view .LVU520
 1933              		.syntax divided
 1934              	@ 997 "Middlewares/Third_Party/FreeRTOS/Source/timers.c" 1
 1935 001c 72B6     		 cpsid i 
 1936              	@ 0 "" 2
 1937              		.thumb
 1938              		.syntax unified
 1939              	.L144:
 997:Middlewares/Third_Party/FreeRTOS/Source/timers.c **** 
 1940              		.loc 1 997 2 discriminator 3 view .LVU521
 997:Middlewares/Third_Party/FreeRTOS/Source/timers.c **** 
 1941              		.loc 1 997 2 discriminator 3 view .LVU522
 1942 001e FEE7     		b	.L144
 1943              	.LVL178:
 1944              	.L146:
1008:Middlewares/Third_Party/FreeRTOS/Source/timers.c **** 		}
 1945              		.loc 1 1008 12 is_stmt 0 view .LVU523
 1946 0020 0124     		movs	r4, #1
 1947              	.LVL179:
1008:Middlewares/Third_Party/FreeRTOS/Source/timers.c **** 		}
 1948              		.loc 1 1008 12 view .LVU524
 1949 0022 F7E7     		b	.L145
 1950              		.cfi_endproc
 1951              	.LFE20:
 1953              		.section	.text.pvTimerGetTimerID,"ax",%progbits
 1954              		.align	1
 1955              		.global	pvTimerGetTimerID
 1956              		.syntax unified
 1957              		.code	16
 1958              		.thumb_func
 1960              	pvTimerGetTimerID:
 1961              	.LVL180:
 1962              	.LFB21:
1015:Middlewares/Third_Party/FreeRTOS/Source/timers.c **** /*-----------------------------------------------------------*/
1016:Middlewares/Third_Party/FreeRTOS/Source/timers.c **** 
1017:Middlewares/Third_Party/FreeRTOS/Source/timers.c **** void *pvTimerGetTimerID( const TimerHandle_t xTimer )
1018:Middlewares/Third_Party/FreeRTOS/Source/timers.c **** {
 1963              		.loc 1 1018 1 is_stmt 1 view -0
 1964              		.cfi_startproc
 1965              		@ args = 0, pretend = 0, frame = 0
 1966              		@ frame_needed = 0, uses_anonymous_args = 0
ARM GAS  /tmp/ccYeCTy1.s 			page 61


 1967              		.loc 1 1018 1 is_stmt 0 view .LVU526
 1968 0000 10B5     		push	{r4, lr}
 1969              		.cfi_def_cfa_offset 8
 1970              		.cfi_offset 4, -8
 1971              		.cfi_offset 14, -4
 1972 0002 041E     		subs	r4, r0, #0
1019:Middlewares/Third_Party/FreeRTOS/Source/timers.c **** Timer_t * const pxTimer = xTimer;
 1973              		.loc 1 1019 1 is_stmt 1 view .LVU527
 1974              	.LVL181:
1020:Middlewares/Third_Party/FreeRTOS/Source/timers.c **** void *pvReturn;
 1975              		.loc 1 1020 1 view .LVU528
1021:Middlewares/Third_Party/FreeRTOS/Source/timers.c **** 
1022:Middlewares/Third_Party/FreeRTOS/Source/timers.c **** 	configASSERT( xTimer );
 1976              		.loc 1 1022 2 view .LVU529
 1977 0004 06D0     		beq	.L151
 1978              		.loc 1 1022 24 discriminator 2 view .LVU530
1023:Middlewares/Third_Party/FreeRTOS/Source/timers.c **** 
1024:Middlewares/Third_Party/FreeRTOS/Source/timers.c **** 	taskENTER_CRITICAL();
 1979              		.loc 1 1024 2 view .LVU531
 1980 0006 FFF7FEFF 		bl	vPortEnterCritical
 1981              	.LVL182:
1025:Middlewares/Third_Party/FreeRTOS/Source/timers.c **** 	{
1026:Middlewares/Third_Party/FreeRTOS/Source/timers.c **** 		pvReturn = pxTimer->pvTimerID;
 1982              		.loc 1 1026 3 view .LVU532
 1983              		.loc 1 1026 12 is_stmt 0 view .LVU533
 1984 000a E469     		ldr	r4, [r4, #28]
 1985              	.LVL183:
1027:Middlewares/Third_Party/FreeRTOS/Source/timers.c **** 	}
1028:Middlewares/Third_Party/FreeRTOS/Source/timers.c **** 	taskEXIT_CRITICAL();
 1986              		.loc 1 1028 2 is_stmt 1 view .LVU534
 1987 000c FFF7FEFF 		bl	vPortExitCritical
 1988              	.LVL184:
1029:Middlewares/Third_Party/FreeRTOS/Source/timers.c **** 
1030:Middlewares/Third_Party/FreeRTOS/Source/timers.c **** 	return pvReturn;
 1989              		.loc 1 1030 2 view .LVU535
1031:Middlewares/Third_Party/FreeRTOS/Source/timers.c **** }
 1990              		.loc 1 1031 1 is_stmt 0 view .LVU536
 1991 0010 2000     		movs	r0, r4
 1992              		@ sp needed
 1993              	.LVL185:
 1994              		.loc 1 1031 1 view .LVU537
 1995 0012 10BD     		pop	{r4, pc}
 1996              	.LVL186:
 1997              	.L151:
1022:Middlewares/Third_Party/FreeRTOS/Source/timers.c **** 
 1998              		.loc 1 1022 2 is_stmt 1 discriminator 1 view .LVU538
 1999              		.syntax divided
 2000              	@ 1022 "Middlewares/Third_Party/FreeRTOS/Source/timers.c" 1
 2001 0014 72B6     		 cpsid i 
 2002              	@ 0 "" 2
 2003              		.thumb
 2004              		.syntax unified
 2005              	.L150:
1022:Middlewares/Third_Party/FreeRTOS/Source/timers.c **** 
 2006              		.loc 1 1022 2 discriminator 3 view .LVU539
1022:Middlewares/Third_Party/FreeRTOS/Source/timers.c **** 
 2007              		.loc 1 1022 2 discriminator 3 view .LVU540
ARM GAS  /tmp/ccYeCTy1.s 			page 62


 2008 0016 FEE7     		b	.L150
 2009              		.cfi_endproc
 2010              	.LFE21:
 2012              		.section	.text.vTimerSetTimerID,"ax",%progbits
 2013              		.align	1
 2014              		.global	vTimerSetTimerID
 2015              		.syntax unified
 2016              		.code	16
 2017              		.thumb_func
 2019              	vTimerSetTimerID:
 2020              	.LVL187:
 2021              	.LFB22:
1032:Middlewares/Third_Party/FreeRTOS/Source/timers.c **** /*-----------------------------------------------------------*/
1033:Middlewares/Third_Party/FreeRTOS/Source/timers.c **** 
1034:Middlewares/Third_Party/FreeRTOS/Source/timers.c **** void vTimerSetTimerID( TimerHandle_t xTimer, void *pvNewID )
1035:Middlewares/Third_Party/FreeRTOS/Source/timers.c **** {
 2022              		.loc 1 1035 1 view -0
 2023              		.cfi_startproc
 2024              		@ args = 0, pretend = 0, frame = 0
 2025              		@ frame_needed = 0, uses_anonymous_args = 0
 2026              		.loc 1 1035 1 is_stmt 0 view .LVU542
 2027 0000 70B5     		push	{r4, r5, r6, lr}
 2028              		.cfi_def_cfa_offset 16
 2029              		.cfi_offset 4, -16
 2030              		.cfi_offset 5, -12
 2031              		.cfi_offset 6, -8
 2032              		.cfi_offset 14, -4
 2033 0002 0400     		movs	r4, r0
 2034 0004 0D00     		movs	r5, r1
1036:Middlewares/Third_Party/FreeRTOS/Source/timers.c **** Timer_t * const pxTimer = xTimer;
 2035              		.loc 1 1036 1 is_stmt 1 view .LVU543
 2036              	.LVL188:
1037:Middlewares/Third_Party/FreeRTOS/Source/timers.c **** 
1038:Middlewares/Third_Party/FreeRTOS/Source/timers.c **** 	configASSERT( xTimer );
 2037              		.loc 1 1038 2 view .LVU544
 2038 0006 0028     		cmp	r0, #0
 2039 0008 05D0     		beq	.L155
 2040              		.loc 1 1038 24 discriminator 2 view .LVU545
1039:Middlewares/Third_Party/FreeRTOS/Source/timers.c **** 
1040:Middlewares/Third_Party/FreeRTOS/Source/timers.c **** 	taskENTER_CRITICAL();
 2041              		.loc 1 1040 2 view .LVU546
 2042 000a FFF7FEFF 		bl	vPortEnterCritical
 2043              	.LVL189:
1041:Middlewares/Third_Party/FreeRTOS/Source/timers.c **** 	{
1042:Middlewares/Third_Party/FreeRTOS/Source/timers.c **** 		pxTimer->pvTimerID = pvNewID;
 2044              		.loc 1 1042 3 view .LVU547
 2045              		.loc 1 1042 22 is_stmt 0 view .LVU548
 2046 000e E561     		str	r5, [r4, #28]
1043:Middlewares/Third_Party/FreeRTOS/Source/timers.c **** 	}
1044:Middlewares/Third_Party/FreeRTOS/Source/timers.c **** 	taskEXIT_CRITICAL();
 2047              		.loc 1 1044 2 is_stmt 1 view .LVU549
 2048 0010 FFF7FEFF 		bl	vPortExitCritical
 2049              	.LVL190:
1045:Middlewares/Third_Party/FreeRTOS/Source/timers.c **** }
 2050              		.loc 1 1045 1 is_stmt 0 view .LVU550
 2051              		@ sp needed
 2052              	.LVL191:
ARM GAS  /tmp/ccYeCTy1.s 			page 63


 2053              	.LVL192:
 2054              		.loc 1 1045 1 view .LVU551
 2055 0014 70BD     		pop	{r4, r5, r6, pc}
 2056              	.LVL193:
 2057              	.L155:
1038:Middlewares/Third_Party/FreeRTOS/Source/timers.c **** 
 2058              		.loc 1 1038 2 is_stmt 1 discriminator 1 view .LVU552
 2059              		.syntax divided
 2060              	@ 1038 "Middlewares/Third_Party/FreeRTOS/Source/timers.c" 1
 2061 0016 72B6     		 cpsid i 
 2062              	@ 0 "" 2
 2063              		.thumb
 2064              		.syntax unified
 2065              	.L154:
1038:Middlewares/Third_Party/FreeRTOS/Source/timers.c **** 
 2066              		.loc 1 1038 2 discriminator 3 view .LVU553
1038:Middlewares/Third_Party/FreeRTOS/Source/timers.c **** 
 2067              		.loc 1 1038 2 discriminator 3 view .LVU554
 2068 0018 FEE7     		b	.L154
 2069              		.cfi_endproc
 2070              	.LFE22:
 2072              		.section	.text.xTimerPendFunctionCallFromISR,"ax",%progbits
 2073              		.align	1
 2074              		.global	xTimerPendFunctionCallFromISR
 2075              		.syntax unified
 2076              		.code	16
 2077              		.thumb_func
 2079              	xTimerPendFunctionCallFromISR:
 2080              	.LVL194:
 2081              	.LFB23:
1046:Middlewares/Third_Party/FreeRTOS/Source/timers.c **** /*-----------------------------------------------------------*/
1047:Middlewares/Third_Party/FreeRTOS/Source/timers.c **** 
1048:Middlewares/Third_Party/FreeRTOS/Source/timers.c **** #if( INCLUDE_xTimerPendFunctionCall == 1 )
1049:Middlewares/Third_Party/FreeRTOS/Source/timers.c **** 
1050:Middlewares/Third_Party/FreeRTOS/Source/timers.c **** 	BaseType_t xTimerPendFunctionCallFromISR( PendedFunction_t xFunctionToPend, void *pvParameter1, ui
1051:Middlewares/Third_Party/FreeRTOS/Source/timers.c **** 	{
 2082              		.loc 1 1051 2 view -0
 2083              		.cfi_startproc
 2084              		@ args = 0, pretend = 0, frame = 16
 2085              		@ frame_needed = 0, uses_anonymous_args = 0
 2086              		.loc 1 1051 2 is_stmt 0 view .LVU556
 2087 0000 30B5     		push	{r4, r5, lr}
 2088              		.cfi_def_cfa_offset 12
 2089              		.cfi_offset 4, -12
 2090              		.cfi_offset 5, -8
 2091              		.cfi_offset 14, -4
 2092 0002 85B0     		sub	sp, sp, #20
 2093              		.cfi_def_cfa_offset 32
 2094 0004 0D00     		movs	r5, r1
 2095 0006 1400     		movs	r4, r2
 2096 0008 1A00     		movs	r2, r3
 2097              	.LVL195:
1052:Middlewares/Third_Party/FreeRTOS/Source/timers.c **** 	DaemonTaskMessage_t xMessage;
 2098              		.loc 1 1052 2 is_stmt 1 view .LVU557
1053:Middlewares/Third_Party/FreeRTOS/Source/timers.c **** 	BaseType_t xReturn;
 2099              		.loc 1 1053 2 view .LVU558
1054:Middlewares/Third_Party/FreeRTOS/Source/timers.c **** 
ARM GAS  /tmp/ccYeCTy1.s 			page 64


1055:Middlewares/Third_Party/FreeRTOS/Source/timers.c **** 		/* Complete the message with the function parameters and post it to the
1056:Middlewares/Third_Party/FreeRTOS/Source/timers.c **** 		daemon task. */
1057:Middlewares/Third_Party/FreeRTOS/Source/timers.c **** 		xMessage.xMessageID = tmrCOMMAND_EXECUTE_CALLBACK_FROM_ISR;
 2100              		.loc 1 1057 3 view .LVU559
 2101              		.loc 1 1057 23 is_stmt 0 view .LVU560
 2102 000a 6946     		mov	r1, sp
 2103              	.LVL196:
 2104              		.loc 1 1057 23 view .LVU561
 2105 000c 0223     		movs	r3, #2
 2106              	.LVL197:
 2107              		.loc 1 1057 23 view .LVU562
 2108 000e 5B42     		rsbs	r3, r3, #0
 2109 0010 0093     		str	r3, [sp]
1058:Middlewares/Third_Party/FreeRTOS/Source/timers.c **** 		xMessage.u.xCallbackParameters.pxCallbackFunction = xFunctionToPend;
 2110              		.loc 1 1058 3 is_stmt 1 view .LVU563
 2111              		.loc 1 1058 53 is_stmt 0 view .LVU564
 2112 0012 0190     		str	r0, [sp, #4]
1059:Middlewares/Third_Party/FreeRTOS/Source/timers.c **** 		xMessage.u.xCallbackParameters.pvParameter1 = pvParameter1;
 2113              		.loc 1 1059 3 is_stmt 1 view .LVU565
 2114              		.loc 1 1059 47 is_stmt 0 view .LVU566
 2115 0014 0295     		str	r5, [sp, #8]
1060:Middlewares/Third_Party/FreeRTOS/Source/timers.c **** 		xMessage.u.xCallbackParameters.ulParameter2 = ulParameter2;
 2116              		.loc 1 1060 3 is_stmt 1 view .LVU567
 2117              		.loc 1 1060 47 is_stmt 0 view .LVU568
 2118 0016 0394     		str	r4, [sp, #12]
1061:Middlewares/Third_Party/FreeRTOS/Source/timers.c **** 
1062:Middlewares/Third_Party/FreeRTOS/Source/timers.c **** 		xReturn = xQueueSendFromISR( xTimerQueue, &xMessage, pxHigherPriorityTaskWoken );
 2119              		.loc 1 1062 3 is_stmt 1 view .LVU569
 2120              		.loc 1 1062 13 is_stmt 0 view .LVU570
 2121 0018 034B     		ldr	r3, .L157
 2122 001a 1868     		ldr	r0, [r3]
 2123              	.LVL198:
 2124              		.loc 1 1062 13 view .LVU571
 2125 001c 0023     		movs	r3, #0
 2126 001e FFF7FEFF 		bl	xQueueGenericSendFromISR
 2127              	.LVL199:
1063:Middlewares/Third_Party/FreeRTOS/Source/timers.c **** 
1064:Middlewares/Third_Party/FreeRTOS/Source/timers.c **** 		tracePEND_FUNC_CALL_FROM_ISR( xFunctionToPend, pvParameter1, ulParameter2, xReturn );
 2128              		.loc 1 1064 87 is_stmt 1 view .LVU572
1065:Middlewares/Third_Party/FreeRTOS/Source/timers.c **** 
1066:Middlewares/Third_Party/FreeRTOS/Source/timers.c **** 		return xReturn;
 2129              		.loc 1 1066 3 view .LVU573
1067:Middlewares/Third_Party/FreeRTOS/Source/timers.c **** 	}
 2130              		.loc 1 1067 2 is_stmt 0 view .LVU574
 2131 0022 05B0     		add	sp, sp, #20
 2132              		@ sp needed
 2133              	.LVL200:
 2134              	.LVL201:
 2135              		.loc 1 1067 2 view .LVU575
 2136 0024 30BD     		pop	{r4, r5, pc}
 2137              	.L158:
 2138 0026 C046     		.align	2
 2139              	.L157:
 2140 0028 00000000 		.word	xTimerQueue
 2141              		.cfi_endproc
 2142              	.LFE23:
 2144              		.section	.text.xTimerPendFunctionCall,"ax",%progbits
ARM GAS  /tmp/ccYeCTy1.s 			page 65


 2145              		.align	1
 2146              		.global	xTimerPendFunctionCall
 2147              		.syntax unified
 2148              		.code	16
 2149              		.thumb_func
 2151              	xTimerPendFunctionCall:
 2152              	.LVL202:
 2153              	.LFB24:
1068:Middlewares/Third_Party/FreeRTOS/Source/timers.c **** 
1069:Middlewares/Third_Party/FreeRTOS/Source/timers.c **** #endif /* INCLUDE_xTimerPendFunctionCall */
1070:Middlewares/Third_Party/FreeRTOS/Source/timers.c **** /*-----------------------------------------------------------*/
1071:Middlewares/Third_Party/FreeRTOS/Source/timers.c **** 
1072:Middlewares/Third_Party/FreeRTOS/Source/timers.c **** #if( INCLUDE_xTimerPendFunctionCall == 1 )
1073:Middlewares/Third_Party/FreeRTOS/Source/timers.c **** 
1074:Middlewares/Third_Party/FreeRTOS/Source/timers.c **** 	BaseType_t xTimerPendFunctionCall( PendedFunction_t xFunctionToPend, void *pvParameter1, uint32_t 
1075:Middlewares/Third_Party/FreeRTOS/Source/timers.c **** 	{
 2154              		.loc 1 1075 2 is_stmt 1 view -0
 2155              		.cfi_startproc
 2156              		@ args = 0, pretend = 0, frame = 16
 2157              		@ frame_needed = 0, uses_anonymous_args = 0
 2158              		.loc 1 1075 2 is_stmt 0 view .LVU577
 2159 0000 F0B5     		push	{r4, r5, r6, r7, lr}
 2160              		.cfi_def_cfa_offset 20
 2161              		.cfi_offset 4, -20
 2162              		.cfi_offset 5, -16
 2163              		.cfi_offset 6, -12
 2164              		.cfi_offset 7, -8
 2165              		.cfi_offset 14, -4
 2166 0002 85B0     		sub	sp, sp, #20
 2167              		.cfi_def_cfa_offset 40
 2168 0004 0500     		movs	r5, r0
 2169 0006 0E00     		movs	r6, r1
 2170 0008 1700     		movs	r7, r2
 2171 000a 1A00     		movs	r2, r3
 2172              	.LVL203:
1076:Middlewares/Third_Party/FreeRTOS/Source/timers.c **** 	DaemonTaskMessage_t xMessage;
 2173              		.loc 1 1076 2 is_stmt 1 view .LVU578
1077:Middlewares/Third_Party/FreeRTOS/Source/timers.c **** 	BaseType_t xReturn;
 2174              		.loc 1 1077 2 view .LVU579
1078:Middlewares/Third_Party/FreeRTOS/Source/timers.c **** 
1079:Middlewares/Third_Party/FreeRTOS/Source/timers.c **** 		/* This function can only be called after a timer has been created or
1080:Middlewares/Third_Party/FreeRTOS/Source/timers.c **** 		after the scheduler has been started because, until then, the timer
1081:Middlewares/Third_Party/FreeRTOS/Source/timers.c **** 		queue does not exist. */
1082:Middlewares/Third_Party/FreeRTOS/Source/timers.c **** 		configASSERT( xTimerQueue );
 2175              		.loc 1 1082 3 view .LVU580
 2176 000c 084C     		ldr	r4, .L163
 2177 000e 2068     		ldr	r0, [r4]
 2178              	.LVL204:
 2179              		.loc 1 1082 3 is_stmt 0 view .LVU581
 2180 0010 0028     		cmp	r0, #0
 2181 0012 0BD0     		beq	.L162
 2182              		.loc 1 1082 30 is_stmt 1 discriminator 2 view .LVU582
1083:Middlewares/Third_Party/FreeRTOS/Source/timers.c **** 
1084:Middlewares/Third_Party/FreeRTOS/Source/timers.c **** 		/* Complete the message with the function parameters and post it to the
1085:Middlewares/Third_Party/FreeRTOS/Source/timers.c **** 		daemon task. */
1086:Middlewares/Third_Party/FreeRTOS/Source/timers.c **** 		xMessage.xMessageID = tmrCOMMAND_EXECUTE_CALLBACK;
 2183              		.loc 1 1086 3 view .LVU583
ARM GAS  /tmp/ccYeCTy1.s 			page 66


 2184              		.loc 1 1086 23 is_stmt 0 view .LVU584
 2185 0014 6946     		mov	r1, sp
 2186              	.LVL205:
 2187              		.loc 1 1086 23 view .LVU585
 2188 0016 0123     		movs	r3, #1
 2189              	.LVL206:
 2190              		.loc 1 1086 23 view .LVU586
 2191 0018 5B42     		rsbs	r3, r3, #0
 2192 001a 0093     		str	r3, [sp]
1087:Middlewares/Third_Party/FreeRTOS/Source/timers.c **** 		xMessage.u.xCallbackParameters.pxCallbackFunction = xFunctionToPend;
 2193              		.loc 1 1087 3 is_stmt 1 view .LVU587
 2194              		.loc 1 1087 53 is_stmt 0 view .LVU588
 2195 001c 0195     		str	r5, [sp, #4]
1088:Middlewares/Third_Party/FreeRTOS/Source/timers.c **** 		xMessage.u.xCallbackParameters.pvParameter1 = pvParameter1;
 2196              		.loc 1 1088 3 is_stmt 1 view .LVU589
 2197              		.loc 1 1088 47 is_stmt 0 view .LVU590
 2198 001e 0296     		str	r6, [sp, #8]
1089:Middlewares/Third_Party/FreeRTOS/Source/timers.c **** 		xMessage.u.xCallbackParameters.ulParameter2 = ulParameter2;
 2199              		.loc 1 1089 3 is_stmt 1 view .LVU591
 2200              		.loc 1 1089 47 is_stmt 0 view .LVU592
 2201 0020 0397     		str	r7, [sp, #12]
1090:Middlewares/Third_Party/FreeRTOS/Source/timers.c **** 
1091:Middlewares/Third_Party/FreeRTOS/Source/timers.c **** 		xReturn = xQueueSendToBack( xTimerQueue, &xMessage, xTicksToWait );
 2202              		.loc 1 1091 3 is_stmt 1 view .LVU593
 2203              		.loc 1 1091 13 is_stmt 0 view .LVU594
 2204 0022 0023     		movs	r3, #0
 2205 0024 FFF7FEFF 		bl	xQueueGenericSend
 2206              	.LVL207:
1092:Middlewares/Third_Party/FreeRTOS/Source/timers.c **** 
1093:Middlewares/Third_Party/FreeRTOS/Source/timers.c **** 		tracePEND_FUNC_CALL( xFunctionToPend, pvParameter1, ulParameter2, xReturn );
 2207              		.loc 1 1093 78 is_stmt 1 view .LVU595
1094:Middlewares/Third_Party/FreeRTOS/Source/timers.c **** 
1095:Middlewares/Third_Party/FreeRTOS/Source/timers.c **** 		return xReturn;
 2208              		.loc 1 1095 3 view .LVU596
1096:Middlewares/Third_Party/FreeRTOS/Source/timers.c **** 	}
 2209              		.loc 1 1096 2 is_stmt 0 view .LVU597
 2210 0028 05B0     		add	sp, sp, #20
 2211              		@ sp needed
 2212              	.LVL208:
 2213              	.LVL209:
 2214              	.LVL210:
 2215              		.loc 1 1096 2 view .LVU598
 2216 002a F0BD     		pop	{r4, r5, r6, r7, pc}
 2217              	.LVL211:
 2218              	.L162:
1082:Middlewares/Third_Party/FreeRTOS/Source/timers.c **** 
 2219              		.loc 1 1082 3 is_stmt 1 discriminator 1 view .LVU599
 2220              		.syntax divided
 2221              	@ 1082 "Middlewares/Third_Party/FreeRTOS/Source/timers.c" 1
 2222 002c 72B6     		 cpsid i 
 2223              	@ 0 "" 2
 2224              		.thumb
 2225              		.syntax unified
 2226              	.L161:
1082:Middlewares/Third_Party/FreeRTOS/Source/timers.c **** 
 2227              		.loc 1 1082 3 discriminator 3 view .LVU600
1082:Middlewares/Third_Party/FreeRTOS/Source/timers.c **** 
ARM GAS  /tmp/ccYeCTy1.s 			page 67


 2228              		.loc 1 1082 3 discriminator 3 view .LVU601
 2229 002e FEE7     		b	.L161
 2230              	.L164:
 2231              		.align	2
 2232              	.L163:
 2233 0030 00000000 		.word	xTimerQueue
 2234              		.cfi_endproc
 2235              	.LFE24:
 2237              		.section	.text.uxTimerGetTimerNumber,"ax",%progbits
 2238              		.align	1
 2239              		.global	uxTimerGetTimerNumber
 2240              		.syntax unified
 2241              		.code	16
 2242              		.thumb_func
 2244              	uxTimerGetTimerNumber:
 2245              	.LVL212:
 2246              	.LFB25:
1097:Middlewares/Third_Party/FreeRTOS/Source/timers.c **** 
1098:Middlewares/Third_Party/FreeRTOS/Source/timers.c **** #endif /* INCLUDE_xTimerPendFunctionCall */
1099:Middlewares/Third_Party/FreeRTOS/Source/timers.c **** /*-----------------------------------------------------------*/
1100:Middlewares/Third_Party/FreeRTOS/Source/timers.c **** 
1101:Middlewares/Third_Party/FreeRTOS/Source/timers.c **** #if ( configUSE_TRACE_FACILITY == 1 )
1102:Middlewares/Third_Party/FreeRTOS/Source/timers.c **** 
1103:Middlewares/Third_Party/FreeRTOS/Source/timers.c **** 	UBaseType_t uxTimerGetTimerNumber( TimerHandle_t xTimer )
1104:Middlewares/Third_Party/FreeRTOS/Source/timers.c **** 	{
 2247              		.loc 1 1104 2 view -0
 2248              		.cfi_startproc
 2249              		@ args = 0, pretend = 0, frame = 0
 2250              		@ frame_needed = 0, uses_anonymous_args = 0
 2251              		@ link register save eliminated.
1105:Middlewares/Third_Party/FreeRTOS/Source/timers.c **** 		return ( ( Timer_t * ) xTimer )->uxTimerNumber;
 2252              		.loc 1 1105 3 view .LVU603
 2253              		.loc 1 1105 34 is_stmt 0 discriminator 1 view .LVU604
 2254 0000 406A     		ldr	r0, [r0, #36]
 2255              	.LVL213:
1106:Middlewares/Third_Party/FreeRTOS/Source/timers.c **** 	}
 2256              		.loc 1 1106 2 view .LVU605
 2257              		@ sp needed
 2258 0002 7047     		bx	lr
 2259              		.cfi_endproc
 2260              	.LFE25:
 2262              		.section	.text.vTimerSetTimerNumber,"ax",%progbits
 2263              		.align	1
 2264              		.global	vTimerSetTimerNumber
 2265              		.syntax unified
 2266              		.code	16
 2267              		.thumb_func
 2269              	vTimerSetTimerNumber:
 2270              	.LVL214:
 2271              	.LFB26:
1107:Middlewares/Third_Party/FreeRTOS/Source/timers.c **** 
1108:Middlewares/Third_Party/FreeRTOS/Source/timers.c **** #endif /* configUSE_TRACE_FACILITY */
1109:Middlewares/Third_Party/FreeRTOS/Source/timers.c **** /*-----------------------------------------------------------*/
1110:Middlewares/Third_Party/FreeRTOS/Source/timers.c **** 
1111:Middlewares/Third_Party/FreeRTOS/Source/timers.c **** #if ( configUSE_TRACE_FACILITY == 1 )
1112:Middlewares/Third_Party/FreeRTOS/Source/timers.c **** 
1113:Middlewares/Third_Party/FreeRTOS/Source/timers.c **** 	void vTimerSetTimerNumber( TimerHandle_t xTimer, UBaseType_t uxTimerNumber )
ARM GAS  /tmp/ccYeCTy1.s 			page 68


1114:Middlewares/Third_Party/FreeRTOS/Source/timers.c **** 	{
 2272              		.loc 1 1114 2 is_stmt 1 view -0
 2273              		.cfi_startproc
 2274              		@ args = 0, pretend = 0, frame = 0
 2275              		@ frame_needed = 0, uses_anonymous_args = 0
 2276              		@ link register save eliminated.
1115:Middlewares/Third_Party/FreeRTOS/Source/timers.c **** 		( ( Timer_t * ) xTimer )->uxTimerNumber = uxTimerNumber;
 2277              		.loc 1 1115 3 view .LVU607
 2278              		.loc 1 1115 43 is_stmt 0 view .LVU608
 2279 0000 4162     		str	r1, [r0, #36]
1116:Middlewares/Third_Party/FreeRTOS/Source/timers.c **** 	}
 2280              		.loc 1 1116 2 view .LVU609
 2281              		@ sp needed
 2282 0002 7047     		bx	lr
 2283              		.cfi_endproc
 2284              	.LFE26:
 2286              		.section	.bss.xStaticTimerQueue.0,"aw",%nobits
 2287              		.align	2
 2290              	xStaticTimerQueue.0:
 2291 0000 00000000 		.space	80
 2291      00000000 
 2291      00000000 
 2291      00000000 
 2291      00000000 
 2292              		.section	.bss.ucStaticTimerQueueStorage.1,"aw",%nobits
 2293              		.align	2
 2296              	ucStaticTimerQueueStorage.1:
 2297 0000 00000000 		.space	160
 2297      00000000 
 2297      00000000 
 2297      00000000 
 2297      00000000 
 2298              		.section	.bss.xLastTime.2,"aw",%nobits
 2299              		.align	2
 2302              	xLastTime.2:
 2303 0000 00000000 		.space	4
 2304              		.section	.bss.xTimerTaskHandle,"aw",%nobits
 2305              		.align	2
 2308              	xTimerTaskHandle:
 2309 0000 00000000 		.space	4
 2310              		.section	.bss.xTimerQueue,"aw",%nobits
 2311              		.align	2
 2314              	xTimerQueue:
 2315 0000 00000000 		.space	4
 2316              		.section	.bss.pxOverflowTimerList,"aw",%nobits
 2317              		.align	2
 2320              	pxOverflowTimerList:
 2321 0000 00000000 		.space	4
 2322              		.section	.bss.pxCurrentTimerList,"aw",%nobits
 2323              		.align	2
 2326              	pxCurrentTimerList:
 2327 0000 00000000 		.space	4
 2328              		.section	.bss.xActiveTimerList2,"aw",%nobits
 2329              		.align	2
 2332              	xActiveTimerList2:
 2333 0000 00000000 		.space	20
 2333      00000000 
ARM GAS  /tmp/ccYeCTy1.s 			page 69


 2333      00000000 
 2333      00000000 
 2333      00000000 
 2334              		.section	.bss.xActiveTimerList1,"aw",%nobits
 2335              		.align	2
 2338              	xActiveTimerList1:
 2339 0000 00000000 		.space	20
 2339      00000000 
 2339      00000000 
 2339      00000000 
 2339      00000000 
 2340              		.text
 2341              	.Letext0:
 2342              		.file 2 "/opt/arm-gnu-toolchain-14.2/lib/gcc/arm-none-eabi/14.2.1/include/stddef.h"
 2343              		.file 3 "/opt/arm-gnu-toolchain-14.2/arm-none-eabi/include/machine/_default_types.h"
 2344              		.file 4 "/opt/arm-gnu-toolchain-14.2/arm-none-eabi/include/sys/_stdint.h"
 2345              		.file 5 "Middlewares/Third_Party/FreeRTOS/Source/include/projdefs.h"
 2346              		.file 6 "Middlewares/Third_Party/FreeRTOS/Source/portable/GCC/ARM_CM0/portmacro.h"
 2347              		.file 7 "Middlewares/Third_Party/FreeRTOS/Source/include/FreeRTOS.h"
 2348              		.file 8 "Middlewares/Third_Party/FreeRTOS/Source/include/list.h"
 2349              		.file 9 "Middlewares/Third_Party/FreeRTOS/Source/include/task.h"
 2350              		.file 10 "Middlewares/Third_Party/FreeRTOS/Source/include/queue.h"
 2351              		.file 11 "Middlewares/Third_Party/FreeRTOS/Source/include/timers.h"
 2352              		.file 12 "Middlewares/Third_Party/FreeRTOS/Source/include/portable.h"
ARM GAS  /tmp/ccYeCTy1.s 			page 70


DEFINED SYMBOLS
                            *ABS*:00000000 timers.c
     /tmp/ccYeCTy1.s:19     .text.prvGetNextExpireTime:00000000 $t
     /tmp/ccYeCTy1.s:24     .text.prvGetNextExpireTime:00000000 prvGetNextExpireTime
     /tmp/ccYeCTy1.s:74     .text.prvGetNextExpireTime:00000020 $d
     /tmp/ccYeCTy1.s:2326   .bss.pxCurrentTimerList:00000000 pxCurrentTimerList
     /tmp/ccYeCTy1.s:79     .text.prvInsertTimerInActiveList:00000000 $t
     /tmp/ccYeCTy1.s:84     .text.prvInsertTimerInActiveList:00000000 prvInsertTimerInActiveList
     /tmp/ccYeCTy1.s:174    .text.prvInsertTimerInActiveList:00000040 $d
     /tmp/ccYeCTy1.s:2320   .bss.pxOverflowTimerList:00000000 pxOverflowTimerList
     /tmp/ccYeCTy1.s:180    .rodata.prvCheckForValidListAndQueue.str1.4:00000000 $d
     /tmp/ccYeCTy1.s:184    .text.prvCheckForValidListAndQueue:00000000 $t
     /tmp/ccYeCTy1.s:189    .text.prvCheckForValidListAndQueue:00000000 prvCheckForValidListAndQueue
     /tmp/ccYeCTy1.s:269    .text.prvCheckForValidListAndQueue:00000050 $d
     /tmp/ccYeCTy1.s:2314   .bss.xTimerQueue:00000000 xTimerQueue
     /tmp/ccYeCTy1.s:2338   .bss.xActiveTimerList1:00000000 xActiveTimerList1
     /tmp/ccYeCTy1.s:2332   .bss.xActiveTimerList2:00000000 xActiveTimerList2
     /tmp/ccYeCTy1.s:2290   .bss.xStaticTimerQueue.0:00000000 xStaticTimerQueue.0
     /tmp/ccYeCTy1.s:2296   .bss.ucStaticTimerQueueStorage.1:00000000 ucStaticTimerQueueStorage.1
     /tmp/ccYeCTy1.s:281    .text.prvInitialiseNewTimer:00000000 $t
     /tmp/ccYeCTy1.s:286    .text.prvInitialiseNewTimer:00000000 prvInitialiseNewTimer
     /tmp/ccYeCTy1.s:375    .rodata.xTimerCreateTimerTask.str1.4:00000000 $d
     /tmp/ccYeCTy1.s:379    .text.xTimerCreateTimerTask:00000000 $t
     /tmp/ccYeCTy1.s:385    .text.xTimerCreateTimerTask:00000000 xTimerCreateTimerTask
     /tmp/ccYeCTy1.s:466    .text.xTimerCreateTimerTask:0000004c $d
     /tmp/ccYeCTy1.s:1518   .text.prvTimerTask:00000000 prvTimerTask
     /tmp/ccYeCTy1.s:2308   .bss.xTimerTaskHandle:00000000 xTimerTaskHandle
     /tmp/ccYeCTy1.s:474    .text.xTimerCreate:00000000 $t
     /tmp/ccYeCTy1.s:480    .text.xTimerCreate:00000000 xTimerCreate
     /tmp/ccYeCTy1.s:548    .text.xTimerCreateStatic:00000000 $t
     /tmp/ccYeCTy1.s:554    .text.xTimerCreateStatic:00000000 xTimerCreateStatic
     /tmp/ccYeCTy1.s:641    .text.xTimerGenericCommand:00000000 $t
     /tmp/ccYeCTy1.s:647    .text.xTimerGenericCommand:00000000 xTimerGenericCommand
     /tmp/ccYeCTy1.s:769    .text.xTimerGenericCommand:0000005c $d
     /tmp/ccYeCTy1.s:774    .text.prvSwitchTimerLists:00000000 $t
     /tmp/ccYeCTy1.s:779    .text.prvSwitchTimerLists:00000000 prvSwitchTimerLists
     /tmp/ccYeCTy1.s:911    .text.prvSwitchTimerLists:00000068 $d
     /tmp/ccYeCTy1.s:917    .text.prvSampleTimeNow:00000000 $t
     /tmp/ccYeCTy1.s:922    .text.prvSampleTimeNow:00000000 prvSampleTimeNow
     /tmp/ccYeCTy1.s:984    .text.prvSampleTimeNow:00000028 $d
     /tmp/ccYeCTy1.s:2302   .bss.xLastTime.2:00000000 xLastTime.2
     /tmp/ccYeCTy1.s:989    .text.prvProcessExpiredTimer:00000000 $t
     /tmp/ccYeCTy1.s:994    .text.prvProcessExpiredTimer:00000000 prvProcessExpiredTimer
     /tmp/ccYeCTy1.s:1100   .text.prvProcessExpiredTimer:00000058 $d
     /tmp/ccYeCTy1.s:1105   .text.prvProcessTimerOrBlockTask:00000000 $t
     /tmp/ccYeCTy1.s:1110   .text.prvProcessTimerOrBlockTask:00000000 prvProcessTimerOrBlockTask
     /tmp/ccYeCTy1.s:1230   .text.prvProcessTimerOrBlockTask:00000068 $d
     /tmp/ccYeCTy1.s:1236   .text.prvProcessReceivedCommands:00000000 $t
     /tmp/ccYeCTy1.s:1241   .text.prvProcessReceivedCommands:00000000 prvProcessReceivedCommands
     /tmp/ccYeCTy1.s:1341   .rodata.prvProcessReceivedCommands:00000000 $d
     /tmp/ccYeCTy1.s:1507   .text.prvProcessReceivedCommands:000000e0 $d
     /tmp/ccYeCTy1.s:1513   .text.prvTimerTask:00000000 $t
     /tmp/ccYeCTy1.s:1555   .text.xTimerGetTimerDaemonTaskHandle:00000000 $t
     /tmp/ccYeCTy1.s:1561   .text.xTimerGetTimerDaemonTaskHandle:00000000 xTimerGetTimerDaemonTaskHandle
     /tmp/ccYeCTy1.s:1591   .text.xTimerGetTimerDaemonTaskHandle:00000010 $d
     /tmp/ccYeCTy1.s:1596   .text.xTimerGetPeriod:00000000 $t
     /tmp/ccYeCTy1.s:1602   .text.xTimerGetPeriod:00000000 xTimerGetPeriod
ARM GAS  /tmp/ccYeCTy1.s 			page 71


     /tmp/ccYeCTy1.s:1639   .text.vTimerSetReloadMode:00000000 $t
     /tmp/ccYeCTy1.s:1645   .text.vTimerSetReloadMode:00000000 vTimerSetReloadMode
     /tmp/ccYeCTy1.s:1720   .text.uxTimerGetReloadMode:00000000 $t
     /tmp/ccYeCTy1.s:1726   .text.uxTimerGetReloadMode:00000000 uxTimerGetReloadMode
     /tmp/ccYeCTy1.s:1793   .text.xTimerGetExpiryTime:00000000 $t
     /tmp/ccYeCTy1.s:1799   .text.xTimerGetExpiryTime:00000000 xTimerGetExpiryTime
     /tmp/ccYeCTy1.s:1838   .text.pcTimerGetName:00000000 $t
     /tmp/ccYeCTy1.s:1844   .text.pcTimerGetName:00000000 pcTimerGetName
     /tmp/ccYeCTy1.s:1881   .text.xTimerIsTimerActive:00000000 $t
     /tmp/ccYeCTy1.s:1887   .text.xTimerIsTimerActive:00000000 xTimerIsTimerActive
     /tmp/ccYeCTy1.s:1954   .text.pvTimerGetTimerID:00000000 $t
     /tmp/ccYeCTy1.s:1960   .text.pvTimerGetTimerID:00000000 pvTimerGetTimerID
     /tmp/ccYeCTy1.s:2013   .text.vTimerSetTimerID:00000000 $t
     /tmp/ccYeCTy1.s:2019   .text.vTimerSetTimerID:00000000 vTimerSetTimerID
     /tmp/ccYeCTy1.s:2073   .text.xTimerPendFunctionCallFromISR:00000000 $t
     /tmp/ccYeCTy1.s:2079   .text.xTimerPendFunctionCallFromISR:00000000 xTimerPendFunctionCallFromISR
     /tmp/ccYeCTy1.s:2140   .text.xTimerPendFunctionCallFromISR:00000028 $d
     /tmp/ccYeCTy1.s:2145   .text.xTimerPendFunctionCall:00000000 $t
     /tmp/ccYeCTy1.s:2151   .text.xTimerPendFunctionCall:00000000 xTimerPendFunctionCall
     /tmp/ccYeCTy1.s:2233   .text.xTimerPendFunctionCall:00000030 $d
     /tmp/ccYeCTy1.s:2238   .text.uxTimerGetTimerNumber:00000000 $t
     /tmp/ccYeCTy1.s:2244   .text.uxTimerGetTimerNumber:00000000 uxTimerGetTimerNumber
     /tmp/ccYeCTy1.s:2263   .text.vTimerSetTimerNumber:00000000 $t
     /tmp/ccYeCTy1.s:2269   .text.vTimerSetTimerNumber:00000000 vTimerSetTimerNumber
     /tmp/ccYeCTy1.s:2287   .bss.xStaticTimerQueue.0:00000000 $d
     /tmp/ccYeCTy1.s:2293   .bss.ucStaticTimerQueueStorage.1:00000000 $d
     /tmp/ccYeCTy1.s:2299   .bss.xLastTime.2:00000000 $d
     /tmp/ccYeCTy1.s:2305   .bss.xTimerTaskHandle:00000000 $d
     /tmp/ccYeCTy1.s:2311   .bss.xTimerQueue:00000000 $d
     /tmp/ccYeCTy1.s:2317   .bss.pxOverflowTimerList:00000000 $d
     /tmp/ccYeCTy1.s:2323   .bss.pxCurrentTimerList:00000000 $d
     /tmp/ccYeCTy1.s:2329   .bss.xActiveTimerList2:00000000 $d
     /tmp/ccYeCTy1.s:2335   .bss.xActiveTimerList1:00000000 $d

UNDEFINED SYMBOLS
vListInsert
vPortEnterCritical
vPortExitCritical
vListInitialise
xQueueGenericCreateStatic
vQueueAddToRegistry
vListInitialiseItem
vApplicationGetTimerTaskMemory
xTaskCreateStatic
pvPortMalloc
xTaskGetSchedulerState
xQueueGenericSend
xQueueGenericSendFromISR
uxListRemove
xTaskGetTickCount
vTaskSuspendAll
vQueueWaitForMessageRestricted
xTaskResumeAll
vPortYield
xQueueReceive
vPortFree
