ARM GAS  /tmp/cchPj8UT.s 			page 1


   1              		.cpu cortex-m0plus
   2              		.arch armv6s-m
   3              		.fpu softvfp
   4              		.eabi_attribute 20, 1
   5              		.eabi_attribute 21, 1
   6              		.eabi_attribute 23, 3
   7              		.eabi_attribute 24, 1
   8              		.eabi_attribute 25, 1
   9              		.eabi_attribute 26, 1
  10              		.eabi_attribute 30, 1
  11              		.eabi_attribute 34, 0
  12              		.eabi_attribute 18, 4
  13              		.file	"usart.c"
  14              		.text
  15              	.Ltext0:
  16              		.cfi_sections	.debug_frame
  17              		.file 1 "Core/Src/usart.c"
  18              		.section	.text.MX_USART2_UART_Init,"ax",%progbits
  19              		.align	1
  20              		.global	MX_USART2_UART_Init
  21              		.syntax unified
  22              		.code	16
  23              		.thumb_func
  25              	MX_USART2_UART_Init:
  26              	.LFB457:
   1:Core/Src/usart.c **** /* USER CODE BEGIN Header */
   2:Core/Src/usart.c **** /**
   3:Core/Src/usart.c ****   ******************************************************************************
   4:Core/Src/usart.c ****   * @file    usart.c
   5:Core/Src/usart.c ****   * @brief   This file provides code for the configuration
   6:Core/Src/usart.c ****   *          of the USART instances.
   7:Core/Src/usart.c ****   ******************************************************************************
   8:Core/Src/usart.c ****   * @attention
   9:Core/Src/usart.c ****   *
  10:Core/Src/usart.c ****   * Copyright (c) 2026 STMicroelectronics.
  11:Core/Src/usart.c ****   * All rights reserved.
  12:Core/Src/usart.c ****   *
  13:Core/Src/usart.c ****   * This software is licensed under terms that can be found in the LICENSE file
  14:Core/Src/usart.c ****   * in the root directory of this software component.
  15:Core/Src/usart.c ****   * If no LICENSE file comes with this software, it is provided AS-IS.
  16:Core/Src/usart.c ****   *
  17:Core/Src/usart.c ****   ******************************************************************************
  18:Core/Src/usart.c ****   */
  19:Core/Src/usart.c **** /* USER CODE END Header */
  20:Core/Src/usart.c **** /* Includes ------------------------------------------------------------------*/
  21:Core/Src/usart.c **** #include "usart.h"
  22:Core/Src/usart.c **** 
  23:Core/Src/usart.c **** /* USER CODE BEGIN 0 */
  24:Core/Src/usart.c **** 
  25:Core/Src/usart.c **** /* USER CODE END 0 */
  26:Core/Src/usart.c **** 
  27:Core/Src/usart.c **** UART_HandleTypeDef huart2;
  28:Core/Src/usart.c **** UART_HandleTypeDef huart3;
  29:Core/Src/usart.c **** DMA_HandleTypeDef hdma_usart2_rx;
  30:Core/Src/usart.c **** DMA_HandleTypeDef hdma_usart2_tx;
  31:Core/Src/usart.c **** DMA_HandleTypeDef hdma_usart3_rx;
  32:Core/Src/usart.c **** DMA_HandleTypeDef hdma_usart3_tx;
ARM GAS  /tmp/cchPj8UT.s 			page 2


  33:Core/Src/usart.c **** 
  34:Core/Src/usart.c **** /* USART2 init function */
  35:Core/Src/usart.c **** 
  36:Core/Src/usart.c **** void MX_USART2_UART_Init(void)
  37:Core/Src/usart.c **** {
  27              		.loc 1 37 1 view -0
  28              		.cfi_startproc
  29              		@ args = 0, pretend = 0, frame = 0
  30              		@ frame_needed = 0, uses_anonymous_args = 0
  31 0000 10B5     		push	{r4, lr}
  32              		.cfi_def_cfa_offset 8
  33              		.cfi_offset 4, -8
  34              		.cfi_offset 14, -4
  38:Core/Src/usart.c **** 
  39:Core/Src/usart.c ****   /* USER CODE BEGIN USART2_Init 0 */
  40:Core/Src/usart.c **** 
  41:Core/Src/usart.c ****   /* USER CODE END USART2_Init 0 */
  42:Core/Src/usart.c **** 
  43:Core/Src/usart.c ****   /* USER CODE BEGIN USART2_Init 1 */
  44:Core/Src/usart.c **** 
  45:Core/Src/usart.c ****   /* USER CODE END USART2_Init 1 */
  46:Core/Src/usart.c ****   huart2.Instance = USART2;
  35              		.loc 1 46 3 view .LVU1
  36              		.loc 1 46 19 is_stmt 0 view .LVU2
  37 0002 1948     		ldr	r0, .L10
  38 0004 194B     		ldr	r3, .L10+4
  39 0006 0360     		str	r3, [r0]
  47:Core/Src/usart.c ****   huart2.Init.BaudRate = 921600;
  40              		.loc 1 47 3 is_stmt 1 view .LVU3
  41              		.loc 1 47 24 is_stmt 0 view .LVU4
  42 0008 E123     		movs	r3, #225
  43 000a 1B03     		lsls	r3, r3, #12
  44 000c 4360     		str	r3, [r0, #4]
  48:Core/Src/usart.c ****   huart2.Init.WordLength = UART_WORDLENGTH_8B;
  45              		.loc 1 48 3 is_stmt 1 view .LVU5
  46              		.loc 1 48 26 is_stmt 0 view .LVU6
  47 000e 0023     		movs	r3, #0
  48 0010 8360     		str	r3, [r0, #8]
  49:Core/Src/usart.c ****   huart2.Init.StopBits = UART_STOPBITS_1;
  49              		.loc 1 49 3 is_stmt 1 view .LVU7
  50              		.loc 1 49 24 is_stmt 0 view .LVU8
  51 0012 C360     		str	r3, [r0, #12]
  50:Core/Src/usart.c ****   huart2.Init.Parity = UART_PARITY_NONE;
  52              		.loc 1 50 3 is_stmt 1 view .LVU9
  53              		.loc 1 50 22 is_stmt 0 view .LVU10
  54 0014 0361     		str	r3, [r0, #16]
  51:Core/Src/usart.c ****   huart2.Init.Mode = UART_MODE_TX_RX;
  55              		.loc 1 51 3 is_stmt 1 view .LVU11
  56              		.loc 1 51 20 is_stmt 0 view .LVU12
  57 0016 0C22     		movs	r2, #12
  58 0018 4261     		str	r2, [r0, #20]
  52:Core/Src/usart.c ****   huart2.Init.HwFlowCtl = UART_HWCONTROL_NONE;
  59              		.loc 1 52 3 is_stmt 1 view .LVU13
  60              		.loc 1 52 25 is_stmt 0 view .LVU14
  61 001a 8361     		str	r3, [r0, #24]
  53:Core/Src/usart.c ****   huart2.Init.OverSampling = UART_OVERSAMPLING_16;
  62              		.loc 1 53 3 is_stmt 1 view .LVU15
ARM GAS  /tmp/cchPj8UT.s 			page 3


  63              		.loc 1 53 28 is_stmt 0 view .LVU16
  64 001c C361     		str	r3, [r0, #28]
  54:Core/Src/usart.c ****   huart2.Init.OneBitSampling = UART_ONE_BIT_SAMPLE_DISABLE;
  65              		.loc 1 54 3 is_stmt 1 view .LVU17
  66              		.loc 1 54 30 is_stmt 0 view .LVU18
  67 001e 0362     		str	r3, [r0, #32]
  55:Core/Src/usart.c ****   huart2.Init.ClockPrescaler = UART_PRESCALER_DIV1;
  68              		.loc 1 55 3 is_stmt 1 view .LVU19
  69              		.loc 1 55 30 is_stmt 0 view .LVU20
  70 0020 4362     		str	r3, [r0, #36]
  56:Core/Src/usart.c ****   huart2.AdvancedInit.AdvFeatureInit = UART_ADVFEATURE_NO_INIT;
  71              		.loc 1 56 3 is_stmt 1 view .LVU21
  72              		.loc 1 56 38 is_stmt 0 view .LVU22
  73 0022 8362     		str	r3, [r0, #40]
  57:Core/Src/usart.c ****   if (HAL_UART_Init(&huart2) != HAL_OK)
  74              		.loc 1 57 3 is_stmt 1 view .LVU23
  75              		.loc 1 57 7 is_stmt 0 view .LVU24
  76 0024 FFF7FEFF 		bl	HAL_UART_Init
  77              	.LVL0:
  78              		.loc 1 57 6 discriminator 1 view .LVU25
  79 0028 0028     		cmp	r0, #0
  80 002a 11D1     		bne	.L6
  81              	.L2:
  58:Core/Src/usart.c ****   {
  59:Core/Src/usart.c ****     Error_Handler();
  60:Core/Src/usart.c ****   }
  61:Core/Src/usart.c ****   if (HAL_UARTEx_SetTxFifoThreshold(&huart2, UART_TXFIFO_THRESHOLD_1_8) != HAL_OK)
  82              		.loc 1 61 3 is_stmt 1 view .LVU26
  83              		.loc 1 61 7 is_stmt 0 view .LVU27
  84 002c 0E48     		ldr	r0, .L10
  85 002e 0021     		movs	r1, #0
  86 0030 FFF7FEFF 		bl	HAL_UARTEx_SetTxFifoThreshold
  87              	.LVL1:
  88              		.loc 1 61 6 discriminator 1 view .LVU28
  89 0034 0028     		cmp	r0, #0
  90 0036 0ED1     		bne	.L7
  91              	.L3:
  62:Core/Src/usart.c ****   {
  63:Core/Src/usart.c ****     Error_Handler();
  64:Core/Src/usart.c ****   }
  65:Core/Src/usart.c ****   if (HAL_UARTEx_SetRxFifoThreshold(&huart2, UART_RXFIFO_THRESHOLD_1_8) != HAL_OK)
  92              		.loc 1 65 3 is_stmt 1 view .LVU29
  93              		.loc 1 65 7 is_stmt 0 view .LVU30
  94 0038 0B48     		ldr	r0, .L10
  95 003a 0021     		movs	r1, #0
  96 003c FFF7FEFF 		bl	HAL_UARTEx_SetRxFifoThreshold
  97              	.LVL2:
  98              		.loc 1 65 6 discriminator 1 view .LVU31
  99 0040 0028     		cmp	r0, #0
 100 0042 0BD1     		bne	.L8
 101              	.L4:
  66:Core/Src/usart.c ****   {
  67:Core/Src/usart.c ****     Error_Handler();
  68:Core/Src/usart.c ****   }
  69:Core/Src/usart.c ****   if (HAL_UARTEx_DisableFifoMode(&huart2) != HAL_OK)
 102              		.loc 1 69 3 is_stmt 1 view .LVU32
 103              		.loc 1 69 7 is_stmt 0 view .LVU33
ARM GAS  /tmp/cchPj8UT.s 			page 4


 104 0044 0848     		ldr	r0, .L10
 105 0046 FFF7FEFF 		bl	HAL_UARTEx_DisableFifoMode
 106              	.LVL3:
 107              		.loc 1 69 6 discriminator 1 view .LVU34
 108 004a 0028     		cmp	r0, #0
 109 004c 09D1     		bne	.L9
 110              	.L1:
  70:Core/Src/usart.c ****   {
  71:Core/Src/usart.c ****     Error_Handler();
  72:Core/Src/usart.c ****   }
  73:Core/Src/usart.c ****   /* USER CODE BEGIN USART2_Init 2 */
  74:Core/Src/usart.c **** 
  75:Core/Src/usart.c ****   /* USER CODE END USART2_Init 2 */
  76:Core/Src/usart.c **** 
  77:Core/Src/usart.c **** }
 111              		.loc 1 77 1 view .LVU35
 112              		@ sp needed
 113 004e 10BD     		pop	{r4, pc}
 114              	.L6:
  59:Core/Src/usart.c ****   }
 115              		.loc 1 59 5 is_stmt 1 view .LVU36
 116 0050 FFF7FEFF 		bl	Error_Handler
 117              	.LVL4:
 118 0054 EAE7     		b	.L2
 119              	.L7:
  63:Core/Src/usart.c ****   }
 120              		.loc 1 63 5 view .LVU37
 121 0056 FFF7FEFF 		bl	Error_Handler
 122              	.LVL5:
 123 005a EDE7     		b	.L3
 124              	.L8:
  67:Core/Src/usart.c ****   }
 125              		.loc 1 67 5 view .LVU38
 126 005c FFF7FEFF 		bl	Error_Handler
 127              	.LVL6:
 128 0060 F0E7     		b	.L4
 129              	.L9:
  71:Core/Src/usart.c ****   }
 130              		.loc 1 71 5 view .LVU39
 131 0062 FFF7FEFF 		bl	Error_Handler
 132              	.LVL7:
 133              		.loc 1 77 1 is_stmt 0 view .LVU40
 134 0066 F2E7     		b	.L1
 135              	.L11:
 136              		.align	2
 137              	.L10:
 138 0068 00000000 		.word	huart2
 139 006c 00440040 		.word	1073759232
 140              		.cfi_endproc
 141              	.LFE457:
 143              		.section	.text.MX_USART3_UART_Init,"ax",%progbits
 144              		.align	1
 145              		.global	MX_USART3_UART_Init
 146              		.syntax unified
 147              		.code	16
 148              		.thumb_func
 150              	MX_USART3_UART_Init:
ARM GAS  /tmp/cchPj8UT.s 			page 5


 151              	.LFB458:
  78:Core/Src/usart.c **** /* USART3 init function */
  79:Core/Src/usart.c **** 
  80:Core/Src/usart.c **** void MX_USART3_UART_Init(void)
  81:Core/Src/usart.c **** {
 152              		.loc 1 81 1 is_stmt 1 view -0
 153              		.cfi_startproc
 154              		@ args = 0, pretend = 0, frame = 0
 155              		@ frame_needed = 0, uses_anonymous_args = 0
 156 0000 10B5     		push	{r4, lr}
 157              		.cfi_def_cfa_offset 8
 158              		.cfi_offset 4, -8
 159              		.cfi_offset 14, -4
  82:Core/Src/usart.c **** 
  83:Core/Src/usart.c ****   /* USER CODE BEGIN USART3_Init 0 */
  84:Core/Src/usart.c **** 
  85:Core/Src/usart.c ****   /* USER CODE END USART3_Init 0 */
  86:Core/Src/usart.c **** 
  87:Core/Src/usart.c ****   /* USER CODE BEGIN USART3_Init 1 */
  88:Core/Src/usart.c **** 
  89:Core/Src/usart.c ****   /* USER CODE END USART3_Init 1 */
  90:Core/Src/usart.c ****   huart3.Instance = USART3;
 160              		.loc 1 90 3 view .LVU42
 161              		.loc 1 90 19 is_stmt 0 view .LVU43
 162 0002 0C48     		ldr	r0, .L15
 163 0004 0C4B     		ldr	r3, .L15+4
 164 0006 0360     		str	r3, [r0]
  91:Core/Src/usart.c ****   huart3.Init.BaudRate = 921600;
 165              		.loc 1 91 3 is_stmt 1 view .LVU44
 166              		.loc 1 91 24 is_stmt 0 view .LVU45
 167 0008 E123     		movs	r3, #225
 168 000a 1B03     		lsls	r3, r3, #12
 169 000c 4360     		str	r3, [r0, #4]
  92:Core/Src/usart.c ****   huart3.Init.WordLength = UART_WORDLENGTH_8B;
 170              		.loc 1 92 3 is_stmt 1 view .LVU46
 171              		.loc 1 92 26 is_stmt 0 view .LVU47
 172 000e 0023     		movs	r3, #0
 173 0010 8360     		str	r3, [r0, #8]
  93:Core/Src/usart.c ****   huart3.Init.StopBits = UART_STOPBITS_1;
 174              		.loc 1 93 3 is_stmt 1 view .LVU48
 175              		.loc 1 93 24 is_stmt 0 view .LVU49
 176 0012 C360     		str	r3, [r0, #12]
  94:Core/Src/usart.c ****   huart3.Init.Parity = UART_PARITY_NONE;
 177              		.loc 1 94 3 is_stmt 1 view .LVU50
 178              		.loc 1 94 22 is_stmt 0 view .LVU51
 179 0014 0361     		str	r3, [r0, #16]
  95:Core/Src/usart.c ****   huart3.Init.Mode = UART_MODE_TX_RX;
 180              		.loc 1 95 3 is_stmt 1 view .LVU52
 181              		.loc 1 95 20 is_stmt 0 view .LVU53
 182 0016 0C22     		movs	r2, #12
 183 0018 4261     		str	r2, [r0, #20]
  96:Core/Src/usart.c ****   huart3.Init.HwFlowCtl = UART_HWCONTROL_NONE;
 184              		.loc 1 96 3 is_stmt 1 view .LVU54
 185              		.loc 1 96 25 is_stmt 0 view .LVU55
 186 001a 8361     		str	r3, [r0, #24]
  97:Core/Src/usart.c ****   huart3.Init.OverSampling = UART_OVERSAMPLING_16;
 187              		.loc 1 97 3 is_stmt 1 view .LVU56
ARM GAS  /tmp/cchPj8UT.s 			page 6


 188              		.loc 1 97 28 is_stmt 0 view .LVU57
 189 001c C361     		str	r3, [r0, #28]
  98:Core/Src/usart.c ****   huart3.Init.OneBitSampling = UART_ONE_BIT_SAMPLE_DISABLE;
 190              		.loc 1 98 3 is_stmt 1 view .LVU58
 191              		.loc 1 98 30 is_stmt 0 view .LVU59
 192 001e 0362     		str	r3, [r0, #32]
  99:Core/Src/usart.c ****   huart3.Init.ClockPrescaler = UART_PRESCALER_DIV1;
 193              		.loc 1 99 3 is_stmt 1 view .LVU60
 194              		.loc 1 99 30 is_stmt 0 view .LVU61
 195 0020 4362     		str	r3, [r0, #36]
 100:Core/Src/usart.c ****   huart3.AdvancedInit.AdvFeatureInit = UART_ADVFEATURE_NO_INIT;
 196              		.loc 1 100 3 is_stmt 1 view .LVU62
 197              		.loc 1 100 38 is_stmt 0 view .LVU63
 198 0022 8362     		str	r3, [r0, #40]
 101:Core/Src/usart.c ****   if (HAL_UART_Init(&huart3) != HAL_OK)
 199              		.loc 1 101 3 is_stmt 1 view .LVU64
 200              		.loc 1 101 7 is_stmt 0 view .LVU65
 201 0024 FFF7FEFF 		bl	HAL_UART_Init
 202              	.LVL8:
 203              		.loc 1 101 6 discriminator 1 view .LVU66
 204 0028 0028     		cmp	r0, #0
 205 002a 00D1     		bne	.L14
 206              	.L12:
 102:Core/Src/usart.c ****   {
 103:Core/Src/usart.c ****     Error_Handler();
 104:Core/Src/usart.c ****   }
 105:Core/Src/usart.c ****   /* USER CODE BEGIN USART3_Init 2 */
 106:Core/Src/usart.c **** 
 107:Core/Src/usart.c ****   /* USER CODE END USART3_Init 2 */
 108:Core/Src/usart.c **** 
 109:Core/Src/usart.c **** }
 207              		.loc 1 109 1 view .LVU67
 208              		@ sp needed
 209 002c 10BD     		pop	{r4, pc}
 210              	.L14:
 103:Core/Src/usart.c ****   }
 211              		.loc 1 103 5 is_stmt 1 view .LVU68
 212 002e FFF7FEFF 		bl	Error_Handler
 213              	.LVL9:
 214              		.loc 1 109 1 is_stmt 0 view .LVU69
 215 0032 FBE7     		b	.L12
 216              	.L16:
 217              		.align	2
 218              	.L15:
 219 0034 00000000 		.word	huart3
 220 0038 00480040 		.word	1073760256
 221              		.cfi_endproc
 222              	.LFE458:
 224              		.section	.text.HAL_UART_MspInit,"ax",%progbits
 225              		.align	1
 226              		.global	HAL_UART_MspInit
 227              		.syntax unified
 228              		.code	16
 229              		.thumb_func
 231              	HAL_UART_MspInit:
 232              	.LVL10:
 233              	.LFB459:
ARM GAS  /tmp/cchPj8UT.s 			page 7


 110:Core/Src/usart.c **** 
 111:Core/Src/usart.c **** void HAL_UART_MspInit(UART_HandleTypeDef* uartHandle)
 112:Core/Src/usart.c **** {
 234              		.loc 1 112 1 is_stmt 1 view -0
 235              		.cfi_startproc
 236              		@ args = 0, pretend = 0, frame = 96
 237              		@ frame_needed = 0, uses_anonymous_args = 0
 238              		.loc 1 112 1 is_stmt 0 view .LVU71
 239 0000 F0B5     		push	{r4, r5, r6, r7, lr}
 240              		.cfi_def_cfa_offset 20
 241              		.cfi_offset 4, -20
 242              		.cfi_offset 5, -16
 243              		.cfi_offset 6, -12
 244              		.cfi_offset 7, -8
 245              		.cfi_offset 14, -4
 246 0002 C646     		mov	lr, r8
 247 0004 00B5     		push	{lr}
 248              		.cfi_def_cfa_offset 24
 249              		.cfi_offset 8, -24
 250 0006 98B0     		sub	sp, sp, #96
 251              		.cfi_def_cfa_offset 120
 252 0008 0400     		movs	r4, r0
 113:Core/Src/usart.c **** 
 114:Core/Src/usart.c ****   GPIO_InitTypeDef GPIO_InitStruct = {0};
 253              		.loc 1 114 3 is_stmt 1 view .LVU72
 254              		.loc 1 114 20 is_stmt 0 view .LVU73
 255 000a 1422     		movs	r2, #20
 256 000c 0021     		movs	r1, #0
 257 000e 13A8     		add	r0, sp, #76
 258              	.LVL11:
 259              		.loc 1 114 20 view .LVU74
 260 0010 FFF7FEFF 		bl	memset
 261              	.LVL12:
 115:Core/Src/usart.c ****   RCC_PeriphCLKInitTypeDef PeriphClkInit = {0};
 262              		.loc 1 115 3 is_stmt 1 view .LVU75
 263              		.loc 1 115 28 is_stmt 0 view .LVU76
 264 0014 3422     		movs	r2, #52
 265 0016 0021     		movs	r1, #0
 266 0018 06A8     		add	r0, sp, #24
 267 001a FFF7FEFF 		bl	memset
 268              	.LVL13:
 116:Core/Src/usart.c ****   if(uartHandle->Instance==USART2)
 269              		.loc 1 116 3 is_stmt 1 view .LVU77
 270              		.loc 1 116 16 is_stmt 0 view .LVU78
 271 001e 2368     		ldr	r3, [r4]
 272              		.loc 1 116 5 view .LVU79
 273 0020 6A4A     		ldr	r2, .L32
 274 0022 9342     		cmp	r3, r2
 275 0024 06D0     		beq	.L25
 117:Core/Src/usart.c ****   {
 118:Core/Src/usart.c ****   /* USER CODE BEGIN USART2_MspInit 0 */
 119:Core/Src/usart.c **** 
 120:Core/Src/usart.c ****   /* USER CODE END USART2_MspInit 0 */
 121:Core/Src/usart.c **** 
 122:Core/Src/usart.c ****   /** Initializes the peripherals clocks
 123:Core/Src/usart.c ****   */
 124:Core/Src/usart.c ****     PeriphClkInit.PeriphClockSelection = RCC_PERIPHCLK_USART2;
ARM GAS  /tmp/cchPj8UT.s 			page 8


 125:Core/Src/usart.c ****     PeriphClkInit.Usart2ClockSelection = RCC_USART2CLKSOURCE_PCLK1;
 126:Core/Src/usart.c ****     if (HAL_RCCEx_PeriphCLKConfig(&PeriphClkInit) != HAL_OK)
 127:Core/Src/usart.c ****     {
 128:Core/Src/usart.c ****       Error_Handler();
 129:Core/Src/usart.c ****     }
 130:Core/Src/usart.c **** 
 131:Core/Src/usart.c ****     /* USART2 clock enable */
 132:Core/Src/usart.c ****     __HAL_RCC_USART2_CLK_ENABLE();
 133:Core/Src/usart.c **** 
 134:Core/Src/usart.c ****     __HAL_RCC_GPIOA_CLK_ENABLE();
 135:Core/Src/usart.c ****     /**USART2 GPIO Configuration
 136:Core/Src/usart.c ****     PA2     ------> USART2_TX
 137:Core/Src/usart.c ****     PA3     ------> USART2_RX
 138:Core/Src/usart.c ****     */
 139:Core/Src/usart.c ****     GPIO_InitStruct.Pin = GPIO_PIN_2|GPIO_PIN_3;
 140:Core/Src/usart.c ****     GPIO_InitStruct.Mode = GPIO_MODE_AF_PP;
 141:Core/Src/usart.c ****     GPIO_InitStruct.Pull = GPIO_NOPULL;
 142:Core/Src/usart.c ****     GPIO_InitStruct.Speed = GPIO_SPEED_FREQ_LOW;
 143:Core/Src/usart.c ****     GPIO_InitStruct.Alternate = GPIO_AF1_USART2;
 144:Core/Src/usart.c ****     HAL_GPIO_Init(GPIOA, &GPIO_InitStruct);
 145:Core/Src/usart.c **** 
 146:Core/Src/usart.c ****     /* USART2 DMA Init */
 147:Core/Src/usart.c ****     /* USART2_RX Init */
 148:Core/Src/usart.c ****     hdma_usart2_rx.Instance = DMA1_Channel1;
 149:Core/Src/usart.c ****     hdma_usart2_rx.Init.Request = DMA_REQUEST_USART2_RX;
 150:Core/Src/usart.c ****     hdma_usart2_rx.Init.Direction = DMA_PERIPH_TO_MEMORY;
 151:Core/Src/usart.c ****     hdma_usart2_rx.Init.PeriphInc = DMA_PINC_DISABLE;
 152:Core/Src/usart.c ****     hdma_usart2_rx.Init.MemInc = DMA_MINC_ENABLE;
 153:Core/Src/usart.c ****     hdma_usart2_rx.Init.PeriphDataAlignment = DMA_PDATAALIGN_BYTE;
 154:Core/Src/usart.c ****     hdma_usart2_rx.Init.MemDataAlignment = DMA_MDATAALIGN_BYTE;
 155:Core/Src/usart.c ****     hdma_usart2_rx.Init.Mode = DMA_NORMAL;
 156:Core/Src/usart.c ****     hdma_usart2_rx.Init.Priority = DMA_PRIORITY_LOW;
 157:Core/Src/usart.c ****     if (HAL_DMA_Init(&hdma_usart2_rx) != HAL_OK)
 158:Core/Src/usart.c ****     {
 159:Core/Src/usart.c ****       Error_Handler();
 160:Core/Src/usart.c ****     }
 161:Core/Src/usart.c **** 
 162:Core/Src/usart.c ****     __HAL_LINKDMA(uartHandle,hdmarx,hdma_usart2_rx);
 163:Core/Src/usart.c **** 
 164:Core/Src/usart.c ****     /* USART2_TX Init */
 165:Core/Src/usart.c ****     hdma_usart2_tx.Instance = DMA1_Channel2;
 166:Core/Src/usart.c ****     hdma_usart2_tx.Init.Request = DMA_REQUEST_USART2_TX;
 167:Core/Src/usart.c ****     hdma_usart2_tx.Init.Direction = DMA_MEMORY_TO_PERIPH;
 168:Core/Src/usart.c ****     hdma_usart2_tx.Init.PeriphInc = DMA_PINC_DISABLE;
 169:Core/Src/usart.c ****     hdma_usart2_tx.Init.MemInc = DMA_MINC_ENABLE;
 170:Core/Src/usart.c ****     hdma_usart2_tx.Init.PeriphDataAlignment = DMA_PDATAALIGN_BYTE;
 171:Core/Src/usart.c ****     hdma_usart2_tx.Init.MemDataAlignment = DMA_MDATAALIGN_BYTE;
 172:Core/Src/usart.c ****     hdma_usart2_tx.Init.Mode = DMA_NORMAL;
 173:Core/Src/usart.c ****     hdma_usart2_tx.Init.Priority = DMA_PRIORITY_LOW;
 174:Core/Src/usart.c ****     if (HAL_DMA_Init(&hdma_usart2_tx) != HAL_OK)
 175:Core/Src/usart.c ****     {
 176:Core/Src/usart.c ****       Error_Handler();
 177:Core/Src/usart.c ****     }
 178:Core/Src/usart.c **** 
 179:Core/Src/usart.c ****     __HAL_LINKDMA(uartHandle,hdmatx,hdma_usart2_tx);
 180:Core/Src/usart.c **** 
 181:Core/Src/usart.c ****     /* USART2 interrupt Init */
ARM GAS  /tmp/cchPj8UT.s 			page 9


 182:Core/Src/usart.c ****     HAL_NVIC_SetPriority(USART2_IRQn, 3, 0);
 183:Core/Src/usart.c ****     HAL_NVIC_EnableIRQ(USART2_IRQn);
 184:Core/Src/usart.c ****   /* USER CODE BEGIN USART2_MspInit 1 */
 185:Core/Src/usart.c **** 
 186:Core/Src/usart.c ****   /* USER CODE END USART2_MspInit 1 */
 187:Core/Src/usart.c ****   }
 188:Core/Src/usart.c ****   else if(uartHandle->Instance==USART3)
 276              		.loc 1 188 8 is_stmt 1 view .LVU80
 277              		.loc 1 188 10 is_stmt 0 view .LVU81
 278 0026 6A4A     		ldr	r2, .L32+4
 279 0028 9342     		cmp	r3, r2
 280 002a 65D0     		beq	.L26
 281              	.L17:
 189:Core/Src/usart.c ****   {
 190:Core/Src/usart.c ****   /* USER CODE BEGIN USART3_MspInit 0 */
 191:Core/Src/usart.c **** 
 192:Core/Src/usart.c ****   /* USER CODE END USART3_MspInit 0 */
 193:Core/Src/usart.c **** 
 194:Core/Src/usart.c ****     /* USART3 clock enable */
 195:Core/Src/usart.c ****     __HAL_RCC_USART3_CLK_ENABLE();
 196:Core/Src/usart.c **** 
 197:Core/Src/usart.c ****     __HAL_RCC_GPIOA_CLK_ENABLE();
 198:Core/Src/usart.c ****     __HAL_RCC_GPIOB_CLK_ENABLE();
 199:Core/Src/usart.c ****     /**USART3 GPIO Configuration
 200:Core/Src/usart.c ****     PA5     ------> USART3_TX
 201:Core/Src/usart.c ****     PB0     ------> USART3_RX
 202:Core/Src/usart.c ****     */
 203:Core/Src/usart.c ****     GPIO_InitStruct.Pin = GPIO_PIN_5;
 204:Core/Src/usart.c ****     GPIO_InitStruct.Mode = GPIO_MODE_AF_PP;
 205:Core/Src/usart.c ****     GPIO_InitStruct.Pull = GPIO_NOPULL;
 206:Core/Src/usart.c ****     GPIO_InitStruct.Speed = GPIO_SPEED_FREQ_LOW;
 207:Core/Src/usart.c ****     GPIO_InitStruct.Alternate = GPIO_AF4_USART3;
 208:Core/Src/usart.c ****     HAL_GPIO_Init(GPIOA, &GPIO_InitStruct);
 209:Core/Src/usart.c **** 
 210:Core/Src/usart.c ****     GPIO_InitStruct.Pin = GPIO_PIN_0;
 211:Core/Src/usart.c ****     GPIO_InitStruct.Mode = GPIO_MODE_AF_PP;
 212:Core/Src/usart.c ****     GPIO_InitStruct.Pull = GPIO_NOPULL;
 213:Core/Src/usart.c ****     GPIO_InitStruct.Speed = GPIO_SPEED_FREQ_LOW;
 214:Core/Src/usart.c ****     GPIO_InitStruct.Alternate = GPIO_AF4_USART3;
 215:Core/Src/usart.c ****     HAL_GPIO_Init(GPIOB, &GPIO_InitStruct);
 216:Core/Src/usart.c **** 
 217:Core/Src/usart.c ****     /* USART3 DMA Init */
 218:Core/Src/usart.c ****     /* USART3_RX Init */
 219:Core/Src/usart.c ****     hdma_usart3_rx.Instance = DMA1_Channel3;
 220:Core/Src/usart.c ****     hdma_usart3_rx.Init.Request = DMA_REQUEST_USART3_RX;
 221:Core/Src/usart.c ****     hdma_usart3_rx.Init.Direction = DMA_PERIPH_TO_MEMORY;
 222:Core/Src/usart.c ****     hdma_usart3_rx.Init.PeriphInc = DMA_PINC_DISABLE;
 223:Core/Src/usart.c ****     hdma_usart3_rx.Init.MemInc = DMA_MINC_ENABLE;
 224:Core/Src/usart.c ****     hdma_usart3_rx.Init.PeriphDataAlignment = DMA_PDATAALIGN_BYTE;
 225:Core/Src/usart.c ****     hdma_usart3_rx.Init.MemDataAlignment = DMA_MDATAALIGN_BYTE;
 226:Core/Src/usart.c ****     hdma_usart3_rx.Init.Mode = DMA_NORMAL;
 227:Core/Src/usart.c ****     hdma_usart3_rx.Init.Priority = DMA_PRIORITY_LOW;
 228:Core/Src/usart.c ****     if (HAL_DMA_Init(&hdma_usart3_rx) != HAL_OK)
 229:Core/Src/usart.c ****     {
 230:Core/Src/usart.c ****       Error_Handler();
 231:Core/Src/usart.c ****     }
 232:Core/Src/usart.c **** 
ARM GAS  /tmp/cchPj8UT.s 			page 10


 233:Core/Src/usart.c ****     __HAL_LINKDMA(uartHandle,hdmarx,hdma_usart3_rx);
 234:Core/Src/usart.c **** 
 235:Core/Src/usart.c ****     /* USART3_TX Init */
 236:Core/Src/usart.c ****     hdma_usart3_tx.Instance = DMA1_Channel4;
 237:Core/Src/usart.c ****     hdma_usart3_tx.Init.Request = DMA_REQUEST_USART3_TX;
 238:Core/Src/usart.c ****     hdma_usart3_tx.Init.Direction = DMA_MEMORY_TO_PERIPH;
 239:Core/Src/usart.c ****     hdma_usart3_tx.Init.PeriphInc = DMA_PINC_DISABLE;
 240:Core/Src/usart.c ****     hdma_usart3_tx.Init.MemInc = DMA_MINC_ENABLE;
 241:Core/Src/usart.c ****     hdma_usart3_tx.Init.PeriphDataAlignment = DMA_PDATAALIGN_BYTE;
 242:Core/Src/usart.c ****     hdma_usart3_tx.Init.MemDataAlignment = DMA_MDATAALIGN_BYTE;
 243:Core/Src/usart.c ****     hdma_usart3_tx.Init.Mode = DMA_NORMAL;
 244:Core/Src/usart.c ****     hdma_usart3_tx.Init.Priority = DMA_PRIORITY_LOW;
 245:Core/Src/usart.c ****     if (HAL_DMA_Init(&hdma_usart3_tx) != HAL_OK)
 246:Core/Src/usart.c ****     {
 247:Core/Src/usart.c ****       Error_Handler();
 248:Core/Src/usart.c ****     }
 249:Core/Src/usart.c **** 
 250:Core/Src/usart.c ****     __HAL_LINKDMA(uartHandle,hdmatx,hdma_usart3_tx);
 251:Core/Src/usart.c **** 
 252:Core/Src/usart.c ****     /* USART3 interrupt Init */
 253:Core/Src/usart.c ****     HAL_NVIC_SetPriority(USART3_4_LPUART1_IRQn, 3, 0);
 254:Core/Src/usart.c ****     HAL_NVIC_EnableIRQ(USART3_4_LPUART1_IRQn);
 255:Core/Src/usart.c ****   /* USER CODE BEGIN USART3_MspInit 1 */
 256:Core/Src/usart.c **** 
 257:Core/Src/usart.c ****   /* USER CODE END USART3_MspInit 1 */
 258:Core/Src/usart.c ****   }
 259:Core/Src/usart.c **** }
 282              		.loc 1 259 1 view .LVU82
 283 002c 18B0     		add	sp, sp, #96
 284              		@ sp needed
 285              	.LVL14:
 286              		.loc 1 259 1 view .LVU83
 287 002e 80BC     		pop	{r7}
 288 0030 B846     		mov	r8, r7
 289 0032 F0BD     		pop	{r4, r5, r6, r7, pc}
 290              	.LVL15:
 291              	.L25:
 124:Core/Src/usart.c ****     PeriphClkInit.Usart2ClockSelection = RCC_USART2CLKSOURCE_PCLK1;
 292              		.loc 1 124 5 is_stmt 1 view .LVU84
 124:Core/Src/usart.c ****     PeriphClkInit.Usart2ClockSelection = RCC_USART2CLKSOURCE_PCLK1;
 293              		.loc 1 124 40 is_stmt 0 view .LVU85
 294 0034 0223     		movs	r3, #2
 295 0036 0693     		str	r3, [sp, #24]
 125:Core/Src/usart.c ****     if (HAL_RCCEx_PeriphCLKConfig(&PeriphClkInit) != HAL_OK)
 296              		.loc 1 125 5 is_stmt 1 view .LVU86
 126:Core/Src/usart.c ****     {
 297              		.loc 1 126 5 view .LVU87
 126:Core/Src/usart.c ****     {
 298              		.loc 1 126 9 is_stmt 0 view .LVU88
 299 0038 06A8     		add	r0, sp, #24
 300 003a FFF7FEFF 		bl	HAL_RCCEx_PeriphCLKConfig
 301              	.LVL16:
 126:Core/Src/usart.c ****     {
 302              		.loc 1 126 8 discriminator 1 view .LVU89
 303 003e 0028     		cmp	r0, #0
 304 0040 51D1     		bne	.L27
 305              	.L19:
ARM GAS  /tmp/cchPj8UT.s 			page 11


 132:Core/Src/usart.c **** 
 306              		.loc 1 132 5 is_stmt 1 view .LVU90
 307              	.LBB2:
 132:Core/Src/usart.c **** 
 308              		.loc 1 132 5 view .LVU91
 132:Core/Src/usart.c **** 
 309              		.loc 1 132 5 view .LVU92
 310 0042 644B     		ldr	r3, .L32+8
 311 0044 DA6B     		ldr	r2, [r3, #60]
 312 0046 8021     		movs	r1, #128
 313 0048 8902     		lsls	r1, r1, #10
 314 004a 0A43     		orrs	r2, r1
 315 004c DA63     		str	r2, [r3, #60]
 132:Core/Src/usart.c **** 
 316              		.loc 1 132 5 view .LVU93
 317 004e DA6B     		ldr	r2, [r3, #60]
 318 0050 0A40     		ands	r2, r1
 319 0052 0192     		str	r2, [sp, #4]
 132:Core/Src/usart.c **** 
 320              		.loc 1 132 5 view .LVU94
 321 0054 019A     		ldr	r2, [sp, #4]
 322              	.LBE2:
 132:Core/Src/usart.c **** 
 323              		.loc 1 132 5 view .LVU95
 134:Core/Src/usart.c ****     /**USART2 GPIO Configuration
 324              		.loc 1 134 5 view .LVU96
 325              	.LBB3:
 134:Core/Src/usart.c ****     /**USART2 GPIO Configuration
 326              		.loc 1 134 5 view .LVU97
 134:Core/Src/usart.c ****     /**USART2 GPIO Configuration
 327              		.loc 1 134 5 view .LVU98
 328 0056 596B     		ldr	r1, [r3, #52]
 329 0058 0122     		movs	r2, #1
 330 005a 1143     		orrs	r1, r2
 331 005c 5963     		str	r1, [r3, #52]
 134:Core/Src/usart.c ****     /**USART2 GPIO Configuration
 332              		.loc 1 134 5 view .LVU99
 333 005e 5B6B     		ldr	r3, [r3, #52]
 334 0060 1340     		ands	r3, r2
 335 0062 0293     		str	r3, [sp, #8]
 134:Core/Src/usart.c ****     /**USART2 GPIO Configuration
 336              		.loc 1 134 5 view .LVU100
 337 0064 029B     		ldr	r3, [sp, #8]
 338              	.LBE3:
 134:Core/Src/usart.c ****     /**USART2 GPIO Configuration
 339              		.loc 1 134 5 view .LVU101
 139:Core/Src/usart.c ****     GPIO_InitStruct.Mode = GPIO_MODE_AF_PP;
 340              		.loc 1 139 5 view .LVU102
 139:Core/Src/usart.c ****     GPIO_InitStruct.Mode = GPIO_MODE_AF_PP;
 341              		.loc 1 139 25 is_stmt 0 view .LVU103
 342 0066 13A9     		add	r1, sp, #76
 343 0068 0C23     		movs	r3, #12
 344 006a 1393     		str	r3, [sp, #76]
 140:Core/Src/usart.c ****     GPIO_InitStruct.Pull = GPIO_NOPULL;
 345              		.loc 1 140 5 is_stmt 1 view .LVU104
 140:Core/Src/usart.c ****     GPIO_InitStruct.Pull = GPIO_NOPULL;
 346              		.loc 1 140 26 is_stmt 0 view .LVU105
ARM GAS  /tmp/cchPj8UT.s 			page 12


 347 006c 0A3B     		subs	r3, r3, #10
 348 006e 4B60     		str	r3, [r1, #4]
 141:Core/Src/usart.c ****     GPIO_InitStruct.Speed = GPIO_SPEED_FREQ_LOW;
 349              		.loc 1 141 5 is_stmt 1 view .LVU106
 141:Core/Src/usart.c ****     GPIO_InitStruct.Speed = GPIO_SPEED_FREQ_LOW;
 350              		.loc 1 141 26 is_stmt 0 view .LVU107
 351 0070 0025     		movs	r5, #0
 352 0072 8D60     		str	r5, [r1, #8]
 142:Core/Src/usart.c ****     GPIO_InitStruct.Alternate = GPIO_AF1_USART2;
 353              		.loc 1 142 5 is_stmt 1 view .LVU108
 142:Core/Src/usart.c ****     GPIO_InitStruct.Alternate = GPIO_AF1_USART2;
 354              		.loc 1 142 27 is_stmt 0 view .LVU109
 355 0074 CD60     		str	r5, [r1, #12]
 143:Core/Src/usart.c ****     HAL_GPIO_Init(GPIOA, &GPIO_InitStruct);
 356              		.loc 1 143 5 is_stmt 1 view .LVU110
 143:Core/Src/usart.c ****     HAL_GPIO_Init(GPIOA, &GPIO_InitStruct);
 357              		.loc 1 143 31 is_stmt 0 view .LVU111
 358 0076 0A61     		str	r2, [r1, #16]
 144:Core/Src/usart.c **** 
 359              		.loc 1 144 5 is_stmt 1 view .LVU112
 360 0078 A020     		movs	r0, #160
 361 007a C005     		lsls	r0, r0, #23
 362 007c FFF7FEFF 		bl	HAL_GPIO_Init
 363              	.LVL17:
 148:Core/Src/usart.c ****     hdma_usart2_rx.Init.Request = DMA_REQUEST_USART2_RX;
 364              		.loc 1 148 5 view .LVU113
 148:Core/Src/usart.c ****     hdma_usart2_rx.Init.Request = DMA_REQUEST_USART2_RX;
 365              		.loc 1 148 29 is_stmt 0 view .LVU114
 366 0080 5548     		ldr	r0, .L32+12
 367 0082 564B     		ldr	r3, .L32+16
 368 0084 0360     		str	r3, [r0]
 149:Core/Src/usart.c ****     hdma_usart2_rx.Init.Direction = DMA_PERIPH_TO_MEMORY;
 369              		.loc 1 149 5 is_stmt 1 view .LVU115
 149:Core/Src/usart.c ****     hdma_usart2_rx.Init.Direction = DMA_PERIPH_TO_MEMORY;
 370              		.loc 1 149 33 is_stmt 0 view .LVU116
 371 0086 3423     		movs	r3, #52
 372 0088 4360     		str	r3, [r0, #4]
 150:Core/Src/usart.c ****     hdma_usart2_rx.Init.PeriphInc = DMA_PINC_DISABLE;
 373              		.loc 1 150 5 is_stmt 1 view .LVU117
 150:Core/Src/usart.c ****     hdma_usart2_rx.Init.PeriphInc = DMA_PINC_DISABLE;
 374              		.loc 1 150 35 is_stmt 0 view .LVU118
 375 008a 8560     		str	r5, [r0, #8]
 151:Core/Src/usart.c ****     hdma_usart2_rx.Init.MemInc = DMA_MINC_ENABLE;
 376              		.loc 1 151 5 is_stmt 1 view .LVU119
 151:Core/Src/usart.c ****     hdma_usart2_rx.Init.MemInc = DMA_MINC_ENABLE;
 377              		.loc 1 151 35 is_stmt 0 view .LVU120
 378 008c C560     		str	r5, [r0, #12]
 152:Core/Src/usart.c ****     hdma_usart2_rx.Init.PeriphDataAlignment = DMA_PDATAALIGN_BYTE;
 379              		.loc 1 152 5 is_stmt 1 view .LVU121
 152:Core/Src/usart.c ****     hdma_usart2_rx.Init.PeriphDataAlignment = DMA_PDATAALIGN_BYTE;
 380              		.loc 1 152 32 is_stmt 0 view .LVU122
 381 008e 4C33     		adds	r3, r3, #76
 382 0090 0361     		str	r3, [r0, #16]
 153:Core/Src/usart.c ****     hdma_usart2_rx.Init.MemDataAlignment = DMA_MDATAALIGN_BYTE;
 383              		.loc 1 153 5 is_stmt 1 view .LVU123
 153:Core/Src/usart.c ****     hdma_usart2_rx.Init.MemDataAlignment = DMA_MDATAALIGN_BYTE;
 384              		.loc 1 153 45 is_stmt 0 view .LVU124
ARM GAS  /tmp/cchPj8UT.s 			page 13


 385 0092 4561     		str	r5, [r0, #20]
 154:Core/Src/usart.c ****     hdma_usart2_rx.Init.Mode = DMA_NORMAL;
 386              		.loc 1 154 5 is_stmt 1 view .LVU125
 154:Core/Src/usart.c ****     hdma_usart2_rx.Init.Mode = DMA_NORMAL;
 387              		.loc 1 154 42 is_stmt 0 view .LVU126
 388 0094 8561     		str	r5, [r0, #24]
 155:Core/Src/usart.c ****     hdma_usart2_rx.Init.Priority = DMA_PRIORITY_LOW;
 389              		.loc 1 155 5 is_stmt 1 view .LVU127
 155:Core/Src/usart.c ****     hdma_usart2_rx.Init.Priority = DMA_PRIORITY_LOW;
 390              		.loc 1 155 30 is_stmt 0 view .LVU128
 391 0096 C561     		str	r5, [r0, #28]
 156:Core/Src/usart.c ****     if (HAL_DMA_Init(&hdma_usart2_rx) != HAL_OK)
 392              		.loc 1 156 5 is_stmt 1 view .LVU129
 156:Core/Src/usart.c ****     if (HAL_DMA_Init(&hdma_usart2_rx) != HAL_OK)
 393              		.loc 1 156 34 is_stmt 0 view .LVU130
 394 0098 0562     		str	r5, [r0, #32]
 157:Core/Src/usart.c ****     {
 395              		.loc 1 157 5 is_stmt 1 view .LVU131
 157:Core/Src/usart.c ****     {
 396              		.loc 1 157 9 is_stmt 0 view .LVU132
 397 009a FFF7FEFF 		bl	HAL_DMA_Init
 398              	.LVL18:
 157:Core/Src/usart.c ****     {
 399              		.loc 1 157 8 discriminator 1 view .LVU133
 400 009e 0028     		cmp	r0, #0
 401 00a0 24D1     		bne	.L28
 402              	.L20:
 162:Core/Src/usart.c **** 
 403              		.loc 1 162 5 is_stmt 1 view .LVU134
 162:Core/Src/usart.c **** 
 404              		.loc 1 162 5 view .LVU135
 405 00a2 8022     		movs	r2, #128
 406 00a4 4C4B     		ldr	r3, .L32+12
 407 00a6 A350     		str	r3, [r4, r2]
 162:Core/Src/usart.c **** 
 408              		.loc 1 162 5 view .LVU136
 409 00a8 9C62     		str	r4, [r3, #40]
 162:Core/Src/usart.c **** 
 410              		.loc 1 162 5 view .LVU137
 165:Core/Src/usart.c ****     hdma_usart2_tx.Init.Request = DMA_REQUEST_USART2_TX;
 411              		.loc 1 165 5 view .LVU138
 165:Core/Src/usart.c ****     hdma_usart2_tx.Init.Request = DMA_REQUEST_USART2_TX;
 412              		.loc 1 165 29 is_stmt 0 view .LVU139
 413 00aa 4D48     		ldr	r0, .L32+20
 414 00ac 4D4B     		ldr	r3, .L32+24
 415 00ae 0360     		str	r3, [r0]
 166:Core/Src/usart.c ****     hdma_usart2_tx.Init.Direction = DMA_MEMORY_TO_PERIPH;
 416              		.loc 1 166 5 is_stmt 1 view .LVU140
 166:Core/Src/usart.c ****     hdma_usart2_tx.Init.Direction = DMA_MEMORY_TO_PERIPH;
 417              		.loc 1 166 33 is_stmt 0 view .LVU141
 418 00b0 3523     		movs	r3, #53
 419 00b2 4360     		str	r3, [r0, #4]
 167:Core/Src/usart.c ****     hdma_usart2_tx.Init.PeriphInc = DMA_PINC_DISABLE;
 420              		.loc 1 167 5 is_stmt 1 view .LVU142
 167:Core/Src/usart.c ****     hdma_usart2_tx.Init.PeriphInc = DMA_PINC_DISABLE;
 421              		.loc 1 167 35 is_stmt 0 view .LVU143
 422 00b4 253B     		subs	r3, r3, #37
ARM GAS  /tmp/cchPj8UT.s 			page 14


 423 00b6 8360     		str	r3, [r0, #8]
 168:Core/Src/usart.c ****     hdma_usart2_tx.Init.MemInc = DMA_MINC_ENABLE;
 424              		.loc 1 168 5 is_stmt 1 view .LVU144
 168:Core/Src/usart.c ****     hdma_usart2_tx.Init.MemInc = DMA_MINC_ENABLE;
 425              		.loc 1 168 35 is_stmt 0 view .LVU145
 426 00b8 0023     		movs	r3, #0
 427 00ba C360     		str	r3, [r0, #12]
 169:Core/Src/usart.c ****     hdma_usart2_tx.Init.PeriphDataAlignment = DMA_PDATAALIGN_BYTE;
 428              		.loc 1 169 5 is_stmt 1 view .LVU146
 169:Core/Src/usart.c ****     hdma_usart2_tx.Init.PeriphDataAlignment = DMA_PDATAALIGN_BYTE;
 429              		.loc 1 169 32 is_stmt 0 view .LVU147
 430 00bc 0261     		str	r2, [r0, #16]
 170:Core/Src/usart.c ****     hdma_usart2_tx.Init.MemDataAlignment = DMA_MDATAALIGN_BYTE;
 431              		.loc 1 170 5 is_stmt 1 view .LVU148
 170:Core/Src/usart.c ****     hdma_usart2_tx.Init.MemDataAlignment = DMA_MDATAALIGN_BYTE;
 432              		.loc 1 170 45 is_stmt 0 view .LVU149
 433 00be 4361     		str	r3, [r0, #20]
 171:Core/Src/usart.c ****     hdma_usart2_tx.Init.Mode = DMA_NORMAL;
 434              		.loc 1 171 5 is_stmt 1 view .LVU150
 171:Core/Src/usart.c ****     hdma_usart2_tx.Init.Mode = DMA_NORMAL;
 435              		.loc 1 171 42 is_stmt 0 view .LVU151
 436 00c0 8361     		str	r3, [r0, #24]
 172:Core/Src/usart.c ****     hdma_usart2_tx.Init.Priority = DMA_PRIORITY_LOW;
 437              		.loc 1 172 5 is_stmt 1 view .LVU152
 172:Core/Src/usart.c ****     hdma_usart2_tx.Init.Priority = DMA_PRIORITY_LOW;
 438              		.loc 1 172 30 is_stmt 0 view .LVU153
 439 00c2 C361     		str	r3, [r0, #28]
 173:Core/Src/usart.c ****     if (HAL_DMA_Init(&hdma_usart2_tx) != HAL_OK)
 440              		.loc 1 173 5 is_stmt 1 view .LVU154
 173:Core/Src/usart.c ****     if (HAL_DMA_Init(&hdma_usart2_tx) != HAL_OK)
 441              		.loc 1 173 34 is_stmt 0 view .LVU155
 442 00c4 0362     		str	r3, [r0, #32]
 174:Core/Src/usart.c ****     {
 443              		.loc 1 174 5 is_stmt 1 view .LVU156
 174:Core/Src/usart.c ****     {
 444              		.loc 1 174 9 is_stmt 0 view .LVU157
 445 00c6 FFF7FEFF 		bl	HAL_DMA_Init
 446              	.LVL19:
 174:Core/Src/usart.c ****     {
 447              		.loc 1 174 8 discriminator 1 view .LVU158
 448 00ca 0028     		cmp	r0, #0
 449 00cc 11D1     		bne	.L29
 450              	.L21:
 179:Core/Src/usart.c **** 
 451              		.loc 1 179 5 is_stmt 1 view .LVU159
 179:Core/Src/usart.c **** 
 452              		.loc 1 179 5 view .LVU160
 453 00ce 444B     		ldr	r3, .L32+20
 454 00d0 E367     		str	r3, [r4, #124]
 179:Core/Src/usart.c **** 
 455              		.loc 1 179 5 view .LVU161
 456 00d2 9C62     		str	r4, [r3, #40]
 179:Core/Src/usart.c **** 
 457              		.loc 1 179 5 view .LVU162
 182:Core/Src/usart.c ****     HAL_NVIC_EnableIRQ(USART2_IRQn);
 458              		.loc 1 182 5 view .LVU163
 459 00d4 0022     		movs	r2, #0
ARM GAS  /tmp/cchPj8UT.s 			page 15


 460 00d6 0321     		movs	r1, #3
 461 00d8 1C20     		movs	r0, #28
 462 00da FFF7FEFF 		bl	HAL_NVIC_SetPriority
 463              	.LVL20:
 183:Core/Src/usart.c ****   /* USER CODE BEGIN USART2_MspInit 1 */
 464              		.loc 1 183 5 view .LVU164
 465 00de 1C20     		movs	r0, #28
 466 00e0 FFF7FEFF 		bl	HAL_NVIC_EnableIRQ
 467              	.LVL21:
 468 00e4 A2E7     		b	.L17
 469              	.L27:
 128:Core/Src/usart.c ****     }
 470              		.loc 1 128 7 view .LVU165
 471 00e6 FFF7FEFF 		bl	Error_Handler
 472              	.LVL22:
 473 00ea AAE7     		b	.L19
 474              	.L28:
 159:Core/Src/usart.c ****     }
 475              		.loc 1 159 7 view .LVU166
 476 00ec FFF7FEFF 		bl	Error_Handler
 477              	.LVL23:
 478 00f0 D7E7     		b	.L20
 479              	.L29:
 176:Core/Src/usart.c ****     }
 480              		.loc 1 176 7 view .LVU167
 481 00f2 FFF7FEFF 		bl	Error_Handler
 482              	.LVL24:
 483 00f6 EAE7     		b	.L21
 484              	.L26:
 195:Core/Src/usart.c **** 
 485              		.loc 1 195 5 view .LVU168
 486              	.LBB4:
 195:Core/Src/usart.c **** 
 487              		.loc 1 195 5 view .LVU169
 195:Core/Src/usart.c **** 
 488              		.loc 1 195 5 view .LVU170
 489 00f8 364B     		ldr	r3, .L32+8
 490 00fa DA6B     		ldr	r2, [r3, #60]
 491 00fc 8021     		movs	r1, #128
 492 00fe C902     		lsls	r1, r1, #11
 493 0100 0A43     		orrs	r2, r1
 494 0102 DA63     		str	r2, [r3, #60]
 195:Core/Src/usart.c **** 
 495              		.loc 1 195 5 view .LVU171
 496 0104 DA6B     		ldr	r2, [r3, #60]
 497 0106 0A40     		ands	r2, r1
 498 0108 0392     		str	r2, [sp, #12]
 195:Core/Src/usart.c **** 
 499              		.loc 1 195 5 view .LVU172
 500 010a 039A     		ldr	r2, [sp, #12]
 501              	.LBE4:
 195:Core/Src/usart.c **** 
 502              		.loc 1 195 5 view .LVU173
 197:Core/Src/usart.c ****     __HAL_RCC_GPIOB_CLK_ENABLE();
 503              		.loc 1 197 5 view .LVU174
 504              	.LBB5:
 197:Core/Src/usart.c ****     __HAL_RCC_GPIOB_CLK_ENABLE();
ARM GAS  /tmp/cchPj8UT.s 			page 16


 505              		.loc 1 197 5 view .LVU175
 197:Core/Src/usart.c ****     __HAL_RCC_GPIOB_CLK_ENABLE();
 506              		.loc 1 197 5 view .LVU176
 507 010c 5A6B     		ldr	r2, [r3, #52]
 508 010e 0127     		movs	r7, #1
 509 0110 3A43     		orrs	r2, r7
 510 0112 5A63     		str	r2, [r3, #52]
 197:Core/Src/usart.c ****     __HAL_RCC_GPIOB_CLK_ENABLE();
 511              		.loc 1 197 5 view .LVU177
 512 0114 5A6B     		ldr	r2, [r3, #52]
 513 0116 3A40     		ands	r2, r7
 514 0118 0492     		str	r2, [sp, #16]
 197:Core/Src/usart.c ****     __HAL_RCC_GPIOB_CLK_ENABLE();
 515              		.loc 1 197 5 view .LVU178
 516 011a 049A     		ldr	r2, [sp, #16]
 517              	.LBE5:
 197:Core/Src/usart.c ****     __HAL_RCC_GPIOB_CLK_ENABLE();
 518              		.loc 1 197 5 view .LVU179
 198:Core/Src/usart.c ****     /**USART3 GPIO Configuration
 519              		.loc 1 198 5 view .LVU180
 520              	.LBB6:
 198:Core/Src/usart.c ****     /**USART3 GPIO Configuration
 521              		.loc 1 198 5 view .LVU181
 198:Core/Src/usart.c ****     /**USART3 GPIO Configuration
 522              		.loc 1 198 5 view .LVU182
 523 011c 5A6B     		ldr	r2, [r3, #52]
 524 011e 0225     		movs	r5, #2
 525 0120 2A43     		orrs	r2, r5
 526 0122 5A63     		str	r2, [r3, #52]
 198:Core/Src/usart.c ****     /**USART3 GPIO Configuration
 527              		.loc 1 198 5 view .LVU183
 528 0124 5B6B     		ldr	r3, [r3, #52]
 529 0126 2B40     		ands	r3, r5
 530 0128 0593     		str	r3, [sp, #20]
 198:Core/Src/usart.c ****     /**USART3 GPIO Configuration
 531              		.loc 1 198 5 view .LVU184
 532 012a 059B     		ldr	r3, [sp, #20]
 533              	.LBE6:
 198:Core/Src/usart.c ****     /**USART3 GPIO Configuration
 534              		.loc 1 198 5 view .LVU185
 203:Core/Src/usart.c ****     GPIO_InitStruct.Mode = GPIO_MODE_AF_PP;
 535              		.loc 1 203 5 view .LVU186
 203:Core/Src/usart.c ****     GPIO_InitStruct.Mode = GPIO_MODE_AF_PP;
 536              		.loc 1 203 25 is_stmt 0 view .LVU187
 537 012c 13AE     		add	r6, sp, #76
 538 012e 2023     		movs	r3, #32
 539 0130 1393     		str	r3, [sp, #76]
 204:Core/Src/usart.c ****     GPIO_InitStruct.Pull = GPIO_NOPULL;
 540              		.loc 1 204 5 is_stmt 1 view .LVU188
 204:Core/Src/usart.c ****     GPIO_InitStruct.Pull = GPIO_NOPULL;
 541              		.loc 1 204 26 is_stmt 0 view .LVU189
 542 0132 1495     		str	r5, [sp, #80]
 205:Core/Src/usart.c ****     GPIO_InitStruct.Speed = GPIO_SPEED_FREQ_LOW;
 543              		.loc 1 205 5 is_stmt 1 view .LVU190
 206:Core/Src/usart.c ****     GPIO_InitStruct.Alternate = GPIO_AF4_USART3;
 544              		.loc 1 206 5 view .LVU191
 207:Core/Src/usart.c ****     HAL_GPIO_Init(GPIOA, &GPIO_InitStruct);
ARM GAS  /tmp/cchPj8UT.s 			page 17


 545              		.loc 1 207 5 view .LVU192
 207:Core/Src/usart.c ****     HAL_GPIO_Init(GPIOA, &GPIO_InitStruct);
 546              		.loc 1 207 31 is_stmt 0 view .LVU193
 547 0134 1C3B     		subs	r3, r3, #28
 548 0136 9846     		mov	r8, r3
 549 0138 1793     		str	r3, [sp, #92]
 208:Core/Src/usart.c **** 
 550              		.loc 1 208 5 is_stmt 1 view .LVU194
 551 013a A020     		movs	r0, #160
 552 013c 3100     		movs	r1, r6
 553 013e C005     		lsls	r0, r0, #23
 554 0140 FFF7FEFF 		bl	HAL_GPIO_Init
 555              	.LVL25:
 210:Core/Src/usart.c ****     GPIO_InitStruct.Mode = GPIO_MODE_AF_PP;
 556              		.loc 1 210 5 view .LVU195
 210:Core/Src/usart.c ****     GPIO_InitStruct.Mode = GPIO_MODE_AF_PP;
 557              		.loc 1 210 25 is_stmt 0 view .LVU196
 558 0144 1397     		str	r7, [sp, #76]
 211:Core/Src/usart.c ****     GPIO_InitStruct.Pull = GPIO_NOPULL;
 559              		.loc 1 211 5 is_stmt 1 view .LVU197
 211:Core/Src/usart.c ****     GPIO_InitStruct.Pull = GPIO_NOPULL;
 560              		.loc 1 211 26 is_stmt 0 view .LVU198
 561 0146 1495     		str	r5, [sp, #80]
 212:Core/Src/usart.c ****     GPIO_InitStruct.Speed = GPIO_SPEED_FREQ_LOW;
 562              		.loc 1 212 5 is_stmt 1 view .LVU199
 212:Core/Src/usart.c ****     GPIO_InitStruct.Speed = GPIO_SPEED_FREQ_LOW;
 563              		.loc 1 212 26 is_stmt 0 view .LVU200
 564 0148 0025     		movs	r5, #0
 565 014a 1595     		str	r5, [sp, #84]
 213:Core/Src/usart.c ****     GPIO_InitStruct.Alternate = GPIO_AF4_USART3;
 566              		.loc 1 213 5 is_stmt 1 view .LVU201
 213:Core/Src/usart.c ****     GPIO_InitStruct.Alternate = GPIO_AF4_USART3;
 567              		.loc 1 213 27 is_stmt 0 view .LVU202
 568 014c 1695     		str	r5, [sp, #88]
 214:Core/Src/usart.c ****     HAL_GPIO_Init(GPIOB, &GPIO_InitStruct);
 569              		.loc 1 214 5 is_stmt 1 view .LVU203
 214:Core/Src/usart.c ****     HAL_GPIO_Init(GPIOB, &GPIO_InitStruct);
 570              		.loc 1 214 31 is_stmt 0 view .LVU204
 571 014e 4346     		mov	r3, r8
 572 0150 1793     		str	r3, [sp, #92]
 215:Core/Src/usart.c **** 
 573              		.loc 1 215 5 is_stmt 1 view .LVU205
 574 0152 3100     		movs	r1, r6
 575 0154 2448     		ldr	r0, .L32+28
 576 0156 FFF7FEFF 		bl	HAL_GPIO_Init
 577              	.LVL26:
 219:Core/Src/usart.c ****     hdma_usart3_rx.Init.Request = DMA_REQUEST_USART3_RX;
 578              		.loc 1 219 5 view .LVU206
 219:Core/Src/usart.c ****     hdma_usart3_rx.Init.Request = DMA_REQUEST_USART3_RX;
 579              		.loc 1 219 29 is_stmt 0 view .LVU207
 580 015a 2448     		ldr	r0, .L32+32
 581 015c 244B     		ldr	r3, .L32+36
 582 015e 0360     		str	r3, [r0]
 220:Core/Src/usart.c ****     hdma_usart3_rx.Init.Direction = DMA_PERIPH_TO_MEMORY;
 583              		.loc 1 220 5 is_stmt 1 view .LVU208
 220:Core/Src/usart.c ****     hdma_usart3_rx.Init.Direction = DMA_PERIPH_TO_MEMORY;
 584              		.loc 1 220 33 is_stmt 0 view .LVU209
ARM GAS  /tmp/cchPj8UT.s 			page 18


 585 0160 3623     		movs	r3, #54
 586 0162 4360     		str	r3, [r0, #4]
 221:Core/Src/usart.c ****     hdma_usart3_rx.Init.PeriphInc = DMA_PINC_DISABLE;
 587              		.loc 1 221 5 is_stmt 1 view .LVU210
 221:Core/Src/usart.c ****     hdma_usart3_rx.Init.PeriphInc = DMA_PINC_DISABLE;
 588              		.loc 1 221 35 is_stmt 0 view .LVU211
 589 0164 8560     		str	r5, [r0, #8]
 222:Core/Src/usart.c ****     hdma_usart3_rx.Init.MemInc = DMA_MINC_ENABLE;
 590              		.loc 1 222 5 is_stmt 1 view .LVU212
 222:Core/Src/usart.c ****     hdma_usart3_rx.Init.MemInc = DMA_MINC_ENABLE;
 591              		.loc 1 222 35 is_stmt 0 view .LVU213
 592 0166 C560     		str	r5, [r0, #12]
 223:Core/Src/usart.c ****     hdma_usart3_rx.Init.PeriphDataAlignment = DMA_PDATAALIGN_BYTE;
 593              		.loc 1 223 5 is_stmt 1 view .LVU214
 223:Core/Src/usart.c ****     hdma_usart3_rx.Init.PeriphDataAlignment = DMA_PDATAALIGN_BYTE;
 594              		.loc 1 223 32 is_stmt 0 view .LVU215
 595 0168 4A33     		adds	r3, r3, #74
 596 016a 0361     		str	r3, [r0, #16]
 224:Core/Src/usart.c ****     hdma_usart3_rx.Init.MemDataAlignment = DMA_MDATAALIGN_BYTE;
 597              		.loc 1 224 5 is_stmt 1 view .LVU216
 224:Core/Src/usart.c ****     hdma_usart3_rx.Init.MemDataAlignment = DMA_MDATAALIGN_BYTE;
 598              		.loc 1 224 45 is_stmt 0 view .LVU217
 599 016c 4561     		str	r5, [r0, #20]
 225:Core/Src/usart.c ****     hdma_usart3_rx.Init.Mode = DMA_NORMAL;
 600              		.loc 1 225 5 is_stmt 1 view .LVU218
 225:Core/Src/usart.c ****     hdma_usart3_rx.Init.Mode = DMA_NORMAL;
 601              		.loc 1 225 42 is_stmt 0 view .LVU219
 602 016e 8561     		str	r5, [r0, #24]
 226:Core/Src/usart.c ****     hdma_usart3_rx.Init.Priority = DMA_PRIORITY_LOW;
 603              		.loc 1 226 5 is_stmt 1 view .LVU220
 226:Core/Src/usart.c ****     hdma_usart3_rx.Init.Priority = DMA_PRIORITY_LOW;
 604              		.loc 1 226 30 is_stmt 0 view .LVU221
 605 0170 C561     		str	r5, [r0, #28]
 227:Core/Src/usart.c ****     if (HAL_DMA_Init(&hdma_usart3_rx) != HAL_OK)
 606              		.loc 1 227 5 is_stmt 1 view .LVU222
 227:Core/Src/usart.c ****     if (HAL_DMA_Init(&hdma_usart3_rx) != HAL_OK)
 607              		.loc 1 227 34 is_stmt 0 view .LVU223
 608 0172 0562     		str	r5, [r0, #32]
 228:Core/Src/usart.c ****     {
 609              		.loc 1 228 5 is_stmt 1 view .LVU224
 228:Core/Src/usart.c ****     {
 610              		.loc 1 228 9 is_stmt 0 view .LVU225
 611 0174 FFF7FEFF 		bl	HAL_DMA_Init
 612              	.LVL27:
 228:Core/Src/usart.c ****     {
 613              		.loc 1 228 8 discriminator 1 view .LVU226
 614 0178 0028     		cmp	r0, #0
 615 017a 21D1     		bne	.L30
 616              	.L23:
 233:Core/Src/usart.c **** 
 617              		.loc 1 233 5 is_stmt 1 view .LVU227
 233:Core/Src/usart.c **** 
 618              		.loc 1 233 5 view .LVU228
 619 017c 8022     		movs	r2, #128
 620 017e 1B4B     		ldr	r3, .L32+32
 621 0180 A350     		str	r3, [r4, r2]
 233:Core/Src/usart.c **** 
ARM GAS  /tmp/cchPj8UT.s 			page 19


 622              		.loc 1 233 5 view .LVU229
 623 0182 9C62     		str	r4, [r3, #40]
 233:Core/Src/usart.c **** 
 624              		.loc 1 233 5 view .LVU230
 236:Core/Src/usart.c ****     hdma_usart3_tx.Init.Request = DMA_REQUEST_USART3_TX;
 625              		.loc 1 236 5 view .LVU231
 236:Core/Src/usart.c ****     hdma_usart3_tx.Init.Request = DMA_REQUEST_USART3_TX;
 626              		.loc 1 236 29 is_stmt 0 view .LVU232
 627 0184 1B48     		ldr	r0, .L32+40
 628 0186 1C4B     		ldr	r3, .L32+44
 629 0188 0360     		str	r3, [r0]
 237:Core/Src/usart.c ****     hdma_usart3_tx.Init.Direction = DMA_MEMORY_TO_PERIPH;
 630              		.loc 1 237 5 is_stmt 1 view .LVU233
 237:Core/Src/usart.c ****     hdma_usart3_tx.Init.Direction = DMA_MEMORY_TO_PERIPH;
 631              		.loc 1 237 33 is_stmt 0 view .LVU234
 632 018a 3723     		movs	r3, #55
 633 018c 4360     		str	r3, [r0, #4]
 238:Core/Src/usart.c ****     hdma_usart3_tx.Init.PeriphInc = DMA_PINC_DISABLE;
 634              		.loc 1 238 5 is_stmt 1 view .LVU235
 238:Core/Src/usart.c ****     hdma_usart3_tx.Init.PeriphInc = DMA_PINC_DISABLE;
 635              		.loc 1 238 35 is_stmt 0 view .LVU236
 636 018e 273B     		subs	r3, r3, #39
 637 0190 8360     		str	r3, [r0, #8]
 239:Core/Src/usart.c ****     hdma_usart3_tx.Init.MemInc = DMA_MINC_ENABLE;
 638              		.loc 1 239 5 is_stmt 1 view .LVU237
 239:Core/Src/usart.c ****     hdma_usart3_tx.Init.MemInc = DMA_MINC_ENABLE;
 639              		.loc 1 239 35 is_stmt 0 view .LVU238
 640 0192 0023     		movs	r3, #0
 641 0194 C360     		str	r3, [r0, #12]
 240:Core/Src/usart.c ****     hdma_usart3_tx.Init.PeriphDataAlignment = DMA_PDATAALIGN_BYTE;
 642              		.loc 1 240 5 is_stmt 1 view .LVU239
 240:Core/Src/usart.c ****     hdma_usart3_tx.Init.PeriphDataAlignment = DMA_PDATAALIGN_BYTE;
 643              		.loc 1 240 32 is_stmt 0 view .LVU240
 644 0196 0261     		str	r2, [r0, #16]
 241:Core/Src/usart.c ****     hdma_usart3_tx.Init.MemDataAlignment = DMA_MDATAALIGN_BYTE;
 645              		.loc 1 241 5 is_stmt 1 view .LVU241
 241:Core/Src/usart.c ****     hdma_usart3_tx.Init.MemDataAlignment = DMA_MDATAALIGN_BYTE;
 646              		.loc 1 241 45 is_stmt 0 view .LVU242
 647 0198 4361     		str	r3, [r0, #20]
 242:Core/Src/usart.c ****     hdma_usart3_tx.Init.Mode = DMA_NORMAL;
 648              		.loc 1 242 5 is_stmt 1 view .LVU243
 242:Core/Src/usart.c ****     hdma_usart3_tx.Init.Mode = DMA_NORMAL;
 649              		.loc 1 242 42 is_stmt 0 view .LVU244
 650 019a 8361     		str	r3, [r0, #24]
 243:Core/Src/usart.c ****     hdma_usart3_tx.Init.Priority = DMA_PRIORITY_LOW;
 651              		.loc 1 243 5 is_stmt 1 view .LVU245
 243:Core/Src/usart.c ****     hdma_usart3_tx.Init.Priority = DMA_PRIORITY_LOW;
 652              		.loc 1 243 30 is_stmt 0 view .LVU246
 653 019c C361     		str	r3, [r0, #28]
 244:Core/Src/usart.c ****     if (HAL_DMA_Init(&hdma_usart3_tx) != HAL_OK)
 654              		.loc 1 244 5 is_stmt 1 view .LVU247
 244:Core/Src/usart.c ****     if (HAL_DMA_Init(&hdma_usart3_tx) != HAL_OK)
 655              		.loc 1 244 34 is_stmt 0 view .LVU248
 656 019e 0362     		str	r3, [r0, #32]
 245:Core/Src/usart.c ****     {
 657              		.loc 1 245 5 is_stmt 1 view .LVU249
 245:Core/Src/usart.c ****     {
ARM GAS  /tmp/cchPj8UT.s 			page 20


 658              		.loc 1 245 9 is_stmt 0 view .LVU250
 659 01a0 FFF7FEFF 		bl	HAL_DMA_Init
 660              	.LVL28:
 245:Core/Src/usart.c ****     {
 661              		.loc 1 245 8 discriminator 1 view .LVU251
 662 01a4 0028     		cmp	r0, #0
 663 01a6 0ED1     		bne	.L31
 664              	.L24:
 250:Core/Src/usart.c **** 
 665              		.loc 1 250 5 is_stmt 1 view .LVU252
 250:Core/Src/usart.c **** 
 666              		.loc 1 250 5 view .LVU253
 667 01a8 124B     		ldr	r3, .L32+40
 668 01aa E367     		str	r3, [r4, #124]
 250:Core/Src/usart.c **** 
 669              		.loc 1 250 5 view .LVU254
 670 01ac 9C62     		str	r4, [r3, #40]
 250:Core/Src/usart.c **** 
 671              		.loc 1 250 5 view .LVU255
 253:Core/Src/usart.c ****     HAL_NVIC_EnableIRQ(USART3_4_LPUART1_IRQn);
 672              		.loc 1 253 5 view .LVU256
 673 01ae 0022     		movs	r2, #0
 674 01b0 0321     		movs	r1, #3
 675 01b2 1D20     		movs	r0, #29
 676 01b4 FFF7FEFF 		bl	HAL_NVIC_SetPriority
 677              	.LVL29:
 254:Core/Src/usart.c ****   /* USER CODE BEGIN USART3_MspInit 1 */
 678              		.loc 1 254 5 view .LVU257
 679 01b8 1D20     		movs	r0, #29
 680 01ba FFF7FEFF 		bl	HAL_NVIC_EnableIRQ
 681              	.LVL30:
 682              		.loc 1 259 1 is_stmt 0 view .LVU258
 683 01be 35E7     		b	.L17
 684              	.L30:
 230:Core/Src/usart.c ****     }
 685              		.loc 1 230 7 is_stmt 1 view .LVU259
 686 01c0 FFF7FEFF 		bl	Error_Handler
 687              	.LVL31:
 688 01c4 DAE7     		b	.L23
 689              	.L31:
 247:Core/Src/usart.c ****     }
 690              		.loc 1 247 7 view .LVU260
 691 01c6 FFF7FEFF 		bl	Error_Handler
 692              	.LVL32:
 693 01ca EDE7     		b	.L24
 694              	.L33:
 695              		.align	2
 696              	.L32:
 697 01cc 00440040 		.word	1073759232
 698 01d0 00480040 		.word	1073760256
 699 01d4 00100240 		.word	1073876992
 700 01d8 00000000 		.word	hdma_usart2_rx
 701 01dc 08000240 		.word	1073872904
 702 01e0 00000000 		.word	hdma_usart2_tx
 703 01e4 1C000240 		.word	1073872924
 704 01e8 00040050 		.word	1342178304
 705 01ec 00000000 		.word	hdma_usart3_rx
ARM GAS  /tmp/cchPj8UT.s 			page 21


 706 01f0 30000240 		.word	1073872944
 707 01f4 00000000 		.word	hdma_usart3_tx
 708 01f8 44000240 		.word	1073872964
 709              		.cfi_endproc
 710              	.LFE459:
 712              		.section	.text.HAL_UART_MspDeInit,"ax",%progbits
 713              		.align	1
 714              		.global	HAL_UART_MspDeInit
 715              		.syntax unified
 716              		.code	16
 717              		.thumb_func
 719              	HAL_UART_MspDeInit:
 720              	.LVL33:
 721              	.LFB460:
 260:Core/Src/usart.c **** 
 261:Core/Src/usart.c **** void HAL_UART_MspDeInit(UART_HandleTypeDef* uartHandle)
 262:Core/Src/usart.c **** {
 722              		.loc 1 262 1 view -0
 723              		.cfi_startproc
 724              		@ args = 0, pretend = 0, frame = 0
 725              		@ frame_needed = 0, uses_anonymous_args = 0
 726              		.loc 1 262 1 is_stmt 0 view .LVU262
 727 0000 10B5     		push	{r4, lr}
 728              		.cfi_def_cfa_offset 8
 729              		.cfi_offset 4, -8
 730              		.cfi_offset 14, -4
 731 0002 0400     		movs	r4, r0
 263:Core/Src/usart.c **** 
 264:Core/Src/usart.c ****   if(uartHandle->Instance==USART2)
 732              		.loc 1 264 3 is_stmt 1 view .LVU263
 733              		.loc 1 264 16 is_stmt 0 view .LVU264
 734 0004 0368     		ldr	r3, [r0]
 735              		.loc 1 264 5 view .LVU265
 736 0006 1A4A     		ldr	r2, .L39
 737 0008 9342     		cmp	r3, r2
 738 000a 03D0     		beq	.L37
 265:Core/Src/usart.c ****   {
 266:Core/Src/usart.c ****   /* USER CODE BEGIN USART2_MspDeInit 0 */
 267:Core/Src/usart.c **** 
 268:Core/Src/usart.c ****   /* USER CODE END USART2_MspDeInit 0 */
 269:Core/Src/usart.c ****     /* Peripheral clock disable */
 270:Core/Src/usart.c ****     __HAL_RCC_USART2_CLK_DISABLE();
 271:Core/Src/usart.c **** 
 272:Core/Src/usart.c ****     /**USART2 GPIO Configuration
 273:Core/Src/usart.c ****     PA2     ------> USART2_TX
 274:Core/Src/usart.c ****     PA3     ------> USART2_RX
 275:Core/Src/usart.c ****     */
 276:Core/Src/usart.c ****     HAL_GPIO_DeInit(GPIOA, GPIO_PIN_2|GPIO_PIN_3);
 277:Core/Src/usart.c **** 
 278:Core/Src/usart.c ****     /* USART2 DMA DeInit */
 279:Core/Src/usart.c ****     HAL_DMA_DeInit(uartHandle->hdmarx);
 280:Core/Src/usart.c ****     HAL_DMA_DeInit(uartHandle->hdmatx);
 281:Core/Src/usart.c **** 
 282:Core/Src/usart.c ****     /* USART2 interrupt Deinit */
 283:Core/Src/usart.c ****     HAL_NVIC_DisableIRQ(USART2_IRQn);
 284:Core/Src/usart.c ****   /* USER CODE BEGIN USART2_MspDeInit 1 */
 285:Core/Src/usart.c **** 
ARM GAS  /tmp/cchPj8UT.s 			page 22


 286:Core/Src/usart.c ****   /* USER CODE END USART2_MspDeInit 1 */
 287:Core/Src/usart.c ****   }
 288:Core/Src/usart.c ****   else if(uartHandle->Instance==USART3)
 739              		.loc 1 288 8 is_stmt 1 view .LVU266
 740              		.loc 1 288 10 is_stmt 0 view .LVU267
 741 000c 194A     		ldr	r2, .L39+4
 742 000e 9342     		cmp	r3, r2
 743 0010 15D0     		beq	.L38
 744              	.LVL34:
 745              	.L34:
 289:Core/Src/usart.c ****   {
 290:Core/Src/usart.c ****   /* USER CODE BEGIN USART3_MspDeInit 0 */
 291:Core/Src/usart.c **** 
 292:Core/Src/usart.c ****   /* USER CODE END USART3_MspDeInit 0 */
 293:Core/Src/usart.c ****     /* Peripheral clock disable */
 294:Core/Src/usart.c ****     __HAL_RCC_USART3_CLK_DISABLE();
 295:Core/Src/usart.c **** 
 296:Core/Src/usart.c ****     /**USART3 GPIO Configuration
 297:Core/Src/usart.c ****     PA5     ------> USART3_TX
 298:Core/Src/usart.c ****     PB0     ------> USART3_RX
 299:Core/Src/usart.c ****     */
 300:Core/Src/usart.c ****     HAL_GPIO_DeInit(GPIOA, GPIO_PIN_5);
 301:Core/Src/usart.c **** 
 302:Core/Src/usart.c ****     HAL_GPIO_DeInit(GPIOB, GPIO_PIN_0);
 303:Core/Src/usart.c **** 
 304:Core/Src/usart.c ****     /* USART3 DMA DeInit */
 305:Core/Src/usart.c ****     HAL_DMA_DeInit(uartHandle->hdmarx);
 306:Core/Src/usart.c ****     HAL_DMA_DeInit(uartHandle->hdmatx);
 307:Core/Src/usart.c **** 
 308:Core/Src/usart.c ****     /* USART3 interrupt Deinit */
 309:Core/Src/usart.c ****     HAL_NVIC_DisableIRQ(USART3_4_LPUART1_IRQn);
 310:Core/Src/usart.c ****   /* USER CODE BEGIN USART3_MspDeInit 1 */
 311:Core/Src/usart.c **** 
 312:Core/Src/usart.c ****   /* USER CODE END USART3_MspDeInit 1 */
 313:Core/Src/usart.c ****   }
 314:Core/Src/usart.c **** }
 746              		.loc 1 314 1 view .LVU268
 747              		@ sp needed
 748              	.LVL35:
 749              		.loc 1 314 1 view .LVU269
 750 0012 10BD     		pop	{r4, pc}
 751              	.LVL36:
 752              	.L37:
 270:Core/Src/usart.c **** 
 753              		.loc 1 270 5 is_stmt 1 view .LVU270
 754 0014 184A     		ldr	r2, .L39+8
 755 0016 D36B     		ldr	r3, [r2, #60]
 756 0018 1849     		ldr	r1, .L39+12
 757 001a 0B40     		ands	r3, r1
 758 001c D363     		str	r3, [r2, #60]
 276:Core/Src/usart.c **** 
 759              		.loc 1 276 5 view .LVU271
 760 001e A020     		movs	r0, #160
 761              	.LVL37:
 276:Core/Src/usart.c **** 
 762              		.loc 1 276 5 is_stmt 0 view .LVU272
 763 0020 0C21     		movs	r1, #12
ARM GAS  /tmp/cchPj8UT.s 			page 23


 764 0022 C005     		lsls	r0, r0, #23
 765 0024 FFF7FEFF 		bl	HAL_GPIO_DeInit
 766              	.LVL38:
 279:Core/Src/usart.c ****     HAL_DMA_DeInit(uartHandle->hdmatx);
 767              		.loc 1 279 5 is_stmt 1 view .LVU273
 768 0028 8023     		movs	r3, #128
 769 002a E058     		ldr	r0, [r4, r3]
 770 002c FFF7FEFF 		bl	HAL_DMA_DeInit
 771              	.LVL39:
 280:Core/Src/usart.c **** 
 772              		.loc 1 280 5 view .LVU274
 773 0030 E06F     		ldr	r0, [r4, #124]
 774 0032 FFF7FEFF 		bl	HAL_DMA_DeInit
 775              	.LVL40:
 283:Core/Src/usart.c ****   /* USER CODE BEGIN USART2_MspDeInit 1 */
 776              		.loc 1 283 5 view .LVU275
 777 0036 1C20     		movs	r0, #28
 778 0038 FFF7FEFF 		bl	HAL_NVIC_DisableIRQ
 779              	.LVL41:
 780 003c E9E7     		b	.L34
 781              	.LVL42:
 782              	.L38:
 294:Core/Src/usart.c **** 
 783              		.loc 1 294 5 view .LVU276
 784 003e 0E4A     		ldr	r2, .L39+8
 785 0040 D36B     		ldr	r3, [r2, #60]
 786 0042 0F49     		ldr	r1, .L39+16
 787 0044 0B40     		ands	r3, r1
 788 0046 D363     		str	r3, [r2, #60]
 300:Core/Src/usart.c **** 
 789              		.loc 1 300 5 view .LVU277
 790 0048 A020     		movs	r0, #160
 791              	.LVL43:
 300:Core/Src/usart.c **** 
 792              		.loc 1 300 5 is_stmt 0 view .LVU278
 793 004a 2021     		movs	r1, #32
 794 004c C005     		lsls	r0, r0, #23
 795 004e FFF7FEFF 		bl	HAL_GPIO_DeInit
 796              	.LVL44:
 302:Core/Src/usart.c **** 
 797              		.loc 1 302 5 is_stmt 1 view .LVU279
 798 0052 0121     		movs	r1, #1
 799 0054 0B48     		ldr	r0, .L39+20
 800 0056 FFF7FEFF 		bl	HAL_GPIO_DeInit
 801              	.LVL45:
 305:Core/Src/usart.c ****     HAL_DMA_DeInit(uartHandle->hdmatx);
 802              		.loc 1 305 5 view .LVU280
 803 005a 8023     		movs	r3, #128
 804 005c E058     		ldr	r0, [r4, r3]
 805 005e FFF7FEFF 		bl	HAL_DMA_DeInit
 806              	.LVL46:
 306:Core/Src/usart.c **** 
 807              		.loc 1 306 5 view .LVU281
 808 0062 E06F     		ldr	r0, [r4, #124]
 809 0064 FFF7FEFF 		bl	HAL_DMA_DeInit
 810              	.LVL47:
 309:Core/Src/usart.c ****   /* USER CODE BEGIN USART3_MspDeInit 1 */
ARM GAS  /tmp/cchPj8UT.s 			page 24


 811              		.loc 1 309 5 view .LVU282
 812 0068 1D20     		movs	r0, #29
 813 006a FFF7FEFF 		bl	HAL_NVIC_DisableIRQ
 814              	.LVL48:
 815              		.loc 1 314 1 is_stmt 0 view .LVU283
 816 006e D0E7     		b	.L34
 817              	.L40:
 818              		.align	2
 819              	.L39:
 820 0070 00440040 		.word	1073759232
 821 0074 00480040 		.word	1073760256
 822 0078 00100240 		.word	1073876992
 823 007c FFFFFDFF 		.word	-131073
 824 0080 FFFFFBFF 		.word	-262145
 825 0084 00040050 		.word	1342178304
 826              		.cfi_endproc
 827              	.LFE460:
 829              		.global	hdma_usart3_tx
 830              		.section	.bss.hdma_usart3_tx,"aw",%nobits
 831              		.align	2
 834              	hdma_usart3_tx:
 835 0000 00000000 		.space	92
 835      00000000 
 835      00000000 
 835      00000000 
 835      00000000 
 836              		.global	hdma_usart3_rx
 837              		.section	.bss.hdma_usart3_rx,"aw",%nobits
 838              		.align	2
 841              	hdma_usart3_rx:
 842 0000 00000000 		.space	92
 842      00000000 
 842      00000000 
 842      00000000 
 842      00000000 
 843              		.global	hdma_usart2_tx
 844              		.section	.bss.hdma_usart2_tx,"aw",%nobits
 845              		.align	2
 848              	hdma_usart2_tx:
 849 0000 00000000 		.space	92
 849      00000000 
 849      00000000 
 849      00000000 
 849      00000000 
 850              		.global	hdma_usart2_rx
 851              		.section	.bss.hdma_usart2_rx,"aw",%nobits
 852              		.align	2
 855              	hdma_usart2_rx:
 856 0000 00000000 		.space	92
 856      00000000 
 856      00000000 
 856      00000000 
 856      00000000 
 857              		.global	huart3
 858              		.section	.bss.huart3,"aw",%nobits
 859              		.align	2
 862              	huart3:
ARM GAS  /tmp/cchPj8UT.s 			page 25


 863 0000 00000000 		.space	204
 863      00000000 
 863      00000000 
 863      00000000 
 863      00000000 
 864              		.global	huart2
 865              		.section	.bss.huart2,"aw",%nobits
 866              		.align	2
 869              	huart2:
 870 0000 00000000 		.space	204
 870      00000000 
 870      00000000 
 870      00000000 
 870      00000000 
 871              		.text
 872              	.Letext0:
 873              		.file 2 "Drivers/CMSIS/Device/ST/STM32G0xx/Include/stm32g071xx.h"
 874              		.file 3 "/opt/arm-gnu-toolchain-14.2/arm-none-eabi/include/machine/_default_types.h"
 875              		.file 4 "/opt/arm-gnu-toolchain-14.2/arm-none-eabi/include/sys/_stdint.h"
 876              		.file 5 "Drivers/STM32G0xx_HAL_Driver/Inc/stm32g0xx_hal_def.h"
 877              		.file 6 "Drivers/STM32G0xx_HAL_Driver/Inc/stm32g0xx_hal_rcc_ex.h"
 878              		.file 7 "Drivers/STM32G0xx_HAL_Driver/Inc/stm32g0xx_hal_gpio.h"
 879              		.file 8 "Drivers/STM32G0xx_HAL_Driver/Inc/stm32g0xx_hal_dma.h"
 880              		.file 9 "Drivers/STM32G0xx_HAL_Driver/Inc/stm32g0xx_hal_uart.h"
 881              		.file 10 "Core/Inc/usart.h"
 882              		.file 11 "Drivers/STM32G0xx_HAL_Driver/Inc/stm32g0xx_hal_cortex.h"
 883              		.file 12 "Drivers/STM32G0xx_HAL_Driver/Inc/stm32g0xx_hal_uart_ex.h"
 884              		.file 13 "Drivers/STM32G0xx_HAL_Driver/Inc/stm32g0xx_ll_dma.h"
 885              		.file 14 "Core/Inc/main.h"
 886              		.file 15 "<built-in>"
ARM GAS  /tmp/cchPj8UT.s 			page 26


DEFINED SYMBOLS
                            *ABS*:00000000 usart.c
     /tmp/cchPj8UT.s:19     .text.MX_USART2_UART_Init:00000000 $t
     /tmp/cchPj8UT.s:25     .text.MX_USART2_UART_Init:00000000 MX_USART2_UART_Init
     /tmp/cchPj8UT.s:138    .text.MX_USART2_UART_Init:00000068 $d
     /tmp/cchPj8UT.s:869    .bss.huart2:00000000 huart2
     /tmp/cchPj8UT.s:144    .text.MX_USART3_UART_Init:00000000 $t
     /tmp/cchPj8UT.s:150    .text.MX_USART3_UART_Init:00000000 MX_USART3_UART_Init
     /tmp/cchPj8UT.s:219    .text.MX_USART3_UART_Init:00000034 $d
     /tmp/cchPj8UT.s:862    .bss.huart3:00000000 huart3
     /tmp/cchPj8UT.s:225    .text.HAL_UART_MspInit:00000000 $t
     /tmp/cchPj8UT.s:231    .text.HAL_UART_MspInit:00000000 HAL_UART_MspInit
     /tmp/cchPj8UT.s:697    .text.HAL_UART_MspInit:000001cc $d
     /tmp/cchPj8UT.s:855    .bss.hdma_usart2_rx:00000000 hdma_usart2_rx
     /tmp/cchPj8UT.s:848    .bss.hdma_usart2_tx:00000000 hdma_usart2_tx
     /tmp/cchPj8UT.s:841    .bss.hdma_usart3_rx:00000000 hdma_usart3_rx
     /tmp/cchPj8UT.s:834    .bss.hdma_usart3_tx:00000000 hdma_usart3_tx
     /tmp/cchPj8UT.s:713    .text.HAL_UART_MspDeInit:00000000 $t
     /tmp/cchPj8UT.s:719    .text.HAL_UART_MspDeInit:00000000 HAL_UART_MspDeInit
     /tmp/cchPj8UT.s:820    .text.HAL_UART_MspDeInit:00000070 $d
     /tmp/cchPj8UT.s:831    .bss.hdma_usart3_tx:00000000 $d
     /tmp/cchPj8UT.s:838    .bss.hdma_usart3_rx:00000000 $d
     /tmp/cchPj8UT.s:845    .bss.hdma_usart2_tx:00000000 $d
     /tmp/cchPj8UT.s:852    .bss.hdma_usart2_rx:00000000 $d
     /tmp/cchPj8UT.s:859    .bss.huart3:00000000 $d
     /tmp/cchPj8UT.s:866    .bss.huart2:00000000 $d

UNDEFINED SYMBOLS
HAL_UART_Init
HAL_UARTEx_SetTxFifoThreshold
HAL_UARTEx_SetRxFifoThreshold
HAL_UARTEx_DisableFifoMode
Error_Handler
memset
HAL_RCCEx_PeriphCLKConfig
HAL_GPIO_Init
HAL_DMA_Init
HAL_NVIC_SetPriority
HAL_NVIC_EnableIRQ
HAL_GPIO_DeInit
HAL_DMA_DeInit
HAL_NVIC_DisableIRQ
