ARM GAS  /tmp/ccSMd1Ht.s 			page 1


   1              		.cpu cortex-m0plus
   2              		.arch armv6s-m
   3              		.fpu softvfp
   4              		.eabi_attribute 20, 1
   5              		.eabi_attribute 21, 1
   6              		.eabi_attribute 23, 3
   7              		.eabi_attribute 24, 1
   8              		.eabi_attribute 25, 1
   9              		.eabi_attribute 26, 1
  10              		.eabi_attribute 30, 1
  11              		.eabi_attribute 34, 0
  12              		.eabi_attribute 18, 4
  13              		.file	"win_filter.cpp"
  14              		.text
  15              	.Ltext0:
  16              		.cfi_sections	.debug_frame
  17              		.file 1 "Lib/compute/filter/win_filter.cpp"
  18              		.align	1
  19              		.global	_ZN12WindowFilter4initEh
  20              		.syntax unified
  21              		.code	16
  22              		.thumb_func
  24              	_ZN12WindowFilter4initEh:
  25              	.LVL0:
  26              	.LFB978:
   1:Lib/compute/filter/win_filter.cpp **** #include "ex_math.hpp"
   2:Lib/compute/filter/win_filter.cpp **** 
   3:Lib/compute/filter/win_filter.cpp **** #include "FreeRTOS.h"
   4:Lib/compute/filter/win_filter.cpp **** 
   5:Lib/compute/filter/win_filter.cpp **** bool WindowFilter::init(uint8_t win_size)
   6:Lib/compute/filter/win_filter.cpp **** {
  27              		.loc 1 6 1 view -0
  28              		.cfi_startproc
  29              		@ args = 0, pretend = 0, frame = 0
  30              		@ frame_needed = 0, uses_anonymous_args = 0
  31              		.loc 1 6 1 is_stmt 0 view .LVU1
  32 0000 10B5     		push	{r4, lr}
  33              		.cfi_def_cfa_offset 8
  34              		.cfi_offset 4, -8
  35              		.cfi_offset 14, -4
  36 0002 0400     		movs	r4, r0
   7:Lib/compute/filter/win_filter.cpp ****     if (win_size == 0)
  37              		.loc 1 7 5 is_stmt 1 view .LVU2
  38 0004 0029     		cmp	r1, #0
  39 0006 01D1     		bne	.L5
   8:Lib/compute/filter/win_filter.cpp ****         return false;
  40              		.loc 1 8 16 is_stmt 0 view .LVU3
  41 0008 0020     		movs	r0, #0
  42              	.LVL1:
  43              	.L2:
   9:Lib/compute/filter/win_filter.cpp **** 
  10:Lib/compute/filter/win_filter.cpp ****     sum = 0.f;
  11:Lib/compute/filter/win_filter.cpp ****     this->win_size = win_size;
  12:Lib/compute/filter/win_filter.cpp ****     index = 0;
  13:Lib/compute/filter/win_filter.cpp ****     count = 0;
  14:Lib/compute/filter/win_filter.cpp **** 
  15:Lib/compute/filter/win_filter.cpp ****     pData = (float *)pvPortMalloc(sizeof(float) * win_size);
ARM GAS  /tmp/ccSMd1Ht.s 			page 2


  16:Lib/compute/filter/win_filter.cpp ****     if (pData == NULL)
  17:Lib/compute/filter/win_filter.cpp ****         return false;
  18:Lib/compute/filter/win_filter.cpp **** 
  19:Lib/compute/filter/win_filter.cpp ****     return true;
  20:Lib/compute/filter/win_filter.cpp **** }
  44              		.loc 1 20 1 view .LVU4
  45              		@ sp needed
  46              	.LVL2:
  47              		.loc 1 20 1 view .LVU5
  48 000a 10BD     		pop	{r4, pc}
  49              	.LVL3:
  50              	.L5:
  10:Lib/compute/filter/win_filter.cpp ****     this->win_size = win_size;
  51              		.loc 1 10 5 is_stmt 1 view .LVU6
  10:Lib/compute/filter/win_filter.cpp ****     this->win_size = win_size;
  52              		.loc 1 10 9 is_stmt 0 view .LVU7
  53 000c 0023     		movs	r3, #0
  54 000e C360     		str	r3, [r0, #12]
  11:Lib/compute/filter/win_filter.cpp ****     index = 0;
  55              		.loc 1 11 5 is_stmt 1 view .LVU8
  11:Lib/compute/filter/win_filter.cpp ****     index = 0;
  56              		.loc 1 11 20 is_stmt 0 view .LVU9
  57 0010 0170     		strb	r1, [r0]
  12:Lib/compute/filter/win_filter.cpp ****     count = 0;
  58              		.loc 1 12 5 is_stmt 1 view .LVU10
  12:Lib/compute/filter/win_filter.cpp ****     count = 0;
  59              		.loc 1 12 11 is_stmt 0 view .LVU11
  60 0012 0023     		movs	r3, #0
  61 0014 0372     		strb	r3, [r0, #8]
  13:Lib/compute/filter/win_filter.cpp **** 
  62              		.loc 1 13 5 is_stmt 1 view .LVU12
  13:Lib/compute/filter/win_filter.cpp **** 
  63              		.loc 1 13 11 is_stmt 0 view .LVU13
  64 0016 4372     		strb	r3, [r0, #9]
  15:Lib/compute/filter/win_filter.cpp ****     if (pData == NULL)
  65              		.loc 1 15 5 is_stmt 1 view .LVU14
  15:Lib/compute/filter/win_filter.cpp ****     if (pData == NULL)
  66              		.loc 1 15 34 is_stmt 0 view .LVU15
  67 0018 8800     		lsls	r0, r1, #2
  68              	.LVL4:
  15:Lib/compute/filter/win_filter.cpp ****     if (pData == NULL)
  69              		.loc 1 15 34 view .LVU16
  70 001a FFF7FEFF 		bl	pvPortMalloc
  71              	.LVL5:
  15:Lib/compute/filter/win_filter.cpp ****     if (pData == NULL)
  72              		.loc 1 15 11 discriminator 1 view .LVU17
  73 001e 6060     		str	r0, [r4, #4]
  16:Lib/compute/filter/win_filter.cpp ****         return false;
  74              		.loc 1 16 5 is_stmt 1 view .LVU18
  75 0020 0028     		cmp	r0, #0
  76 0022 01D0     		beq	.L4
  19:Lib/compute/filter/win_filter.cpp **** }
  77              		.loc 1 19 12 is_stmt 0 view .LVU19
  78 0024 0120     		movs	r0, #1
  79 0026 F0E7     		b	.L2
  80              	.L4:
  17:Lib/compute/filter/win_filter.cpp **** 
ARM GAS  /tmp/ccSMd1Ht.s 			page 3


  81              		.loc 1 17 16 view .LVU20
  82 0028 0020     		movs	r0, #0
  83 002a EEE7     		b	.L2
  84              		.cfi_endproc
  85              	.LFE978:
  87              		.align	1
  88              		.global	_ZN12WindowFilter6filterEf
  89              		.syntax unified
  90              		.code	16
  91              		.thumb_func
  93              	_ZN12WindowFilter6filterEf:
  94              	.LVL6:
  95              	.LFB979:
  21:Lib/compute/filter/win_filter.cpp **** 
  22:Lib/compute/filter/win_filter.cpp **** float WindowFilter::filter(float value)
  23:Lib/compute/filter/win_filter.cpp **** {
  96              		.loc 1 23 1 is_stmt 1 view -0
  97              		.cfi_startproc
  98              		@ args = 0, pretend = 0, frame = 0
  99              		@ frame_needed = 0, uses_anonymous_args = 0
 100              		.loc 1 23 1 is_stmt 0 view .LVU22
 101 002c F0B5     		push	{r4, r5, r6, r7, lr}
 102              		.cfi_def_cfa_offset 20
 103              		.cfi_offset 4, -20
 104              		.cfi_offset 5, -16
 105              		.cfi_offset 6, -12
 106              		.cfi_offset 7, -8
 107              		.cfi_offset 14, -4
 108 002e C646     		mov	lr, r8
 109 0030 00B5     		push	{lr}
 110              		.cfi_def_cfa_offset 24
 111              		.cfi_offset 8, -24
 112 0032 0400     		movs	r4, r0
 113 0034 8846     		mov	r8, r1
  24:Lib/compute/filter/win_filter.cpp ****     count = count < win_size ? count + 1 : win_size;
 114              		.loc 1 24 5 is_stmt 1 view .LVU23
 115              		.loc 1 24 13 is_stmt 0 view .LVU24
 116 0036 437A     		ldrb	r3, [r0, #9]
 117              		.loc 1 24 21 view .LVU25
 118 0038 0678     		ldrb	r6, [r0]
 119              		.loc 1 24 11 view .LVU26
 120 003a B342     		cmp	r3, r6
 121 003c 01D2     		bcs	.L7
 122              		.loc 1 24 11 discriminator 1 view .LVU27
 123 003e 0133     		adds	r3, r3, #1
 124 0040 DEB2     		uxtb	r6, r3
 125              	.L7:
 126              		.loc 1 24 11 discriminator 4 view .LVU28
 127 0042 6672     		strb	r6, [r4, #9]
  25:Lib/compute/filter/win_filter.cpp ****     sum = sum - pData[index] + value;
 128              		.loc 1 25 5 is_stmt 1 view .LVU29
 129              		.loc 1 25 11 is_stmt 0 view .LVU30
 130 0044 E068     		ldr	r0, [r4, #12]
 131              	.LVL7:
 132              		.loc 1 25 17 view .LVU31
 133 0046 6568     		ldr	r5, [r4, #4]
 134              		.loc 1 25 23 view .LVU32
ARM GAS  /tmp/ccSMd1Ht.s 			page 4


 135 0048 237A     		ldrb	r3, [r4, #8]
 136              		.loc 1 25 28 view .LVU33
 137 004a 9B00     		lsls	r3, r3, #2
 138 004c ED18     		adds	r5, r5, r3
 139 004e 2968     		ldr	r1, [r5]
 140              	.LVL8:
 141              		.loc 1 25 15 view .LVU34
 142 0050 FFF7FEFF 		bl	__aeabi_fsub
 143              	.LVL9:
 144              		.loc 1 25 30 view .LVU35
 145 0054 4146     		mov	r1, r8
 146 0056 FFF7FEFF 		bl	__aeabi_fadd
 147              	.LVL10:
 148 005a 071C     		adds	r7, r0, #0
 149              		.loc 1 25 9 view .LVU36
 150 005c E060     		str	r0, [r4, #12]
  26:Lib/compute/filter/win_filter.cpp ****     avg = sum / count;
 151              		.loc 1 26 5 is_stmt 1 view .LVU37
 152              		.loc 1 26 15 is_stmt 0 view .LVU38
 153 005e 3000     		movs	r0, r6
 154 0060 FFF7FEFF 		bl	__aeabi_i2f
 155              	.LVL11:
 156 0064 011C     		adds	r1, r0, #0
 157 0066 381C     		adds	r0, r7, #0
 158 0068 FFF7FEFF 		bl	__aeabi_fdiv
 159              	.LVL12:
 160              		.loc 1 26 9 view .LVU39
 161 006c 2061     		str	r0, [r4, #16]
  27:Lib/compute/filter/win_filter.cpp ****     pData[index] = value;
 162              		.loc 1 27 5 is_stmt 1 view .LVU40
 163              		.loc 1 27 18 is_stmt 0 view .LVU41
 164 006e 4346     		mov	r3, r8
 165 0070 2B60     		str	r3, [r5]
  28:Lib/compute/filter/win_filter.cpp ****     index = (index + 1) % win_size;
 166              		.loc 1 28 5 is_stmt 1 view .LVU42
 167              		.loc 1 28 14 is_stmt 0 view .LVU43
 168 0072 207A     		ldrb	r0, [r4, #8]
 169              		.loc 1 28 20 view .LVU44
 170 0074 0130     		adds	r0, r0, #1
 171              		.loc 1 28 27 view .LVU45
 172 0076 2178     		ldrb	r1, [r4]
 173              		.loc 1 28 25 view .LVU46
 174 0078 FFF7FEFF 		bl	__aeabi_idivmod
 175              	.LVL13:
 176              		.loc 1 28 11 view .LVU47
 177 007c 2172     		strb	r1, [r4, #8]
  29:Lib/compute/filter/win_filter.cpp **** 
  30:Lib/compute/filter/win_filter.cpp ****     return avg;
 178              		.loc 1 30 5 is_stmt 1 view .LVU48
 179              		.loc 1 30 12 is_stmt 0 discriminator 1 view .LVU49
 180 007e 2069     		ldr	r0, [r4, #16]
  31:Lib/compute/filter/win_filter.cpp **** }
 181              		.loc 1 31 1 view .LVU50
 182              		@ sp needed
 183              	.LVL14:
 184              	.LVL15:
 185              		.loc 1 31 1 view .LVU51
ARM GAS  /tmp/ccSMd1Ht.s 			page 5


 186 0080 80BC     		pop	{r7}
 187 0082 B846     		mov	r8, r7
 188 0084 F0BD     		pop	{r4, r5, r6, r7, pc}
 189              		.cfi_endproc
 190              	.LFE979:
 192              	.Letext0:
 193              		.file 2 "/opt/arm-gnu-toolchain-14.2/arm-none-eabi/include/machine/_default_types.h"
 194              		.file 3 "/opt/arm-gnu-toolchain-14.2/arm-none-eabi/include/sys/_stdint.h"
 195              		.file 4 "/opt/arm-gnu-toolchain-14.2/arm-none-eabi/include/c++/14.2.1/cmath"
 196              		.file 5 "/opt/arm-gnu-toolchain-14.2/arm-none-eabi/include/c++/14.2.1/type_traits"
 197              		.file 6 "/opt/arm-gnu-toolchain-14.2/arm-none-eabi/include/c++/14.2.1/debug/debug.h"
 198              		.file 7 "/opt/arm-gnu-toolchain-14.2/arm-none-eabi/include/c++/14.2.1/bits/std_abs.h"
 199              		.file 8 "/opt/arm-gnu-toolchain-14.2/arm-none-eabi/include/c++/14.2.1/bits/predefined_ops.h"
 200              		.file 9 "/opt/arm-gnu-toolchain-14.2/lib/gcc/arm-none-eabi/14.2.1/include/stddef.h"
 201              		.file 10 "/opt/arm-gnu-toolchain-14.2/arm-none-eabi/include/math.h"
 202              		.file 11 "/opt/arm-gnu-toolchain-14.2/arm-none-eabi/include/c++/14.2.1/arm-none-eabi/thumb/v6-m/no
 203              		.file 12 "/opt/arm-gnu-toolchain-14.2/arm-none-eabi/include/c++/14.2.1/math.h"
 204              		.file 13 "Lib/compute/ex_math.hpp"
 205              		.file 14 "Middlewares/Third_Party/FreeRTOS/Source/include/portable.h"
ARM GAS  /tmp/ccSMd1Ht.s 			page 6


DEFINED SYMBOLS
                            *ABS*:00000000 win_filter.cpp
     /tmp/ccSMd1Ht.s:18     .text:00000000 $t
     /tmp/ccSMd1Ht.s:24     .text:00000000 _ZN12WindowFilter4initEh
     /tmp/ccSMd1Ht.s:93     .text:0000002c _ZN12WindowFilter6filterEf

UNDEFINED SYMBOLS
pvPortMalloc
__aeabi_fsub
__aeabi_fadd
__aeabi_i2f
__aeabi_fdiv
__aeabi_idivmod
